(lp1
(dp2
S'description'
p3
VMany of the passengers were elderly Americans who ... behind the crash of Flight 990. ... would kill himself by crashing a jet with 217 people aboard.
p4
sS'title'
p5
VEgyptAir Flight 990 - Wikipedia, the free encyclopedia
p6
sa(dp7
g3
VIn the case of EgyptAir Flight 990 the only information ... In parliamentary testimony six months before the crash of Flight 990, ... Many people were fond ...
p8
sg5
VThe Crash of EgyptAir 990 - William Langewiesche - The Atlantic
p9
sa(dp10
g3
VNothing special united the 217 people aboard EgyptAir's ill-fated flight 990. There were babies, teenagers and senior citizens; newlyweds and old married couples ...
p11
sg5
VEgyptAir Crash Mystery - The Canadian Encyclopedia
p12
sa(dp13
g3
VThe Crash of EgyptAir 990 ... In the case of EgyptAir Flight 990 the only information available at first was external. ... Many people were fond of him, ...
p14
sg5
VThe Atlantic | November 2001 | The Crash of EgyptAir 990 ...
p15
sa(dp16
g3
VNew developments in the ongoing investigation into the crash of Egypt Air flight 990 ... many bodies were ... happened to Flight 990 and its 217 passengers ...
p17
sg5
VThe Enterprise Mission - The REAL Mystery of Egypt Air flight 990
p18
sa(dp19
g3
V... Many people in Cairo believe a conspiracy lies behind the crash of EgyptAir Flight 990 that killed all 217 people on ... "We were introduced to all those ...
p20
sg5
VConspiracy theories abound in Cairo about EgyptAir Flight 990
p21
sa(dp22
g3
VEGYPTAIR FLIGHT 990 CRASH ... A Cairo-bound EgyptAir plane with 217 people aboard crashed off the coast of Massachusetts early ... There were 199 passengers, ...
p23
sg5
VEgyptair Flight 990 Crash ~ 10-31-1999 ~ Precognition Event Confirmed
p24
sa(dp25
g3
VA large group of Egyptian officers were aboard 990, ... CRASH of EGYPT AIR Flight 990 in 1999 The Crash of ... who gunned down 2 people from Los Angeles on ...
p26
sg5
VCRASH of EGYPT AIR 990 in 1999 - BIBLE STUDIES: WARS, JUDGEMENT ...
p27
sa(dp28
g3
VWhen EgyptAir Flight 990 went down I thought of writing a column about the passenger list. ... were on the flight, ... THE CRASH OF EGYPTAIR 990: ...
p29
sg5
VForeign Affairs; EgyptAir 990 - New York Times
p30
sa(dp31
g3
VInformation about the fatal accident involving EgyptAir Flight 990. ... with 203 passengers and 14 crew members, ... All aboard the aircraft were killed.
p32
sg5
VEgyptAir Flight 990 Accident Information - Plane Crash, Airline ...
p33
sa(dp34
g3
VAmong the passengers were ... What we know about the Egypt Air crash ... I believe the reason there\u2019s been such stunning silence about Egypt Air Flight 990 ...
p35
sg5
VAnother look at Egypt Air crash - WND - A Free Press for a Free People
p36
sa(dp37
g3
VFamilies of Flight 990 passengers flying ... to console relatives of passengers who may have perished aboard ... members were on board the EgyptAir flight.
p38
sg5
VCNN - Families of Flight 990 passengers flying from Egypt to New ...
p39
sa(dp40
g3
VU.S. and Egyptian authorities listed 199 passengers aboard EgyptAir 990, ... killing 230 people, were taking roughly the ... of what caused the crash of flight 990 ...
p41
sg5
VWashingtonpost.com: 217 Feared Dead in EgyptAir Crash
p42
sa(dp43
g3
V... investigators were looking into a connection between those attacks and the crash of EgyptAir flight 990, which ... among the passengers on Flight 990. ...
p44
sg5
VWas EgyptAir Flight 990 the Prelude to September 11th?
p45
sa(dp46
g3
VMany questions raised by Egyptair Flight 990 crash ... killing 229 people. All three jets were ... While more than 1,000 flights a day originate at Kennedy, many ...
p47
sg5
VMany questions raised by Egyptair Flight 990 crash - World ...
p48
sa(dp49
g3
VI lived in Egypt for many years and travelled on Egypt Air flights on a ... friends of passengers aboard flight 990. ... were very saddened to hear about the crash ...
p50
sg5
VBBC News | Talking Point | EgyptAir Boeing 767 crash - Your Reaction
p51
sa(dp52
g3
VThe Coast Guard is giving up hope that survivors will be found from Sunday morning's crash of EgyptAir Flight 990. ... passengers aboard were about ...
p53
sg5
VOnline NewsHour: Egyptian plane crashes -- November 1, 1999
p54
sa(dp55
g3
V... Almost a month after EgyptAir Flight 990 plunged into ... Atlantic with 217 people aboard included more ... of many of the victims were made public ...
p56
sg5
VEgyptair crash | Special reports | guardian.co.uk
p57
sa(dp58
g3
VA draft of the final U.S. report on the crash of EgyptAir Flight 990 does ... the crash that killed all 217 people aboard, ... passengers and crew were ...
p59
sg5
VArticles about Egyptair - Los Angeles Times
p60
sa(dp61
g3
VThe Crash of EgyptAir 990 ... citing the presence of 30 Egyptian military officers aboard the flight and ... Many Muslims were particularly incensed that American ...
p62
sg5
VEgyptAir - Trinity College
p63
sa(dp64
g3
V... I'm going to start trying to get EgyptAir Flight 990 ... It is the conclusion of many that it was deliberate. THe people ... Cause of crash: "Flight ...
p65
sg5
VTalk:EgyptAir Flight 990 - Wikipedia, the free encyclopedia
p66
sa(dp67
g3
VEGYPT AIR FLIGHT 990 ... were to happen again, ... medical portion of the crash, so that several different people would not duplicate efforts.
p68
sg5
VEGYPT AIR FLIGHT 990 - US Coast Guard Home
p69
sa(dp70
g3
VAll 217 passengers and crew including two Egyptian ... were killed in the crash. ... The investigation of the Egypt-Air flight 990 caused political tension between ...
p71
sg5
VGlobal Jihad - EGYPT-AIR FLIGHT 990
p72
sa(dp73
g3
VThe 33 Egyptian military officers aboard EgyptAir Flight 990 had been in the ... into the crash, said there were no "declared ... its people were doing ...
p74
sg5
VEgyptAir Flight 990 - Questions persist over 33 military officers ...
p75
sa(dp76
g3
VThe latest data from the EgyptAir Flight 990 voice ... expecting it to explain the many problems of this crash. Early flight ... killing all aboard. ...
p77
sg5
VPilots ponder the mysteries of EgyptAir crash - Salon.com
p78
sa(dp79
g3
VNine months after the crash of EgyptAir Flight 990 off the eastern coast of the United States, killing all 217 people ... the crash of Flight 990 were aware of ...
p80
sg5
VAl-Ahram Weekly | Home News | Crash probe far from over
p81
sa(dp82
g3
VMysterious Cause of EgyptAir Flight 990 Crash ... and flight controls were ... for many years, but as time goes by, people forget what it ...
p83
sg5
VRemote Viewers Uncovered It First!
p84
sa(dp85
g3
VAbout 30 of the 217 people aboard were from the Egyptian ... the probe into last year's EgyptAir Flight 990 crash to explain high ... against Egyptair flights ...
p86
sg5
VEgyptair 990 - The "Hull Thread" Home Page
p87
sa(dp88
g3
VIn reporting the crash of EgyptAir Flight 990 on ... The nose wheel doors were blown in and the right nose wheel and tire were badly mangled. Some people have ...
p89
sg5
VTWA Flight 800 And Egypt Flight 990 - Accuracy In Media
p90
sa(dp91
g3
VMore about the crash of flight 990. Share; ... incidents since 1970 involving EgyptAir flights \u2022On January ... members and 58 of the 90 passengers were ...
p92
sg5
VThe mystery of flight 990 | World news | The Guardian
p93
sa(dp94
g3
VEgypt Air Crash: The Hidden Hand ... who is a vice president of an American civil agency was one of the passengers of Egypt flight form Los ... There were 34 generals ...
p95
sg5
VEgypt Air Crash: The Hidden Hand Behind the Disaster
p96
sa(dp97
g3
V... where Egyptair Flight 990 crashed in October. ... the scene at the crash site: ... All 217 people aboard the Boeing 767 were killed. In Seattle, ...
p98
sg5
VSFO-Bound Alaska Airlines Jet Crashes - SFGate
p99
sa(dp100
g3
VAmong the passengers were twelve WATERGATE figures, including Mrs. E. Howard Hunt, wife of the Watergate burglar. ... Regarding the crash of EgyptAir Flight 990, ...
p101
sg5
VSherman Skolnick's Report
p102
sa(dp103
g3
V... and claimed that he had information on the crash of Flight 990. ... were aboard the EgyptAir flight that plunged into the Atlantic killing all 217 people aboard.
p104
sg5
VThe Untold Story of Lynne Stewart and Egyptair Flight 990 - Scribd
p105
sa(dp106
g3
VJohn F. Kennedy Jr. Flight Weather and pilot decisions were ... Egyptair Flight 990 The deadliest crash ... 990, a Boeing 767 with 217 people aboard ...
p107
sg5
V1999: Sorrow In The Skies - CBS News - Breaking News Headlines ...
p108
sa(dp109
g3
VDATE=11/2/1999 TYPE=CORRESPONDENT REPORT TITLE=EGYPT AIR CRASH (L) ... Friends and family members of the 217-people killed aboard Egypt Air Flight-990 are ...
p110
sg5
VEGYPT AIR CRASH - GlobalSecurity.org - Reliable Security Information
p111
sa(dp112
g3
VMysterious Cause of EgyptAir Flight 990 Crash ... and flight controls were ... for many years, but as time goes by, people forget what it ...
p113
sg5
VRemote Viewers Uncovered It First! - The Ultimate Remote Viewing ...
p114
sa(dp115
g3
V... U.S. agencies after last year's crash of EgyptAir Flight 990 off the ... 217 people aboard on ... records were used to determine the ...
p116
sg5
VArticles about Airplane Accidents Massachusetts by Date - Page 2 ...
p117
sa(dp118
g3
VOfficials close to the investigation into the crash of EgyptAir Flight 990 said a relief co ... Barre and all 19 people aboard were killed. Links: Air Crash, ...
p119
sg5
VTimeline - Air Crash
p120
sa(dp121
g3
VThe crash of Egypt Air flight 990 out of New York in ... a number of red flags were raised. After taking on passengers ... the plane and killed all those aboard took ...
p122
sg5
VEnterprise Mission - Will 'X' Mark the Date?: Part 3
p123
sa(dp124
g3
VThe Pilot Aboard Last Week's Korean Plane Crash Had ... Officer aboard EgyptAir Flight 990 ... people were killed when SilkAir Flight 185 ...
p125
sg5
VThe Pilot Aboard Last Week's Korean Plane Crash Had Just Taken Out ...
p126
sa(dp127
g3
V... Cause of EgyptAir Flight 990 Crash 11 ... who lost loved ones aboard that flight, Art. And as many of ... the passengers. The passengers were oblivious to ...
p128
sg5
VEd Dames on Art Bell - Cause of EgyptAir Flight 990 Crash 11-11-99 ...
p129
sa(dp130
g3
VDATE=11/2/1999 TYPE=CORRESPONDENT REPORT TITLE=EGYPT AIR CRASH (L) ... Friends and family members of the 217-people killed aboard Egypt Air Flight-990 are ...
p131
sg5
VEGYPT AIR CRASH - Federation of American Scientists
p132
sa(dp133
g3
V... but the crash of EgyptAir 990 began ... the 217 people aboard Flight 990 had too ... Investigators were so puzzled by the crash of Flight 990 that they ...
p134
sg5
VThe Fatal Plunge - Newsweek and The Daily Beast
p135
sa(dp136
g3
VNTSB blames co-pilot for EgyptAir crash. ... --Investigators found probable cause that the co-pilot of EgyptAir Flight 990 ... All 217 people on board were ...
p137
sg5
VCNN.com - NTSB blames co-pilot for EgyptAir crash - March 21, 2002
p138
sa(dp139
g3
V... Flight 990 with 217 people mysteriously ... EgyptAir A China Northern Airlines plane with 112 people aboard crashes into the ... At least 20 people were on ...
p140
sg5
VCBSNews.com - Breaking News Headlines: Business, Entertainment ...
p141
sa(dp142
g3
VThe Crash Of Flight 990. ... praying and clinging to the dimming hope that the couple were not aboard EgyptAir Flight 990, ... passengers and crew members ...
p143
sg5
VJohn Simermeyer | Families in Md. fear the worst - Baltimore Sun
p144
sa(dp145
g3
VCommenting on the cause of the crash of EgyptAir Flight 990, ... Many Muslims were angry at what they saw as the ... Before people embark on a semipermanent ...
p146
sg5
VThe Mystery Of Flight 990 - Newsweek and The Daily Beast
p147
sa(dp148
g3
VDATE=10/31/1999 TYPE=CORRESPONDENT REPORT TITLE=EGYPT PLANE CRASH (L) ... Sunday) there were 214 passengers on ... Egypt Air Flight-990 originated ...
p149
sg5
VEGYPT PLANE CRASH - Federation of American Scientists
p150
sa(dp151
g3
V217 lives were lost when EgyptAir Flight 990 went down. ... and family of the passengers and crew aboard) ... , 1999, after the crash of EgyptAir Flight 990.
p152
sg5
V11-26-99 - Flavin's Corner
p153
sa(dp154
g3
VDATE=10/31/1999 TYPE=CORRESPONDENT REPORT TITLE=EGYPT PLANE CRASH (L) ... Sunday) there were 214 passengers on ... Egypt Air Flight-990 originated ...
p155
sg5
VEGYPT PLANE CRASH - Federation of American Scientists
p156
sa(dp157
g3
V217 lives were lost when EgyptAir Flight 990 went down. ... and family of the passengers and crew aboard) ... , 1999, after the crash of EgyptAir Flight 990.
p158
sg5
V11-26-99 - Flavin's Corner
p159
sa(dp160
g3
VOn EgyptAir Flight 990, all 167 people lost their lives; and all 88 passengers aboard Alaska Air Flight 461 were ... crash. In my opinion, and the opinion of many ...
p161
sg5
VAre Airplanes Safe? - :: Free Essays :: Paper Writing :: Book ...
p162
sa(dp163
g3
VThe U.S. Coast Guard recovers debris from the EgyptAir crash last ... EgyptAir Flight 990 took off early on October 31 ... All 217 people aboard were ...
p164
sg5
VCNN.com - EgyptAir crash tape released - May 16, 2000
p165
sa(dp166
g3
VAll 230 passengers were ... play involved in the crash of TWA Flight 800, many still insist that a ... Crash of EgyptAir Flight 990 The Roswell New ...
p167
sg5
VThe TWA Flight 800 Tragedy - Historic Mysteries
p168
sa(dp169
g3
VEGYPT AIR FLIGHT 990 ... minimal if this were to ... medical portion of the crash, so that several different people would ...
p170
sg5
VEGYPT AIR FLIGHT 990 - Docstoc \u2013 We Make Every Small Business Better
p171
sa(dp172
g3
VSteve Allen grieves the loss of his mother and sister Oct. 31 aboard EgyptAir Flight 990. ... of the EgyptAir plane crash off ... how angry some people were."
p173
sg5
V[www.KitsapSun.com] Archives: November, 1999
p174
sa(dp175
g3
VNews of the 31 October 1999 Egypt Air flight 990 crash at sea caused me to ... officers aboard Egypt Air flight 990. ... from the flights of 9/11 were all ...
p176
sg5
Vusaf ec-135n & egyptair flight 990 - metatron
p177
sa(dp178
g3
VAmong the passengers were twelve WATERGATE figures, including Mrs. E. Howard Hunt, wife of the Watergate burglar. ... Regarding the crash of EgyptAir Flight 990, ...
p179
sg5
VAIR CRASHES, BLACK BOXES, and UNSAFETY BOARDS---EgyptAir Flight ...
p180
sa(dp181
g3
V... the passengers knew they were going to die. ... killing all 132 aboard. ... with 217 dead in the Oct. 31 crash of EgyptAir Flight 990, ...
p182
sg5
V"Settling Up: How Lawyers Build A Case To Make Corporations Pay ...
p183
sa(dp184
g3
VFBI MAY TAKE OVER INVESTIGATION OF EGYPTAIR 990 CRASH. ... with the flight data recorder The flight ... so fast that passengers were rendered ...
p185
sg5
VFBI MAY TAKE OVER INVESTIGATION OF EGYPTAIR 990 CRASH. - Free ...
p186
sa(dp187
g3
VEgyptAir Flight 990 carrying 33 passengers from ... that all 217 aboard were ... route taken by EgyptAir flight 990 is standard for many flights ...
p188
sg5
VQueens Tribune Feature Story
p189
sa(dp190
g3
VThe NTSB said el-Batouty was alone in the cockpit when EgyptAir Flight 990 ... i know many people are going ... One crash? Or many, because their reasons were ...
p191
sg5
VEgyptair 990 Co-pilot Crashed The Plane \u2014 Civil Aviation Forum ...
p192
sa(dp193
g3
VIn all incidents \u2014 except Flight 990 \u2014 passengers aboard the flight were ... both appeared paranoid that their flight would crash. ... EgyptAir Flight 990, ...
p194
sg5
VScreening Process For Pilots, Flight Attendants Questioned After ...
p195
sa(dp196
g3
VServices were held in Canada and the U.S. Sunday to honour the 217 people killed a week ago when EgyptAir Flight 990 ... at the crash site when the seas ... many of ...
p197
sg5
VFamilies mourn victims of EgyptAir crash - World - CBC News
p198
sa(dp199
g3
VEgyptian officials investigating the crash of EgyptAir Flight 990 say the ... killing all 217 aboard. ... to the cheer of thousands of orange-clad people ...
p200
sg5
VFlight 990 crash likely won't be treated as criminal act - World ...
p201
sa(dp202
g3
VIn Nepal a Canadian built Twin Otter Royal Nepal Airlines plane crashed near Jogbudha and all 25 people aboard were ... crash of EgyptAir Flight 990 off the New ...
p203
sg5
VTimeline - Air Crash
p204
sa(dp205
g3
VAt least 88 passengers and crew members were aboard ... Reconstruction of the crash of Flight 261. ... At least 10 people survived. Last Oct. 31, EgyptAir Flight 990 ...
p206
sg5
VBoston.com / Latest News / Nation
p207
sa(dp208
g3
VCrewmembers aboard Rude assist with debris recovery following the TWA ... Egypt Air Flight 990 Plane Crash: ... Killed in the crash were 217 passengers and crew.
p209
sg5
VNOAA 200th Feature Stories: Disaster Response
p210
sa(dp211
g3
VLost with her in the crash were her ... Southern California that killed all 88 people aboard the flight from ... EgyptAir Flight 990 plummeted into the ocean 60 ...
p212
sg5
VFLIGHT 261 - PLANE CRASH - CALIFORNIA - 1-31-2000
p213
sa(dp214
g3
VThe Crash of Flight 93 ... between the hijackers and passengers who had rushed them in an attempt to ... describing Flight 93 and its crash site, there were a number ...
p215
sg5
V9-11 Research: The Crash of Flight 93
p216
sa(dp217
g3
VOn EgyptAir Flight 990, all 167 people lost their lives; and all 88 passengers aboard Alaska Air Flight 461 were killed ... but when there is a crash, ...
p218
sg5
VI s Air Transport the safest & most convenient mode of transport ...
p219
sa(dp220
g3
VInvestigators were drawn to Gamil al ... a Boeing 767 with 217 people aboard, ... As the inquiry into the crash of EgyptAir Flight 990 moves into a delicate ...
p221
sg5
VGamil al-Batouti News - The New York Times
p222
sa(dp223
g3
VEgyptair Flight 990 was a flight that flew on a Los Angeles-New ... Several days after the crash, many people, ... There were high-ranking Egyptian military ...
p224
sg5
VEgyptAir Flight 990 - Definition | WordIQ.com
p225
sa(dp226
g3
VEgypt Air Flight 990 Plane Crash. ... in the KLM plane were killed, and 326 passengers and 9 crew members ... passengers and 5 crewmembers aboard the Pan ...
p227
sg5
VFacts about Tenerife Plane Crash - FactsnFacts.com
p228
sa(dp229
g3
Vwere involved in a Plane crash on Egypt Air Flight 990 ... who on aboard EgyptAir Flight 990, ... other passengers in EgyptAir Flight 990 - October 31, ...
p230
sg5
VHow can I get the data as to the passenger list of airplane... - Q&A
p231
sa(dp232
g3
VThe tragic crash of EgyptAir Flight 990 raised ... their experience is all brought to bear in providing the many safe flights that we have ... where 580 people were ...
p233
sg5
VIssues Arising Out of the Egypt Air Crash
p234
sa(dp235
g3
VAll eight people aboard the jet were fatally ... AIR PHILIPPINES FLIGHT 541 The April 19, 2000, crash of Air Philippines Flight 541 near Davao ... EGYPT AIR FLIGHT 990
p236
sg5
VAviation Attorney Network-Current Aviation Case
p237
sa(dp238
g3
VSome 48 people were still unaccounted for after the crash of ... There were 159 passengers and 20 crew aboard ... after EgyptAir Flight 990 crashed ...
p239
sg5
V47 confirmed dead in Singapore Airlines crash - Blue Sky
p240
sa(dp241
g3
VTo many people\u2014certainly to this writer\u2014it ... confirm that the military exercise zones were open to civilian flights during ... The EgyptAir 990 crash, ...
p242
sg5
VThe Fall of EgyptAir 990 by Elaine Scarry | The New York Review of ...
p243
sa(dp244
g3
VAll 74 aboard were killed. 2001, 11th ... A Vladivostok Avia TU-154 crashed at Irkusk killing all 145 passengers aboard. ... An EgyptAir Flight 990 Boeing 767 went ...
p245
sg5
VAir crashes
p246
sa(dp247
g3
VFew remains were found of the 217 people aboard. ... The crash of EgyptAir Flight 990 has been a hot-button issue in the Egyptian press.
p248
sg5
VUFO Roundup: The Latest UFOlogy News and Sighting Reports
p249
sa(dp250
g3
VEgypt Air 990 The mystery surrounding the crash of EgyptAir flight 990 in ... into a mountain in Greece after the flight crew and passengers were rendered ...
p251
sg5
Vair crash investigation Episode Guide and Episode List on TVGuide ...
p252
sa(dp253
g3
VSix of those survivors were minors and four were crew ... Ninety-one other people aboard Flight 508 died. ... EgyptAir 990 over the Atlantic. Pan Am 103 over ...
p254
sg5
VChildren Survivors - Plane Crash Survival | TheSurvivorsClub.org
p255
sa(dp256
g3
V... the scene at the Flight 261 crash was much like the one at EgyptAir 990 and ... where EgyptAir Flight 990 ... 83 passengers and five crew members were aboard ...
p257
sg5
VS.F.-BOUND JET PLUNGES INTO SEA -- 88 FEARED DEAD / In darkness ...
p258
sa(dp259
g3
VThis section contains the names of sailors who served aboard USS ... All 217 passengers ... efforts following the crash of Egypt Air Flight 990 off the ...
p260
sg5
VUSNS Grapple (T-ARS 53) - Unofficial US Navy Site
p261
sa(dp262
g3
VThe crash of American Airlines Flight 587 shocked ... after EgyptAir Flight 990 plunged into ... father were among the 260 people on the flight bound ...
p263
sg5
VUSATODAY.com - Plane crash victims' families gather in neighborhood
p264
sa(dp265
g3
VAll 217 people on board were ... portions of the accident flight and during previous flights and ground ... to kill himself or others aboard EgyptAir flight 990 ...
p266
sg5
VEgyptAir final layout - AirDisaster.Com
p267
sa(dp268
g3
V... Egyptian officials try to stop the finger-pointing about the Flight 990 crash. ... sabotage of EgyptAir Flight 990, ... 217 people aboard. ...
p269
sg5
VRush to judgment? - Salon.com
p270
sa(dp271
g3
V... from Orville Wright's ill-fated flight of September 1908 to the 1999 crash of EgyptAir Flight 990. ... Many Earth-observing satellites are nearing the end of ...
p272
sg5
VNOVA | Mysterious Plane Crashes - PBS: Public Broadcasting Service
p273
sa(dp274
g3
V... Jr. in a plane crash off the coast of Martha\u2019s ... precisely what happened aboard Egypt Air Flight 990. ... of People Magazine, were cut ...
p275
sg5
VWhat Actually Happened to John F. Kennedy, Jr.? by Christopher Condon
p276
sa(dp277
g3
VEgyptAir Flight 990 Recovered Flight Data Recorder. ... Crash Impact ; Static Crush ; Pin Drop ; ... and those passengers were treated like royalty!
p278
sg5
VFlight Data Recorders - MikeNV on HubPages
p279
sa(dp280
g3
V... about the cause of the crash such as EgyptAir Flight 990 ... passengers on the Arrow Air flight were deplaned ... allowed aboard contract-carrier flights.
p281
sg5
VArrow Air Flight 1285: Canada\u2019s Worst Aviation Disaster Remains ...
p282
sa(dp283
g3
VDespite many theories, the causes of the crash will likely ... and some lessons for your next flight. First, many people believe that ... EgyptAir 990 over ...
p284
sg5
VThe Mystery of Air France #447 (and How Safe is Air Travel ...
p285
sa(dp286
g3
VThere were plenty of ... killing at least 79 of the 179 people aboard. ... While families of the Egyptair Flight 990 crash attended a multi-faith memorial ...
p287
sg5
VDisaster News Network - Reporting disasters and response efforts
p288
sa(dp289
g3
V... The co-pilot caused EgyptAir Flight 990 to crash into ... Most conversations were in ... The investigators spent many days interviewing people who knew ...
p290
sg5
VWorldandnation: Crash was intentional, U.S. says
p291
sa(dp292
g3
VSimulator tests conducted after the crash showed that other DC-10 crews were unable to ... controls of EgyptAir Flight 990 is ... people aboard the flight on Oct ...
p293
sg5
VBeyond survival: Life's trials continued for pilot after 1989 ...
p294
sa(dp295
g3
VThank Goodness the Lufthansa plane and its passengers were OK and made ... homicidal crash of the flight in 1999 ... run training flight egyptair flight 990.
p296
sg5
V\u201cAccident\u201d or Jihad?: Egyptian Pilot\u2019s Near Miss @ JFK Airport
p297
sa(dp298
g3
VLauda & Egyptair 767 Were Completed At Same Time! A theory of some people is that the Egypt Air and Lauda Air B-767 ... Does anyone know why Egyptair flight 990 Crash ...
p299
sg5
VEgyptair 767 Crash Investigation | Civil, Military & Hobby ...
p300
sa(dp301
g3
VNonfiction by David Ewald, Eclectica Magazine v16n3 ... I'm sitting on concrete. It's not cold. The sun is warming the right side of my face and neck.
p302
sg5
VOn the Twelfth Anniversary of the Crash of Alaska Airlines Flight ...
p303
sa.