(lp1
(dp2
S'description'
p3
VThe first record of the outbreak in Hong Kong appeared on ... genes from avian influenza viruses. The new subtypes arose ... Hong Kong flu strain shared ...
p4
sS'title'
p5
VHong Kong flu - Wikipedia, the free encyclopedia
p6
sa(dp7
g3
VHong Kong on standby for H7N9 outbreak as China confirms three new ... cases of H7N9 avian flu in Hong Kong in the next ... appeared in the South ...
p8
sg5
VHong Kong on standby for H7N9 outbreak as China confirms three new ...
p9
sa(dp10
g3
V... possibly creating a new virulent influenza strain that is easily transmissible ... The Thailand outbreak of avian flu caused massive ... "Hong Kong flu" 2009;
p11
sg5
VAvian influenza - Wikipedia, the free encyclopedia
p12
sa(dp13
g3
VHong Kong-listed shares of Chinese ... The CDC hopes to receive a virus isolate or isolates from China within the next ... Concerns Grow About New Avian ...
p14
sg5
VConcerns Grow About New Avian-Flu Strain - WSJ.com
p15
sa(dp16
g3
VAvian Influenza: Hong Kong Outbreak 1. ... a 2-year-old boy developed flu ... An interesting finding was that the very young appeared resistant. Only two out of ...
p17
sg5
VVM138/VM103: Avian Influenza: Hong Kong Outbreak
p18
sa(dp19
g3
V... avian influenza outbreak among poultry in 20 years. This was an outbreak of avian ... Hong Kong, Special ... Two cases of highly pathogenic avian ...
p20
sg5
VCDC - Avian Influenza (Flu) | Avian Influenza A Virus Infections ...
p21
sa(dp22
g3
VHong Kong is on standby as a new strain of bird flu continues ... Hong Kong on high alert for bird flu next ... the growing number of cases of avian flu in ...
p23
sg5
VHong Kong on high alert for bird flu next door in China - World ...
p24
sa(dp25
g3
VBEIJING\u2014Concerns about a deadly new strain of bird flu intensified last week as the disease claimed a sixth life in eastern China and agricultural authorities in ...
p26
sg5
VConcerns Grow About New Avian-Flu Strain - Wall Street Journal ...
p27
sa(dp28
g3
VSwine Influenza A Outbreak, Fort Dix, New Jersey, ... a new avian flu virus appeared. The new virus caused illness in two children in Hong Kong.
p29
sg5
VPandemic Flu History | Flu.gov
p30
sa(dp31
g3
VThe H5 strain of avian flu has hit ... including the probability that a person will be infected with bird flu in Hong Kong ... Two forest fires in New ...
p32
sg5
VThe next pandemic? - CBC News In Depth: Avian Flu
p33
sa(dp34
g3
VThe first record of the outbreak in Hong Kong appeared on ... genes from avian influenza viruses. The new subtypes arose ... Hong Kong flu strain shared ...
p35
sg5
VThe 1968 Hong Kong Flu - Influenza Virus Net - Flu News ...
p36
sa(dp37
g3
V... outbreak of 1918-19 was a strain of avian or bird flu. ... within three days \u2013 of Hong Kong\u2019s entire ... children occurred in Hong Kong in 1999 (two ...
p38
sg5
VBird Flu and the Great Flu Pandemic of 1918-19
p39
sa(dp40
g3
VAppearance of a new influenza strain in humans H9N2 Appeared for ... strain in humans H5N1 Caused two Hong Kong ... avian (bird), and pandemic flu.
p41
sg5
VTimeline of Human Flu Pandemics - National Institutes of Health (NIH)
p42
sa(dp43
g3
VSince only 11 years had passed between the two ... among poultry in Hong Kong was traced to the H5N1 virus strain ... An outbreak of avian flu will severely ...
p44
sg5
VAvian Flu: Preparing for a Pandemic
p45
sa(dp46
g3
V... and the H3N2 \u201cHong Kong flu\u201d of ... Healthy persons two to 64 years of age with no high-risk ... Swine influenza A outbreak, Fort Dix, New Jersey, ...
p47
sg5
VAvian Influenza: Preparing for a Pandemic - September 1, 2006 ...
p48
sa(dp49
g3
V... as in A/Chicken/Hong Kong/G9 ... with avian and human flu simultaneously, the two types of ... to make the new strain of virus often ...
p50
sg5
VThe Flu Types\u2014Seasonal, Pandemic, Avian (Bird), Swine
p51
sa(dp52
g3
VHong Kong-listed shares of ... The CDC hopes to receive a virus isolate or isolates from China within the next week ... Concerns Grow About New Avian-Flu Strain.
p53
sg5
VConcerns Grow About New Avian-Flu Strain - Barrons.com
p54
sa(dp55
g3
V... died from H7N9 in early March within two weeks of ... to confirm that the cases involved the new strain of the avian flu. ... Hong Kong is also reported to ...
p56
sg5
VAvian Flu Strain H7N9 Kills 2 in China | China Power
p57
sa(dp58
g3
VThe appearance of several new flu strains in humans over the past few years \u2014 including the H5N1 "avian flu" strain in the late ... Caused two Hong Kong family ...
p59
sg5
VLessons Found in History of Flu Pandemics | LiveScience
p60
sa(dp61
g3
V... There was negative news flow on a new strain of avian flu ... During the peak of the SARS outbreak, Hong Kong\u2019s Cathay Pacific ... Two new bird flu cases in ...
p62
sg5
VNew avian flu may have impact on aviation - Yahoo! News Malaysia
p63
sa(dp64
g3
VA new strain of avian flu that jumped ... seven years has been diagnosed in Hong Kong, ... responded to a recent avian flu outbreak on a English ...
p65
sg5
VBird Flu: News & Videos about Bird Flu - CNN.com
p66
sa(dp67
g3
VAvian flu has two forms, ... A 1983-84 outbreak of avian flu in Pennsylvania began with low mortality, ... A rapid response by Hong Kong authorities ...
p68
sg5
VFast Facts on Avian Flu - ABC News - ABCNews.com - Breaking News ...
p69
sa(dp70
g3
VWithin three days, Hong Kong's entire chicken population ... for two new influenza drugs that ... been infected with a deadly strain of avian flu ...
p71
sg5
VAvian Flu : Web focus : Nature - Nature Publishing Group : science ...
p72
sa(dp73
g3
V... the biggest drop in Hong Kong stocks ... a new strain of bird flu rose to six people ... outbreak in more than 40 years and ...
p74
sg5
VChina Bird Flu Deaths Rise to Six, Poultry Markets Shut - Bloomberg
p75
sa(dp76
g3
VThe global flu-watching network first spotted the avian influenza threat in Hong Kong in ... drugs to prevent or treat a new flu ... take two years .Source: World ...
p77
sg5
VBay Area technicians on alert for avian flu / State's Richmond ...
p78
sa(dp79
g3
VBird flu, or avian flu, ... Bird flu hitting Asia again? Hong Kong kills 17,000 chickens. ... See Miley through the years;
p80
sg5
VBird flu hitting Asia again? Hong Kong kills 17,000 chickens ...
p81
sa(dp82
g3
VTwo more people have died from a new strain of avian ... checkpoint in Hong Kong April 11, 2013. New rapid tests ... an outbreak of a new strain of bird flu, ...
p83
sg5
VChina's bird flu outbreak not cause for panic: WHO | World | News ...
p84
sa(dp85
g3
VThe United States has yet to meet the challenges that avian flu ... outbreak of ''bird flu.'' That strain ... Hong Kong reporting two more cases of a new ...
p86
sg5
VH1N1 (Swine) Influenza - The New York Times - Breaking News, World ...
p87
sa(dp88
g3
VAvian flu; H5N1; Indonesia bird flu ... Bird flu strikes Hong Kong once again - 17,000 chickens killed; ... New strain of bird flu kills two men in China.
p89
sg5
VIndonesian man latest death from bird flu - National Healthcare ...
p90
sa(dp91
g3
VOn the 11th of May 1997 a three year old boy in Hong Kong ... How has avian flu progressed since the first outbreak ... before the outbreak. It is a new strain ...
p92
sg5
VAvian flu, (chicken flu), swine flu, viruses and influenza.
p93
sa(dp94
g3
VBird Flu / Avian Influenza. There has ... in Virginia following a poultry outbreak. 2003 H5N1. Caused two Hong Kong family members to be ... because this flu strain, ...
p95
sg5
VBird Flu / Avian Influenza - GlobalSecurity.org - Reliable ...
p96
sa(dp97
g3
VNew flu strain. In Hong Kong, ... Hong Kong saw the world's first case of H5N1 avian flu in 1997. The outbreak, ... Two years since the start of the uprising, ...
p98
sg5
VChina says patients with bird flu critical - Asia-pacific - Al ...
p99
sa(dp100
g3
V"An outbreak, therefore, may be years ... flu epidemics from Spain to Russia and Hong Kong had killed millions of ... of Avian Flu (Hardcover), New Press (October ...
p101
sg5
VAvian flu pandemic - SourceWatch
p102
sa(dp103
g3
V... same time and with the same strain that was infecting Hong Kong's ... to a new subtype of the flu ... has a known avian flu outbreak try to avoid ...
p104
sg5
VCenter for Health and Health Care in Schools - Avian Flu Fact Sheet
p105
sa(dp106
g3
VMild Bird flu: the birds appeared to be normal but show ... identified is Hong Kong in ... another outbreak of the Avian influenza, a few years ago it hit ...
p107
sg5
VAvian Influenza Bird Flu - dilipchandra12 on HubPages
p108
sa(dp109
g3
V\u2022 Deadly H5N1 Avian Flu Found in Hong Kong ... Two in Bali \u2022 Bird flu outbreak, strain H5N1 ... swine flu vaccination . This new strain appeared to be closely ...
p110
sg5
VSwine Flu, Bird Flu, Avian Flu, Avian Influenza, Pandemic ...
p111
sa(dp112
g3
V... Three years into the outbreak of the H5N1 avian flu virus, two international teams ... people appeared in Hong Kong ... new virus strain capable ...
p113
sg5
VAvian Flu Watch
p114
sa(dp115
g3
V... and then in Hong Kong in 1997. Hong Kong's avian flu outbreak ... Within three days, Hong Kong's ... for next pandemic was that the new flu strain would ...
p116
sg5
Vbird flu - definition of bird flu in the Medical dictionary - by ...
p117
sa(dp118
g3
V... April 15, 2013 Last month, a new strain of flu ... plan during a possible flu outbreak. Hong Kong ... for over the last 10 years in Hong Kong.
p119
sg5
VKwiksure Discusses Advantages of Private Health Insurance Benefits ...
p120
sa(dp121
g3
VGet the seasonal and pandemic flu information you need at Flu.gov. Skip Navigation. Home ... A new and potentially lethal Avian Influenza A (H7N9) virus is present in ...
p122
sg5
VHome | Flu.gov
p123
sa(dp124
g3
VChina said it was mobilizing resources nationwide to combat a new strain of deadly bird flu that has killed five people, as Japan and Hong Kong ... an avian virus ...
p125
sg5
VChina Mobilizes to Fight New Bird Flu; Japan, HK on Guard
p126
sa(dp127
g3
V... (localized circulation of a known strain). The 1997 Hong Kong outbreak ... and then within the next ... only two years ago, an avian flu outbreak in Hong ...
p128
sg5
VThe 1918 Spanish Flu Pandemic and the Hong Kong Incident at SARS ...
p129
sa(dp130
g3
VThe 1997 Hong Kong outbreak of an avian ... diseases/flu_1997.htm) detected new cases of human ... in recent years (1976, United States; 1997, Hong Kong) ...
p131
sg5
VThe Next Influenza Pandemic: Lessons from Hong Kong, 1997 - Vol. 5 ...
p132
sa(dp133
g3
VA/chicken/Hong Kong/220/97 (H5N1) 1997 : New ... the viral strain and species of host. Ferrets appeared to mirror ... aquatic poultry in Hong Kong SAR. Avian ...
p134
sg5
VInfluenza Book | Avian Influenza
p135
sa(dp136
g3
VA study from Hong Kong ... virus has been present in birds for more than two years. ... would be in slowing the spread of a pandemic from a new virus strain.
p137
sg5
VWHO | Avian influenza: food safety issues
p138
sa(dp139
g3
VAuthorities in Shanghai said on Thursday two more people in the city had died from the rare H7N9 avian flu, ... flu has appeared ... in Hong Kong \u2014 and more recent ...
p140
sg5
VFifth bird flu death as China sounds high alert - The Hindu
p141
sa(dp142
g3
VA pandemic would happen if a new flu virus began ... There are prototypes that could protect against the H5N1 strain. Research shows two doses ... (Hong Kong flu).
p143
sg5
VBird flu (Avian flu) - NetDoctor.co.uk - The UK's leading ...
p144
sa(dp145
g3
VThe detection of the virus in Lagos will raise fears that Nigeria's outbreak H5N1 strain of bird flu, ... sent to Hong Kong for ... two new cases in a wild bird and ...
p146
sg5
VAvian Flu - What we need to know
p147
sa(dp148
g3
VYet Ngoan's death and more than 50 others in Southeast Asia over the past two years ... new flu subtype appeared, ... strain of H5N1 cropped up in Hong Kong ...
p149
sg5
VKiller Flu, Tracking the Next Killer Flu - National Geographic ...
p150
sa(dp151
g3
V... Hong Kong, Taiwan and elsewhere. Bird flu story source: AFP ... New bird flu strain requires vigilance ... Within the next few weeks we will be adding an avian ...
p152
sg5
VBird flu - Bird flu Symptoms - Avian Influenza
p153
sa(dp154
g3
V... Hong Kong, Taiwan and elsewhere. Bird flu story source: AFP ... New bird flu strain requires vigilance ... Within the next few weeks we will be adding an avian ...
p155
sg5
VBird flu - Bird flu Symptoms - Avian Influenza
p156
sa(dp157
g3
VNext story in Bird Flu Hong Kong reports bird flu outbreak ... detect any emergence of the new strain, ... in controlling avian flu is in altering ...
p158
sg5
VWHO warning on bird flu - Health - Infectious diseases - Bird Flu ...
p159
sa(dp160
g3
V... and then in Hong Kong in 1997. Hong Kong's avian flu outbreak coincided ... for next pandemic was that the new flu strain would ... every two to four years.
p161
sg5
Vbird flu Facts, information, pictures | Encyclopedia.com articles ...
p162
sa(dp163
g3
VIn most years, one or two of the three virus strains in the ... from where it spread to Hong Kong, ... A new avian influenza strain appeared in Hong Hong ...
p164
sg5
VInfluenza - Online Textbook of Bacteriology
p165
sa(dp166
g3
VA Hong Kong study concluded that even ... They assumed that a strain of flu hit New York that was ... I am concerned about what an avian flu outbreak could mean ...
p167
sg5
VAvian Flu Update - Council on Foreign Relations
p168
sa(dp169
g3
V... measures to protect themselves from a new strain of bird flu ... An avian flu outbreak in Japan could ... of avian flu in Hong Kong ...
p170
sg5
VAsia braces for spill-over of new bird flu strain
p171
sa(dp172
g3
VAvian influenza or 'bird flu' is a ... associated with the 1997 Hong Kong outbreak. How can bird flu ... in people appeared in Hong Kong in ...
p173
sg5
VWhat is bird flu? - Telegraph - Telegraph.co.uk - Telegraph online ...
p174
sa(dp175
g3
VThe deadly H5N1 strain of bird flu has ... WHO said the Health Ministry denied a report in Hong Kong ... Local authorities are slaughtering all poultry within two ...
p176
sg5
VAvian flu cases spread across China / 14 regions report confirmed ...
p177
sa(dp178
g3
VThis strain has since appeared across Siberia, ... Greece confirmed a 2nd outbreak of the H5N1 avian flu virus, ... which first sickened people in Hong Kong in 1997, ...
p179
sg5
VAvian Influenza Update Information - Medical Ecology @ www ...
p180
sa(dp181
g3
VWithin three days, Hong Kong's entire chicken population is slaughtered ... Two new flu drugs, Relenza and ... South Korea has its first outbreak of avian ...
p182
sg5
VWhen did the avian bird flu started? - Yahoo! Answers
p183
sa(dp184
g3
VThe new strain of bird flu that\u2019s ... Officials in Hong Kong ... , touching off the first global influenza outbreak in more than 40 years and ...
p185
sg5
VNew Bird Flu Strain Spreads in China as Third Person Dies - Bloomberg
p186
sa(dp187
g3
VBut faced with the third outbreak of bird flu in five years, ... up to Lunar New Year. But next week's ... avian flu led to the slaughter of Hong Kong's ...
p188
sg5
VBBC News | ASIA-PACIFIC | Hong Kong seals off chicken farms
p189
sa(dp190
g3
VAvian flu special: The flu pandemic: ... he was transferred to a hospital in Hong Kong, ... Tamiflu needs to be administered within two days of anyone showing symptoms.
p191
sg5
VAvian flu special: The flu pandemic: were we ready? : Article : Nature
p192
sa(dp193
g3
V... A new strain of avian flu has killed two people ... for the first time in Hong Kong a ... she channels her teen years in new music video ...
p194
sg5
VNew strain of bird flu which has never been seen in humans before ...
p195
sa(dp196
g3
V... starting a global outbreak (pandemic). Of the few avian flu viruses that have ... Hong Kong experienced the first H5N1 ... despite an advance warning of two years.
p197
sg5
VAvian Flu Information | Embassy of the United States
p198
sa(dp199
g3
V... caused by the same strain, in Hong Kong 's poultry ... when an outbreak of H5N1 avian influenza in Hong ... Preparing for the next pandemic. New ...
p200
sg5
VInfluenza - Medical Ecology @ www.MedicalEcology.org
p201
sa(dp202
g3
V... the avian strain jumps directly from ... in at least two countries within one WHO ... since the \u201cHong Kong\u201d flu of 1968. Over the next few ...
p203
sg5
VInfluenza Virus (Flu) - Department of Molecular Virology and ...
p204
sa(dp205
g3
VOur understanding of the H7N9 avian flu virus, ... A novel strain of ... as versions of it have also appeared in Hong Kong\u2019s Apple Daily and USA Today over ...
p206
sg5
VAvian Flu Diary
p207
sa(dp208
g3
VThis was a new strain of avian flu, ... outbreak of H5N1 avian influenza in Hong Kong caused 2 cases and ... not in the next year or two it's quite possible ...
p209
sg5
VAvian flu: the creation of expectations in the interplay between ...
p210
sa(dp211
g3
VInterim Guidance for Influenza Outbreak Management in Long-Term Care Facilities; ... Avian Flu. Current Situation; In Birds; ... What's New & Updated! Flu News ...
p212
sg5
VCDC - Seasonal Influenza (Flu) - Vaccine Virus Selection for the ...
p213
sa(dp214
g3
V... and affect new species The Hong Kong epidemic of ... to combat avian influenza over the next several years ... Avian flu: H5N1 virus outbreak in ...
p215
sg5
VCIDRAP >> Avian Influenza (Bird Flu): Agricultural and Wildlife ...
p216
sa(dp217
g3
V... H1N1), 1957 (Asian Flu - H2N2), and 1968 (Hong Kong Flu ... to provide early warnings of an outbreak. Within ... ages two through nine years old opened in ...
p218
sg5
VHealthPolicyMonitor | Surveys| CMWF New York - USA| 07| Avian Flu ...
p219
sa(dp220
g3
VThe Hong Kong flu strain shared internal ... The first record of the outbreak in Hong Kong appeared on ... \u2191 Chapter Two : Avian Influenza by Timm C. Harder ...
p221
sg5
VH3N2 - wikidoc
p222
sa(dp223
g3
VThe H7N9 bird flu strain does not appear to be transmitted from human to human but authorities in Hong Kong raised a ... another two to three years to ...
p224
sg5
VChina readies to fight new bird flu; Japan, HK on guard - Yahoo ...
p225
sa(dp226
g3
V... of the new virus raised fears of a major outbreak. ... bomb flu. Just regular flu. Within a week or two of ... Hong Kong flu when I was 7 years ...
p227
sg5
VThe last flu pandemic was in 1968 when \u201cHong Kong\u201d flu killed ...
p228
sa(dp229
g3
V... which was first spotted in Hong Kong in 1997 but ... next flu pandemic? Maybe. When a new strain of flu makes it from ... rose around the avian flu outbreak ...
p230
sg5
VThe Latest Bird Flu Freakout, Explained | Mother Jones
p231
sa(dp232
g3
VThe Spanish Flu outbreak occurred 87 years ago. ... uncovered in poultry in Hong Kong back in ... vaccine effective against the H5N1 strain of Avian Flu.
p233
sg5
VInformation about Bird or Avian Flu H5N1
p234
sa(dp235
g3
VNew weapon in war on bird flu: ... Next story in Bird Flu Hong Kong reports bird flu outbreak ... Over the next two years, ...
p236
sg5
VNew weapon in war on bird flu: tiny bubbles - Health - Infectious ...
p237
sa(dp238
g3
V'Efficacy of vaccines in chickens against highly pathogenic Hong Kong H5N1 Avian ... within a few years. ... a new outbreak of the H5N1 strain of bird flu ...
p239
sg5
VAvian Influenza 2005-2007 - warmwell.com - on UK animal health policy
p240
sa(dp241
g3
VThe bottom line is that the threat does remain for the next new mutant strain of ... and the Hong Kong Flu Pandemics are ... Avian flu outbreak maps go to ...
p242
sg5
VBCPFFA - Avian Flu and First Responders
p243
sa(dp244
g3
VYour source for credible news and authoritative insights from Hong Kong, ... H7N9 avian flu. ... 2013 as New bird flu outbreak creates echoes of Sars.
p245
sg5
VEchoes of Sars in bird flu panic | South China Morning Post
p246
sa(dp247
g3
VBird Flu - Fact sheet. Avian ... of millions of poultry over large geographical areas for more than two years, ... the Hong Kong outbreak, ...
p248
sg5
VBird Flu - Fact Sheet Avian Influenza (Bird Flu)
p249
sa(dp250
g3
VAvian influenza was first linked to human infections in Hong Kong in ... New strain of bird flu is one ... and Michelle Knight escaped their years-long ...
p251
sg5
VBird Flu Pandemic: How Likely Is a Deadly Outbreak? - Yahoo! News
p252
sa(dp253
g3
V... Consulate General in Hong Kong about an outbreak of H7 avian ... in New South Wales (NSW) in 4 years, ... resulted in two swine flu deaths in ...
p254
sg5
VNews Pouch: Avian and Pandemic Influenza, 20 Mar 2013 | Avian ...
p255
sa(dp256
g3
V... expected to cause the flu the next ... the new strain although they ... occurred in Hong Kong in 1997. An outbreak of avian flu has affected bird ...
p257
sg5
VInfectious Diseases - Influenza - Flu, Pandemic, Virus, and People
p258
sa(dp259
g3
V... could occur "over the next 50 years and maybe even over ... Hong Kong, where the avian flu has appeared, ... and the Hong Kong flu outbreak of 1968 ...
p260
sg5
Vinfowars: Is President Bush Hyping the Avian Flu?
p261
sa(dp262
g3
V... but note that the new swine flu strain ... virus might do next. It has killed 45 people in Mexico, two in ... Hong Kong's previous SARS outbreak.
p263
sg5
VExpert Warns Of Swine Flu-Bird Flu Mix - CBS News
p264
sa(dp265
g3
V"If there's any bird flu outbreak at the farm or at any place within 13 ... fight new bird flu; Japan, Hong Kong on ... with the new H1N1 strain of avian flu ...
p266
sg5
VFlu Wiki Forum:: News Reports for April 4, 2013
p267
sa(dp268
g3
V... the emergence of a new strain of influenza with pandemic ... It first appeared in Hong Kong live bird ... that the SARS outbreak was the next flu ...
p269
sg5
VAvian Influenza and China - Erika Elvander
p270
sa(dp271
g3
V\u2022 Hong Kong on standby for H7N9 outbreak as Shanghai ... The two male patients, 66 and 74 years ... Whether this new H7N9 flu, a different avian-flu strain, ...
p272
sg5
VFlu Wiki Forum:: News Reports for April 7, 2013
p273
sa(dp274
g3
VWhat's new in the world of pandemic and avian flu? ... of Hong Kong's Food ... and sharing of clinical data during the next flu pandemic or other disease outbreak
p275
sg5
VWhat's new in the world of pandemic and avian flu?
p276
sa(dp277
g3
VHealth, H7N9, flu, bird flu, influenza, avian flu, China, Shanghai, Outbreak, World Health Organization, Vaccine, shot, H5N1, viral, Virus, Pandemic. Share this.
p278
sg5
VH7N9 Bird Flu Death Count Rises, No Answers
p279
sa(dp280
g3
V"Race to Prevent World Epidemic of Lethal \u2019Bird Flu,\u2019" and "Hong Kong ... outbreak in the Netherlands two years ... strain of flu, be it human or avian ...
p281
sg5
VMichael Fumento: Fuss and Feathers, Pandemic Panic over the Avian Flu
p282
sa(dp283
g3
VShuai was one of two women reported in the area to have contracted the new strain of the avian ... Hong Kong School Of Public ... flu outbreak seen six ...
p284
sg5
VHas it finally happened? Bird Flu death in China sparks fear of ...
p285
sa(dp286
g3
V... told reporters last week he believed that H5N1 would jump to the New World 'within the next ... strain of the avian-flu ... New Hong Kong Flu
p287
sg5
VThe Bird Flu - Archive Collection - TIME
p288
sa(dp289
g3
VLast September a doctor in a Saudi hospital was fired for reporting a new, deadly strain of ... HONG KONG: VIGILANT ON ... bird flu hazard, owing to an outbreak of ...
p290
sg5
VNews Pouch: Avian and Pandemic Influenza, 18 Mar 2013 | Avian ...
p291
sa(dp292
g3
V... in Hong Kong in 1997. The epidemic was linked to chickens and classified as avian influenza A, strain ... two concerns about flu. First, this strain is a ...
p293
sg5
VBird Flu Jumps to Seals, Humans Could Be Next | Environment News ...
p294
sa(dp295
g3
VWhen it first appeared in Hong Kong in ... vaccines has plummeted in recent years, from more than two dozen in 1980 to ... strain of avian flu poses an ...
p296
sg5
VThe Next Pandemic? | Foreign Affairs
p297
sa(dp298
g3
VTwo new cases of coronavirus infection have been discovered ... And the H5N1 avian flu virus has killed 371 ... Good coverage of China as well as Hong Kong;
p299
sg5
VH5N1 - Writing for the Web
p300
sa(dp301
g3
VHong Kong diagnoses first human bird flu case in 7 years. Hong Kong, China (CNN)-- The first human case of bird flu in seven years has been diagnosed in Hong Kong ...
p302
sg5
VHong Kong diagnoses first human bird flu case in 7 years
p303
sa.