(lp1
(dp2
S'description'
p3
V... four were non-revenue EgyptAir crew members. ... [about the crash of Flight 990] ... that a pilot would kill himself by crashing a jet with 217 people aboard.
p4
sS'title'
p5
VEgyptAir Flight 990 - Wikipedia, the free encyclopedia
p6
sa(dp7
g3
VIn the case of EgyptAir Flight 990 the ... and subsequently reported that the crew members ... and managed a team primarily of EgyptAir engineers, many of whom were ...
p8
sg5
VThe Crash of EgyptAir 990 - William Langewiesche - The Atlantic
p9
sa(dp10
g3
VEgyptAir Flight 990 Accident Information. An EgyptAir 767-300ER crashed in the ... with 203 passengers and 14 crew members, ... All aboard the aircraft were ...
p11
sg5
VEgyptAir Flight 990 Accident Information - Plane Crash, Airline ...
p12
sa(dp13
g3
VNothing special united the 217 people aboard EgyptAir's ill-fated flight 990. ... About 300 family members, many ... Some of the 14 Quebecers aboard Flight 990 were, ...
p14
sg5
VEgyptAir Crash Mystery - The Canadian Encyclopedia
p15
sa(dp16
g3
VEgyptian officials won't admit that the crash of flight 990 was an ... of EgyptAir engineers, many of whom were ... junior member of the crew, ...
p17
sg5
VThe Atlantic | November 2001 | The Crash of EgyptAir 990 ...
p18
sa(dp19
g3
V... no indication of foul play in the crash of EgyptAir flight 990, ... 199 passengers aboard EgyptAir 990, ... 15 crew members and three non-paying EgyptAir ...
p20
sg5
VWashingtonpost.com: 217 Feared Dead in EgyptAir Crash
p21
sa(dp22
g3
VThe Coast Guard is giving up hope that survivors will be found from Sunday morning's crash of EgyptAir Flight 990. ... crew members aboard. ... were investigating the ...
p23
sg5
VOnline NewsHour: Egyptian plane crashes -- November 1, 1999
p24
sa(dp25
g3
VNew developments in the ongoing investigation into the crash of Egypt Air flight 990 show that the ... the crew member in the co ... many bodies were ...
p26
sg5
VThe Enterprise Mission - The REAL Mystery of Egypt Air flight 990
p27
sa(dp28
g3
VA draft of the final U.S. report on the crash of EgyptAir Flight 990 does nothing ... The airline said 18 people were ... the crew member in the co ...
p29
sg5
VArticles about Egyptair - Los Angeles Times
p30
sa(dp31
g3
VOn board the aircraft were 199 passengers, 15 crew members and ... One passenger on EgyptAir Flight 990 got ... All 223 aboard were killed in that crash.
p32
sg5
VCNN - EgyptAir jet plunged rapidly before crash, radar data shows ...
p33
sa(dp34
g3
VBuzzFlash believes that EgyptAir Flight 990 represented a pre-September 11th crew -based ... crash of EgyptAir Flight 990 ... aboard American Airlines Flight ...
p35
sg5
VWas EgyptAir Flight 990 the Prelude to September 11th?
p36
sa(dp37
g3
VDebris from EgyptAir Flight 990 lies aboard the Merchant ... Twenty Egyptair employees were providing ... members of victims of the crash of Egyptair ...
p38
sg5
VCrash photo gallery | Special reports | guardian.co.uk
p39
sa(dp40
g3
V... where Egyptair Flight 990 crashed in October ... the scene at the crash site: ... airport officials said 83 passengers and five crew members were aboard the plane.
p41
sg5
VSFO-Bound Alaska Airlines Jet Crashes - SFGate
p42
sa(dp43
g3
VThe Crash of EgyptAir 990 ... citing the presence of 30 Egyptian military officers aboard the flight and ... Many Muslims were particularly incensed that American ...
p44
sg5
VEgyptAir - Trinity College
p45
sa(dp46
g3
V... Families of the Egyptian passengers on board EgyptAir Flight 990 are scheduled ... of the crash victims. "Having ... center's members were on board the EgyptAir ...
p47
sg5
VCNN - Families of Flight 990 passengers flying from Egypt to New ...
p48
sa(dp49
g3
V... sent the doomed EgyptAir Flight 990 ... aboard, 14 listed as crew members, plus a third captain and three flight officers who were listed as ...
p50
sg5
V'Pilots locked in cockpit struggle' as jet fell from sky | World ...
p51
sa(dp52
g3
VEgyptian officials investigating the crash of EgyptAir Flight 990 say the ... killing all 217 aboard. An experienced Egyptian airline pilot ... by the crew member ...
p53
sg5
VFlight 990 crash likely won't be treated as criminal act - World ...
p54
sa(dp55
g3
VThe first sign of abnormality aboard EgyptAir Flight 990 came when the ... if crew members were ... last year's EgyptAir Flight 990 crash to explain ...
p56
sg5
VEgyptair 990 - The "Hull Thread" Home Page
p57
sa(dp58
g3
VWhen EgyptAir Flight 990 went down I thought of ... were on the flight, ... EgyptAir Inquiry Continues To Focus on Crew Member; MORE ON THE CRASH; Find ...
p59
sg5
VForeign Affairs; EgyptAir 990 - New York Times
p60
sa(dp61
g3
VBBC News Online readers have been responding to the loss of EgyptAir flight 990 off the ... We were very saddened to hear about the crash of ... and crew members and ...
p62
sg5
VBBC News | Talking Point | EgyptAir Boeing 767 crash - Your Reaction
p63
sa(dp64
g3
VSWISSAIR FLIGHT 111 CRASH ... EgyptAir Flight 990, a Boeing 767, ... plus 15 crew members, an EgyptAir official said in Cairo.
p65
sg5
VEgyptAir flight disappears off Nantucket - Boston.com - Boston, MA ...
p66
sa(dp67
g3
VEGYPT AIR FLIGHT 990 ... experience of the Crash of EGYPT AIR 990, ... stated it was ok to come aboard. We did not want the ships crew feeling overwhelmed, ...
p68
sg5
VEGYPT AIR FLIGHT 990 - US Coast Guard Home
p69
sa(dp70
g3
VPilots ponder the mysteries of EgyptAir crash ... The latest data from the EgyptAir Flight 990 voice recorder ... didn\u2019t at least one crew member have ...
p71
sg5
VPilots ponder the mysteries of EgyptAir crash - Salon.com
p72
sa(dp73
g3
V... which several U.S. investigators suspect may be the cause of the crash. Instead, EgyptAir ... The EgyptAir Flight 990 accident ... elevator were ...
p74
sg5
VEgyptAir 990 Cockpit Voice Recorder Transcript - ABC News
p75
sa(dp76
g3
VCrew members and scientists aboard the Mt ... Egypt Air Flight 990 Plane Crash: ... The TWA Flight 800 and Egypt Air 990 underwater crash sites were surveyed ...
p77
sg5
VNOAA 200th Feature Stories: Disaster Response
p78
sa(dp79
g3
VCoast Guard crews searching for clues in the crash of EgyptAir Flight 990, ... and all 3 crew members were ... people aboard were killed. Links: Air Crash, ...
p80
sg5
VTimeline - Air Crash
p81
sa(dp82
g3
VEgyptAir Flight 990 took off early on October 31 from New York ... All 217 people aboard were ... the EgyptAir crew member had routinely ...
p83
sg5
VCNN.com - EgyptAir crash tape released - May 16, 2000
p84
sa(dp85
g3
VMysterious Cause of EgyptAir Flight 990 Crash ... not by a passenger but by a male crew member or flight ... were told the airline had disciplined El ...
p86
sg5
VRemote Viewers Uncovered It First!
p87
sa(dp88
g3
V... Cause of EgyptAir Flight 990 Crash ... who lost loved ones aboard that flight, Art. And as many of ... crew members, or it could have been a flight ...
p89
sg5
VEd Dames on Art Bell - Cause of EgyptAir Flight 990 Crash 11-11-99 ...
p90
sa(dp91
g3
V... BLACK BOXES, and UNSAFETY BOARDS---EgyptAir Flight 990, ... Some NTSB panel members, ... , 150 FBI agents were already in the crash zone keeping local authorities ...
p92
sg5
VSherman Skolnick's Report
p93
sa(dp94
g3
VMysterious Cause of EgyptAir Flight 990 Crash ... not by a passenger but by a male crew member or flight ... were told the airline had disciplined El ...
p95
sg5
VRemote Viewers Uncovered It First! - The Ultimate Remote Viewing ...
p96
sa(dp97
g3
VThe crash of Egypt Air flight 990 out of New York in ... to the actual itinerary that airline officials were ... the crew somehow managed to ...
p98
sg5
VEnterprise Mission - Will 'X' Mark the Date?: Part 3
p99
sa(dp100
g3
VEgypt Air Flight 990 Plane Crash. ... and 14 crew members in the KLM plane were killed, and 326 passengers and 9 crew members aboard the Pan Am flight perished ...
p101
sg5
VFacts about Tenerife Plane Crash - FactsnFacts.com
p102
sa(dp103
g3
VA US Navy helicopter crashed in the Gulf of Mexico. 2 crew members were ... crash of EgyptAir Flight 990 off ... 9 people aboard were killed. Links: Air Crash, ...
p104
sg5
VTimeline - Air Crash
p105
sa(dp106
g3
V... the scene at the Flight 261 crash was much like the one ... 261 crash was much like the one at EgyptAir 990 and ... and five crew members were aboard ...
p107
sg5
VS.F.-BOUND JET PLUNGES INTO SEA -- 88 FEARED DEAD / In darkness ...
p108
sa(dp109
g3
V... about the Flight 990 crash. ... and data recorders aboard Flight 990 indicates that a crew ... members of the EgyptAir crew have been ...
p110
sg5
VRush to judgment? - Salon.com
p111
sa(dp112
g3
VThere was no evidence of fight or struggle among the crew members ... officers were aboard the EgyptAir flight that ... crash of Egypt Air Flight 990, ...
p113
sg5
VThe Untold Story of Lynne Stewart and Egyptair Flight 990 - Scribd
p114
sa(dp115
g3
V... where 167 passengers and 18 crew members ... Many on board flight 990 were ... SwissAir Flight 111 carrying 229 and EgyptAir flight 990 with 217 aboard, ...
p116
sg5
VQueens Tribune Feature Story
p117
sa(dp118
g3
VEgypt Air Crash: The Hidden Hand ... There were 34 generals of different ranks from the Egyptian ... one of the Egypt Air flight crew complained to the hotel security ...
p119
sg5
VEgypt Air Crash: The Hidden Hand Behind the Disaster
p120
sa(dp121
g3
V... 150 FBI agents were already in the crash ... Regarding the crash of EgyptAir Flight 990, ... manned by a Russian mercenary crew, apparently downed Flight ...
p122
sg5
VAIR CRASHES, BLACK BOXES, and UNSAFETY BOARDS---EgyptAir Flight ...
p123
sa(dp124
g3
VDATE=10/31/1999 TYPE=CORRESPONDENT REPORT TITLE=EGYPT PLANE CRASH ... and 15 crew members. He said among them were 62 ... Egypt Air Flight-990 originated ...
p125
sg5
VEGYPT PLANE CRASH - Federation of American Scientists
p126
sa(dp127
g3
VThe NTSB said el-Batouty was alone in the cockpit when EgyptAir Flight 990 ... One crash? Or many, because their reasons were ... where the flight crew had ...
p128
sg5
VEgyptair 990 Co-pilot Crashed The Plane \u2014 Civil Aviation Forum ...
p129
sa(dp130
g3
V... the crew member in ... Suspicion mounted Friday that the crash of EgyptAir Flight 990 was caused by ... Ten federal lawsuits were filed in Los ...
p131
sg5
VFeatured Articles about Airplane Accidents Massachusetts - Page 5 ...
p132
sa(dp133
g3
VEgypt Air Flight 990 disappeared off the radar scopes mysteriously ... in addition to any crew members or ... The final moments of EA-990 were recorded by ...
p134
sg5
VREVIEWING EGYPT AIR 990
p135
sa(dp136
g3
VAll 215 passengers and 14 crew members are killed. ... Flight 990 with 217 people ... EgyptAir A China Northern Airlines plane with 112 people aboard crashes ...
p137
sg5
VCBSNews.com - Breaking News Headlines: Business, Entertainment ...
p138
sa(dp139
g3
VAt least 88 passengers and crew members were aboard By Jeff ... Reconstruction of the crash of Flight 261. ... EgyptAir Flight 990 plummeted into the ocean 60 miles ...
p140
sg5
VBoston.com / Latest News / Nation
p141
sa(dp142
g3
VISSUES ARISING OUT OF THE CRASH OF EGYPT AIR 990. ... is an integral part of pilot training and airline operations. CRM emphasizes crew ... Several workshops were ...
p143
sg5
VTestimony: 4/11/00, ISSUES ARISING OUT OF THE CRASH OF EGYPT AIR 990
p144
sa(dp145
g3
VThe tragic crash of EgyptAir Flight 990 raised ... how many of those were ATP denials, Airline ... We urge that the families of flight crew members be afforded ...
p146
sg5
VIssues Arising Out of the Egypt Air Crash
p147
sa(dp148
g3
V... The co-pilot caused EgyptAir Flight 990 to crash into the Atlantic Ocean. ... killing 14 crew members and 203 ... Most conversations were in Arabic and have been ...
p149
sg5
VWorldandnation: Crash was intentional, U.S. says
p150
sa(dp151
g3
VTwo of the six crew members and 59 of the 90 passengers were killed. On 31 October 1999, EgyptAir Flight 990, a Boeing 767 flying between New York City and Cairo, ...
p152
sg5
VEgyptAir - Wikipedia, the free encyclopedia
p153
sa(dp154
g3
VTwo of the six crew members and 59 of the 90 passengers were killed. On 31 October 1999, EgyptAir Flight 990, a Boeing 767 flying between New York City and Cairo, ...
p155
sg5
VEgyptAir - Wikipedia, the free encyclopedia
p156
sa(dp157
g3
V217 lives were lost when EgyptAir Flight 990 ... and family of the passengers and crew aboard) ... expression on Oct. 31, 1999, after the crash of EgyptAir Flight 990.
p158
sg5
V11-26-99 - Flavin's Corner
p159
sa(dp160
g3
VAll 217 aboard were killed when EgyptAir Flight 990 ... 14 crew members and 203 ... cause of the crash of EgyptAir flight 990 was the airplane ...
p161
sg5
VGameel Al-Batouti - Murderpedia, the encyclopedia of murderers
p162
sa(dp163
g3
VFew remains were found of the 217 people aboard. ... The crash of EgyptAir Flight 990 has been a hot ... who claims to have been a crew member aboard Flight ...
p164
sg5
VUFO Roundup: The Latest UFOlogy News and Sighting Reports
p165
sa(dp166
g3
VThere were plenty of puzzles and Play ... Childcare team on alert after crash (May 22, 2000) Pennsylvania members of ... While families of the Egyptair Flight 990 ...
p167
sg5
VDisaster News Network - Reporting disasters and response efforts
p168
sa(dp169
g3
V... investigating the crash of Egypt Air flight 9-9-0 believe it may have been caused deliberately by one of the crew members. ... killing all 217 people aboard.
p170
sg5
VEGYPT AIR / REACT - GlobalSecurity.org - Reliable Security Information
p171
sa(dp172
g3
VNews of the 31 October 1999 Egypt Air flight 990 crash at sea ... the flights of 9/11 were ... two family members of two of the victims aboard the ill ...
p173
sg5
Vusaf ec-135n & egyptair flight 990 - metatron
p174
sa(dp175
g3
VThis section contains the names of sailors who served aboard USS ... Members of the U.S. Navy's ... to investigate the crash of Egypt Air Flight 990 on ...
p176
sg5
VUSNS Grapple (T-ARS 53) - Unofficial US Navy Site
p177
sa(dp178
g3
VA new book about the crash of Egypt Air flight 990 says the plane went down ... (crew members) were subjected to a major problem in the tail which they were not ...
p179
sg5
VNew book says Egypt Air crash not a suicide - World - CBC News
p180
sa(dp181
g3
VThe flight was carrying 15 crew members and 202 passengers. ... Several days after the crash, many people, ... NTSB Summary of EgyptAir Flight 990 ...
p182
sg5
VEgyptAir Flight 990 - Definition | WordIQ.com
p183
sa(dp184
g3
V... this is precisely what happened aboard Egypt Air Flight 990. ... the crash of Flight 990 because there ... Were they even members of ...
p185
sg5
VWhat Actually Happened to John F. Kennedy, Jr.? by Christopher Condon
p186
sa(dp187
g3
VEgypt Air Flight 990 disappeared off the radar ... The following account of the EA-990 crash attempts to describe the ... in addition to any crew members or ...
p188
sg5
VEGYPT AIR 990
p189
sa(dp190
g3
V... killing all 230 aboard. ... third time after EgyptAir Flight 990 plunged into the ... after five of their relatives were lost in the crash.
p191
sg5
VUSATODAY.com - Plane crash victims' families gather in neighborhood
p192
sa(dp193
g3
VTwo Greek air force F-16 jets were scrambled after the Helios flight lost ... the pilot of an EgyptAir flight from New York to ... two crew members ...
p194
sg5
VAirDisaster.Com News: Report: Attempt by cabin crew to save ...
p195
sa(dp196
g3
VShe tells us that "powerful military radars" were monitoring the EgyptAir flight; ... in the crash 15 months ago of Flight EgyptAir 990, ... of a crew member; ...
p197
sg5
VUnfriendly Skies - Materials Science & Engineering \u2014 University ...
p198
sa(dp199
g3
VEgyptAir Flight 990; ... while 326 passengers and 9 crew members aboard the Pan Am flight were also killed, [7] ... In the documentary Crash of the Century ...
p200
sg5
VTenerife airport disaster : Wikis (The Full Wiki)
p201
sa(dp202
g3
VLost with her in the crash were her ... There were 83 passengers and five crew members aboard, Evans ... EgyptAir Flight 990 plummeted into the ocean 60 miles south ...
p203
sg5
VFLIGHT 261 - PLANE CRASH - CALIFORNIA - 1-31-2000
p204
sa(dp205
g3
VThe agency said the recent crash of EgyptAir Flight 990 may never ... All 217 people aboard the Boeing 767-300 were killed when ... against a flight crew member ...
p206
sg5
VAirline cockpit cameras proposed
p207
sa(dp208
g3
VLauda & Egyptair 767 Were Completed At Same Time! ... Does anyone know why Egyptair flight 990 Crash ed?. ... Two crew members are hospitalized with minor injuries.
p209
sg5
VEgyptair 767 Crash Investigation | Civil, Military & Hobby ...
p210
sa(dp211
g3
Vwere involved in a Plane crash on Egypt Air Flight 990 ... Internet to locate any member of his family, but to no ... who on aboard EgyptAir Flight 990, ...
p212
sg5
VHow can I get the data as to the passenger list of airplane... - Q&A
p213
sa(dp214
g3
VMore than 40 passengers were injured, many sustaining ... four passengers killed in the crash of EgyptAir flight 990 on ... several crew members in their ...
p215
sg5
VAviation Negligence Attorneys Nationwide | Aircraft Disaster ...
p216
sa(dp217
g3
VIn the right seat was the most junior member of the crew, ... to their death for the passengers and crew, but not all the crew were ... to crash EgyptAir 990.
p218
sg5
V[CTRL] EgyptAir 990 and demonic mind control. - The Mail Archive
p219
sa(dp220
g3
VAll eight people aboard the jet were fatally ... crash of Air Philippines Flight 541 near Davao was the worst air disaster in ... EGYPT AIR FLIGHT 990
p221
sg5
VAviation Attorney Network-Current Aviation Case
p222
sa(dp223
g3
VEgyptAir Flight 990, October 31, 1999 Shared by: NTSB. Categories. ... New York, EgyptAir Crash, Los Angeles, the Atlantic Ocean - ...
p224
sg5
VEgyptAir Flight 990, October 31, 1999 - Docstoc \u2013 We Make Every ...
p225
sa(dp226
g3
V... the members of one group were here to study ... The EgyptAir 990 crash, ... flight deck noises, or attempted crew transmissions" that would have greatly ...
p227
sg5
VThe Fall of EgyptAir 990 by Elaine Scarry | The New York Review of ...
p228
sa(dp229
g3
VOUR highly reliable sources tell us that the data AND cockpit voice recorders were ... EgyptAir crew members aboard Fl. 990, ... flight recorders from Fl. 990. ...
p230
sg5
VSIGHTINGS - rense.com
p231
sa(dp232
g3
V... for any of the crew to deliberately cause the crash of ... and flight data recorder were tripped ... to that of EgyptAir Flight 990. ...
p233
sg5
VAircraft crash silk air? - Yahoo! Answers
p234
sa(dp235
g3
VTWA Flight 800, EgyptAir Flight 990, ... aboard Alaska Air Flight 461 were ... that in a plane crash. In my opinion, and the opinion of many ...
p236
sg5
VI s Air Transport the safest & most convenient mode of transport ...
p237
sa(dp238
g3
VMaybe we take a minute,\u201d a flight crew member ... .reminds me of al qaida dry run training flight egyptair flight 990. ... French planes were in near crash ...
p239
sg5
V\u201cAccident\u201d or Jihad?: Egyptian Pilot\u2019s Near Miss @ JFK Airport
p240
sa(dp241
g3
VSix of those survivors were minors and four were crew members, ... Ninety-one other people aboard Flight 508 died. ... EgyptAir 990 over the Atlantic.
p242
sg5
VChildren Survivors - Plane Crash Survival | TheSurvivorsClub.org
p243
sa(dp244
g3
VSome 48 people were still unaccounted for after the crash of ... There were 159 passengers and 20 crew aboard ... after EgyptAir Flight 990 crashed ...
p245
sg5
V47 confirmed dead in Singapore Airlines crash - Blue Sky
p246
sa(dp247
g3
VEgypt Air ... The flight crew, ... representing the two other crew members were able to establish that the crash occurred ...
p248
sg5
VAviation Law Experience - Aviation Attorney United States - Wisner ...
p249
sa(dp250
g3
VRegarding the crash of EgyptAir Flight 990, ... One Secret Service employee and at least eight crew members were aboard the C-130 when it crashed Saturday ...
p251
sg5
VMURDER BY PLANE CRASH - DREAMS OF THE GREAT EARTH CHANGES
p252
sa(dp253
g3
VEgypt Air Flight 990, ... For more information on this crash see Examples of Our Work. TWA Flight 800, ... the other 156 passengers and 8 crew members were killed.
p254
sg5
VInternational, Domestic and Regional Airline Accidents - Law Firm NYC
p255
sa(dp256
g3
VLast October, Egypt Air Flight 990, ... Pinpointing the origin of the fire aboard Swissair Flight 111, ... All three cockpit crew members saw the object.
p257
sg5
VSwissair 111 - The "Hull Thread" Home Page
p258
sa(dp259
g3
V... in stark contrast to the behavior of the crew aboard a recent Air India flight, ... a member of the ground crew alerted police that the ... Crash of EgyptAir 990;
p260
sg5
VBad Behavior of Pilots, Crew and Passengers Poses Big Safety Risk ...
p261
sa(dp262
g3
VAir Crash Investigation - Egypt Air Flight 990: ... The flight was carrying 14 crew members and 203 ... Nine people were killed including the three cockpit crew.
p263
sg5
VWatch Free Air Crash Investigation Documentaries | Watch Free ...
p264
sa(dp265
g3
VNote that many important humanitarian leaders were on Flight 111, ... EgyptAir Flight 990 crash Oct. 31, ... All 259 (243 passengers plus 16 crew members) ...
p266
sg5
VPlane crashes -- is there a pattern to recent air disasters? -- a ...
p267
sa(dp268
g3
VThe Egypt Air Flight 990 vanished from radar screens about ... All 223 aboard were killed in that crash." ... There were 214 passengers and nine crew members aboard.
p269
sg5
V767 Down - the Greenspun family server
p270
sa(dp271
g3
V... to the flight crew. 109 passengers and 6 crew members were killed in ... EgyptAir Flight 990 On ... A320 Crash. Gulf Air Flight 072 On ...
p272
sg5
VCommercial Aviation Crash - Commercial Airline Accident 2007
p273
sa(dp274
g3
VEgyptAir Flight 990 Recovered ... pilot and copilot headsets and crew members that sit in ... Guard jets were scrambled to intercept Stewart's jet and see ...
p275
sg5
VFlight Data Recorders - MikeNV on HubPages
p276
sa(dp277
g3
V... and then traveling nonstop to Cairo on EgyptAir Flight 990. ... for such overseas flights. ``There were no ... every passenger and crew member ...
p278
sg5
VWHAT HAPPENED? UNTIL ABRUPT ENDING, FLIGHT WAS ROUTINE. - Free ...
p279
sa(dp280
g3
VBesides the 18 crew members, ... EgyptAir. Flight #: 990. Route: New York City - Cairo. ... One hundred seventy passengers and a crew of six were aboard. See all 62 ...
p281
sg5
V50 Worst Aviation / Air Disasters - livingsta on HubPages
p282
sa(dp283
g3
VTWA Flight 800, EgyptAir Flight 990, ... aboard Alaska Air Flight 461 were killed ... that in a plane crash. In my opinion, and the opinion of many ...
p284
sg5
VAre Airplanes Safe? - :: Free Essays :: Paper Writing :: Book ...
p285
sa(dp286
g3
V... co-pilot or any crew member had suicidal ... the allegation that the crash was caused by the pilot, were turned down by ... EgyptAir Flight 990 ...
p287
sg5
VSilkAir Flight 185 - Wikipedia, the free encyclopedia
p288
sa(dp289
g3
V... including seven members of the flight crew, ... EgyptAir Flight 990 dove out of the sky and crashed into the sea killing 217 ... Many more were injured.
p290
sg5
VMayday - YouTube Videos X - FlyFSX - Tutorial for Microsoft ...
p291
sa(dp292
g3
VI'd've have like seen this much ice and thought oh my gosh we were going to crash. ... EgyptAir Flight 990 co-pilot, ... The flight crew then tried to land, ...
p293
sg5
VGreat Aviation Quotes: Last Words - Dave English - Aviation nerd ...
p294
sa(dp295
g3
V... killing all 96 passengers and crew. ... The first two legs of the flight were uneventful.... 1952 Apr ... EgyptAir Flight 990 Crash. EgyptAir Flight 990 ...
p296
sg5
VTopic: Plane Crashes - Timelines.com
p297
sa(dp298
g3
VAll 30 aboard including 18 members of the team ... run out of fuel and crash 500 yards off shore. 127 of 175 people aboard were killed ... EgyptAir Flight 990
p299
sg5
VFamous people who died in aviation accidents - Plane Crash Info.com
p300
sa(dp301
g3
V15 other hijackers joined the pilots aboard the four airplanes. All but one were ... and crew members made 35 air ... flight 11 & 175, but also Egypt Air 990, ...
p302
sg5
VHow 9/11 was done
p303
sa.