(lp1
(dp2
S'description'
p3
VThe Rowing World Cup, ... FISA was the first international sports federation to join the ... During Olympic years it is held at the same time as the World Rowing ...
p4
sS'title'
p5
VInternational Rowing Federation - Wikipedia, the free encyclopedia
p6
sa(dp7
g3
V... the international rowing federation. Latest world rowing news, ... Samsung World Rowing Cup I; ... A first in rowing for East and Central Africa;
p8
sg5
VWorld Rowing \u2022 The Official Site of World Rowing
p9
sa(dp10
g3
VThe World Rowing Cup is an international rowing competition organized by FISA (the International Rowing Federation). It first began in 1997 and ... held throughout ...
p11
sg5
VWorld Rowing Cup - Wikipedia, the free encyclopedia
p12
sa(dp13
g3
V... the international rowing federation. Latest world ... The decision was made at the FISA Congress held ... The first stage of the 2013 Samsung World Rowing Cup ...
p14
sg5
VWorld Rowing \u2022 News Article | News
p15
sa(dp16
g3
VUSRowing Announces 2013 Samsung World Rowing Cup ... be held March 18-24 at the Sydney International ... world-rowing-cup-i. Australia is the first stop ...
p17
sg5
VNews > USRowing Announces 2013 Samsung World Rowing Cup Roster
p18
sa(dp19
g3
V... the international rowing federation. Latest world rowing news, ... At the first two regattas, ... After the third Samsung World Rowing Cup regatta, ...
p20
sg5
VWorld Rowing \u2022 Event Categories | World Rowing Cup
p21
sa(dp22
g3
VThe 'Festival of Rowing' will be held March 18-24 at the Sydney International ... world-rowing-cup-i. Australia is the first stop ... World Rowing Cup is ...
p23
sg5
VUSRowing Announces 2013 Samsung World Rowing Cup Roster
p24
sa(dp25
g3
V... the international rowing federation. Latest world ... The World Rowing Championships are held ... 25/04/2013 Side by Side Racing at 2013 Samsung World Rowing Cup ...
p26
sg5
VWorld Rowing \u2022 Rowing | Elite
p27
sa(dp28
g3
VEight U.S. Crews in Action at 2013 Samsung World Rowing Cup I ... held March 18-24 at the Sydney International ... first stop of the 2013 Samsung World Rowing ...
p29
sg5
VNews > Eight U.S. Crews in Action at 2013 Samsung World Rowing Cup I
p30
sa(dp31
g3
V1839 \u2013 The first Henley Royal Regatta is held, ... The International Rowing Federation ... rowing manages such competitions as Rowing World Cup and the World ...
p32
sg5
VThe History of Men's Rowing - A timeline - USMENSROWING.COM
p33
sa(dp34
g3
V2012 Samsung World Rowing Cup Munich, ... Sudan held the first rowing and canoe championships for ... the international rowing federation. Latest world rowing ...
p35
sg5
Vwww.worldrowing.com | Facebook
p36
sa(dp37
g3
V... the world rowing federation, ... The Rowing World Cup is an annual international team ... the countdown to the first full World Rowing Championships to be held ...
p38
sg5
VFISA World Rowing Championships - Factbites
p39
sa(dp40
g3
VDay five of racing in Bled saw first ... of the World Rowing Cup in 2010 and ... of the International Rowing Federation to hold the 2011 World ...
p41
sg5
VWRC Bled 2011 | WORLD ROWING CHAMPIONSHIPS BLED 2011
p42
sa(dp43
g3
V... the International Rowing Federation from ... an impressive Rowing World Cup season where they ... first time the World Rowing Championships has ...
p44
sg5
VRowing News on row2k: 2010 World Rowing Championships - Entries ...
p45
sa(dp46
g3
V... World Cup I is Serbian Rowing Federation, ... in 2012 First World Rowing Cup Regatta, which is to be held in Belgrade at Ada Ciganlija Rowing ...
p47
sg5
VBelgradeRowing2012
p48
sa(dp49
g3
VFive Medals for U.S. Crews at the 2013 Samsung World Rowing Cup I. ... In the first international event ... The \u2018Festival of Rowing\u2019 was held March 18-24 at the ...
p50
sg5
VThe National Rowing Foundation
p51
sa(dp52
g3
V The first rowing association, ...  One of the first women\u2019s international rowing ...  The first Women\u2019s Henley Regatta was held. 1990  The World Cup ...
p53
sg5
VA Brief Time-Line of Rowing - RowingHistory-Home
p54
sa(dp55
g3
VThe International Rowing Federation and Rowing Australia ... of the FISA Samsung World Rowing Cup. ... International Rowing Regatta will be held at Sydney ...
p56
sg5
VRowing Federation appoints Global Television to broadcast Sydney ...
p57
sa(dp58
g3
VRe-live the first YOG ever! ... International Rowing Federation Calendar 01 Jan 2012. FISA World Rowing Senior and Junior Championships. Plovdiv
p59
sg5
VRowing | Videos, Photos, News, Events, Records
p60
sa(dp61
g3
VRowing was first recorded as a competitive sport in ... rules and regulations of the International Rowing Federation ... these used to take part in the World Cup.
p62
sg5
VPakistan Sports Board
p63
sa(dp64
g3
VIt is the first time the Samsung World Rowing Cup ... It will be the first time that a World Rowing Cup is being held ... WADA and International Rowing Federation ...
p65
sg5
VArchive of latest news items: February 2013
p66
sa(dp67
g3
VIt first began in 1991 with the first event held in Henley-on ... (the International Rowing Federation). The first event was held in ... The Rowing World Cup, ...
p68
sg5
VDictionary - Definition of Rowing
p69
sa(dp70
g3
V... (International Crews) 2013 Samsung World Cup ... The King's and Queen's Cup Interstate Regatta will be held ... It is the first time the Samsung World Rowing Cup ...
p71
sg5
VSIRR - World Rowing Downunder
p72
sa(dp73
g3
V The first FISA world rowing ... s Henley Regatta was held. 1990  The World Cup was established ... the United States Rowing Association, ...
p74
sg5
V1950+ images - RowingHistory-Home
p75
sa(dp76
g3
VSaratoga Rowing Association girls ... invited to the first-ever Sydney International Rowing ... \u201cThe World Cup is held each year and they are the ...
p77
sg5
VSaratoga Rowing Association girls varsity eight headed to ...
p78
sa(dp79
g3
V... the international rowing federation. Latest world rowing ... Regatta will be held July 7-14 in ... forward to at the first Samsung World Rowing Cup of the ...
p80
sg5
VWorld Rowing Junior | Facebook
p81
sa(dp82
g3
V... walks alongside after day 3 of the FISA Rowing World Cup. ... The International Rowing Federation ... The first NSRs were held in April of 2008.
p83
sg5
VYour Road to the Olympic Rowing Team - About.com Kayak and Canoe ...
p84
sa(dp85
g3
V... 2011 for the annual FISA World Rowing Tour held for the first t ... the International Rowing Federation which is the governing body for international ...
p86
sg5
V2011 FISA World Rowing Tour at Lake Biwa, Japan - YouTube
p87
sa(dp88
g3
V... will prepare for next month\u2019s World Cup event at Eton Dorney ... Rowing events for men were first held in the 1900 ... The International Rowing Federation ...
p89
sg5
VRowing | Team GB
p90
sa(dp91
g3
VOne of the first women's international rowing races took ... The U.S. National Women's Rowing Association was founded, and held its ... was held. 1990 The World Cup ...
p92
sg5
VA Brief Timeline of Rowing History 1900 2000 - BhFinder.com
p93
sa(dp94
g3
VWinnipeg Rowing Club wins Lipton Cup at international regatta held in ... Annual North West International Rowing Association ... first time in four ...
p95
sg5
VRowing\u2019s regal prize | Other Sports | Sports | Kenora Daily ...
p96
sa(dp97
g3
VWorld Rowing Championships: ... their waters for the first time since the 1999 World Rowing Junior ... 2011 World Rowing Championships in Bled, Slovenia held ...
p98
sg5
VHigh Performance Rowing - International Rowing
p99
sa(dp100
g3
V... Great Britain surged into the fore as the world\u2019s leading rowing ... International Rowing Federation Coach ... the line first in Switzerland\u2019s 25th Armada Cup.
p101
sg5
VHigh Performance Rowing - International Rowing
p102
sa(dp103
g3
VBrazilian football stars Ronaldo and Bebeto played in the first match held ... 2012 Samsung World Rowing Cup ... the international rowing federation. Latest world ...
p104
sg5
Vwww.worldrowing.com | Facebook
p105
sa(dp106
g3
VThe 2013 Samsung World Rowing Cup will be held from ... \u201cThe 2013 Samsung World Rowing Cup will be the first time in eight ... British Olympics Association ...
p107
sg5
VUK Sport - 2013 Samsung World Rowing Cup will showcase Olympic heroes
p108
sa(dp109
g3
VT20 world cup 2012; ... IOA, and the International Rowing Federation, FISA. ... It was the first time that rowing was included in the Asian Games.
p110
sg5
VArjuna Awardees in Rowing, Arjuna Award Winners in Rowing
p111
sa(dp112
g3
VFalmouth claimed their third consecutive Men's and Women's titles at the World Pilot Gig Championships last weekend, ... Your first step into rowing is to find a club!
p113
sg5
VFirst step into rowing - British Rowing | The National Governing ...
p114
sa(dp115
g3
VRecently Poland has hosted the World Rowing ... In 1924 PZTW joined the FISA International Federation of Rowing ... Great Rowing Cup Brda, held under the ...
p116
sg5
VWorld Rowing Championship Venue - Warsaw Travel Guide
p117
sa(dp118
g3
V... (or the English equivalent International Federation of Rowing ... Events are held at the World Rowing ... World Rowing Championships; Rowing World Cup;
p119
sg5
VRowing (sport) - WikiPilipinas: The Hip 'n Free Philippine ...
p120
sa(dp121
g3
V(The ACT Rowing Association was at this ... In 1984 it was announced thst the first ever World ... An international masters regatta was held in Perth in ...
p122
sg5
VAustralian Masters Championships - Australian Rowing History
p123
sa(dp124
g3
VThe chance to rub shoulders with international stars of the rowing world on ... the first Rowing World Cup ... Association from the US, and Italian rowing ...
p125
sg5
VSIRR - World Rowing Downunder - Home - Sydney International Rowing ...
p126
sa(dp127
g3
VThe first German Championships in this category were held in 1937 ... rowing association in the world. ... Cup, first weekend in October, international long ...
p128
sg5
VCountry Profiles - Germany - BhFinder.com
p129
sa(dp130
g3
V... and the late Charles McIntyre, also an international rowing ... Rowing Championship, held for the first time ... Collegiate Rowing Association ...
p131
sg5
VHistory | Seattle University Rowing Foundation
p132
sa(dp133
g3
VGalleryWorld Cup. QuizThe Literary ... the first open regatta for amateurs was held in 1872.) ... the International Rowing Federation) was founded. Events in rowing ...
p134
sg5
Vrowing (boat propulsion and sport) -- Encyclopedia Britannica
p135
sa(dp136
g3
VThe 2009 FISA Rowing World Championships will be held in ... the first Rowing World Cup regatta of ... of the International Rowing Federation and the ...
p137
sg5
VArchive of latest news items: July 2009 - Rowing Australia home page
p138
sa(dp139
g3
VThis race also made rowing the first intercollegiate sport contested in the ... The FISA (International Rowing Federation) ... at World Cup II in Lucerne ...
p140
sg5
V'12 Facts ... you might not know about rowing
p141
sa(dp142
g3
VSudan held the first rowing and canoe championships for ... at last month's World Rowing Cup in ... the international rowing federation. Latest world rowing ...
p143
sg5
Vwww.worldrowing.com | Facebook
p144
sa(dp145
g3
V... (the first rowing club in ... rowing boats produced by the world's ... The organizers of this unique regatta are the International Rowing Federation ...
p146
sg5
VAbout club
p147
sa(dp148
g3
VFISA is the oldest international sport federation. ... Though rowing competition was not held on the first Games ... Rowing events in Olympic Games (OG) and World ...
p149
sg5
VCoachesInfo.com - information and education for coaches - Rowing ...
p150
sa(dp151
g3
VInternational Rowing Federation ... First world rowing forum is held in 2002 in Italy. ... Rowing World Cup - Hazewinkel, ...
p152
sg5
VWORLD ROWING - Giuseppe Repetto Photographer
p153
sa(dp154
g3
V... (the first rowing club in ... rowing boats produced by the world's ... The organizers of this unique regatta are the International Rowing Federation ...
p155
sg5
VAbout club
p156
sa(dp157
g3
VFISA is the oldest international sport federation. ... Though rowing competition was not held on the first Games ... Rowing events in Olympic Games (OG) and World ...
p158
sg5
VCoachesInfo.com - information and education for coaches - Rowing ...
p159
sa(dp160
g3
VInternational Rowing Federation ... First world rowing forum is held in 2002 in Italy. ... Rowing World Cup - Hazewinkel, ...
p161
sg5
VWORLD ROWING - Giuseppe Repetto Photographer
p162
sa(dp163
g3
VSydney World Cup ... tie gala dinner held at Auckland ... Year from the International Rowing Federation on winning the Coach of the year ...
p164
sg5
VRowing New Zealand  Rowers sweep up Halberg Awards
p165
sa(dp166
g3
VHe is recognised as an American by the International Olympic ... of the World Cup, which will be held outside ... at the first regatta of the Rowing World Cup ...
p167
sg5
VOlympic champion to team up with new partner as GB Rowing World ...
p168
sa(dp169
g3
VOrganizers also see the 600-acre park as a place for veterans and first ... or the International Federation of Rowing ... they plan to attend World Cup ...
p170
sg5
VManatee-Sarasota rowing-mall project moving toward new deadlines ...
p171
sa(dp172
g3
VInternational Rowing Federation FISA ... Though rowing competition was not held on the first Games ... Rowing events in Olympic Games (OG) and World ...
p173
sg5
VROWING HELLAS: Rowing biomechanics
p174
sa(dp175
g3
V2012 Samsung World Rowing Cup Munich, ... Sudan held the first rowing and canoe championships for ... the international rowing federation. Latest world rowing ...
p176
sg5
Vwww.worldrowing.com | Facebook
p177
sa(dp178
g3
Vtaken and held through ... The Federation Internationale des Societes d\u2019Aviron is the international rowing federation ... Organises a series of 3 World Cup ...
p179
sg5
VGlossary of Rowing Terms - British Rowing | The National Governing ...
p180
sa(dp181
g3
VThe Official Website of the International Sailing Federation (ISAF), ... ISAF Sailing World Cup; Shop; Sailor Log-in; New Sailor ID; The Official Website of the
p182
sg5
VInternational Sailing Federation
p183
sa(dp184
g3
VSudan held the first rowing and canoe ... single sculls at the 2013 Sydney World Rowing Cup? ... international rowing federation. Latest world ...
p185
sg5
Vwww.worldrowing.com | Facebook
p186
sa(dp187
g3
V... (his first international ... Captured second varsity eight at the 2005 Intercollegiate Rowing Association ... Gold in eight at the 2004 Rowing World Cup ...
p188
sg5
VState Links To London Olympics: Rowing | KING5.com Seattle
p189
sa(dp190
g3
VSouth Australian Rowing Association, ... the international governing body for Rowing. ... (Adelaide Rowing Club) won a Junior World Championship as part of the ...
p191
sg5
VRowing South Australia
p192
sa(dp193
g3
VThe first modern rowing races, ... Events are held at the World Rowing Championships and are also due to take place at the ... International Rowing Federation (FISA ...
p194
sg5
VSport rowing - Who or What is Sport rowing? Find out more
p195
sa(dp196
g3
VGhana\u2019s international rowing athlete. Login ... the Samsung World Rowing Cup I here in ... living in France which is where he had his first experience of rowing.
p197
sg5
VGhana\u2019s international rowing athlete - GhanaNation News
p198
sa(dp199
g3
VOpen Letter Sydney International Rowing Regatta; ... to signup for the next Level 1 coaching couse to be held at Canning Bridge on ... Samsung World Cup 3 Lucerne ...
p200
sg5
VRowing WA
p201
sa(dp202
g3
VInternational Rowing Federation FISA was founded in 1892. ... Though rowing competition was not held on the first Games in ... World and Olympic
p203
sg5
VRowing Biomechanics
p204
sa(dp205
g3
VMany of the crews that raced earlier this month at the first 2004 BearingPoint Rowing World Cup in ... held each summer. Early ... international rowing federation ...
p206
sg5
VGeometry.Net - Sports: Rowing
p207
sa(dp208
g3
VWorld Championships have been held since ... International Rowing has ... the IARU has applied to host the U23 Nations' Cup ( the unofficial world ...
p209
sg5
VMore Information | Rowing Ireland
p210
sa(dp211
g3
V... or rowing (one oar, held by both hands ... Canadians have achieved considerable success in international rowing ... won Canada's first world championship on 7 ...
p212
sg5
VRowing - The Canadian Encyclopedia
p213
sa(dp214
g3
V... take part in the 2013 World Rowing University ... Bourke first took up rowing at university and ... World Rowing Championships are usually held every two ...
p215
sg5
VNZ team named to contest University World Rowing Champs - Yahoo ...
p216
sa(dp217
g3
VHenley Regatta was first held in 1839 and has ... it occupies a unique position in the world of rowing. ... or of the International Rowing Federation ...
p218
sg5
VHenley Royal Regatta 09 - Dandy Stipes, Rowing and Pimm's No. 1 or ...
p219
sa(dp220
g3
VRowing was first used as a means of transport in ancient Egypt, ... the reunified German team is among the best in the world. ... International Rowing Federation.
p221
sg5
VEquipment and History - Olympics | Olympic Medals, Results, Videos ...
p222
sa(dp223
g3
V... 2013 World Rowing ... World Rowing Championships are usually held every two years and are usually held in even years. The Universiade is an international ...
p224
sg5
VNZ team named to contest University World Rowing Champs - Yahoo!7 ...
p225
sa(dp226
g3
VBritain's first international competition was held at ... Britain has remained amongst the world's leading rowing ... was the first rowing association and the ...
p227
sg5
VA Competition - Rowing & Sculling
p228
sa(dp229
g3
VThe first of its kind ... National Rowing Association, the event will be held at the site of USRowing ... Princeton stop on the 2001 FISA World Cup ...
p230
sg5
VROWING: 2010 USRowing Collegiate Championship Begins Saturday ...
p231
sa(dp232
g3
V... first place in the 1990 Women's World ... Named by U.S. Rowing Association as ... Has competed in 50 foot yachts in more than 30 international World Cup ...
p233
sg5
VAmerica's Cup: America3 Foundation: 1995 Women's Team Crew ...
p234
sa(dp235
g3
V"As this is the first of what is now one of the world's ... has held the honors ... by the Victorian Rowing Association for the Cup with the suggestion ...
p236
sg5
VInterstate Men's Eight-Oared Championships - Australian Rowing History
p237
sa(dp238
g3
VThe new Rowing Association held its first ... In 1912 a Sydney Rowing Club crew competed in an international ... The First World Rowing Championships was held ...
p239
sg5
VSydney Rowing Club
p240
sa(dp241
g3
V... this time at a World Cup regatta held on the sunny ... books with the first ever senior world-class ... international world cup regatta ...
p242
sg5
VGolden day for Britain's Olympic rowing champions on waters of ...
p243
sa(dp244
g3
VThe first modern rowing races, ... International Rowing Federation; USRowing; ... World Cup, Junior World Champs; External links.
p245
sg5
VRowing - Definition | WordIQ.com
p246
sa(dp247
g3
V... called the Doggett's Coat and Badge first started in 1716 and is still held each summer. ... International Rowing Federation (FISA) ... World Cup, Junior World ...
p248
sg5
VRowing - Academic Kids
p249
sa(dp250
g3
VBrazilian football stars Ronaldo and Bebeto played in the first match held ... 2012 Samsung World Rowing Cup ... the international rowing federation. Latest world ...
p251
sg5
Vwww.worldrowing.com | Facebook
p252
sa(dp253
g3
VThe lowdown on what makes the perfect rowing eight needed to win the Boat Race. ... World Results . Calendar . American ... more than in international competition, ...
p254
sg5
VBBC SPORT | Other Sport... | Rowing | How the eight work
p255
sa(dp256
g3
V... due to constraints involving the extended National Championship/World Cup ... their first season of rowing. ... Schools Rowing Association ...
p257
sg5
VRowing ACT: News
p258
sa(dp259
g3
V... the A.R.A.E. became active in 1933 when its first Regatta was held ... coveted rowing trophies in this part of the world ... (International Rowing Federation).
p260
sg5
VCulcutta Rowing Club
p261
sa(dp262
g3
VSailing is one of the oldest sports in the world. ... Championships was held from 28 to 30 March 2013 ... President Qatar Sailing & Rowing Federation, ...
p263
sg5
VQatar Sailing & Rowing Federation
p264
sa(dp265
g3
V... (his first international ... Captured second varsity eight at the 2005 Intercollegiate Rowing Association ... Gold in eight at the 2004 Rowing World Cup ...
p266
sg5
VState Links To London Olympics: Rowing | Sportspress Northwest
p267
sa(dp268
g3
VOffsetters co-founder still seeking further gains after helping Vancouver 2010 become first ... International Rowing Federation ... at the Rowing World Cup in ...
p269
sg5
VRowing - insidethegames.biz - Olympic, Paralympic and Commonwealth ...
p270
sa(dp271
g3
VInternational Rowing. High Performance; Media Coverage; Olympic Council of Ireland; Junior Rowing; ... having won multiple World Championships over the last two decades.
p272
sg5
VRowing Ireland |
p273
sa(dp274
g3
VThe first regatta of the season is being held this ... that rowing's international association gives for ... at the last of the Rowing World Cup ...
p275
sg5
VACT Rowing Association archive 2003
p276
sa(dp277
g3
VMahe Drysdale of New Zealand celebrates his victory in the Men's Single Sculls Final A during day three of the FISA Rowing World Cup at ... International Association ...
p278
sg5
VAIPS Web Site - World Rowing seeks input on best performers
p279
sa(dp280
g3
VRichard Chambers won another World Cup gold medal in Lucerne, ... (Coleraine Old Boys Rowing Association) ... but an International Rowing Umpire as well.
p281
sg5
VC.O.B.R.A.
p282
sa(dp283
g3
VWA Results at the Sydney International Rowing ... The former ACT Rowing Association held unofficial ... for the first ever World Cup event to be held in Australia ...
p284
sg5
VRowing WA News
p285
sa(dp286
g3
V... for supporters of the Maadi Cup Rowing Regatta 2013 to be held out at ... from the World Cup Rowing venue ... Cup it was first raced for in 1947 at ...
p287
sg5
VMaadi Cup 2013 accommodation available | Cambridge NZ & Lake Karapiro
p288
sa(dp289
g3
VThe quartet won their World Cup races and Foster helped the ... when he felt the best boat is the four and held showdown ... International Rowing Federation
p290
sg5
VBBC SPORT | ROWING AND WATER SPORTS | Foster's struggle to reach ...
p291
sa(dp292
g3
V... at the Sydney World Rowing Cup, ... for selection into the first World Rowing Championships team of ... will be held at Sydney International Regatta ...
p293
sg5
VRowing Australia: latest news
p294
sa(dp295
g3
VThe race was the inaugural event put on by what would become the North Western International Rowing Association. ... the City held a large ... first World Gold ...
p296
sg5
VHistory of WRC | Winnipeg Rowing Club
p297
sa(dp298
g3
VFirst club in Auckland to complete programme and to be audited in ... NZ Men\u2019s LW 2x 2011 World Cup; ... 2011 Auckland Rowing Association Awards. Sam Henry. New ...
p299
sg5
VNews | The Auckland Rowing Club (Inc.)
p300
sa(dp301
g3
VCRCA announces the inception of the Women's Collegiate Rowing Coaches Hall of Fame. Mission: To provide a forum to honor coaches who have achieved competitive ...
p302
sg5
VAwards - Hall of Fame :: Collegiate Rowing Coaches Association
p303
sa.