(lp1
(dp2
S'description'
p3
VThe Leaning Tower of Pisa (Italian: ... The tower's tilt began during construction, ... the engineers built upper floors with one side taller than the other.
p4
sS'title'
p5
VLeaning Tower of Pisa - Wikipedia, the free encyclopedia
p6
sa(dp7
g3
VAlthough Pisa is known worldwide for its leaning tower ... Pisa began in this way its rise to the ... and consequently against Pisa too. One year later he ...
p8
sg5
VPisa - Wikipedia, the free encyclopedia
p9
sa(dp10
g3
VDiscover all about the history of the leaning tower of Pisa. ... The construction of the Tower of Pisa began on August 9, ... After the 100 year hiatus, ...
p11
sg5
VHistory of The Leaning Tower of Pisa
p12
sa(dp13
g3
VThe tower was built with limestone and lime ... From start to finish, the leaning tower of Pisa took over 800 years to be constructed- probably the longest ...
p14
sg5
VConstruction of the Leaning Tower of Pisa
p15
sa(dp16
g3
VThe leaning tower of Pisa leans ... it was built on unstable soil. The building began to lean ... tower leans a little bit more each year and ...
p17
sg5
VWhy did leaning tower of pisa start leaning? - Yahoo! Answers
p18
sa(dp19
g3
VThe tower began to sink after construction had ... The tower leans a little bit more each year and was closed for ... The Leaning Tower of Pisa leans at about a 3 ...
p20
sg5
VHow did the Leaning Tower of Pisa lean - The Q&A wiki
p21
sa(dp22
g3
VThe Leaning Tower of Pisa was built to be a freestanding ... soil caused the tower to begin sinking by the ... Towers in Italy. The Leaning Tower of Pisa ...
p23
sg5
VThe History of Leaning Tower of Pisa | eHow.com
p24
sa(dp25
g3
VThe ground floor was built using beautiful white ... the same time the Tower of Pisa began to ... over 1,000,000 tourists visit the Leaning Tower of Pisa each year.
p26
sg5
VLeaning Tower of Pisa - The Wonders of the World
p27
sa(dp28
g3
VHistory of the Leaning Tower of Pisa. ... The islands controlled by Pisa were lost and the influence began to decline. By the: 15th ...
p29
sg5
VTower of Pisa History - Leaning Tower of Pisa
p30
sa(dp31
g3
VAbout Leaning Tower of Pisa. ... , was built. Piazza dei Miracoli of Pisa is the most splendiferous ... The construction of Tower of Pisa began in ...
p32
sg5
VLeaning Tower of Pisa
p33
sa(dp34
g3
VThe Leaning Tower of Pisa was built as a part of Piazza dei ... the tower began to lean ... one of the world\u2019s most famous towers. Leaning Tower of Pisa ...
p35
sg5
VLeaning Tower of Pisa, Pisa - Worldsiteguides.com - Travel ...
p36
sa(dp37
g3
VOfficially known as the Torre pendente di Pisa, the leaning tower is a freestanding bell tower of the of the cathedral of the Italian city of Pisa.
p38
sg5
VWhy Does The Leaning Tower Of Pisa Lean? | Did You Ever Wonder?
p39
sa(dp40
g3
VThe leaning tower of Pisa ... Although the plan is built vertically, the tower began to ... The re-construction was stopped in the year 1284, when Pisa ...
p41
sg5
VLeaning Tower of Pisa - YouTube
p42
sa(dp43
g3
V- The Leaning Tower of Pisa - ... imposing mass was started in the year 1174 by ... who desire to imagine that great tower was built inclined is entirely ...
p44
sg5
VItalyGuides.it: The Leaning Tower of Pisa - Pisa, Italy
p45
sa(dp46
g3
VI've written before about my experience visiting the Leaning Tower of Pisa, ... towers, and many of them are also leaning ... year): \u201cThe start of the ...
p47
sg5
VLeaning Tower of Pisa | Italy Travel Guide
p48
sa(dp49
g3
VThe Leaning Tower of Pisa is the famous bell tower, in Italy, that began to lean in the year 1173. It was built to display the wealth of the people of Pisa.
p50
sg5
VThe Leaning Tower of Pisa - ThinkQuest
p51
sa(dp52
g3
VThe leaning tower of Pisa has opened its doors to ... monuments in 1990 after the tower began to ... cemetery built when Pisa was one of the ...
p53
sg5
VCNN.com - Less leaning tower of Pisa reopens - December 15, 2001
p54
sa(dp55
g3
VLearn why the tower leans, and why it was built. SITE ... buildings is surely the Leaning Tower of Pisa. ... marble tower began to tilt even before its ...
p56
sg5
VTLC Family "The Leaning Tower of Pisa"
p57
sa(dp58
g3
VThe leaning tower of Pisa began tilting 5 years after it was built. This is because it had been built on a dense clay mixture that was not strong enough to hold
p59
sg5
VFacts on the Leaning Tower of Pisa? - Ask.com
p60
sa(dp61
g3
VThe Pisa Tower, otherwise known as the Leaning Tower of Pisa, ... Construction on the Pisa Tower began in August of 1173. ... This was the year the lean first became ...
p62
sg5
VLeaning Tower of Pisa - Pisa, Tuscany - Wikiveler
p63
sa(dp64
g3
V... its construction began. The leaning happened due to the Pisa tower location when ... of tourists every year leave ... Leaning tower of Pisa built?
p65
sg5
VPisa Italy Attractions - Travel to Tuscany? Make it Special!
p66
sa(dp67
g3
V... the Leaning Tower of Pisa leaned an inch less than it had at the beginning of the year. ... But we'd start getting complaints, ...
p68
sg5
VNOVA Online | Fall of the Leaning Tower | Where it Stands Today
p69
sa(dp70
g3
VTheir task was to figure out how to save an 800-year-old historic building ... the world famous Leaning Tower of Pisa ... Such towers were commonly built in 10th ...
p71
sg5
VSeven Wonders of the Medieval World: Leaning Tower of Pisa
p72
sa(dp73
g3
VFew sites are more universally known than Italy's Leaning Tower of Pisa Due to ... the tower shifted and began ... All are built in in the Pisa Romanesque ...
p74
sg5
VPisa
p75
sa(dp76
g3
VThe Leaning Tower of Pisa was originally built ... Leaning Tower of Pisa. The construction began ... Tower of Pisa was built. In the same year, ...
p77
sg5
VYahoo! Answers - History of the leaning tower of piza?
p78
sa(dp79
g3
VIt then became visibly clear that the Tower of Pisa is leaning, ... Since regular measuring of the tower began in ... that the 800-year old tower will remain leaning.
p80
sg5
VLeaning Tower of Pisa has never been straight - Did you know?
p81
sa(dp82
g3
VThe leaning tower of Pisa was begun in 1173, and after the first three stories were built, the ground started to sink, and the tower began to lean. It has continued
p83
sg5
VLeaning Tower of Pisa? - Ask.com
p84
sa(dp85
g3
V177 years.== Wikipedia: Leaning Tower of Pisa== The Leaning Tower of Pisa (Italian: ... Please start with words like "Who, What, Where, When, Why, How, etc ...
p86
sg5
VHow many years did it take to build the Leaning Tower of Pisa ...
p87
sa(dp88
g3
V... but poor foundations and unstable ground caused it to start leaning ... The Leaning Tower of Pisa is almost 56 metres high and has 294 steps. It was built in ...
p89
sg5
VPisa, Italy
p90
sa(dp91
g3
VSolving the 800-year mystery of Pisa's Leaning Tower ... the city elders built a ... co spent the end of 1995 and start of 1996, an election year, ...
p92
sg5
VSolving the 800-year mystery of Pisa's Leaning Tower - Telegraph
p93
sa(dp94
g3
VWhy did the Leaning Tower of Pisa start leaning? It was built on clay, not stone. ... What year did the leaning tower of pisa start leaning?
p95
sg5
VWhat caused the Leaning Tower of Pisa to start leaning - The Q&A wiki
p96
sa(dp97
g3
VConstruction of this bell-tower began in the year ... the time when the third floor had been built. ... in the year 1350, the Leaning Tower of Pisa had a full ...
p98
sg5
VLeaning Tower Of Pisa, The Leaning Tower of Pisa, History of ...
p99
sa(dp100
g3
VWhat most people don't know is that the tower has actually been leaning from the very start ... They built the tower ... and the leaning tower of pisa ...
p101
sg5
VHow did the Leaning Tower of Pisa tip? - Yahoo! Answers
p102
sa(dp103
g3
VFacts About the Leaning Tower of Pisa. ... Construction of the Tower of Pisa began in 1173, ... The Tower's tilt is the result of being built on a soft soil bed.
p104
sg5
VFacts About the Leaning Tower of Pisa | eHow
p105
sa(dp106
g3
VThe Leaning Tower of Pisa, ... who built the Tower? ... Before the restoration work began in 1990, the tower leaned at an angle of 5.5 degrees.
p107
sg5
VLeaning Tower of Pisa Facts - Buzzle
p108
sa(dp109
g3
VWhat is now known as the Leaning Tower of Pisa, was built to be a bell ... in Pisa. Construction began in 1173 ... the year 1250 and attempts ...
p110
sg5
VBryce - Building the Leaning Tower of Pisa - Mulawa Dreaming
p111
sa(dp112
g3
V... on how to save the renowned Leaning Tower of Pisa from ... began on the Leaning Tower, ... year, a concrete foundation was built around the tower in ...
p113
sg5
VLeaning Tower needs help \u2014 History.com This Day in History \u2014 2 ...
p114
sa(dp115
g3
VThe Leaning Tower of Pisa is one of ... is actually the bell tower for the Cathedral of Pisa. It was built in ... The tower began leaning within a ...
p116
sg5
VClimbing the Leaning Tower of Pisa - Yahoo! Voices - voices.yahoo.com
p117
sa(dp118
g3
VThe tower began to sink ... the Leaning Tower of Pisa. ... the Pisa and Suurhusen towers, ...
p119
sg5
VMedieval World Wonders-Leaning Tower of Pisa
p120
sa(dp121
g3
V... three stories were built. Leaning Tower of Pisa ... year. Engineers hope to stabilize the tower's foundation and ... tower began leaning to the southeast ...
p122
sg5
VLeaning Tower of Pisa, Pisa, Italy Tourist Attractions and Travel
p123
sa(dp124
g3
VFind information on the Leaning Tower Of Pisa and learn the ... it wasn"t until five years later that began to ... the tower was built upon a dense clay ...
p125
sg5
VLeaning Tower Of Pisa - Online Travel Guides of Travel ...
p126
sa(dp127
g3
VGIARDINO Tower Inn Hotel*** is located near the Leaning Tower ... 50 meters away from the Hotel and 100 from the Tower of Pisa. ... The land reclamation that began ...
p128
sg5
VHotel Pisa Giardino - Pisa hotels - hotels Station Pisa - Pisa ...
p129
sa(dp130
g3
VThe four most notable Pisan buildings are the Leaning Tower of Pisa ... is dominated by the nearly 1,000-year-old Duomo di Pisa ... the tower began leaning ...
p131
sg5
VPISA, ITALY - Leaning Tower - Duomo - Camposanto Monumentale
p132
sa(dp133
g3
VThe Leaning Tower of Pisa ... The next four floors were built then diagonally, ... Near the entrance are carved month and year of start of construction: ...
p134
sg5
VLeaning Tower of Pisa - Paradise in the World
p135
sa(dp136
g3
VLeaning Tower of Pisa, ... the tower began leaning to the southeast soon after ... Construction of the Tower of Pisa The Tower of Pisa was built in three stages over ...
p137
sg5
VLeaning Tower of Pisa, Italy World Heritage Site
p138
sa(dp139
g3
VAs the mercantile fortunes of the citizens of Pisa faded the famous tower began to settle on its unstable foundation ... Leaning Tower of Pisa in ...
p140
sg5
VThe Leaning Tower of Pisa - History & Pictures
p141
sa(dp142
g3
VThe Leaning Tower of Pisa, ... the tower began to lean very ... The reason for the lean is that the ground on which it was built is sandy and unstable and the ...
p143
sg5
VLeaning Tower of Pisa | Pisa | Italy | High Medieval (1000AD ...
p144
sa(dp145
g3
VThe leaning Tower of Pisa is one of the ancient Seven Wonders ... and shells that the tower is built on. ... the Tower of Pisa stopped sinking and began to ...
p146
sg5
VTower of Pisa: The Leaning Tower of Pisa - Construction Industry ...
p147
sa(dp148
g3
VLeaning Tower of Pisa, Italian Torre Pendente di Pisa , medieval structure in Pisa, Italy, ... (1.2 mm) per year, and was in danger of collapse.
p149
sg5
VLeaning Tower of Pisa (tower, Pisa, Italy) -- Encyclopedia Britannica
p150
sa(dp151
g3
VLeaning Tower of Pisa La Torre di Pisa. Pisa Italy: Status: built: Construction Dates: Began: 1173: Finished: 1360: Floor Count: 8: Building Uses - observation ...
p152
sg5
VLeaning Tower of Pisa, Pisa - SkyscraperPage.com
p153
sa(dp154
g3
VLeaning Tower of Pisa La Torre di Pisa. Pisa Italy: Status: built: Construction Dates: Began: 1173: Finished: 1360: Floor Count: 8: Building Uses - observation ...
p155
sg5
VLeaning Tower of Pisa, Pisa - SkyscraperPage.com
p156
sa(dp157
g3
VThe Leaning Tower of Pisa, ... this leaning tower thing. Perhaps it was meant to be built like ... millions of people every year make the ascent up the narrow ...
p158
sg5
VThe Leaning Tower of Pisa: Why does Pisa Tower lean? - Time Travel ...
p159
sa(dp160
g3
VConstruction began in 1173 and the tower started leaning soon afterwards ... they are built on, there are other 2 towers in Pisa: ... the leaning tower of Pisa.
p161
sg5
VPisa \u2013 Travel guides at Wikivoyage
p162
sa(dp163
g3
VThe Leaning Tower of Pisa ... the tower began leaning to the southeast soon after the onset of construction in 1173 due to ... It was built by Tommaso di ...
p164
sg5
VLeaning Tower of Pisa, a photo from Pisa, Tuscany | TrekEarth
p165
sa(dp166
g3
V... The Leaning Tower of Pisa. ... Before we start our virtual tour above the famous Falling Tower of Pisa ... who believe that ancient Greeks or Ligures built Pisa.
p167
sg5
VLeaning Tower of Pisa, Tuscany, Central Italy | 360 Degree Aerial ...
p168
sa(dp169
g3
VThe leaning tower of Pisa ... As its power as a naval base began to decline, Pisa ... Carnevale/Mardi Gras season is gearing up to be another spectacular year ...
p170
sg5
VPisa Italy - Online Travel Guides of Travel Destinations - Las ...
p171
sa(dp172
g3
VBrowse through more than 0 Leaning Tower hotels in Pisa. Photos, descriptions, ... Start of main content. ... built of glowing white marble, ...
p173
sg5
VLeaning Tower Hotels in Pisa. Find & compare Hotels near Leaning ...
p174
sa(dp175
g3
V'The Leaning Tower of Pisa' is one of the world's most ... It took 177 years for the tower to be built into full ... the tower began to sink due to weak three -meter ...
p176
sg5
VWhy does 'Leaning Tower of Pisa' lean ? - mightylearning on HubPages
p177
sa(dp178
g3
VThe Leaning Tower of Pisa ... tower began in 1173, when Pisa was a powerful maritime republic. But it was a monument built on shifting soil. The tower's south ...
p179
sg5
VITALIA - Leaning Tower of Pisa
p180
sa(dp181
g3
VThe leaning tower of Pisa began tilting 5 years after it was built. This is because it had been built on a dense clay mixture that was not strong enough to hold
p182
sg5
VFacts on the Leaning Tower of Pisa? - Ask Jeeves
p183
sa(dp184
g3
VLeaning Tower of Pisa (Italian: ... After the third floor was built in 1178, the tower began to tilt because the foundation stands on land that is not stable.
p185
sg5
VTower of Pisa Italy | To Travelling
p186
sa(dp187
g3
VThe history of the Leaning Tower of Pisa is ... the last floor was built. In the same year, ... towers were demolished except the Leaning Tower of Pisa ...
p188
sg5
VThe Leaning Tower of Pisa & History of Leaning Tower of Pisa
p189
sa(dp190
g3
VAlthough the Leaning Tower of Pisa has been ... No problems were experienced with the tendons and the soil removal began in February of this year with almost ...
p191
sg5
VTower of Pisa
p192
sa(dp193
g3
VLeaning Tower of Pisa is one of the forgotten ... When the first three floors were built he began to sink slowly to ... Each year its vertical gradient increased ...
p194
sg5
VThe Leaning Tower of Pisa - lolbull.com -
p195
sa(dp196
g3
VIt is one of the heaviest leaning towers in the ... "..The Leaning Tower of Pisa was built as a part of Piazza dei Miracolli ... JJBeatsOfficial 1 year ago
p197
sg5
VLeaning Tower of Pisa, Pisa [HD] - YouTube
p198
sa(dp199
g3
VBells ring out as tourists once again climb the leaning Tower of Pisa, after an 11-year operation ... developed a tilt almost from the start because it was built on ...
p200
sg5
VBBC News | EUROPE | Pisa's leaning tower reopens
p201
sa(dp202
g3
VLeaning Tower of Pisa ... It was intended to stand vertically but began to lean soon ... This is a religious building in Pisa, which was built in the year 1152 ...
p203
sg5
VLeaning Tower of Pisa Pisa - Monuments and Historic Buildings
p204
sa(dp205
g3
VThis ecclesiastical city began its life as ... The Leaning Tower of Pisa isn't the only ... The Other Leaning Towers!' More information about Pisa ...
p206
sg5
VPisa Travel Guide and Tourist Information: Pisa, Tuscany, Italy
p207
sa(dp208
g3
VRead on to learn more about each leaning tower. 1. Two Towers ... stabilize the tower. 5. Leaning Tower of Pisa, ... Built on soft clay, however, the tower began to ...
p209
sg5
VTHE WORLD GEOGRAPHY: 11 Leaning Towers From Around the World
p210
sa(dp211
g3
VConstruction began in 1173 and the tower started leaning soon ... are built on, there are other 2 towers in Pisa: ... Pisa's leaning tower. 30 ...
p212
sg5
VPisa travel guide - Wikitravel
p213
sa(dp214
g3
VTower began leaning soon after ... per year and in serious danger of collapse ... Tags: National Historic Landmarks, National Monuments, Towers. Category: Pisa.
p215
sg5
VTower of Pisa , Italy - The best places to visit, travel ...
p216
sa(dp217
g3
VThe Romans built Porto Pisano, ... Work began on the city's infamous Leaning Tower in around ... work began on strengthening and preserving the Leaning Tower of Pisa.
p218
sg5
VPisa History Facts and Timeline: Pisa, Tuscany, Italy
p219
sa(dp220
g3
VLeaning Tower of Pisa for Kids ... So the architects built it on soft ground, ... and as soon as they were done it began to slowly tilt over sideways.
p221
sg5
VLeaning Tower of Pisa - Medieval Architecture for Kids!
p222
sa(dp223
g3
VThe Leaning Tower of Pisa is one of the most famous structures in the world ... the tower began to shift on its foundations in 1178, before the architect, ...
p224
sg5
VLeaning Tower of Pisa - Pisa Attractions | Viator.com
p225
sa(dp226
g3
VWhen did the leaning tower of pisa start to lean? ... How much does the Leaning Tower of Pisa lean each year? ... In which city was the Leaning Tower of Pisa built?
p227
sg5
VWhen did the leaning tower of pisa start to lean? | Answerbag
p228
sa(dp229
g3
VPisa weather & climate: ... is like during any month of the year. ... Ever since the tower was built it is leaning over off center for about 4 meters.
p230
sg5
VPisa climate info | what\u2019s the weather like in Pisa, Italy
p231
sa(dp232
g3
VEvery year the deviation of the Pisa tower was growing, ... "By the time the Leaning Tower of Pisa was 10% built, everyone knew it would be a total disaster.
p233
sg5
VThe Leaning Tower of Pisa Facts for Kids and for All
p234
sa(dp235
g3
VThe Leaning Tower of Pisa ... the tower began leaning to the southeast soon after the onset of ... ^ The tower was originally built as bell-tower for the Pisa ...
p236
sg5
VLeaning Tower of Pisa - The Full Wiki - Students, get citable ...
p237
sa(dp238
g3
VThe Leaning Tower of Pisa is the famous tower, ... that began to lean in the year 1173. The leaning Tower of Pisa is a medieval arhitecture, ... When Was Big Ben Built?
p239
sg5
VWhy is The Tower of Pisa Leaning - Woondu - Best News and Funny ...
p240
sa(dp241
g3
VThe Leaning Tower of Pisa. By. Robert W. Shearer. Footer. About; Contact; Activity; Support ...
p242
sg5
VThe Leaning Tower of Pisa | Suite101
p243
sa(dp244
g3
VHe built a tower on a piece of ... which saw the bell tower of Pisa begin to lean only a few years after its ... the Leaning Tower of Pisa has leaned for nearly ...
p245
sg5
VLeaning Tower of Pisa : Things To Do | Tuscany Things to Do
p246
sa(dp247
g3
VLeaning Tower of Pisa, Pisa, ... The Bell Tower of Saint Mary Built: 1173-1350 Renovated: 1373 ... I was in Italy for march break this year ...
p248
sg5
VThe Leaning Tower of Pisa (Torre Pendente di Pisa) : Piazza dei ...
p249
sa(dp250
g3
VDesigned in 1174 by Italian sculptor Bonanno Pisano, the Leaning Tower of Pisa began to slowly sink right after laborers started building it 800 years ago.
p251
sg5
VHistory of the Leaning Tower of Pisa | History of Things
p252
sa(dp253
g3
V\u0628\u0631\u062c \u0628\u064a\u0632\u0627 \u0627\u0644\u0645\u0627\u0626\u0644 Leaning Tower of Pisa ... the Tower began Leaning to the southeast soon after the onset of ... the engineers built upper floors ...
p254
sg5
V\u0628\u0631\u062c \u0628\u064a\u0632\u0627 \u0627\u0644\u0645\u0627\u0626\u0644 Leaning Tower of Pisa
p255
sa(dp256
g3
VConstruction on the Leaning Tower of Pisa began in 1173 and stopped in ... year of war, the tower began to lean and ... power at the time the tower was built.
p257
sg5
VInformation on the Leaning Tower of Pisa in Italy | USA Today
p258
sa(dp259
g3
VThe tower began to lean even during construction, after the first three stories were built, ... Visitors to the Leaning Tower of Pisa can climb these towers and ...
p260
sg5
VLeaning Tower of Pisa, Italy - Location, Facts, Picture - World Map
p261
sa(dp262
g3
VThe Leaning Tower of Pisa no longer leans quite so ... in an entire year," said ... that the tower at Pisa, which was similarly built and on ...
p263
sg5
VLeaning Tower of Pisa is saved from collapse - Telegraph
p264
sa(dp265
g3
VLeaning Tower of Pisa, ... the tower began leaning to the southeast soon after ... Construction of the Tower of Pisa The Tower of Pisa was built in three stages over ...
p266
sg5
VLeaning Tower of Pisa, Italy | World Greatest Sites
p267
sa(dp268
g3
VThe area of miracles and The Leaning Tower of Pisa - The Most Famous Towers ... waited a whole year. ... There is a version that the Leaning Tower of Pisa was built ...
p269
sg5
VThe Leaning Tower of Pisa - The Most Famous Towers in the World
p270
sa(dp271
g3
V... pg. 72) The Tower was built ... it began to shift. Also like the Tower of Pisa, ... Winter is the most dangerous time of year for the Leaning Tower of Pisa ...
p272
sg5
VFailures - Tower of Pisa
p273
sa(dp274
g3
VLeaning Tower of Pisa is one of the forgotten ... When the first three floors were built he began to sink slowly to ... Each year its vertical gradient increased ...
p275
sg5
VThe Leaning Tower of Pisa | Dumage
p276
sa(dp277
g3
VA half-size replica of Italy's famous Leaning Tower of Pisa, ... A plaque at its base says it was built to honor the outstanding scientist Galileo ... Start here. Use ...
p278
sg5
VLeaning Tower of Niles, Niles, Illinois - Roadside America - Guide ...
p279
sa(dp280
g3
V... Italy's Leaning Tower of Pisa reopens after a team of experts spent 11 years and $ ... the tower's foundation began to sink ... In the year before its ...
p281
sg5
VLeaning Tower of Pisa reopens \u2014 History.com This Day in History ...
p282
sa(dp283
g3
VPisa's tourist-magnet Leaning Tower was in danger ... and it began to lean a little more every year. ... was built between 1063 and 1350. The tower ...
p284
sg5
VDec. 15, 2001: Leaning Tower of Pisa Reopens With New Angle
p285
sa(dp286
g3
VA tower is built that's meant to be ... the tower began leaning to the southeast soon after it's construction in 1173 due to a ... Pisa (Leaning Tower of Pisa) ...
p287
sg5
VThe Leaning Tower of Pisa - Pisa - Reviews - TravBuddy
p288
sa(dp289
g3
VThe Leaning Tower of Pisa Mike Bartusiewicz, ... Tower was built would not ... \u2022 Main soil extraction began in the year 2000, ...
p290
sg5
VThe Leaning Tower of Pisa - Iowa State University
p291
sa(dp292
g3
VThe Leaning Tower of Pisa or simply Torre di Pisa ... where the bell-tower is situated. The bell-tower was built by ... This made the tower begin to lean in ...
p293
sg5
VThe Tower, Pisa 463 Insider Tips, Photos and Reviews.
p294
sa(dp295
g3
VReview of the Leaning Tower in Pisa, Italy. What to see, ... The tower was built to house the bells for the lovely cathedral and construction began in 1173.
p296
sg5
VLeaning Tower of Pisa Review - Tickets, Opening Times & Map | Free ...
p297
sa(dp298
g3
VPicture of the Leaning Tower of Pisa. ... To compensate for the tilt of the tower one side of each floor was built taller than the ... Every year over 5000 new ...
p299
sg5
VLeaning Tower of Pisa | Pisa Pictures Photos Images & Fotos ...
p300
sa(dp301
g3
VAn important premise. Dedicated to the traveller to Pisa (and not the tourist) The Field of Miracles is the most popular attraction in Pisa and one of the most famous ...
p302
sg5
VThe Leaning Tower of Pisa | Field of Miracles of Pisa | Campo dei ...
p303
sa.