(lp1
(dp2
S'description'
p3
V... the priest Padre Pio retired to the choir stalls for his ... Pio had just received the visible stigmata. ... When did Jesus first favour him with ...
p4
sS'title'
p5
VPadre Pio The Mystic - Stigmata - EWTN Global Catholic Television ...
p6
sa(dp7
g3
VWhile praying before a cross, Padre Pio received the stigmata September 20, 1918, the first priest ever to be so blessed.
p8
sg5
VWhen did Padre Pio receive the stigmata - The Q&A wiki
p9
sa(dp10
g3
VWhen the ecstasy ended, Padre Pio had received the Visible Stigmata, the five wounds of Christ. ... Padre Pio had his first occurrence of the stigmata: ...
p11
sg5
VPio of Pietrelcina - Wikipedia, the free encyclopedia
p12
sa(dp13
g3
VSaint Padre Pio, the priest with the stigmata. ... Francis Assisi \u2014 that Padre Pio received the first invisible ... years after Padre Pio's ...
p14
sg5
VSaint Padre Pio, the priest with the stigmata
p15
sa(dp16
g3
VFrancis of Assisi was the first recorded ... At the time of receiving the stigmata, ... For over fifty years, Padre Pio of Pietrelcina reported stigmata ...
p17
sg5
VStigmata - Wikipedia, the free encyclopedia
p18
sa(dp19
g3
VPadre Pio received the invisible Stigmata in ... that he has worn for many years. . . . Padre Pio never talks ... first meeting on the spirituality of Padre ...
p20
sg5
VThe Stigmata - PADRE PIO: STIGMATIST PRIEST
p21
sa(dp22
g3
V... Padre Pio had received the Visible Stigmata, ... First, the confessions of ... A year later, Padre Pio announced plans for a medical and religious center where ...
p23
sg5
VPadre Pio The Man - Biography - EWTN Global Catholic Television ...
p24
sa(dp25
g3
VThe young Francesco studied in his middle school years with ... Padre Pio received the stigmata ... One of the very first payer cards issued after Padre Pio's ...
p26
sg5
VPadre Pio bio, English - In
p27
sa(dp28
g3
VPadre Pio and the Stigmata . Padre Pio bore the wounds of Jesus on his hands, feet, and side for 50 years. ... Padre Benedetto, describing how he received the stigmata.
p29
sg5
VPadre Pio and the Stigmata
p30
sa(dp31
g3
VThe stigmata of Padre Pio ... Padre Pio began to experience his first stigmata. ... the last 50 years of his life. Padre Pio\u2019s stigmata would become the ...
p32
sg5
VThe Stigmata of Padre Pio - Historic Mysteries
p33
sa(dp34
g3
V... and which his followers regarded as the stigmata of Christ. Padre Pio, ... was first made 88 years ... I intuitively received while ...
p35
sg5
VRichard Schiffman: Did Padre Pio Fake His Stigmata Wounds?
p36
sa(dp37
g3
VHe received the first signs of the stigmata in 1910 the same year that he was ordained a priest. These were not wounds but rather sore spots that appeared in the ...
p38
sg5
VSt. Padre Pio's stigmata - TheologyWeb News - TheologyWeb News
p39
sa(dp40
g3
VThe doctors who studied the stigmata of Padre Pio were not able to heal his wounds ... Padre Pio received this extraordinary ... First Great Proof; Ten Years of ...
p41
sg5
VLife of Padre Pio - Servants of the Pierced Hearts of Jesus and Mary
p42
sa(dp43
g3
VThe event of Padre Pio receiving the Stigmata . Having ... when I went to see Padre Pio for the first time, it had been a few years since I had passed from ...
p44
sg5
VPadre Pio - Catholic Church
p45
sa(dp46
g3
VPadre Pio da Pietrelcina received the stigmata from ... Padre Pio for the first time revealed ... It is impossible to think that for 60 years Padre Pio could have ...
p47
sg5
VThe Secret Story of Padre Pio's Stigmata | ZENIT - The World Seen ...
p48
sa(dp49
g3
VThe first "certified" stigmatic ... visions from the time she was six years old, also received the stigmata. ... The stigmata would stay with Padre Pio to the time ...
p50
sg5
VWhat is the Stigmata? - Catholic Education Resource Center
p51
sa(dp52
g3
VI am often deeply disturbed by the emphasis placed on the stigmata received by Padre Pio and ... for the fact that Christ didn't come back in the first 1000 years.
p53
sg5
VNo stigmata for 1200 years? - Catholic Answers Forums
p54
sa(dp55
g3
VFrancis of Assisi was the first recorded ... At the time of receiving the stigmata they are ... For over fifty years, Padre Pio of Pietrelcina reported ...
p56
sg5
VStigmata - Stigmata - Saints & Angels - Catholic Online
p57
sa(dp58
g3
VShe is considered the first woman martyr. ... Padre Pio received the stigmata. ... a hospital that serves 60,000 a year. Padre Pio died on September 23, ...
p59
sg5
VMemorial of St. Padre Pio - September 23, 2011 - Liturgical ...
p60
sa(dp61
g3
VPadre Pio\u2019s parents first learned of his ... After three years of temporary profession, Padre Pio took his ... Padre Pio had received the Visible Stigmata, ...
p62
sg5
VHistory of Padre Pio
p63
sa(dp64
g3
VPadre Pio was the first priest in the history of the Church to receive the stigmata. ... Padre Pio bore the stigmata for fifty years until his death.
p65
sg5
VAbout Padre Pio
p66
sa(dp67
g3
VTo receive a Saint Pio of ... Padre Pio's Early Life . The Stigmata . ... Bob was the Spiritual Director for the Padre Pio Foundation of America for 20 years.
p68
sg5
VPadre Pio Foundation of America
p69
sa(dp70
g3
V... Padre Pio received the stigmata. ... of Padre Pio's was: "Love is the first ingredient ... a seven year old boy by the name of Matteo Pio ...
p71
sg5
VSt. Padre Pio of Pietrelcina - Yahoo! Voices - voices.yahoo.com
p72
sa(dp73
g3
VSt. Pio of Pietrelcina (Padre Pio) ... First answer by PiusX. ... St. Catherine of Siena when receiving the stigmata.
p74
sg5
VWho are the saints that had stigmata - The Q&A wiki
p75
sa(dp76
g3
VTherese Neumann and the Capuchin Padre Pio) ... the first person to receive the stigmata has been a matter ... years before allegedly receiving the stigmata, ...
p77
sg5
VStigmata | Apologetics Index
p78
sa(dp79
g3
V... that someone could actually receive the stigmata. ... becoming a Franciscan friar when he was about fifteen years old: Padre Pio ... First Council of ...
p80
sg5
VDid You Know that Padre Pio Agonized Over Whether to Become a ...
p81
sa(dp82
g3
V... that the friar suffered.Padre Pio da Pietrelcina received the stigmata from ... for 60 years Padre Pio could have caused ... First Disciple and Pilgrim;
p83
sg5
VSecret Story of Padre Pio's Stigmata Revealed - International ...
p84
sa(dp85
g3
VFirst Posted: 11/22/11 03:20 PM ... did he examined Padre Pio's wounds ? ... How would that account for 50 years of the stigmata?
p86
sg5
VPadre Pio's 'Stigmata Wounds' Caused By Carbolic Acid, Sergio ...
p87
sa(dp88
g3
VSt. Francis of Assisi was the first stignatic ... he received the stigmata on 20 ... St. Padre Pio had the stigmata for 50 years and was in San ...
p89
sg5
VCatholics, What about Padre Pio and the stigmata.? - Yahoo! Answers
p90
sa(dp91
g3
VDuring his first few years as a Capuchin Friar, ... Padre Pio first received the stigmata when he was 23 during one of his convalescent stays at home.
p92
sg5
VPadre Pio
p93
sa(dp94
g3
VThe Truth about Padre Pio's Stigmata: ... Franciscan for over 25 years. His first book, Padre Pio and America, ... Receive e-mail when new posts are made.
p95
sg5
VAmazon.com: The Truth about Padre Pio's Stigmata: and Other ...
p96
sa(dp97
g3
V... eight years before, that Padre Pio first received the temporary stigmata as previously ... When Pope Benedict XV first heard about Padre Pio\u2019s stigmata in 1918, ...
p98
sg5
VSaint Pio of Pietrelcina: A Short Biography of the Padre ...
p99
sa(dp100
g3
VDid Padre Pio really ... I say this because many years ago, when I first ... he went on to another great Catholic moment on Mt. Alvernia--receiving the stigmata, ...
p101
sg5
VTHE TRUTH ABOUT PADRE PIO'S STIGMATA AND OTHER WONDERS OF THE ...
p102
sa(dp103
g3
VPadre Pio was the first and only ordained Roman ... Padre Pio actually received the stigmata on ... Padre Pio was 31 years old when he received the ...
p104
sg5
VInfallible Catholic: Padre Pio of Pietrelcina
p105
sa(dp106
g3
VA review of Padre Pio: ... most venerated saint of the twenty-first century, known popularly as Padre ... the fake stigmata the friar\u2019s only deception. Years ...
p107
sg5
VPadre Pio: Scandals of a Saint - CSI
p108
sa(dp109
g3
VThis wasn\u2019t the first time I shared space with Padre Pio. A few years ago ... Fifty years after receiving the Stigmata, Padre Pio\u2019s wounds disappeared.
p110
sg5
VSaints Alive! Padre Pio and the Stigmata: Sanctity on Trial
p111
sa(dp112
g3
VThis Site is dedicated to the life of St Padre Pio ... Padre Pio was the first priest to bear the stigmata \u2014 the holy ... he received the Sacrament of ...
p113
sg5
VPadre Pio
p114
sa(dp115
g3
VPadre Pio's claims of stigmata ... For 50 years, Italy's favourite saint, Padre Pio, ... First, the Pope is infallible, and, ...
p116
sg5
VPadre Pio's claims of stigmata - was he a saint or faker? | Mail ...
p117
sa(dp118
g3
VIn 1910, Fra Pio was ordained a priest. On September 20, 1918, he received the stigmata. ... at first from some ... over the years. Padre Pio could ...
p119
sg5
VA Prayer of St. Padre Pio After Communion
p120
sa(dp121
g3
VThe marks of the stigmata, ... He was thirty-one years old and became the first ... and side for fifty years. In addition, God endowed Padre Pio with many ...
p122
sg5
VA Short Biography - Padre Pio Devotions
p123
sa(dp124
g3
VThe Archbishop said that the first thing Padre Pio said to him ... and the one from last year about Padre Pio and all he had to endure after receiving the stigmata.
p125
sg5
VPadre Pio Under Investigation: A Priest and His Wounds
p126
sa(dp127
g3
V"PADRE" PIO PIETRELCINA, ... Padre Pio received the stigmata. He is the first priest ever to be so blessed. ... a hospital that serves 60,000 a year.
p128
sg5
VSt. "Padre" Pio - Passionist Nuns
p129
sa(dp130
g3
V... he was not too concerned since he and Padre Pio had recently received burns ... If Padre Pio really did have miraculous stigmata, ... thing he did some years ...
p131
sg5
VPadre Pio, Exposed! (to carbolic acid?) | The First Morning
p132
sa(dp133
g3
VSt. Francis was one of the first saints to receive the stigmata. ... At Pisa, she received the Stigmata. It did not physically ... this way for twelve years. Padre Pio.
p134
sg5
VStigmata - Kenyon College
p135
sa(dp136
g3
VDuring this time and for the next 15 years, Padre Pio\u2019s two sisters and nieces took care of little ... WHERE PADRE PIO FIRST RECEIVED HIS STIGMATA 50 YEARS EARLIER!
p137
sg5
V"CLICK HERE" TO LEARN ALL ABOUT FATHER DAVID, THE MIRACLE WORKING ...
p138
sa(dp139
g3
V... Padre Pio received the stigmata. ... of Padre Pio's was: "Love is the first ingredient ... 60,000 people every year. Pope John Paul II gave Padre Pio ...
p140
sg5
VSt. Padre Pio of Pietrelcina | Italy
p141
sa(dp142
g3
VThe first case of stigmata\u2014the appearance of marks or ... Before Padre Pio, no priest had received the ... for 100s of years there ws no such thing as stigmata, ...
p143
sg5
VThe Mystery of the Five Wounds | Past Imperfect
p144
sa(dp145
g3
VDid beloved Padre Pio use acid to maintain weeping ... marks of the bleeding stigmata for 50 years ... 31 per cent of respondents prayed first to St Pio ...
p146
sg5
VSainted Padre Pio 'faked' stigmata - World - theage.com.au
p147
sa(dp148
g3
VPadre Pio\u2019s parents first learned of his desire ... A year later, Padre Pio announced plans for a medical and ... Padre Pio had received the Visible Stigmata, ...
p149
sg5
Vpadre pio (Padre Pio) on Myspace
p150
sa(dp151
g3
VI heard the story of Padre Pio about his Stigmata ... Non-Catholics have also been recorded as receiving stigmata. The first ... and side for 50 years.
p152
sg5
VWhat is Stigmata? Who can have this Stigmata? Why do they have ...
p153
sa(dp154
g3
VSaint Padre Pio 'faked' stigmata according to new book ... which bled constantly for 50 years, ... Personal assistant speaks for the first time about their bond.
p155
sg5
VSaint Padre Pio 'faked' stigmata according to new book - Mirror Online
p156
sa(dp157
g3
V(Grazie, Padre Pio!) Jackhammers pound at pavement for a new sewer line extension, ... He died in 1968, almost 50 years after first receiving the stigmata.
p158
sg5
VMiracle Maker - TIME
p159
sa(dp160
g3
VAfter spending seven years ... Padre Pio was kneeling before a crucifix when he received the stigmata. He became the first ... Padre Pio also received the ...
p161
sg5
VThe Feast Day of St Pio of Pietrelcina - Autom | Autom
p162
sa(dp163
g3
V... (1476-1544) carried stigmata for seven years, from 1496 onward. ... a Cistercian nun named Elizabeth received stigmata on her ... Rev. Charles M. Padre Pio the ...
p164
sg5
Vstigmata Facts, information, pictures | Encyclopedia.com articles ...
p165
sa(dp166
g3
V... 2009. It was on a farm in a small town in southern Italy where Padre Pio, ... He received hundreds of ... first off you need to understand the ...
p167
sg5
VPadre Pio: More than the saint of stigmas - YouTube
p168
sa(dp169
g3
VPadre Pio, original name Francesco Forgione ... he received the stigmata ... for the first time. They healed, but he received them again in 1918; ...
p170
sg5
VPadre Pio (Italian priest and saint) -- Encyclopedia Britannica
p171
sa(dp172
g3
VLife of Padre Pio: The Early Years-----The Young ... and that he was the only priest to have received the stigmata, ... For the first time in my life ...
p173
sg5
VPADRE PIO: STIGMATIST PRIEST - WELCOME TO CATHOLIC TRADITION
p174
sa(dp175
g3
VPadre Pio actually received the stigmata invisibly on ... when I went to see Padre Pio for the first time, it had been a few years since I had passed from ...
p176
sg5
VPadre Pio Miracles Life Stigmata and Saint Novena Prayer Quotes
p177
sa(dp178
g3
VOne miracle that has been identified as Padre Pio's first miracle ... We had not received news for a year, ... Padre Pio, a friar who had the stigmata ...
p179
sg5
VFather Pio's Miracles
p180
sa(dp181
g3
VThis 81 year old man, ... Padre Pio da Pietrelcina received the stigmata from the crucified ... We are the first parish in Australia to take Padre Pio as our parish ...
p182
sg5
VPadre Pio
p183
sa(dp184
g3
VThe Secret Story of Padre Pio\u2019s Stigmata. ... Padre Pio for the first time revealed the ... It is impossible to think that for 60 years Padre Pio could have caused ...
p185
sg5
VHow St. Padre Pio received the stigmata | Fr. Z's Blog (olim: What ...
p186
sa(dp187
g3
VSt. Francis had the wounds for two years. Padre Pio had the ... which Padre Pio received the Stigmata, ... Padre Pio on 3 occasions. The first on ...
p188
sg5
VPadre Pio had wounds on the hands, feet, side, shoulder, and an ...
p189
sa(dp190
g3
VThe Stigmata of Faith: Thoughts of Padre Pio ... in the last 500 years the term "stigmata" refers to ... was the first recorded extrabiblical case of stigmata in ...
p191
sg5
VStigmata - ReligionFacts
p192
sa(dp193
g3
V... access to Vatican archives unearthed a letter written by Padre Pio 88 years ago, ... Pio was first reported to have received the stigmata, ...
p194
sg5
VPanoram Italia - Blog - The Padre Pio Question and Bias in the Media
p195
sa(dp196
g3
VAs a child Padre Pio received ... In addition to the visitations and stigmata, Padre Pio was ... in July of that year, he accepted an invitation from Padre ...
p197
sg5
VPadre Pio Facts, information, pictures | Encyclopedia.com articles ...
p198
sa(dp199
g3
VSome occurrences of stigmata persist for many years, ... The best-known stigmatics of modern times include Padre Pio ... Why did he betray Jesus? First Witness ...
p200
sg5
VStigmata - Gospel Mysteries
p201
sa(dp202
g3
VThe wounds appeared intermittently for the next eight years ... when he received the stigmata. He was the first priest in the ... Padre Pio\u2019s stigmata ...
p203
sg5
VSTIGMATA - Pio, Padre | PARAPSYCHOLOGYinfo.com
p204
sa(dp205
g3
VFamous Cases of Stigmata The first specifically recorded incident of Christian stigmata was ... For over fifty years, Padre Pio of Pietrelcina reported his personal ...
p206
sg5
VUnexplained Mysteries - Stigmata
p207
sa(dp208
g3
VLife of Padre Pio First years of his ... the same character the reappears pours blood and it is precisely that moment that Father Pio received the stigmata: ...
p209
sg5
VPadre Pio da Pietrelcina
p210
sa(dp211
g3
VThe marks of the stigmata, ... He was thirty-one years old and became the first ... he bore the wounds for fifty years. In addition, God endowed Padre Pio with ...
p212
sg5
VSt. Padre Pio - Saint Charles Borromeo Catholic Church of Picayune, MS
p213
sa(dp214
g3
VThis wasn\u2019t the first time I shared space with Padre Pio. A few years ago ... Fifty years after receiving the Stigmata, Padre Pio\u2019s wounds disappeared.
p215
sg5
VIf St. Padre Pio were alive today: A Priest and His Wounds
p216
sa(dp217
g3
VThe friar claimed that he had received the stigmata ... Padre Pio wouldn't be the first member ... How did you in your wisdom above your apparent years ...
p218
sg5
VPadre Pio Faked Stigmata with Carbolic Acid? No, Because Pope is ...
p219
sa(dp220
g3
VFor 50 years he suffered the five wounds of the ... Invisible stigmata first experienced Sept ... Information for this page was received from: PADRE PIO FOUNDATION OF ...
p221
sg5
VInformation on Padre Pio - Dharma Talks about Near-Death ...
p222
sa(dp223
g3
VOn September 20, 1918, St. Padre Pio received the stigmata, ... Dear Padre Pio, It has been almost a year since my ... Dear Padre Pio, First of all ...
p224
sg5
VA Catholic Life: The Miracles of St. Padre Pio
p225
sa(dp226
g3
VPadre Pio was a friar known for receiving the stigmata ... For about 10 years before I became his personal secretary, ... Where did you and Padre Pio work and live?
p227
sg5
VAn Interview With St. Padre Pio\u2019s Secretary : IgnitumToday
p228
sa(dp229
g3
VReceived the visible stigmata while praying before a crucifix in the ... His Superiors call for first medical examination of stigmata by Dr ... Padre Pio died at ...
p230
sg5
VChronology - Padre Pio Devotions
p231
sa(dp232
g3
VThe most dramatic was the stigmata. Padre Pio bore the ... The stigmata he received are permanent wounds unlike ... this century or in the first years of the ...
p233
sg5
VSTIGMATA - THE MOVIE AND THE REALITY - THE THIRD SECRET OF FATIMA
p234
sa(dp235
g3
VSAINT PADRE PIO . FEAST DAY: SEPTEMBER 23RD. FIRST STIGMATIZED PRIEST IN THE HISTORY OF THE ... At five years of age, ... in 1918, he received the stigmata ...
p236
sg5
VSAINT PADRE PIO - CATHOLIC SPIRITUAL DIRECTION
p237
sa(dp238
g3
VThe first recorded case of these wounds was in the year 1222, ... At twenty-two she received the stigmata. ... Padre Pio and the Stigmata.
p239
sg5
VStigmata - Strange and Paranormal Activity
p240
sa(dp241
g3
VThe first twenty-three years of St. Padre Pio's life were relatively quiet. That all ended one day. ... Padre Pio received the blessing of the Visible Stigmata.
p242
sg5
VPadre Pio Medals - religious jewelry, patron saint medals ...
p243
sa(dp244
g3
VI am often deeply disturbed by the emphasis placed on the stigmata received by Padre Pio and ... for the fact that Christ didn't come back in the first 1000 years.
p245
sg5
VNo stigmata for 1200 years? - Catholic Answers Forums
p246
sa(dp247
g3
VThe most famous stigmatic was Padre Pio. After eight years of pain he first displayed the ... The saint received his stigmata after a pilgrimage to the ...
p248
sg5
VStigmata ASSAP - Paranormal research investigation anomalous ...
p249
sa(dp250
g3
VFirst Priest with Stigmata Fragrance of Heaven Taped in San ... where Saint Padre Pio spent 50 years. ... and the tree where he received the invisible stigmata.
p251
sg5
VAmazon.com: Saint Padre Pio: Movies & TV
p252
sa(dp253
g3
VOn the fiftieth anniversary of the day that he first received the stigmata, a friend wished him fifty more years. ... Some claimed that Padre Pio's stigmata might ...
p254
sg5
VSt. Padre Pio (1887\u20131968) - Saints - Netplaces
p255
sa(dp256
g3
VHis Friends Remember Padre Pio. First in a Series ... While Blessed Padre Pio will be canonized sometime this year, ... that Padre Pio received the stigmata ...
p257
sg5
VHis Friends Remember Padre Pio
p258
sa(dp259
g3
VPadre Pio was born May ... he received the five wounds of our Lord's passion, which would stay with him for his remaining 50 years. He was the first stigmatized ...
p260
sg5
VSt. Padre Pio Church - Kleinburg, ON, Canada
p261
sa(dp262
g3
VThe first full-length biography in English, of the Italian priest with the stigmata. After years of research, ... Padre Pio received many gifts but they came with ...
p263
sg5
VPadre Pio - The True Story (Revised and Expanded) | The Catholic ...
p264
sa(dp265
g3
VPadre Pio, when he first received his stigmata, asked Christ to hide these wounds from the world, ... For one year, the stigmata that St. Pio bore were invisible.
p266
sg5
VInvisible Stigmata - Catholic Q&A: Ask a Scholar - Phatmass Phorum
p267
sa(dp268
g3
VItaly's Padre Pio 'faked his stigmata with acid' ... "I was an admirer of Padre Pio and I met him for the first time on 31 July 1919 ... Dating back 1200 years, ...
p269
sg5
VItaly's Padre Pio 'faked his stigmata with acid' - Unexplained ...
p270
sa(dp271
g3
VFrom the first time Padre Pio had entered ... he had received the \u201cStigmata ... in which he did and later canonized Padre Pio a saint in the year 2000 were ...
p272
sg5
VPadre Pio :: essays research papers
p273
sa(dp274
g3
VPadre Pio had the stigmata and gifts ... (Saint Francis was the first person known to have received the ... Ascended Master Padre Pio. In 1975, some seven years ...
p275
sg5
VPadre Pio - Sigmata and Spiritual Gifts - The Summit Lighthouse ...
p276
sa(dp277
g3
VSome believe that St. Paul was the first stigmatic from his writings in ... 5 years ago; Report Abuse; 1 person ... Read Padre Pio not only did he receive ...
p278
sg5
VStigmata?? - Yahoo! UK & Ireland Answers
p279
sa(dp280
g3
VPadre Pio was a friar known for receiving the stigmata ... For about 10 years before I became his personal secretary, ... Where did you and Padre Pio work and live?
p281
sg5
VAn Interview With St. Padre Pio\u2019s Secretary | Catholic Lane
p282
sa(dp283
g3
VThe postulator of the cause of Padre Pio's canonization has received two other cases ... The first concerns ... For 50 years, Padre Pio bore the mystical stigmata, ...
p284
sg5
VFatima News: News and Views: New Miracle for Padre Pio
p285
sa(dp286
g3
VAt age 12 he received the ... He thus became the first stigmata priest in the entire history ... For fifty years Padre Pio was united in a unique and ...
p287
sg5
VCatholic.net - St. Padre Pio
p288
sa(dp289
g3
VAt the age 12 he received the sacrament of ... In September of that year he was sent ... Lanka honours Saint Padre Pio with first -ever shrine in ...
p290
sg5
VSaint Padre Pio Shrine - Athurugiriya
p291
sa(dp292
g3
VWith the exception of a year spent in the Italian army, Padre Pio would spend the ... sits near the site where Padre Pio first received the Stigmata ...
p293
sg5
VCatholic Patron Saints: Saint Padre Pio da Pietrelcina
p294
sa(dp295
g3
V... experienced by Padre Pio. The blood from the stigmata had an odor ... seven years of study and became known as Padre Pio. ... Padre may we receive our ...
p296
sg5
VSt. Pio of Pietrelcina (Padre Pio) | uCatholic
p297
sa(dp298
g3
VPadre Pio's first prayer in the ... Each year Padre Pio made a preparation of ... STATUE PADRE PIO WAS PRAYING BEFORE WHEN HE RECEIVED THE STIGMATA
p299
sg5
VWhy become a Catholic: Spiritual Friendship - Padre Pio and Holy ...
p300
sa(dp301
g3
VEven a defender of Padre Pio\u2019s stigmata, ... \u201cI was an admirer of Padre Pio and I met him for the first time on ... Forty years after the death of Padre Pio in ...
p302
sg5
VPadre Pio: Wonderworker or Charlatan? - CSI
p303
sa.