(lp1
(dp2
S'description'
p3
VThe Roslin Institute - Information on Cloning ... First mammal cloned from adult cells: ... What is human Therapeutic Cloning? Why may this procedure be needed to ...
p4
sS'title'
p5
VCloning Mammals - Biology @ IUPUI
p6
sa(dp7
g3
V... First mammal cloned from adult cells: ... The Roslin Institute; Advanced Cell ... Regarding Reproductive Cloning, and who is pursuing this procedure: ...
p8
sg5
VCloning Mammals - Biology @ IUPUI
p9
sa(dp10
g3
V... (also called reproductive cloning) refers to the procedure of ... was the first mammal to have ... Therapeutic cloning involves cloning adult cells for use ...
p11
sg5
VCloning - Wikipedia, the free encyclopedia
p12
sa(dp13
g3
VBefore the creation of Dolly, the first mammal cloned from the cell of an adult animal, clones ... Human Cloning - From the American Association for the Advancement ...
p14
sg5
VCloning Fact Sheet
p15
sa(dp16
g3
VScientist Reports First Cloning Ever of Adult Mammal. ... The researchers had assumed that the DNA of adult cells would not act like the DNA ... a procedure that ...
p17
sg5
VScientist Reports First Cloning Ever of Adult Mammal
p18
sa(dp19
g3
VMax-Planck Institute of ... cloning by the transfer of nuclei from adult cells is still a hit-and-miss procedure, ... Cloning, Organism* Humans; Mammals ...
p20
sg5
VMammalian cloning: advances and limitations.
p21
sa(dp22
g3
VThe procedure consists of ... that researchers succeeded in cloning the first mammal from ... clones created from a cell taken from an adult might have ...
p23
sg5
VCloning Fact Sheet - National Human Genome Research Institute ...
p24
sa(dp25
g3
V... we'll see how natural identical twins relate to modern cloning technologies. How is cloning done? ... cells. In mammals, ... an adult somatic cell.
p26
sg5
VWhat is Cloning? - Learn.Genetics\u2122
p27
sa(dp28
g3
VProcedure of cloning ... beginning to convince biologists that the cloning of a mammal was ... decision to attempt to clone from adult cells, ...
p29
sg5
VProcedure of cloning - What is cloning
p30
sa(dp31
g3
VThose products include nonhuman mammals and human ... History of Adult DNA Cloning; Every cell in the body ... procedure. Sperm and an egg cell are ...
p32
sg5
VHuman embryo cloning and research - Codes in the Bible
p33
sa(dp34
g3
V... The cell used as the donor for the cloning of ... Dolly was the first clone produced from a cell taken from an adult mammal. ... The Roslin Institute have ...
p35
sg5
VDolly (sheep) - Wikipedia, the free encyclopedia
p36
sa(dp37
g3
VCloning mammals using embryonic cells has been ... , it remains true of course that the cloning procedure is time ... derived from fetal and adult mammalian cells ...
p38
sg5
VCloning (Stanford Encyclopedia of Philosophy)
p39
sa(dp40
g3
VSCIENTIST REPORTS FIRST CLONING EVER OF ADULT MAMMAL. ... at the Roslin Institute in ... that the DNA of adult cells would not act like the DNA formed ...
p41
sg5
VSCIENTIST REPORTS FIRST CLONING EVER OF ADULT MAMMAL - New York Times
p42
sa(dp43
g3
VHOW IT'S DONE The cloning procedure ... reprogram than adult cells, ... and Massachusetts Institute of Technology. Cloning mammals involves taking a ...
p44
sg5
VAbnormalities in clones
p45
sa(dp46
g3
VThis was assumed to be impossible in all mammals, ... was a cloning procedure! ... DNA from the cell of an adult with the desired traits or ...
p47
sg5
VEthical aspects of human cloning - All about religious tolerance ...
p48
sa(dp49
g3
VGurdon's method of nuclear transfer made clones from adult cells! ... You just couldn't clone mammals. ... So what exactly did the scientists at the Roslin Institute do?
p50
sg5
VThe cloning of Dolly, cell biology and developmental biology.
p51
sa(dp52
g3
VAnd what does the success of the procedure ... took DNA from an udder cell of an adult ... attempts at cloning mammals had "failed miserably ...
p53
sg5
VBrave New World - Los Angeles Times - Featured Articles From The ...
p54
sa(dp55
g3
VThe property of totipotency of cells was exploited for this procedure and nuclear ... into adult cells, ... in the cells. For the process of cloning, ...
p56
sg5
VDolly Sheep - The First Cloned Mammal - Biotech Articles: Mobile ...
p57
sa(dp58
g3
VThe first trial of cloning done on ... a Scottish scientist at Rosaline Institute, the first cloning of an adult animal cell that resulted in a live mammal.
p59
sg5
VCloning Humans Myth or Fact Options and Applications | Dr Najeeb ...
p60
sa(dp61
g3
VThe area of interest is cloning of mammals from adult cells. ... A group at the Harvard Stem Cell Institute ... The procedure uses fetal stem cells isolated from the ...
p62
sg5
VCloning and stem cells - BioWiki
p63
sa(dp64
g3
VDolly was created by Ian Wilmut and his team at the Roslyn Institute in ... cloning is done to produce stem cells or other such ... to the cloning procedure.
p65
sg5
VAnimal Cloning | Buzzle.com
p66
sa(dp67
g3
V"CLONING" IN MAMMALS . ... In the most recent paper from the Roslin Institute, ... Concerns about attempts to "clone" humans from adult cells are appropriate, ...
p68
sg5
VThe Dolly Phenomenon: Cloning in Mammals (MR143e)
p69
sa(dp70
g3
VIt has been used to clone a sheep and other mammals. ... immoral procedure when done ... to adult DNA cloning. However, the stem cells are removed ...
p71
sg5
VEmbryo cloning, adult DNA cloning and therapeutic cloning
p72
sa(dp73
g3
V... cloning is done to produce stem cells or other such ... died of complications not related to the cloning procedure. ... and \u201cCan all adult cells be ...
p74
sg5
VAnimal Cloning - Pros and Cons Discussed - Manataka American ...
p75
sa(dp76
g3
VThe two institutions responsible for cloning the lambs, the Roslin Institute of ... cell procedure with ... were the first to clone a mammal from adult cells.
p77
sg5
V::Cloning::
p78
sa(dp79
g3
VFirst Reproducible Cloning of Mammals from Adult Cells Reported in ... allowed the clone to develop. By repeating the procedure, ... Institute of Child ...
p80
sg5
Vcloning - University of Hawaii System
p81
sa(dp82
g3
VOn this day in 1996, Dolly the sheep--the first mammal to have been successfully cloned from an adult cell--is born at the Roslin Institute in Scotland.
p83
sg5
VFirst successful cloning of a mammal \u2014 History.com This Day in ...
p84
sa(dp85
g3
VThere are three different ways to clone mammals. ... at the Roslin Institute wherein one in two hundred ... from adult cells have over-shadowed the fact ...
p86
sg5
VCLONING: CONTROVERSIAL SCIENCE - Serendip Studio
p87
sa(dp88
g3
V... a research team at the Roslin Institute in ... When nuclei from adult frog cells are transplanted ... Cloning other mammals by somatic-cell nuclear ...
p89
sg5
VCan Humans Be Cloned? - RCN Boston | High-Speed Internet, Digital ...
p90
sa(dp91
g3
VDolly was the first mammal cloned from adult cells, ... scientists didn't think cloning mammals ... In a meeting the British Association delegates heard from ...
p92
sg5
VCloning - Let Us Reason Ministries ON cults, Religions -- their ...
p93
sa(dp94
g3
VAlthough cloning a mammal from an adult cell was thought to ... the success rate of the cloning procedure. ... the Whitehead Institute for Biomedical ...
p95
sg5
VEthics of Cloning - Home | Course Web Pages | Jack Baskin School ...
p96
sa(dp97
g3
V... where the cell nucleus from an adult cell is transferred into ... Dolly was the first clone produced from a cell taken ... many other large mammals have ...
p98
sg5
VThe Cloning Experiment Dolly the Sheep - Cloning Genetic Engineering
p99
sa(dp100
g3
V... many scientists began to claim that cloning of mammals ... to clone from an adult's differentiated cells. ... from an adult. The Roslin Institute was ...
p101
sg5
VHistory of Cloning - ThinkQuest
p102
sa(dp103
g3
VWilmut and his team at the Roslin Institute outside ... to clone additional mammals from adult cells, ... first cloning procedure that resulted in an adult ...
p104
sg5
VApologetics Press - Human Cloning and Stem-Cell Research\u2014Science ...
p105
sa(dp106
g3
V... Ian Wilmut and his team at the Roslin Institute in Scotland clone the world's first sheep from ... the first mammal cloned from an adult cell, ...
p107
sg5
VDolly was world's hello to cloning's possibilities - USATODAY.com
p108
sa(dp109
g3
V... and every cloning experiment involving adult mammals has ... He was able to clone carrots from cells in the ... and his colleagues at the Roslin Institute in ...
p110
sg5
VThe Human Cloning Foundation
p111
sa(dp112
g3
VTechniques and Procedures for Cloning Mammals . ... For Dolly\u2019s procedure, donor cells were ... that this could be done with adult cells as well as embryonic and
p113
sg5
VTechniques and Procedures for Cloning Mammals
p114
sa(dp115
g3
V... and therefore using somatic cells from adult mammals to create ... showed that Dolly was a clone from an adult cell ... procedure was viewed as too ...
p116
sg5
VEvolution: CLONING
p117
sa(dp118
g3
VScientists in Switzerland have reported achieving the first cloning of a mammal. Using cells from ... the procedure, ... embryonic rather than adult cells.
p119
sg5
VFIRST CLONING OF MAMMALS PRODUCES 3 MICE - NYTimes.com
p120
sa(dp121
g3
VDolly was the first mammal to be cloned from an adult cell, ... Animal cloning from an adult cell is obviously ... lived a pampered existence at the Roslin Institute.
p122
sg5
VCloning Dolly the sheep | Animal Research
p123
sa(dp124
g3
VDolly was the first clone of a mammal from an adult cell. ... procedure. Sperm and an egg cell are ... as Adult DNA cloning which was what was done in ...
p125
sg5
VCloning - Serendip Studio
p126
sa(dp127
g3
V... Wilmut and Campbell successfully cloned the first mammal to be born from an adult somatic cell, ... cloning procedure ... Cloning.\u201d Institute for ...
p128
sg5
VCloning [Internet Encyclopedia of Philosophy]
p129
sa(dp130
g3
V2.1 Adult stem cells ... It should be noted that the cloning procedure itself is ... The experience of attempting to clone other mammals shows that the great ...
p131
sg5
VCloning and Stem Cell Research - Linacre Centre for Healthcare ...
p132
sa(dp133
g3
VHe stated that "cloning mammals from adult cells will be ... the cloning procedure ought to ... Thomas E. M.D. "Thoughts on Cloning." Kennedy Institute of ...
p134
sg5
VTHE ETHICS OF HUMAN CLONING - FacWeb
p135
sa(dp136
g3
VA form of cloning has been ... the first mammal to be cloned from an adult cell, ... into a stem cell." Prof Mary Herbert, from the Institute for ...
p137
sg5
VBBC News - Human 'cloning' makes embryonic stem cells
p138
sa(dp139
g3
V... the first mammal to be cloned from adult DNA was created by reproductive cloning by a process known ... Non-reproductive cloning is done to clone stem cell lines.
p140
sg5
VHow Does Reproductive Cloning Work? | eHow
p141
sa(dp142
g3
V... researchers cloning mammals ... cloning by the transfer of nuclei from adult cells is still a hit-and-miss procedure, ... Max-Planck Institute of ...
p143
sg5
VMammalian cloning: advances and limitations : Abstract : Nature ...
p144
sa(dp145
g3
VAbout the Institute; ... the procedure has not ... Several important concerns remain about the science and safety of nuclear transfer cloning using adult cells ...
p146
sg5
VCloning/Embryonic Stem Cells - National Human Genome Research ...
p147
sa(dp148
g3
VIt has been used to clone various mammals now, ... therapeutic cloning is a procedure that starts off like adult DNA cloning. However, the stem cells ...
p149
sg5
VCloning - OpenLearn - Open University
p150
sa(dp151
g3
VNow that it is possible to easily clone mammals, ... used in the procedure. DNA in adult cells is thought to be ... matter of cloning of human adult cells, ...
p152
sg5
VCloning of Humans: Will it be Ethical? Should it be Done?
p153
sa(dp154
g3
VCloning is commonly done on small ... the first true cloning of a mammal using nuclear ... cloning could be done by using the nucleus of an adult cell, ...
p155
sg5
VAdvantages & Disadvantages of Cloning | eHow.com
p156
sa(dp157
g3
VCloning Procedures: Clone a mammal! of adult cell nucleus. We are capable of using adult cells to clone the animal using this method.
p158
sg5
VThe Science of cloning - ThinkQuest
p159
sa(dp160
g3
VThe first reproducible cloning of a mammal from adult cells, ... and allowed the clone to develop. By repeating the procedure, ... Institute of Child Health ...
p161
sg5
VScientists In Hawaii Report First Reproducible Cloning Of Mammals ...
p162
sa(dp163
g3
VThis is the difficulty in cloning mammals from their matured cells. ... the Roslin Institute near ... in which a nucleus can grow into an adult animal of ...
p164
sg5
VCloning - CreationWiki, the encyclopedia of creation science
p165
sa(dp166
g3
VCloning of adult animals, known as ... Dolly was the first clone of a mammal produced from an adult cell. Mammals of ... The nuclear transplantation procedure is also ...
p167
sg5
VScientific and Medical Aspects of Human Reproductive Cloning
p168
sa(dp169
g3
Vlaboratory procedure and ... and their achievement shattered the belief that adult mammal cells ... B., \u201cWhat's So Bad About Human Cloning?\u201d, Kennedy Institute of ...
p170
sg5
VHuman cloning: ethical issues; 2004 - United Nations Educational ...
p171
sa(dp172
g3
VThe process of sending the somatic cell to enucleated oocyte can be done from a procedure ... cell cloning was done ... mammal to be cloned from an adult ...
p173
sg5
Vcloning case study research page - The UK's Best Essay ...
p174
sa(dp175
g3
VScientists who asserted that a mammal could not be cloned from an adult cell ... , Dolly, resulted from adult-cell nucleus cloning. ... of the Roslin Institute, ...
p176
sg5
VSEND IN THE (SHEEP) CLONES - Access Excellence @ the National ...
p177
sa(dp178
g3
V... that for the first time an adult mammal has been ... of an adult into a cell and creating an exact clone is still ... procedure could be done on ...
p179
sg5
VCloning of Humans: Will it be Ethical? Should it be Done?
p180
sa(dp181
g3
V... because Dolly was the world's first mammal to be cloned from an adult cell. ... Gurdon tries same procedure ... at the Roslin Institute clone two ...
p182
sg5
VDolly and the Clone Wars - Northern Virginia Community College
p183
sa(dp184
g3
Vprocedure that prolongs the period of possible ... of copying or \u201ccloning\u201d an adult mammal, ... about how feasible cloning from adult cells really ...
p185
sg5
VCLONING HUMAN BEINGS - Bioethics Research Library at Georgetown ...
p186
sa(dp187
g3
V... they wanted to clone. DNA from those cells was ... Dolly was from an adult cell, and now, using a very similar procedure, ... from an adult cell, ...
p188
sg5
VOnline NewsHour: Cloning Mice -- July 23, 1998
p189
sa(dp190
g3
V... neither team believed that it was possible to clone a differentiated and matured adult cell. ... to cloning mammals and adult ... procedure would give ...
p191
sg5
VCloning - Wiki.ucalgary.ca - Home | University of Calgary
p192
sa(dp193
g3
VScientists have cloned an adult mammal for the first time, ... but to take cells from early embryos and do the cloning procedures. ... the procedure works.
p194
sg5
VOnline NewsHour: Cloning Mammals -- February 24, 1997
p195
sa(dp196
g3
VThe property of totipotency of cells was exploited for this procedure and nuclear ... into adult cells, ... in the cells. For the process of cloning, ...
p197
sg5
VDolly Sheep - The First Cloned Mammal - Biotech Articles - Publish ...
p198
sa(dp199
g3
VAlthough cloning of non-mammals was ... and fellow scientists from the Roslin Institute, ... were successful in cloning a sheep from an adult somatic cell by the ...
p200
sg5
VCloning: History of Human Cloning - Buzzle
p201
sa(dp202
g3
VHistory of Adult DNA Cloning Every cell in the body contains all of ... Roslin Institute in ... vitro fertilization procedure. Sperm and an egg cell are mixed ...
p203
sg5
VCloning - Web Hosting Solutions - Free Web Hosting Services and ...
p204
sa(dp205
g3
V... is a conceptually simple procedure. It involves two cells: ... mammal cloning, using adult cell as nuclear donors, ... Timisoara Medical Scientific Association :
p206
sg5
VTimisoara Medical Journal - Human Cloning - A New Challenge of ...
p207
sa(dp208
g3
VThe first successful cloning of mammals was achieved nearly 20 years later. ... Adult cells, they have thought, do not retain the same adaptability.
p209
sg5
VClone and Cloning - humans, body, used, water, process, life ...
p210
sa(dp211
g3
VScottish scientists succeeded in cloning a mammal. ... experimental procedure is being done ... The hidden mutations that may be passed on by using an adult cell ...
p212
sg5
VCLONING HUMAN BEINGS - Medical and Public Health Law Site
p213
sa(dp214
g3
VShe took the world by storm as the first mammal cloned from an adult cell ... The development of the cloning ... Why was this research done at Roslin Institute?
p215
sg5
VDolly the sheep - National Museums Scotland
p216
sa(dp217
g3
V... depending on the kinds of cells used in the cloning procedure and ... Ian Wilmut of the Roslin Institute in ... cloning an apparently healthy adult mammal from ...
p218
sg5
VNIH OSE - Research in the News: Creating A Cloned Sheep Named ...
p219
sa(dp220
g3
V... the first cloned mammal created from an adult cell. vi But the techniques ... a year after the procedure, ... Institute; Genetic Savings and Clone;
p221
sg5
VCloning - Skews.Me
p222
sa(dp223
g3
VThe first successful cloning of a mammal from an adult cell has raised ... use of this procedure ... to reproduce Roslin Institute scenarios ...
p224
sg5
VCloning - Paul A. Winters - Google Books
p225
sa(dp226
g3
V... he had shocked the scientific community by successfully cloning the first mammal from ... the cloning procedure. ... creating a sheep from the adult cell of ...
p227
sg5
VIan Wilmut \u2013 FREE Ian Wilmut information | Encyclopedia.com ...
p228
sa(dp229
g3
VThe area of interest is cloning of mammals from adult cells. ... A group at the Harvard Stem Cell Institute ... The procedure uses fetal stem cells isolated from the ...
p230
sg5
VBITN. Cloning and stem cells - Bob Bruner's Chemistry and ...
p231
sa(dp232
g3
V... cloning with adult donor cells to ... procedure would produce heart muscle cells with ... adult tissues in mammals. 4, 5 These cells have ...
p233
sg5
VCloning Californians? - Santa Clara University -Welcome
p234
sa(dp235
g3
VDolly was the first mammal cloned from the cell of an adult ... were done at the Roslin Institute with ... cloning may be moot, because the procedure is ...
p236
sg5
Vcloning Facts, information, pictures | Encyclopedia.com articles ...
p237
sa(dp238
g3
V... of whether mammals could be cloned from adult cells. ... duplicates of adult mammals, the Honolulu mouse-cloning ... Institute and England ...
p239
sg5
VMice Cloned - The Canadian Encyclopedia
p240
sa(dp241
g3
Vadult somatic cells was achieved in mammals ... believed that cloning with adult somatic cells would be possible ... cloning procedure itself.
p242
sg5
VCloning: experience from the mouse and other animals
p243
sa(dp244
g3
V... was because she was the first mammal to be cloned artificially in a laboratory from an adult cell ... Institute, Edinburgh, Scotland. ... to clone cells taken ...
p245
sg5
VCloning - Birmingham City Council
p246
sa(dp247
g3
V... skin can be used to clone mice using a procedure ... Hughes Medical Institute ... the cloning efficiency of adult skin stem cells with that of more ...
p248
sg5
VScientists clone mice from adult skin stem cells | Newswire
p249
sa(dp250
g3
VIt should be noted that if this procedure were applied to human cloning, ... from adult cells has not yet been ... Cloning mammals, ...
p251
sg5
VScientific and Medical Aspects of Human Reproductive Cloning
p252
sa(dp253
g3
V... the nucleus from adult cells, the technique used to clone animals ... a procedure and can ... of the Harvard Stem Cell Institute and ...
p254
sg5
V'Cloning' used to create embryonic stem cells in humans - Telegraph
p255
sa(dp256
g3
VSCIENTISTS CLONE SHEEP FIRST-EVER CLONING OF AN ADULT MAMMAL RAISES ... Roslin Institute in ... the DNA of adult cells would not act like the ...
p257
sg5
VSCIENTISTS CLONE SHEEP FIRST-EVER CLONING OF AN ADULT MAMMAL ...
p258
sa(dp259
g3
V... from an adult mammalian cell has been ... of a mammal. However, cells are usually taken from the ear or the skin. The same procedure as using the cell from a ...
p260
sg5
VTechniques of Cloning - Rensselaer Polytechnic Institute (RPI ...
p261
sa(dp262
g3
V\u2018To whom is the Roslin Institute ... Dolly became the first mammal clone when she was ... Gurdon's method of nuclear transfer made clones from adult cells!
p263
sg5
VThe Roslin Institute and Dolly the Sheep - Welcome back to The ...
p264
sa(dp265
g3
VIn mammals, however, ... stem cell technology leads inevitably to cloning embryos from adult cells. In effect, the great science fiction dream ...
p266
sg5
VHuman Cloning - Kenyon College
p267
sa(dp268
g3
VCloning of adult mammal breaks the scientific mold ... clone humans. Roslin Institute Web site. ... in adult cells of animals and humans, ...
p269
sg5
VCloning of adult mammal breaks the scientific mold
p270
sa(dp271
g3
V... to clone sheep & other mammals Produce several genetic defects Medical ethicists- Immoral procedure to be done on humans ... nucleus from adult cell ...
p272
sg5
VTherapeutic Cloning - Home | University of Pittsburgh
p273
sa(dp274
g3
Vbe cloned from an adult somatic cell.\u201d1 How can cloning technologies be used? ... the procedure known ... the first mammal cloned from the cell of an adult animal, ...
p275
sg5
VREPRODUCTIVE CLONING BACKGROUND INFORMATION
p276
sa(dp277
g3
Vprocedure, and the long ... \u201cStem-cell cloning not needed, says scientist\u201d, The Age ... Ample Evidence that Adult Stem Cells show Pluripotent Capacity
p278
sg5
VThe Science of Human Cloning - Leadership University
p279
sa(dp280
g3
Va viable adult mammal from nuclear transfer cloning. ... procedure is not yet very ... "The fusion of cells with one- and two-cell mouse embryos," Wistar Institute
p281
sg5
VChapter Two THE SCIENCE AND APPLICATION OF CLONING
p282
sa(dp283
g3
VNo one had been able to clone mammals using adult somatic cells, ... Researchers from the Roslin Institute near Edinburgh, ... using the procedure ...
p284
sg5
VApologetics Press - Cloning--Scientific and Biblical Ramifications ...
p285
sa(dp286
g3
VThe first mammal cloning? ... first mammal cloned from a cell of an adult ... at the Roslin Institute in Scotland clone Dolly from a cell taken from ...
p287
sg5
VWhat was the first cloning ever done? - Yahoo! Answers
p288
sa(dp289
g3
VAs for the possibility of cloning animals from adult cells ... at the Roslin Institute with adult ... the first mammal from an adult somatic cell ...
p290
sg5
VPCBE: Human Cloning and Human Dignity: An Ethical Inquiry -- Full ...
p291
sa(dp292
g3
VWe do not understand cloning. How does it work? How is it done? ... another identical cell. This figure shows the procedure common to ... the first mammal ...
p293
sg5
VWonderQuest: Cloning - Science mysteries solved - ask a question ...
p294
sa(dp295
g3
VDolly was significant because she was the first mammal cloned from adult cells and ... The institute where ... like cloning. Thus the use of this procedure by ...
p296
sg5
VCloning, Stem-Cell Research and the Bible - Dallas Theological ...
p297
sa(dp298
g3
VAn introduction to the cloning procedure. ... with his associates at the Roslind Research Institute in Scotland, collected udder cells from a sheep mother cell.
p299
sg5
VHow Cloning Is Done | Scienceray
p300
sa(dp301
g3
VOptimists point to recent successes cloning wild mammals using closely ... at the Lankenau Hospital Research Institute in ... an adult cell's epigenome can ...
p302
sg5
VWill Cloning Ever Save Endangered Animals?: Scientific American
p303
sa.