ccollections
Counter
p1
((dp2
Vu.s. torpedoed
p3
I8
sVcruisers game midway
p4
I5
sVcaused
p5
I3
sVdisaster \u2013
p6
I22
sVmini-sub crew
p7
I31
sVnet services
p8
I3
sVfour
p9
I1
sVsunk
p10
I3
sV's chaos
p11
I12
sV13 both u.s. torpedoed
p12
I9
sVcaptain
p13
I1
sVrockets and torpedoes
p14
I7
sVcauses
p15
I1
sVtest 'blew sub
p16
I19
sVcatastrophe
p17
I3
sVcrew remained
p18
I34
sVrt news
p19
I17
sV10 apr 2013
p20
I6
sVpride
p21
I2
sVtorpedo test 'blew
p22
I13
sVjerry pournelle 's
p23
I13
sVreally sank k-141
p24
I38
sVrescue
p25
I18
sV're at our base
p26
I3
sVhorror
p27
I1
sVtorpedo test
p28
I12
sVgathering ahead
p29
I3
sVrescue capsule ca n't
p30
I24
sVadmiral viktor
p31
I6
sVnuclear-powered
p32
I5
sVdiary
p33
I1
sVsurvivors found
p34
I9
sVnet services home
p35
I5
sVboard a viktor-iii class
p36
I102
sVrescue ship
p37
I25
sVus edition
p38
I15
sVmemorial day
p39
I6
sVii-class nuclear-powered cruise
p40
I9
sVnavy books
p41
I27
sVsea with 118 crew
p42
I62
sVtorpedo section
p43
I12
sVlist
p44
I1
sVlieutenant on board
p45
I87
sV53 sailors on board
p46
I95
sVlarge
p47
I1
sVaaa net
p48
I3
sVsmall
p49
I2
sVsank
p50
I26
sVfree press
p51
I7
sVus-soviet arms
p52
I3
sVhappened exactly 10 years
p53
I8
sVsink.
p54
I2
sVuss thresher
p55
I12
sVefforts to save
p56
I4
sVefforts to salvage
p57
I8
sVway to scrap yard
p58
I8
sVn't
p59
I3
sVreactor that caused
p60
I5
sVmemorial page
p61
I5
sVboard were lost.
p62
I89
sVsun
p63
I3
sVpoisonous
p64
I1
sVoscar ii class
p65
I22
sVliberty
p66
I2
sVcapsule ca n't link
p67
I8
sVspokesman
p68
I1
sVdestroyed
p69
I1
sVnew
p70
I3
sVcrew vladimir
p71
I35
sVbrought four bodies
p72
I10
sVadmiral
p73
I3
sVsink. plight
p74
I5
sVarctic. a decommissioned
p75
I6
sV\u0443
I1
sVrepercussions after 20
p76
I6
sVtags
p77
I1
sVdiscusses efforts
p78
I4
sVmen
p79
I11
sVboard--instead
p80
I1
sVanswers
p81
I1
sVmet
p82
I1
sVfree
p83
I5
sVglobalsecurity.org
p84
I1
sVaftermath
p85
I1
sVwar ii
p86
I5
sVrussia \u2019
p87
I18
sVnaval
p88
I3
sVahead
p89
I1
sVofficials gave
p90
I6
sVgreat loss
p91
I8
sVlosses
p92
I1
sVpics
p93
I1
sVsubmarino kurks
p94
I3
sVpublished
p95
I1
sVmilitary
p96
I1
sVaccident involving
p97
I16
sVreactors
p98
I2
sVkilling 9 crew members
p99
I51
sVus-soviet arms race
p100
I4
sVmembers
p101
I11
sVboard. it sank
p102
I32
sVseven
p103
I1
sVbrought
p104
I3
sVput
p105
I1
sVguests
p106
I1
sVmoscow \u2014 u.s.
p107
I10
sVforums
p108
I1
sVunit
p109
I2
sVaugust 12
p110
I12
sVwould
p111
I5
sVarmy
p112
I1
sVwould have given
p113
I9
sVcrew remained inside
p114
I35
sVcentury
p115
I1
sVarms
p116
I1
sVbellona
p117
I1
sVsank russia \u2019
p118
I44
sVtelegraph
p119
I2
sVunit based
p120
I4
sVexactly 10 years
p121
I6
sVthreat denied
p122
I3
sVhelps
p123
I1
sVwhatever secret
p124
I6
sVbrings
p125
I1
sV99
p126
I2
sVtested
p127
I1
sVboard able
p128
I87
sVsurface
p129
I1
sV\u0438
I1
sVflotilla
p130
I1
sVhole
p131
I1
sVnuclear reactors
p132
I65
sV95
p133
I1
sVbodies recovered from sunken
p134
I18
sV1991
p135
I1
sVroom
p136
I3
sVdocstoc
p137
I2
sVaccident on board
p138
I101
sVrecall
p139
I1
sVevery small
p140
I6
sVsub tragedy remembered
p141
I24
sVallow people on board
p142
I91
sVtheories
p143
I2
sVviktor fyodorov as saying
p144
I5
sVnine
p145
I1
sVsent
p146
I1
sVtender with dsrv
p147
I9
sVsalvage
p148
I5
sVgustloff
p149
I1
sVhistory
p150
I3
sVexplosion on board
p151
I94
sVk-84
p152
I2
sV118 crew on board
p153
I135
sVstated
p154
I1
sVindia
p155
I1
sVdisaster accident
p156
I31
sVstates
p157
I1
sVdocstoc \u2013
p158
I9
sVpublish a list
p159
I3
sVwrecked nuclear
p160
I64
sVnarrowly
p161
I1
sVaccidents since
p162
I10
sVrecovery
p163
I1
sVkilling all but 23
p164
I11
sVbreaking
p165
I2
sVwaddle 's
p166
I13
sVkilling 9 crewmen
p167
I13
sVideologue
p168
I1
sVradio room forums
p169
I6
sV10 apr 2013 nuclear
p170
I68
sVdsrv
p171
I3
sVtrident
p172
I2
sVtried
p173
I1
sV\u2018 totally extinguished \u2019
p174
I9
sVdamaged
p175
I1
sVleft russia
p176
I15
sV\u043c \u0443 \u0440 \u043c
p177
I7
sV118 people
p178
I25
sVpresident
p179
I1
sVmembers on board
p180
I102
sVbleak
p181
I1
sV23 men
p182
I15
sVleft russia on \u2018
p183
I17
sVnarrowly averted
p184
I3
sVthird
p185
I1
sV\u043d \u0441 \u043a \u0438
p186
I5
sVrussia nuclear
p187
I76
sV\u2014 u.s. military
p188
I10
sVamerican hit
p189
I7
sVevery
p190
I2
sVfire put
p191
I12
sVorder
p192
I2
sVvladimir kuroedov
p193
I8
sVsink. this oscar
p194
I6
sVhelp
p195
I1
sVshocking true
p196
I3
sV'hitting
p197
I1
sVleast 20
p198
I10
sV9 crewmen
p199
I6
sVsetback
p200
I1
sVscott
p201
I2
sVkremlin ideologue
p202
I4
sVturbine
p203
I2
sVsuffer
p204
I1
sVnuclear reactor that caused
p205
I67
sV25
p206
I1
sV26
p207
I1
sV27
p208
I1
sV20
p209
I4
sV21
p210
I2
sV23
p211
I2
sV28
p212
I1
sVdivers brought four bodies
p213
I13
sVactually
p214
I1
sVsurvivors
p215
I5
sVchinadaily us
p216
I15
sVreuters
p217
I2
sVfade
p218
I2
sVboard has sunk
p219
I89
sVfiremen battled
p220
I4
sVgood
p221
I1
sVdied
p222
I5
sVkilling up to 95
p223
I9
sVcruise missile
p224
I10
sVkilling all 118 crewmembers
p225
I31
sVmissile firing
p226
I10
sVrecover hull
p227
I3
sVii-class nuclear-powered cruise missile
p228
I15
sV10 crew
p229
I32
sVworld war ii
p230
I15
sVnuclear reactor
p231
I64
sValways
p232
I1
sVdata say
p233
I3
sVtorpedo exploded on board
p234
I97
sVmen perished
p235
I15
sVdie
p236
I2
sVrescue stranded mini-sub crew
p237
I50
sVfound
p238
I2
sVshocking
p239
I1
sVreactors still on board
p240
I89
sVeveryone
p241
I1
sVtried to reconstruct
p242
I3
sVgennady
p243
I1
sVinfo on 1968 sub
p244
I22
sVnewspaper articles and electronic
p245
I5
sVhard
p246
I1
sVaide
p247
I2
sVofficials have continued
p248
I6
sVnavy
p249
I25
sVoperation
p250
I4
sVcrew members and causing
p251
I43
sVreally
p252
I1
sVrt
p253
I1
sVsea. we would
p254
I7
sVisachenkov
p255
I1
sVviews
p256
I1
sVsince
p257
I2
sVapr 2013 nuclear
p258
I65
sVpublish
p259
I1
sVcollides with cargo
p260
I3
sVnorthern fleet
p261
I11
sV7
I2
sVaccidents since 1991
p262
I11
sVfoundation
p263
I1
sVkuroyodev stated
p264
I3
sVnavy 's
p265
I38
sVlast august
p266
I11
sVtimeline
p267
I4
sVu.s.
p268
I6
sVwaddle
p269
I2
sVoscar ii
p270
I7
sVbase
p271
I1
sVattempted and failed
p272
I6
sV12,770 tons
p273
I3
sVrussia scrambles to rescue
p274
I33
sVsource claims
p275
I3
sVviktor-iii
p276
I1
sVrescue stranded mini-sub
p277
I22
sV7 admiral vladimir
p278
I12
sVhull
p279
I1
sVdied a slow death
p280
I10
sVpravda.ru
p281
I1
sVbritish lr5
p282
I5
sVamerican
p283
I5
sVdue
p284
I1
sVthreat
p285
I1
sVdocumentary video
p286
I3
sVwatery grave
p287
I3
sVmajor
p288
I1
sValready
p289
I1
sVfeatures
p290
I1
sVtragedy remembered
p291
I8
sV\u0430 \u043d \u0441 \u043a
p292
I5
sV-in-chief
p293
I1
sVii nuclear
p294
I66
sVcrew members on board
p295
I128
sVsailor
p296
I1
sVleast
p297
I3
sVanother
p298
I1
sVelectronic
p299
I1
sVrescue crew
p300
I47
sVbad weather
p301
I4
sVanyone
p302
I1
sVstory
p303
I1
sVinsisted
p304
I1
sVus helps
p305
I13
sVnuclear powered
p306
I64
sVdemocracy tested
p307
I3
sVrussia 's uss
p308
I33
sVintroduction
p309
I1
sVbleak calculations
p310
I3
sVtop
p311
I1
sVadm. viktor
p312
I5
sVapproximately
p313
I1
sVhappened exactly 10
p314
I7
sVhowever
p315
I1
sVcalculations
p316
I1
sV2006 \u2013 a fire
p317
I17
sVcompartment
p318
I2
sVstore
p319
I1
sVnuclear waste
p320
I64
sVpacific fleet
p321
I12
sVtrapped
p322
I5
sVexploded
p323
I1
sVoscar-ii
p324
I6
sVtyphoon
p325
I1
sVleast 20 men
p326
I19
sVseven crew
p327
I30
sVchinadaily
p328
I2
sVexplodes
p329
I1
sVbegins
p330
I1
sV\u043a
I1
sVaaa
p331
I1
sVtarget
p332
I2
sVyear ago
p333
I5
sVkilling 9 crew vladimir
p334
I46
sVproject
p335
I1
sVdetermined
p336
I1
sVrisks
p337
I1
sVcloud 9 internet
p338
I7
sVremembers
p339
I1
sVworld \u2019
p340
I16
sVbetter
p341
I1
sVthree months
p342
I6
sVviktor-3 class
p343
I21
sVsubsim
p344
I1
sVplayed target
p345
I6
sVocean
p346
I2
sV7 admiral
p347
I6
sVsank k-141
p348
I37
sVwhatever secret remains
p349
I8
sVu.s
p350
I1
sV1968
p351
I2
sVbuilt
p352
I1
sVwent down map
p353
I4
sVboard a k-159
p354
I91
sVofficers
p355
I2
sV1963
p356
I1
sVcrews
p357
I1
sVcausing
p358
I3
sVchairman
p359
I2
sVforces
p360
I1
sVfinding
p361
I2
sVcommemorated
p362
I1
sVofficers and crew
p363
I31
sVkremlin
p364
I2
sVbarents
p365
I12
sVgreatest
p366
I1
sVaired
p367
I2
sV\u043c \u0443 \u0440
p368
I5
sVdivers have determined
p369
I5
sV7.
p370
I1
sV\u0443 \u0440 \u043c
p371
I5
sVmother
p372
I1
sVinvolving
p373
I1
sVten crew
p374
I30
sVdisaster narrowly
p375
I18
sVgrave
p376
I1
sVsub
p377
I16
sVmini-submarine rescue effort
p378
I22
sVhole on kursk.
p379
I4
sVssn-589
p380
I1
sVchronicle
p381
I1
sVrescue stranded
p382
I20
sVclear
p383
I1
sVnaval accidents
p384
I11
sVsince 1991
p385
I4
sVmartin center
p386
I3
sV\u0443 \u0440
p387
I3
sVsection
p388
I1
sVrescue crew trapped
p389
I52
sVscience
p390
I1
sVsaying
p391
I1
sVk-159
p392
I5
sVreactor
p393
I1
sVcruiser
p394
I1
sVuss thresher sank 50
p395
I38
sVnuclear warheads on board
p396
I150
sVbarents sea
p397
I36
sVradio
p398
I1
sVnavy commander-in
p399
I28
sV\u2018
I2
sVoscar-ii class
p400
I27
sVkilled all 118 men
p401
I35
sVoperation gears
p402
I8
sVinfo on 1968
p403
I6
sVnorthern
p404
I2
sVcrew rescued in pacific
p405
I33
sVsection could
p406
I3
sVfailed
p407
I2
sVidiots
p408
I1
sVexplosion in torpedo
p409
I19
sV8
I1
sVadmiral vladimir
p410
I10
sVinnovation
p411
I1
sV\u0440
I1
sVcommemorated by an american
p412
I7
sVhit
p413
I1
sVnews and comment
p414
I17
sVarctic.
p415
I2
sVyoung idiots
p416
I3
sVcapsule
p417
I1
sVrussia info on 1968
p418
I19
sVcnn.com
p419
I3
sVreply
p420
I1
sVreport
p421
I2
sVreconstruct
p422
I1
sVviktor fyodorov
p423
I4
sVunited states 10
p424
I6
sVnet
p425
I1
sV14
p426
I1
sVs03e03
p427
I2
sVship and tender
p428
I10
sVvessel and played target
p429
I7
sVlos angeles times
p430
I8
sVsea with 118
p431
I34
sVaired august
p432
I11
sVbusiness better
p433
I3
sVbad
p434
I2
sVcommon
p435
I1
sVgood we 're
p436
I3
sVten crew on board
p437
I115
sVstranded mini-sub crew
p438
I32
sVvarious theories
p439
I4
sVdisaster
p440
I16
sVobserver
p441
I1
sVclarified
p442
I1
sVcrewmen
p443
I1
sVtorpedo on board
p444
I97
sVrussia on \u2018 brink
p445
I17
sVresult
p446
I1
sVsea
p447
I13
sVduma
p448
I2
sVtender
p449
I3
sVexplosion
p450
I7
sVturtle attempted and failed
p451
I8
sVpublished photo
p452
I3
sVus nuclear
p453
I75
sVdefends
p454
I1
sVsaid
p455
I2
sVmini-submarine rescue
p456
I20
sV\u201c excellent \u201d missile
p457
I16
sV118 sailors trapped aboard
p458
I39
sVambitions
p459
I1
sVscrap
p460
I2
sVjerry pournelle
p461
I3
sVwikipedia
p462
I2
sVapr 2013
p463
I3
sV20 men
p464
I16
sVmake every
p465
I6
sVmade bleak
p466
I3
sVstranded mini-sub
p467
I4
sVkuroedov
p468
I1
sVeurope
p469
I1
sVreally sank
p470
I28
sVnature
p471
I1
sVwo
p472
I2
sVsank 50
p473
I28
sVnavy/ clarified
p474
I3
sVworst
p475
I2
sVjames martin center
p476
I4
sVdied on board
p477
I91
sVincident
p478
I1
sVlink with sub
p479
I19
sVused by a sailor
p480
I4
sVambitions suffer
p481
I3
sV\u2013 we make
p482
I9
sVnews
p483
I15
sVexpected on board
p484
I87
sVvladimir kuroyodev
p485
I8
sVgeronimos
p486
I1
sVroster
p487
I1
sVaccident
p488
I14
sVlast
p489
I3
sVsecrets
p490
I1
sV1968 sub
p491
I19
sVforeign
p492
I1
sVscorpio
p493
I1
sVdied after it sank
p494
I32
sVbaltimore
p495
I1
sVideologue defends
p496
I3
sVsea arctic.
p497
I16
sV/of
p498
I1
sVtyphoon is not shark
p499
I3
sVca n't link
p500
I7
sVcapsule ca n't
p501
I6
sV\u2013 a fire
p502
I16
sVwhatever
p503
I1
sVtons
p504
I1
sVnovosti
p505
I1
sVvessel
p506
I2
sV250
p507
I1
sVnormand pioneer arrived
p508
I4
sVmission
p509
I2
sV9 crew
p510
I34
sVraise
p511
I1
sVtrapped in sub
p512
I22
sVtwo american
p513
I8
sVthree
p514
I2
sV99 men on board
p515
I99
sVtragedy
p516
I6
sVsecret
p517
I4
sVnine sailors
p518
I10
sVmini-sub
p519
I2
sVpournelle 's chaos
p520
I13
sVexpected
p521
I1
sVclothier
p522
I1
sVcrewmembers on board
p523
I91
sVwisegeek
p524
I1
sVlife
p525
I2
sVus and uk
p526
I14
sVbuilt one
p527
I5
sVfire
p528
I10
sVgas
p529
I1
sVnewer ugst
p530
I3
sVhelp and everyone
p531
I3
sV116 officers and men
p532
I17
sVthresher sank 50
p533
I30
sVboard just five
p534
I88
sVlaunches
p535
I2
sVreliable
p536
I1
sVtwenty
p537
I1
sVair
p538
I1
sVrockets
p539
I2
sVarctic. all 118
p540
I23
sVviews 14
p541
I3
sVfleet
p542
I8
sVv. putin
p543
I3
sVlike many
p544
I3
sVplayed
p545
I2
sVsoviet nuclear forces
p546
I67
sVfinding any survivors
p547
I9
sVofficials made bleak
p548
I7
sV\u043c \u0430
p549
I4
sVii
p550
I3
sVrescue effort
p551
I21
sVexperts
p552
I1
sVnaval officials
p553
I8
sV\u2019
I4
sVria
p554
I1
sVmemorial
p555
I2
sV118 on board
p556
I106
sV\u201d
I2
sVmake
p557
I2
sVjerry
p558
I1
sVfire left russia
p559
I25
sVlyachin
p560
I1
sV9
I4
sVsecret remains on board
p561
I92
sVbbc news
p562
I20
sVday
p563
I3
sV\u0441
I1
sVused
p564
I2
sVchaos
p565
I1
sV\u2018 brink
p566
I4
sVflooded
p567
I1
sV118 crew members
p568
I66
sVstatistic data say
p569
I4
sVfour bodies
p570
I7
sVtorpedoes
p571
I3
sV\u2013 free
p572
I11
sVsub tragedy
p573
I23
sVarrived
p574
I1
sVextinguished \u2019
p575
I6
sVtorpedoed
p576
I1
sVstack
p577
I1
sVkilled all 118
p578
I24
sVcrew remained on board
p579
I117
sVmake every small
p580
I8
sVrussia is considering
p581
I15
sVdisaster since russia lost
p582
I33
sVcommander-in-chief /of
p583
I5
sV\u0440 \u043c \u0430
p584
I5
sVbarents sea to mask
p585
I27
sVmidway
p586
I1
sVoscar ii-class
p587
I5
sVscorpio rov
p588
I3
sVsun sentinel
p589
I8
sVsmall business
p590
I4
sVclaims
p591
I1
sV\u043c \u0443
p592
I4
sVorlando sentinel
p593
I5
sVleft
p594
I1
sV\u201d missile firing
p595
I11
sVgepard wo n't
p596
I9
sV\u2013 we make every
p597
I11
sVphoto
p598
I1
sVnewspaper articles
p599
I4
sVcrew
p600
I28
sVrense.com
p601
I1
sVgame midway game
p602
I6
sVchap. 8
p603
I3
sVusing
p604
I1
sV20 sailors were killed
p605
I16
sVplight
p606
I2
sVmay have been struck
p607
I6
sVturtle attempted
p608
I6
sVpournelle 's chaos manor
p609
I14
sVantey
p610
I3
sVsource
p611
I1
sVboard
p612
I85
sVstates 10 apr 2013
p613
I7
sVsave
p614
I1
sVgave
p615
I1
sVsalem-news.com
p616
I1
sVcrew vladimir isachenkov
p617
I36
sVvictims
p618
I1
sVscene late
p619
I3
sV'blew sub apart
p620
I19
sVsailors
p621
I8
sVvladimir v. putin
p622
I9
sVgame
p623
I2
sVcrew trapped
p624
I34
sV53 sailors
p625
I10
sVapart
p626
I1
sVtrapped aboard
p627
I11
sVrecovered from sunken
p628
I13
sVincident in 2000
p629
I7
sV10 crew on board
p630
I117
sVreactors on board
p631
I88
sVperforming
p632
I1
sVorlando
p633
I1
sVn't link
p634
I6
sV53
p635
I1
sVdivers
p636
I3
sVdivers on board able
p637
I90
sVcrew rescued
p638
I30
sVwrecked
p639
I1
sVivan
p640
I1
sVrescue called off aired
p641
I24
sVsecurity
p642
I1
sVivan gurin
p643
I3
sVaaa net services home
p644
I6
sVu.s. government info
p645
I13
sVsmh.com.au
p646
I1
sVkuroyedov
p647
I2
sVoften
p648
I1
sVpeople
p649
I4
sVrescue ship and tender
p650
I28
sVworld \u2019 s biggest
p651
I17
sVmaxim
p652
I1
sV50
p653
I1
sVuss scorpion
p654
I15
sVnuclear reactors still
p655
I66
sVsea on board
p656
I99
sVanswerbag
p657
I1
sVstatistic
p658
I1
sVcruise missile oscar-ii class
p659
I30
sV\u2018 totally
p660
I4
sVstrategic
p661
I1
sVremained inside
p662
I7
sVboard a trident nuclear
p663
I151
sV10 years
p664
I5
sVbottom
p665
I8
sVnuclear forces
p666
I64
sVnormal
p667
I1
sVsupreme
p668
I1
sVdisaster since
p669
I19
sVsubsim radio room
p670
I6
sVk-141
p671
I10
sVdenied
p672
I1
sVcnn
p673
I2
sVkilling 9 crew
p674
I41
sVeither
p675
I1
sVrun
p676
I2
sV\u0441 \u043a \u0438
p677
I4
sVenglish pravda.ru
p678
I6
sVremembered
p679
I1
sVrussia nuclear disaster narrowly
p680
I93
sVrefused
p681
I1
sV99 men
p682
I14
sVnuclear disaster
p683
I79
sVrus
p684
I1
sVboard had caused
p685
I89
sVsank russia
p686
I40
sV'blew sub
p687
I18
sVcruise missile oscar-ii
p688
I15
sVnato fleet
p689
I12
sVconceal
p690
I1
sVmonths
p691
I2
sVwarheads are on board--instead
p692
I4
sVrescued in pacific
p693
I5
sVradio room
p694
I5
sVhorizon
p695
I1
sVdocstoc \u2013 we make
p696
I11
sVefforts
p697
I2
sV7 admiral vladimir kuroedov
p698
I13
sVnavy/
p699
I1
sV's uss liberty
p700
I22
sVcnn transcript
p701
I6
sVwatched by two
p702
I4
sVservices
p703
I1
sVtest 'blew
p704
I3
sVsank with 99
p705
I29
sVroom forums
p706
I5
sVposmotriterutuberu
p707
I1
sVenglish russia
p708
I19
sVsea to mask
p709
I15
sVtorpedo compartment
p710
I14
sVproject 949
p711
I3
sV\u0430 \u043d \u0441
p712
I4
sVway
p713
I2
sVscorpion sank
p714
I31
sVnaval officials made
p715
I9
sVofficial report
p716
I4
sVsunk as a result
p717
I5
sVshark in russian.
p718
I3
sVstrives
p719
I1
sVlike many large
p720
I4
sVwilhelm gustloff
p721
I3
sVsecrets revealed
p722
I3
sVrussia lost
p723
I15
sVsalvage operation
p724
I11
sVlink
p725
I2
sVpacific
p726
I3
sVnewer
p727
I1
sVkilling 9
p728
I14
sVline
p729
I1
sVkilled on board
p730
I89
sVtrue
p731
I1
sVraising
p732
I1
sVinfo
p733
I3
sVmaybe because nuclear
p734
I64
sVskull
p735
I1
sVmissile oscar-ii
p736
I13
sVcruisers game midway game
p737
I7
sVinside
p738
I2
sVus
p739
I11
sVthird reich
p740
I3
sV're
p741
I1
sVstrives to rescue stranded
p742
I21
sVuk
p743
I2
sVofficial report about death
p744
I7
sVpournelle 's
p745
I12
sV116 officers
p746
I6
sVcalled
p747
I2
sVsay
p748
I1
sV17,600
p749
I1
sVstranded
p750
I1
sVordered
p751
I1
sVwater flooded
p752
I4
sVlost.
p753
I2
sVcrew members
p754
I48
sV118 men
p755
I33
sV\u043a \u0438
p756
I3
sVboard in 354
p757
I87
sVone year
p758
I6
sVcargo ship off diu
p759
I7
sVship
p760
I4
sVarchive
p761
I2
sVbrought four
p762
I5
sV118 on board died
p763
I111
sVsunken
p764
I8
sVscott waddle
p765
I6
sVdesperate efforts to save
p766
I5
sVtorpedo exploded
p767
I12
sVmember on board--it
p768
I3
sVsailors on board nuclear
p769
I156
sVoscar
p770
I3
sVtest
p771
I1
sVguests on board
p772
I87
sVcollides with cargo ship
p773
I7
sValways an accident
p774
I16
sVdashes
p775
I2
sVscored
p776
I1
sVdamaged by an explosion
p777
I9
sV's
p778
I10
sV2006 \u2013
p779
I7
sVkremlin refused
p780
I4
sVremains on board
p781
I88
sVboard to carry
p782
I87
sVseven crew members
p783
I41
sVoccurred
p784
I2
sVnormand pioneer
p785
I3
sVangeles class
p786
I18
sVauthorities
p787
I1
sVsailors trapped
p788
I15
sVlr5 rescue
p789
I20
sVexplosions
p790
I2
sVcns
p791
I1
sVago
p792
I2
sVii-class
p793
I1
sVkilling all 118
p794
I28
sVu.s. gives russia
p795
I21
sVrescued
p796
I1
sVdied needlessly. reply
p797
I8
sVannoyed
p798
I1
sV2003
p799
I1
sV2000
p800
I5
sV2001
p801
I3
sV2006
p802
I1
sVmen stuck
p803
I13
sVmissile cruiser
p804
I8
sVtorpedoes on board
p805
I90
sVnamed \u201c
p806
I8
sVnerpa nuclear
p807
I64
sVboard--it
p808
I1
sVtop navy
p809
I27
sVstruck by a foreign
p810
I3
sVca n't
p811
I5
sVlighter built
p812
I3
sVlr5
p813
I1
sV118 sailors
p814
I31
sVrov
p815
I1
sV2000-2003
p816
I2
sV21st
p817
I1
sVuk come
p818
I5
sVstill on board
p819
I87
sVstage \u2014 rt
p820
I5
sVyoung
p821
I1
sVcharge
p822
I1
sVfire \u2018 totally extinguished
p823
I15
sVlate
p824
I1
sVatlas
p825
I1
sVrescue capsule ca
p826
I21
sVresources
p827
I2
sV118 sailors trapped
p828
I35
sVdivision
p829
I1
sVyears ago
p830
I4
sVreliable security
p831
I3
sVrussia 's uss liberty
p832
I35
sVoccurred on 12
p833
I6
sVrepercussions after 20 sailors
p834
I14
sVbarents sea arctic.
p835
I28
sV2000 \u2013
p836
I11
sV129 men
p837
I13
sVcontinued
p838
I1
sVbaltimore sun
p839
I5
sVvladimir
p840
I6
sVchap.
p841
I1
sVpresident vladimir
p842
I8
sVexploded on board
p843
I87
sVrace
p844
I1
sVreich
p845
I1
sV7. captain
p846
I3
sV2003 nine
p847
I3
sVteam
p848
I2
sVdiu
p849
I1
sVposmotriterutuberu 17,600 views 14
p850
I5
sVround
p851
I1
sVwarheads
p852
I2
sVnaval officials made bleak
p853
I10
sVmembers and causing
p854
I15
sVadm.
p855
I2
sVthresher
p856
I2
sV\u043d \u0441
p857
I3
sVsuffer setback
p858
I3
sVexplosion on board.
p859
I13
sVway to scrap
p860
I6
sV9 crew members
p861
I44
sVvideo
p862
I1
sVvladimir kuroyedov
p863
I9
sVfree people
p864
I10
sVakula ii
p865
I5
sV118 crewmembers
p866
I26
sVcargo
p867
I1
sVbusiness
p868
I1
sVdeep secrets revealed
p869
I4
sVremained on board
p870
I89
sV10 apr
p871
I5
sVindian
p872
I1
sVrussia scrambles
p873
I15
sVinternational
p874
I1
sVnews atlas
p875
I17
sVdecember 7 admiral vladimir
p876
I13
sVfocuses
p877
I1
sVled
p878
I1
sVfire left
p879
I12
sVfree encyclopedia
p880
I9
sVguardian
p881
I1
sVwater
p882
I2
sVofficials made
p883
I6
sV17,600 views 14
p884
I4
sVnavy chronicle
p885
I27
sVcrippled
p886
I1
sVappears
p887
I1
sVrussia remembers
p888
I15
sVbecomes bad
p889
I4
sVgreat
p890
I1
sVrussian. they already
p891
I3
sVfirst bodies recovered
p892
I10
sVuss memphis
p893
I10
sVadmiral vladimir kuroedov
p894
I11
sVfiremen
p895
I2
sVeutimes.net
p896
I2
sVrussia on \u2018
p897
I16
sVvladimir v.
p898
I8
sVnamed
p899
I2
sVpresident vladimir v. putin
p900
I10
sVapr
p901
I1
sVshark
p902
I1
sVreport about death
p903
I6
sVcrew trapped in sub
p904
I50
sVoccurred on board
p905
I88
sVcloud
p906
I1
sVcivilian guests on board
p907
I88
sVnuclear-powered cruise
p908
I8
sVsoviet nuclear
p909
I66
sVsurvivors on board
p910
I92
sVvessel and played
p911
I5
sVperished
p912
I3
sV10 years ago
p913
I7
sVfyodorov as saying crews
p914
I4
sVkursk. commander-in-chief /of
p915
I7
sVambitions suffer setback
p916
I4
sVanswers for common
p917
I3
sVcargo ship
p918
I6
sVuss
p919
I8
sVmemory
p920
I1
sVstage
p921
I1
sVnet services home page
p922
I7
sVbecomes
p923
I1
sVtragedy remembered on stage
p924
I9
sVmen stuck on board
p925
I98
sVmissile
p926
I6
sVfire \u2018
p927
I13
sVmaybe because nuclear warheads
p928
I66
sVradiation threat denied
p929
I4
sVeffort
p930
I2
sVsubsim radio room forums
p931
I7
sVugst
p932
I1
sVflagship
p933
I1
sVpournelle
p934
I1
sVscrambles to rescue
p935
I20
sVgas on board
p936
I87
sVnuclear disaster narrowly averted
p937
I81
sVmaking
p938
I1
sVinnovation hub
p939
I3
sValmost a year
p940
I4
sVsince russia
p941
I16
sVspy
p942
I1
sVfiring
p943
I2
sVrescue capsule
p944
I20
sVlinks
p945
I1
sVdecember
p946
I1
sVremembered on stage \u2014
p947
I5
sV25 submarino
p948
I3
sVcloud 9
p949
I6
sVtag
p950
I1
sVakula ii nuclear
p951
I67
sVshocking true story
p952
I4
sVwater.
p953
I1
sV\u2014 u.s. military officials
p954
I14
sVhydrogen
p955
I1
sVoscar ii-class nuclear-powered cruise
p956
I12
sVunited
p957
I1
sVdemocracy
p958
I1
sVjames martin
p959
I3
sVsailors were killed
p960
I13
sVlounge
p961
I1
sVdecember 7 admiral
p962
I7
sVsalvage experts
p963
I7
sVexcellent \u201d
p964
I5
sVship off diu
p965
I6
sVadm. vladimir kuroyodev stated
p966
I11
sVwatery
p967
I1
sVmap
p968
I1
sVdeep secrets
p969
I3
sVsub lounge
p970
I18
sVmay
p971
I4
sVaverted
p972
I1
sVbad enough
p973
I4
sVsub apart
p974
I18
sVgives russia
p975
I15
sVdisaster \u2013 free
p976
I27
sVdesigned
p977
I1
sV\u201c excellent
p978
I8
sV118 people on board
p979
I110
sVevery small business
p980
I6
sValive on board
p981
I87
sVdata
p982
I1
sV13 both u.s.
p983
I8
sVconducted
p984
I1
sV949
p985
I1
sVmaybe
p986
I1
sVnuclear sub tragedy
p987
I85
sVchief
p988
I1
sVencyclopedia
p989
I2
sVallow
p990
I1
sVposmotriterutuberu 17,600
p991
I3
sVsub begins
p992
I18
sVindeed
p993
I1
sVgame midway
p994
I4
sVbrought to life
p995
I6
sVhole on kursk. commander-in-chief
p996
I7
sVyears
p997
I1
sVstage \u2014 rt news
p998
I20
sVincluding
p999
I2
sVcruise
p1000
I2
sVeither on board
p1001
I87
sVstill
p1002
I1
sV\u201c
I5
sVlos angeles class
p1003
I20
sVrussia nuclear disaster
p1004
I92
sVu.s. gives
p1005
I8
sVexcellent \u201d missile
p1006
I11
sVallow people
p1007
I6
sV\u0430 \u043d
p1008
I3
sV118 crew
p1009
I58
sVlt
p1010
I1
sV23 men on board
p1011
I100
sVsubsim radio
p1012
I3
sVstuck on board
p1013
I87
sVdecades
p1014
I1
sV2013
p1015
I1
sVhappened
p1016
I2
sVarticles citations
p1017
I4
sVtorpedo test 'blew sub
p1018
I29
sVcivilian
p1019
I1
sVrepercussions
p1020
I1
sVextinguished
p1021
I1
sVdock
p1022
I2
sVpresident vladimir v.
p1023
I9
sVscorpion sank with 99
p1024
I33
sVpress for a free
p1025
I7
sVarticles
p1026
I2
sVarticles and electronic
p1027
I4
sVakula
p1028
I1
sVmany large
p1029
I3
sVjames
p1030
I1
sVnormand
p1031
I1
sVrescue called
p1032
I22
sVtwenty die
p1033
I4
sVsink. this oscar ii
p1034
I9
sVexcept for speculations
p1035
I3
sVturtle
p1036
I2
sV118 sailors on board
p1037
I114
sVfired
p1038
I1
sVed
p1039
I1
sVunit based in gremikha
p1040
I5
sVcapsule ca
p1041
I3
sVbooks
p1042
I1
sVnuclear warheads
p1043
I66
sVgurin
p1044
I1
sVyear
p1045
I2
sVdisasters
p1046
I3
sVexactly 10 years ago
p1047
I8
sV\u0440 \u043c
p1048
I4
sVcalled off aired august
p1049
I13
sVgeronimos skull
p1050
I3
sV\u2019 s biggest
p1051
I7
sVfire on board
p1052
I99
sVleast 20 men died
p1053
I24
sVinternet
p1054
I1
sVjamestown
p1055
I1
sVtotally extinguished \u2019
p1056
I7
sVgears
p1057
I2
sVremembered on stage
p1058
I3
sVmaneuver
p1059
I1
sVtheory
p1060
I1
sVidiots were on board
p1061
I87
sVsecret torpedo
p1062
I15
sVgeneral news
p1063
I19
sVpossibility
p1064
I1
sVhappened exactly
p1065
I4
sVdivers on board
p1066
I89
sVaccident timeline
p1067
I19
sVtraining
p1068
I2
sVauthorities on monday
p1069
I3
sVyard
p1070
I2
sVkursk.
p1071
I2
sVcould
p1072
I1
sVbritish
p1073
I3
sVtimes
p1074
I3
sVposmotriterutuberu 17,600 views
p1075
I4
sVten
p1076
I1
sVaboard
p1077
I4
sVhopes fade
p1078
I8
sVn't link with sub
p1079
I22
sVstuck
p1080
I1
sVfirst
p1081
I1
sV's good we 're
p1082
I13
sVtragedy has been brought
p1083
I10
sVjerry pournelle 's chaos
p1084
I14
sVscene
p1085
I1
sVone
p1086
I3
sVcbc news
p1087
I19
sVcarry
p1088
I1
sVimpossible
p1089
I1
sVkuroyodev
p1090
I1
sVbrought home
p1091
I6
sVcity
p1092
I2
sVgiven
p1093
I3
sVlos
p1094
I2
sVdiscusses efforts to salvage
p1095
I9
sVrevealed
p1096
I1
sVmen died
p1097
I17
sVslow death
p1098
I5
sVii-class nuclear-powered
p1099
I7
sVattack
p1100
I2
sVoffley
p1101
I1
sVsecret maneuver
p1102
I6
sVmask a secret
p1103
I6
sVgives
p1104
I1
sVbased in gremikha
p1105
I3
sVexcellent
p1106
I2
sVhub
p1107
I1
sVviktor
p1108
I2
sVmoscow
p1109
I1
sVexactly
p1110
I1
sVneedlessly. reply
p1111
I3
sVdecember 7
p1112
I4
sVdisaster narrowly averted
p1113
I19
sVjuly
p1114
I1
sVelite
p1115
I1
sVkamchatka
p1116
I1
sV10
p1117
I3
sV13
p1118
I1
sV12
p1119
I3
sVviktor-3
p1120
I3
sVpoisonous gas
p1121
I3
sVcalled off aired
p1122
I6
sV19
p1123
I1
sVyoutube
p1124
I3
sVwar
p1125
I1
sVtest 'blew sub apart
p1126
I20
sVdefense
p1127
I1
sVrussia
p1128
I13
sVofficers and men
p1129
I14
sVgathering
p1130
I1
sVnerpa
p1131
I1
sVremained
p1132
I3
sVtopics
p1133
I1
sVmurman.ru
p1134
I1
sV\u201c k-84
p1135
I8
sVwarheads on board
p1136
I88
sVtraining mission
p1137
I6
sVabc news
p1138
I17
sV\u0440 \u043c \u0430 \u043d
p1139
I6
sVsalvage effort
p1140
I8
sVrecover
p1141
I1
sVapparently
p1142
I1
sV12,770
p1143
I1
sVmay 27
p1144
I6
sVdesperate efforts
p1145
I4
sVu.s. military officials gave
p1146
I13
sVwnd
p1147
I1
sVable
p1148
I1
sV\u201c excellent \u201d
p1149
I10
sV's good
p1150
I12
sVtrue story
p1151
I3
sVskeptics
p1152
I1
sVattempted
p1153
I2
sVbattled
p1154
I1
sV129 men perished
p1155
I16
sVsank about 250
p1156
I28
sVmanor
p1157
I1
sVfyodorov as saying
p1158
I3
sVsea less
p1159
I15
sVdutch
p1160
I1
sVbook store
p1161
I3
sVgremikha
p1162
I1
sVtranscript
p1163
I2
sVclass
p1164
I15
sVpeninsula
p1165
I1
sVscrambles
p1166
I1
sVnuclear-powered cruise missile
p1167
I14
sVjuly 4
p1168
I3
sV9 crew vladimir isachenkov
p1169
I40
sV2003 nine sailors
p1170
I11
sVs-13
p1171
I1
sVlos angeles
p1172
I6
sVus navy
p1173
I38
sVrussian.
p1174
I1
sVsaying.
p1175
I1
sVreactors still
p1176
I4
sVrescue team
p1177
I22
sVaffair
p1178
I1
sVchances
p1179
I1
sVtext
p1180
I1
sVsince russia lost
p1181
I17
sVhopes
p1182
I4
sVradiation threat
p1183
I3
sVrough
p1184
I2
sVhome page
p1185
I5
sVbrink
p1186
I1
sVslow
p1187
I1
sVbased
p1188
I1
sVvladimir isachenkov
p1189
I8
sVforeign spy
p1190
I3
sVround hole
p1191
I3
sVscorpion
p1192
I4
sVenough
p1193
I1
sV\u0430
I1
sVtears
p1194
I1
sVmilitary officials gave
p1195
I7
sVworld disasters.
p1196
I12
sV's chaos manor
p1197
I13
sVmen died on board
p1198
I102
sVadm. vladimir
p1199
I9
sVoperation to raise
p1200
I6
sVneedlessly.
p1201
I1
sVvladimir kuroyodev stated
p1202
I9
sVbarents sea with 118
p1203
I46
sVviewpoint
p1204
I1
sVarctic ocean
p1205
I10
sVassistant
p1206
I1
sVcruisers game
p1207
I4
sVfreezing
p1208
I1
sVmissile oscar-ii class
p1209
I28
sVdied a slow
p1210
I7
sVauthor tried to reconstruct
p1211
I4
sVmade
p1212
I1
sVlighter
p1213
I1
sV129
p1214
I1
sVdisaster since russia
p1215
I32
sVapproximately 5
p1216
I3
sVsailors on board
p1217
I96
sVexperts are gathering
p1218
I3
sVclear answers for common
p1219
I4
sVsea arctic. all 118
p1220
I36
sVskeptics stack
p1221
I3
sVremains
p1222
I2
sVunited states 10 apr
p1223
I7
sVseas
p1224
I2
sVsaying crews
p1225
I3
sVarmy times
p1226
I5
sVedition
p1227
I2
sV\u2013
I5
sVofficials
p1228
I4
sVfull
p1229
I1
sVcivilian guests
p1230
I3
sVdesperate
p1231
I1
sVdisasters.
p1232
I1
sVanyone alive
p1233
I3
sVapparently used
p1234
I4
sVangeles times
p1235
I6
sVfails
p1236
I1
sV\u0443 \u0440 \u043c \u0430
p1237
I6
sV\u201d that sank
p1238
I29
sVnuclear
p1239
I62
sVnightmare
p1240
I1
sVinitially
p1241
I1
sVnaval accidents since 1991
p1242
I14
sV\u201d missile
p1243
I9
sVtorpedo
p1244
I10
sVsmall business better
p1245
I5
sVdecommissioned
p1246
I3
sVexperts are gathering ahead
p1247
I4
sVvarious
p1248
I1
sVaugust
p1249
I7
sV\u2014 rt
p1250
I4
sVkilling
p1251
I7
sVworst nuclear
p1252
I65
sVdsrv on board
p1253
I91
sVsea.
p1254
I1
sVadm. vladimir kuroyodev
p1255
I10
sVcome
p1256
I2
sVadm. viktor fyodorov
p1257
I6
sVpeacetime
p1258
I1
sVrecovered
p1259
I3
sVbarents sea on board
p1260
I111
sVsailor on board
p1261
I87
sVmany
p1262
I1
sVaccording
p1263
I1
sVjamestown foundation
p1264
I3
sVnavy 's commander-in
p1265
I38
sVboard nuclear
p1266
I148
sVcomment
p1267
I1
sVus-soviet
p1268
I1
sVenglish
p1269
I4
sVships
p1270
I1
sVca
p1271
I1
sVlinks to peacetime
p1272
I3
sVinsist
p1273
I1
sVu.s. government
p1274
I10
sVthresher sank
p1275
I29
sV20 die
p1276
I7
sVreconstruct what may
p1277
I6
sVsentinel
p1278
I3
sVstage \u2014
p1279
I4
sVendeavor
p1280
I1
sVstrives to rescue
p1281
I20
sVboat
p1282
I1
sVconsidering
p1283
I1
sVservices home page
p1284
I6
sVstates 10
p1285
I5
sVlighter built one
p1286
I6
sVcollides
p1287
I1
sVpowered
p1288
I1
sVbbc
p1289
I3
sV9 crew vladimir
p1290
I39
sVabc
p1291
I1
sVclear answers
p1292
I3
sVimpossible to rescue
p1293
I20
sVbreaking news
p1294
I19
sVrough seas
p1295
I6
sVwaste
p1296
I1
sVofficials have insisted
p1297
I6
sVgraveyard
p1298
I1
sVelite scored
p1299
I3
sVarctic. all 118 crew
p1300
I51
sVexactly 10
p1301
I5
sVturbine room
p1302
I7
sVed offley
p1303
I3
sVsalvage experts are gathering
p1304
I8
sVminister
p1305
I1
sVtotally extinguished
p1306
I3
sVevidence
p1307
I1
sVcommander-in
p1308
I2
sVpower caused
p1309
I5
sVexcellent \u201d missile firing
p1310
I13
sV'blew
p1311
I1
sVpoisonous gas on board
p1312
I88
sVdivers brought four
p1313
I8
sVworld news atlas
p1314
I27
sVworld news
p1315
I28
sVrussia info
p1316
I17
sVnewspaper
p1317
I1
sVdock with rockets
p1318
I6
sVevery small business better
p1319
I7
sVii class
p1320
I19
sVkurks
p1321
I1
sVtrident nuclear
p1322
I66
sValmost
p1323
I1
sVkursk. commander-in-chief
p1324
I6
sVnavy assistant
p1325
I27
sV\u2018 totally extinguished
p1326
I5
sVsave any survivors
p1327
I7
sV\u0441 \u043a
p1328
I3
sVhydrogen theory
p1329
I3
sVsecret torpedo test 'blew
p1330
I17
sVrussia strives
p1331
I15
sVclaimed
p1332
I1
sVria novosti
p1333
I3
sVboard died needlessly. reply
p1334
I93
sVmovements
p1335
I1
sVauthor
p1336
I1
sVbegan
p1337
I1
sVsalvage operation gears
p1338
I13
sVradiation
p1339
I1
sVlatest news and comment
p1340
I18
sVmember
p1341
I1
sVmaxim a lieutenant
p1342
I3
sVwilhelm
p1343
I1
sVclaimed bad
p1344
I4
sVviktor-iii class
p1345
I17
sV9 internet
p1346
I6
sVputin
p1347
I1
sVarctic
p1348
I7
sVtimelines.com
p1349
I1
sVv.
p1350
I1
sVwps
p1351
I2
sVtwo
p1352
I2
sVtotally
p1353
I1
sVdestruction
p1354
I1
sVservices home
p1355
I4
sVscott waddle 's
p1356
I15
sVcenter
p1357
I1
sVweapon
p1358
I1
sV354
p1359
I1
sVboard a viktor-iii
p1360
I87
sVspeculations
p1361
I1
sVfire \u2018 totally
p1362
I14
sVsoviet
p1363
I3
sVuss liberty
p1364
I12
sVbodies
p1365
I5
sVlatest
p1366
I1
sVeveryone on board died
p1367
I92
sVless
p1368
I1
sVscrap yard
p1369
I6
sV21st century
p1370
I3
sVseconds from disaster
p1371
I21
sVuss thresher sank
p1372
I37
sVocean graveyard
p1373
I4
sV\u2014
I2
sVboard a trident
p1374
I89
sVbodies recovered
p1375
I11
sVnuclear sub tragedy remembered
p1376
I86
sVdeath
p1377
I3
sVscrambles to rescue crew
p1378
I48
sVexcept
p1379
I1
sVkilled
p1380
I3
sVcrew aboard
p1381
I34
sVpeople on board
p1382
I92
sVnato
p1383
I2
sV4
I1
sVinfographics
p1384
I1
sVcruisers
p1385
I1
sV\u043c \u0430 \u043d
p1386
I5
sVstruck
p1387
I1
sVadm
p1388
I1
sVaired august 21
p1389
I13
sV\u043c
I2
sVk-8
p1390
I2
sVtests
p1391
I1
sVanother disaster
p1392
I18
sVgovernment
p1393
I2
sVmen on board.
p1394
I17
sVwatched by two american
p1395
I9
sVdied needlessly.
p1396
I7
sVstates 10 apr
p1397
I6
sVfive
p1398
I2
sVexplosions destroyed
p1399
I4
sVpress
p1400
I1
sVworld
p1401
I10
sVarms race
p1402
I3
sV99 on board
p1403
I88
sV25 submarino kurks
p1404
I4
sVloss
p1405
I6
sVpioneer arrived
p1406
I3
sVwo n't
p1407
I7
sVlike
p1408
I1
sVlost
p1409
I1
sV\u043d
I1
sVperished on board
p1410
I89
sVbecomes bad enough
p1411
I5
sVtowed
p1412
I3
sVmini-submarine
p1413
I1
sVlatest news
p1414
I17
sVmartin
p1415
I1
sVpage
p1416
I2
sVboard died
p1417
I92
sVfirst bodies
p1418
I7
sVrussia 's
p1419
I25
sVamerican admiral
p1420
I9
sVscared
p1421
I2
sVanyone alive on board
p1422
I88
sValive
p1423
I1
sVas-28
p1424
I3
sV116
p1425
I3
sV\u2014 u.s.
p1426
I9
sVhome
p1427
I2
sV118
p1428
I20
sVboard in august
p1429
I93
sVtorpedo section could
p1430
I13
sVdivers brought
p1431
I7
sVhard to sink.
p1432
I4
sVbritish lr5 rescue
p1433
I23
sVpioneer
p1434
I1
sVamerican naval
p1435
I9
sVleast 20 die
p1436
I10
sVboard.
p1437
I5
sVstatistic data
p1438
I3
sVeveryone on board
p1439
I87
sVoscar ii-class nuclear-powered
p1440
I10
sVcrew on board
p1441
I120
sVofficials made bleak calculations
p1442
I8
sVpower
p1443
I1
sVseconds
p1444
I3
sV949a
p1445
I3
sVu.s. military
p1446
I8
sV20 sailors
p1447
I13
sVchaos manor
p1448
I3
sVlieutenant
p1449
I1
sV20 men died
p1450
I21
sValthough
p1451
I2
sVsurvivors from a sunken
p1452
I14
sVworld war
p1453
I12
sVwent
p1454
I2
sVnuclear sub
p1455
I79
sV'the
p1456
I1
sVaugust 21
p1457
I11
sVtorpedoes on board.
p1458
I9
sVaugust 28
p1459
I9
sVhard to sink. plight
p1460
I6
sVangeles
p1461
I2
sVcarry out tests
p1462
I3
sVcarries
p1463
I1
sVnothing
p1464
I1
sVuk that sank russia
p1465
I42
sVmade bleak calculations
p1466
I4
sVdiscusses
p1467
I1
sVdocumentary
p1468
I1
sVclass 949a
p1469
I21
sVsecret torpedo test
p1470
I16
sVclaimed bad weather
p1471
I5
sVrussia strives to rescue
p1472
I33
sVround hole on kursk.
p1473
I5
sV's commander-in
p1474
I13
sVunited states
p1475
I3
sVweather
p1476
I1
sVgennady lyachin
p1477
I3
sVmoscow \u2014 u.s. military
p1478
I11
sVthree months on board
p1479
I91
sValways an accident involving
p1480
I17
sVus recall
p1481
I13
sVkursk.wmv
p1482
I1
sVcitations
p1483
I1
sVgovernment info
p1484
I7
sVu.s. military officials
p1485
I12
sVkremlin ideologue defends
p1486
I5
sVbiggest
p1487
I2
sVboard died needlessly.
p1488
I92
sV\u043d \u0441 \u043a
p1489
I4
sVuk that sank
p1490
I29
sVdashes all hopes
p1491
I8
sVnuclear disaster narrowly
p1492
I80
sVmaking it impossible
p1493
I3
sV\u2014 rt news
p1494
I19
sVcrewmembers
p1495
I3
sVone year ago
p1496
I8
sVmoscow \u2014
p1497
I4
sVgepard
p1498
I2
sVaaa net services
p1499
I4
sVkraft
p1500
I1
sVmemphis
p1501
I1
sVindian nuclear
p1502
I64
sV\u043c \u0430 \u043d \u0441
p1503
I6
sVsubmarino
p1504
I1
sVraising 'the
p1505
I3
sVmake every small business
p1506
I8
sVofficial
p1507
I1
sVtorpedo-which
p1508
I1
sVfyodorov
p1509
I1
sVcbc
p1510
I2
sVmask a secret maneuver
p1511
I7
sVsecret remains
p1512
I7
sVmay have occurred
p1513
I7
sVwould run
p1514
I8
sVdeep
p1515
I1
sVgeneral
p1516
I2
sVap
p1517
I1
sVmilitary officials
p1518
I6
sVgives russia info
p1519
I18
sV17,600 views
p1520
I3
sVwatched
p1521
I1
sVfreezing water
p1522
I4
sVu.s. navy
p1523
I32
sVcommander-in-chief
p1524
I3
sVsailors trapped aboard
p1525
I19
sVgepard wo
p1526
I6
sVu.s. gives russia info
p1527
I24
sVbook
p1528
I1
sV5
I1
sVnine sailors were killed
p1529
I13
sVexplosion in torpedo compartment
p1530
I21
sVnaval accidents since
p1531
I13
sVchinadaily us edition
p1532
I17
sVtwo explosions
p1533
I5
sVmonths on board
p1534
I89
sVmidway game
p1535
I4
sVkamchatka peninsula
p1536
I3
sV118 crewmembers on board
p1537
I111
sVmonday
p1538
I1
sVnew nuclear
p1539
I66
sVus navy 's
p1540
I48
sVduma chairman
p1541
I6
sV2013 nuclear
p1542
I64
sVaccidents
p1543
I7
sVsaying. \u201c
p1544
I7
sVtwo explosions destroyed
p1545
I6
sVmask
p1546
I1
sVauthor tried
p1547
I3
sVmen on board
p1548
I102
sVcontinued to insist
p1549
I3
sV's uss
p1550
I20
sV118 men on board
p1551
I118
stRp1552
.