(lp1
(dp2
S'description'
p3
VThe Roslin Institute - Information on Cloning ... First mammal cloned from adult cells: ... What is human Therapeutic Cloning? Why may this procedure be needed to ...
p4
sS'title'
p5
VCloning Mammals - Biology @ IUPUI
p6
sa(dp7
g3
V... (also called reproductive cloning) refers to the procedure of ... was the first mammal to have ... Therapeutic cloning involves cloning adult cells for use ...
p8
sg5
VCloning - Wikipedia, the free encyclopedia
p9
sa(dp10
g3
V... First mammal cloned from adult cells: ... The Roslin Institute; Advanced Cell ... Regarding Reproductive Cloning, and who is pursuing this procedure: ...
p11
sg5
VCloning Mammals - Biology @ IUPUI
p12
sa(dp13
g3
VBefore the creation of Dolly, the first mammal cloned from the cell of an adult animal, clones ... Human Cloning - From the American Association for the Advancement ...
p14
sg5
VCloning Fact Sheet
p15
sa(dp16
g3
VScientist Reports First Cloning Ever of Adult Mammal. ... The researchers had assumed that the DNA of adult cells would not act like the DNA ... a procedure that ...
p17
sg5
VScientist Reports First Cloning Ever of Adult Mammal
p18
sa(dp19
g3
VThe procedure consists of ... that researchers succeeded in cloning the first mammal from ... clones created from a cell taken from an adult might have ...
p20
sg5
VCloning Fact Sheet - National Human Genome Research Institute ...
p21
sa(dp22
g3
VMax-Planck Institute of ... cloning by the transfer of nuclei from adult cells is still a hit-and-miss procedure, ... Cloning, Organism* Humans; Mammals ...
p23
sg5
VMammalian cloning: advances and limitations.
p24
sa(dp25
g3
V... The cell used as the donor for the cloning of ... Dolly was the first clone produced from a cell taken from an adult mammal. ... The Roslin Institute have ...
p26
sg5
VDolly (sheep) - Wikipedia, the free encyclopedia
p27
sa(dp28
g3
V... we'll see how natural identical twins relate to modern cloning technologies. How is cloning done? ... cells. In mammals, ... an adult somatic cell.
p29
sg5
VWhat is Cloning? - Learn.Genetics\u2122
p30
sa(dp31
g3
VProcedure of cloning ... beginning to convince biologists that the cloning of a mammal was ... decision to attempt to clone from adult cells, ...
p32
sg5
VProcedure of cloning - What is cloning
p33
sa(dp34
g3
VThose products include nonhuman mammals and human ... History of Adult DNA Cloning; Every cell in the body ... procedure. Sperm and an egg cell are ...
p35
sg5
VHuman embryo cloning and research - Codes in the Bible
p36
sa(dp37
g3
VSCIENTIST REPORTS FIRST CLONING EVER OF ADULT MAMMAL. ... at the Roslin Institute in ... that the DNA of adult cells would not act like the DNA formed ...
p38
sg5
VSCIENTIST REPORTS FIRST CLONING EVER OF ADULT MAMMAL - New York Times
p39
sa(dp40
g3
VHOW IT'S DONE The cloning procedure ... reprogram than adult cells, ... and Massachusetts Institute of Technology. Cloning mammals involves taking a ...
p41
sg5
VAbnormalities in clones
p42
sa(dp43
g3
VCloning mammals using embryonic cells has been ... , it remains true of course that the cloning procedure is time ... derived from fetal and adult mammalian cells ...
p44
sg5
VCloning (Stanford Encyclopedia of Philosophy)
p45
sa(dp46
g3
VThis was assumed to be impossible in all mammals, ... was a cloning procedure! ... DNA from the cell of an adult with the desired traits or ...
p47
sg5
VEthical aspects of human cloning - All about religious tolerance ...
p48
sa(dp49
g3
VGurdon's method of nuclear transfer made clones from adult cells! ... You just couldn't clone mammals. ... So what exactly did the scientists at the Roslin Institute do?
p50
sg5
VThe cloning of Dolly, cell biology and developmental biology.
p51
sa(dp52
g3
VThe property of totipotency of cells was exploited for this procedure and nuclear ... into adult cells, ... in the cells. For the process of cloning, ...
p53
sg5
VDolly Sheep - The First Cloned Mammal - Biotech Articles: Mobile ...
p54
sa(dp55
g3
VAnd what does the success of the procedure ... took DNA from an udder cell of an adult ... attempts at cloning mammals had "failed miserably ...
p56
sg5
VBrave New World - Los Angeles Times - Featured Articles From The ...
p57
sa(dp58
g3
VThe first trial of cloning done on ... a Scottish scientist at Rosaline Institute, the first cloning of an adult animal cell that resulted in a live mammal.
p59
sg5
VCloning Humans Myth or Fact Options and Applications | Dr Najeeb ...
p60
sa(dp61
g3
V"CLONING" IN MAMMALS . ... In the most recent paper from the Roslin Institute, ... Concerns about attempts to "clone" humans from adult cells are appropriate, ...
p62
sg5
VThe Dolly Phenomenon: Cloning in Mammals (MR143e)
p63
sa(dp64
g3
VThe area of interest is cloning of mammals from adult cells. ... A group at the Harvard Stem Cell Institute ... The procedure uses fetal stem cells isolated from the ...
p65
sg5
VCloning and stem cells - BioWiki
p66
sa(dp67
g3
VOn this day in 1996, Dolly the sheep--the first mammal to have been successfully cloned from an adult cell--is born at the Roslin Institute in Scotland.
p68
sg5
VFirst successful cloning of a mammal \u2014 History.com This Day in ...
p69
sa(dp70
g3
VDolly was created by Ian Wilmut and his team at the Roslyn Institute in ... cloning is done to produce stem cells or other such ... to the cloning procedure.
p71
sg5
VAnimal Cloning | Buzzle.com
p72
sa(dp73
g3
VIt has been used to clone a sheep and other mammals. ... immoral procedure when done ... to adult DNA cloning. However, the stem cells are removed ...
p74
sg5
VEmbryo cloning, adult DNA cloning and therapeutic cloning
p75
sa(dp76
g3
V... a research team at the Roslin Institute in ... When nuclei from adult frog cells are transplanted ... Cloning other mammals by somatic-cell nuclear ...
p77
sg5
VCan Humans Be Cloned? - RCN Boston | High-Speed Internet, Digital ...
p78
sa(dp79
g3
VThe two institutions responsible for cloning the lambs, the Roslin Institute of ... cell procedure with ... were the first to clone a mammal from adult cells.
p80
sg5
V::Cloning::
p81
sa(dp82
g3
V... cloning is done to produce stem cells or other such ... died of complications not related to the cloning procedure. ... and \u201cCan all adult cells be ...
p83
sg5
VAnimal Cloning - Pros and Cons Discussed - Manataka American ...
p84
sa(dp85
g3
V... and every cloning experiment involving adult mammals has ... He was able to clone carrots from cells in the ... and his colleagues at the Roslin Institute in ...
p86
sg5
VThe Human Cloning Foundation
p87
sa(dp88
g3
V... many scientists began to claim that cloning of mammals ... to clone from an adult's differentiated cells. ... from an adult. The Roslin Institute was ...
p89
sg5
VHistory of Cloning - ThinkQuest
p90
sa(dp91
g3
VFirst Reproducible Cloning of Mammals from Adult Cells Reported in ... allowed the clone to develop. By repeating the procedure, ... Institute of Child ...
p92
sg5
Vcloning - University of Hawaii System
p93
sa(dp94
g3
VThere are three different ways to clone mammals. ... at the Roslin Institute wherein one in two hundred ... from adult cells have over-shadowed the fact ...
p95
sg5
VCLONING: CONTROVERSIAL SCIENCE - Serendip Studio
p96
sa(dp97
g3
V... where the cell nucleus from an adult cell is transferred into ... Dolly was the first clone produced from a cell taken ... many other large mammals have ...
p98
sg5
VThe Cloning Experiment Dolly the Sheep - Cloning Genetic Engineering
p99
sa(dp100
g3
VWilmut and his team at the Roslin Institute outside ... to clone additional mammals from adult cells, ... first cloning procedure that resulted in an adult ...
p101
sg5
VApologetics Press - Human Cloning and Stem-Cell Research\u2014Science ...
p102
sa(dp103
g3
VTechniques and Procedures for Cloning Mammals . ... For Dolly\u2019s procedure, donor cells were ... that this could be done with adult cells as well as embryonic and
p104
sg5
VTechniques and Procedures for Cloning Mammals
p105
sa(dp106
g3
VDolly was the first mammal cloned from adult cells, ... scientists didn't think cloning mammals ... In a meeting the British Association delegates heard from ...
p107
sg5
VCloning - Let Us Reason Ministries ON cults, Religions -- their ...
p108
sa(dp109
g3
VDolly was the first mammal to be cloned from an adult cell, ... Animal cloning from an adult cell is obviously ... lived a pampered existence at the Roslin Institute.
p110
sg5
VCloning Dolly the sheep | Animal Research
p111
sa(dp112
g3
V... Ian Wilmut and his team at the Roslin Institute in Scotland clone the world's first sheep from ... the first mammal cloned from an adult cell, ...
p113
sg5
VDolly was world's hello to cloning's possibilities - USATODAY.com
p114
sa(dp115
g3
V... Wilmut and Campbell successfully cloned the first mammal to be born from an adult somatic cell, ... cloning procedure ... Cloning.\u201d Institute for ...
p116
sg5
VCloning [Internet Encyclopedia of Philosophy]
p117
sa(dp118
g3
VDolly was the first clone of a mammal from an adult cell. ... procedure. Sperm and an egg cell are ... as Adult DNA cloning which was what was done in ...
p119
sg5
VCloning - Serendip Studio
p120
sa(dp121
g3
VScientists in Switzerland have reported achieving the first cloning of a mammal. Using cells from ... the procedure, ... embryonic rather than adult cells.
p122
sg5
VFIRST CLONING OF MAMMALS PRODUCES 3 MICE - NYTimes.com
p123
sa(dp124
g3
V2.1 Adult stem cells ... It should be noted that the cloning procedure itself is ... The experience of attempting to clone other mammals shows that the great ...
p125
sg5
VCloning and Stem Cell Research - Linacre Centre for Healthcare ...
p126
sa(dp127
g3
VHe stated that "cloning mammals from adult cells will be ... the cloning procedure ought to ... Thomas E. M.D. "Thoughts on Cloning." Kennedy Institute of ...
p128
sg5
VTHE ETHICS OF HUMAN CLONING - FacWeb
p129
sa(dp130
g3
VNow that it is possible to easily clone mammals, ... used in the procedure. DNA in adult cells is thought to be ... matter of cloning of human adult cells, ...
p131
sg5
VCloning of Humans: Will it be Ethical? Should it be Done?
p132
sa(dp133
g3
V... the first mammal to be cloned from adult DNA was created by reproductive cloning by a process known ... Non-reproductive cloning is done to clone stem cell lines.
p134
sg5
VHow Does Reproductive Cloning Work? | eHow
p135
sa(dp136
g3
VA form of cloning has been ... the first mammal to be cloned from an adult cell, ... into a stem cell." Prof Mary Herbert, from the Institute for ...
p137
sg5
VBBC News - Human 'cloning' makes embryonic stem cells
p138
sa(dp139
g3
VAbout the Institute; ... the procedure has not ... Several important concerns remain about the science and safety of nuclear transfer cloning using adult cells ...
p140
sg5
VCloning/Embryonic Stem Cells - National Human Genome Research ...
p141
sa(dp142
g3
VCloning is commonly done on small ... the first true cloning of a mammal using nuclear ... cloning could be done by using the nucleus of an adult cell, ...
p143
sg5
VAdvantages & Disadvantages of Cloning | eHow.com
p144
sa(dp145
g3
V... that for the first time an adult mammal has been ... of an adult into a cell and creating an exact clone is still ... procedure could be done on ...
p146
sg5
VCloning of Humans: Will it be Ethical? Should it be Done?
p147
sa(dp148
g3
VCloning of adult animals, known as ... Dolly was the first clone of a mammal produced from an adult cell. Mammals of ... The nuclear transplantation procedure is also ...
p149
sg5
VScientific and Medical Aspects of Human Reproductive Cloning
p150
sa(dp151
g3
Vlaboratory procedure and ... and their achievement shattered the belief that adult mammal cells ... B., \u201cWhat's So Bad About Human Cloning?\u201d, Kennedy Institute of ...
p152
sg5
VHuman cloning: ethical issues; 2004 - United Nations Educational ...
p153
sa(dp154
g3
VIt has been used to clone various mammals now, ... therapeutic cloning is a procedure that starts off like adult DNA cloning. However, the stem cells ...
p155
sg5
VCloning - OpenLearn - Open University
p156
sa(dp157
g3
VThis is the difficulty in cloning mammals from their matured cells. ... the Roslin Institute near ... in which a nucleus can grow into an adult animal of ...
p158
sg5
VCloning - CreationWiki, the encyclopedia of creation science
p159
sa(dp160
g3
V... because Dolly was the world's first mammal to be cloned from an adult cell. ... Gurdon tries same procedure ... at the Roslin Institute clone two ...
p161
sg5
VDolly and the Clone Wars - Northern Virginia Community College
p162
sa(dp163
g3
VThe process of sending the somatic cell to enucleated oocyte can be done from a procedure ... cell cloning was done ... mammal to be cloned from an adult ...
p164
sg5
Vcloning case study research page - The UK's Best Essay ...
p165
sa(dp166
g3
VCloning made the cover ... Roslin Institute ... what was the dominant view or paradigm regarding the possibility of using a cell from an adult mammal to ...
p167
sg5
VA Case Study of Cloning - Access Excellence @ the National Health ...
p168
sa(dp169
g3
VThe first successful cloning of mammals was achieved nearly 20 years later. ... Adult cells, they have thought, do not retain the same adaptability.
p170
sg5
VClone and Cloning - humans, body, used, water, process, life ...
p171
sa(dp172
g3
VScientists who asserted that a mammal could not be cloned from an adult cell ... , Dolly, resulted from adult-cell nucleus cloning. ... of the Roslin Institute, ...
p173
sg5
VSEND IN THE (SHEEP) CLONES - Access Excellence @ the National ...
p174
sa(dp175
g3
VScientists have cloned an adult mammal for the first time, ... but to take cells from early embryos and do the cloning procedures. ... the procedure works.
p176
sg5
VOnline NewsHour: Cloning Mammals -- February 24, 1997
p177
sa(dp178
g3
V... it is very difficult to clone adult cells because they are not "in gear ... associated with mammal cloning, ... be able to withstand the procedure, ...
p179
sg5
VHow Cloning Works - ThinkQuest
p180
sa(dp181
g3
VHistory of Adult DNA Cloning Every cell in the body contains all of ... Roslin Institute in ... vitro fertilization procedure. Sperm and an egg cell are mixed ...
p182
sg5
VCloning - Web Hosting Solutions - Free Web Hosting Services and ...
p183
sa(dp184
g3
VAlthough cloning of non-mammals was ... and fellow scientists from the Roslin Institute, ... were successful in cloning a sheep from an adult somatic cell by the ...
p185
sg5
VCloning: History of Human Cloning - Buzzle
p186
sa(dp187
g3
VCloning carrots from a single adult carrot cell has been done ... The big breakthrough with Dolly was the ability to clone a mammal. ... The Association of the ...
p188
sg5
VReproductive cloning - ABPI - Resources for Schools
p189
sa(dp190
g3
V... they wanted to clone. DNA from those cells was ... Dolly was from an adult cell, and now, using a very similar procedure, ... from an adult cell, ...
p191
sg5
VOnline NewsHour: Cloning Mice -- July 23, 1998
p192
sa(dp193
g3
V... attempt at cloning a mammal, a sheep named Dolly, using adult ... cloning suggest that somatic cell nuclear ... procedure that was used to clone ...
p194
sg5
VResearch Human Cloning | BookRags.com
p195
sa(dp196
g3
VThe property of totipotency of cells was exploited for this procedure and nuclear ... into adult cells, ... in the cells. For the process of cloning, ...
p197
sg5
VDolly Sheep - The First Cloned Mammal - Biotech Articles - Publish ...
p198
sa(dp199
g3
V... the first cloned mammal created from an adult cell. vi But the techniques ... a year after the procedure, ... Institute; Genetic Savings and Clone;
p200
sg5
VCloning - Skews.Me
p201
sa(dp202
g3
Vprocedure that prolongs the period of possible ... of copying or \u201ccloning\u201d an adult mammal, ... about how feasible cloning from adult cells really ...
p203
sg5
VCLONING HUMAN BEINGS - Bioethics Research Library at Georgetown ...
p204
sa(dp205
g3
VThe first successful cloning of a mammal from an adult cell has raised ... use of this procedure ... to reproduce Roslin Institute scenarios ...
p206
sg5
VCloning - Paul A. Winters - Google Books
p207
sa(dp208
g3
V... neither team believed that it was possible to clone a differentiated and matured adult cell. ... to cloning mammals and adult ... procedure would give ...
p209
sg5
VCloning - Wiki.ucalgary.ca - Home | University of Calgary
p210
sa(dp211
g3
VWhat is THE BASIC PROBLEM WITH ARTIFICIAL CLONING OF ADULT CELLS? ... This procedure also begins by creating a clone of the ... of stem cells adult mammal genes ...
p212
sg5
VWhat is THE BASIC PROBLEM WITH ARTIFICIAL CLONING OF ADULT CELLS?
p213
sa(dp214
g3
V... he had shocked the scientific community by successfully cloning the first mammal from ... the cloning procedure. ... creating a sheep from the adult cell of ...
p215
sg5
VIan Wilmut \u2013 FREE Ian Wilmut information | Encyclopedia.com ...
p216
sa(dp217
g3
V... depending on the kinds of cells used in the cloning procedure and ... Ian Wilmut of the Roslin Institute in ... cloning an apparently healthy adult mammal from ...
p218
sg5
VNIH OSE - Research in the News: Creating A Cloned Sheep Named ...
p219
sa(dp220
g3
VShe took the world by storm as the first mammal cloned from an adult cell ... The development of the cloning ... Why was this research done at Roslin Institute?
p221
sg5
VDolly the sheep - National Museums Scotland
p222
sa(dp223
g3
VIt has been used to clone various mammals now, ... 4.Therapeutic cloning is a procedure that starts off like adult DNA cloning. However, the stem cells; ...
p224
sg5
VWhat are the three main types of cloning? - Yahoo! Answers
p225
sa(dp226
g3
VIn mammals, however, ... stem cell technology leads inevitably to cloning embryos from adult cells. In effect, the great science fiction dream ...
p227
sg5
VHuman Cloning - Kenyon College
p228
sa(dp229
g3
V... cloning with adult donor cells to ... procedure would produce heart muscle cells with ... adult tissues in mammals. 4, 5 These cells have ...
p230
sg5
VCloning Californians? - Santa Clara University -Welcome
p231
sa(dp232
g3
V... that cells from adult mammals could ... cloning from embryonic cells and even ... the Roslin Institute by taking an incorrupt cell from one of ...
p233
sg5
VTampering with the Engines of Creation: Cloning - Chuck Missler ...
p234
sa(dp235
g3
Vadult somatic cells was achieved in mammals ... believed that cloning with adult somatic cells would be possible ... cloning procedure itself.
p236
sg5
VCloning: experience from the mouse and other animals
p237
sa(dp238
g3
VDolly was the first mammal cloned from the cell of an adult ... were done at the Roslin Institute with ... cloning may be moot, because the procedure is ...
p239
sg5
Vcloning Facts, information, pictures | Encyclopedia.com articles ...
p240
sa(dp241
g3
V1952\u2014Robert Briggs and Thomas King of the Institute for ... in creating the first clone of an adult mammal using ... been done on adult stem cells, ...
p242
sg5
VHuman Cloning - The Ethics & Religious Liberty Commission
p243
sa(dp244
g3
V... the nucleus from adult cells, the technique used to clone animals ... a procedure and can ... of the Harvard Stem Cell Institute and ...
p245
sg5
V'Cloning' used to create embryonic stem cells in humans - Telegraph
p246
sa(dp247
g3
V\u2018To whom is the Roslin Institute ... Dolly became the first mammal clone when she was ... Gurdon's method of nuclear transfer made clones from adult cells!
p248
sg5
VThe Roslin Institute and Dolly the Sheep - Welcome back to The ...
p249
sa(dp250
g3
VSCIENTISTS CLONE SHEEP FIRST-EVER CLONING OF AN ADULT MAMMAL RAISES ... Roslin Institute in ... the DNA of adult cells would not act like the ...
p251
sg5
VSCIENTISTS CLONE SHEEP FIRST-EVER CLONING OF AN ADULT MAMMAL ...
p252
sa(dp253
g3
VIn mammals the egg must then be ... DOLLY the sheep was the first animal to be cloned from an adult cell. In ... Cloning website from the Roslin Institute ...
p254
sg5
VHow is livestock cloning accomplished? - Department of Animal Science
p255
sa(dp256
g3
VNo one had been able to clone mammals using adult somatic cells, ... Researchers from the Roslin Institute near Edinburgh, ... using the procedure ...
p257
sg5
VApologetics Press - Cloning--Scientific and Biblical Ramifications ...
p258
sa(dp259
g3
VUntil now up to 97% of all cloning experiments on mammals are a ... Dolly" procedure: Human (adult) cells are ... and Stem Cell Research Institute ...
p260
sg5
VHuman Cloning - Some Ethical Questions - GM WATCH / Norfolk ...
p261
sa(dp262
g3
Vprocedure, and the long ... \u201cStem-cell cloning not needed, says scientist\u201d, The Age ... Ample Evidence that Adult Stem Cells show Pluripotent Capacity
p263
sg5
VThe Science of Human Cloning - Leadership University
p264
sa(dp265
g3
V... from an adult mammalian cell has been ... of a mammal. However, cells are usually taken from the ear or the skin. The same procedure as using the cell from a ...
p266
sg5
VTechniques of Cloning - Rensselaer Polytechnic Institute (RPI ...
p267
sa(dp268
g3
VOne of the main arguments used in favour of \u2018therapeutic\u2019 human embryo cloning is that adult stem cells ... cell mass, a procedure ... adult stem cells Mammals ...
p269
sg5
VThe Unnecessary Evil of \u2018Therapeutic\u2019 Human Cloning
p270
sa(dp271
g3
V... to clone sheep & other mammals Produce several genetic defects Medical ethicists- Immoral procedure to be done on humans ... nucleus from adult cell ...
p272
sg5
VTherapeutic Cloning - Home | University of Pittsburgh
p273
sa(dp274
g3
V... the world's first mammal to be cloned from an adult cell was put ... at the Roslin Institute, the head of the original cloning ... the procedure would be ...
p275
sg5
VScienceDirect.com - Current Biology - Death of Dolly marks cloning ...
p276
sa(dp277
g3
VAn introduction to the cloning procedure. ... with his associates at the Roslind Research Institute in Scotland, collected udder cells from a sheep mother cell.
p278
sg5
VHow Cloning Is Done | Scienceray
p279
sa(dp280
g3
Va viable adult mammal from nuclear transfer cloning. ... procedure is not yet very ... "The fusion of cells with one- and two-cell mouse embryos," Wistar Institute
p281
sg5
VChapter Two THE SCIENCE AND APPLICATION OF CLONING
p282
sa(dp283
g3
VOptimists point to recent successes cloning wild mammals using closely ... at the Lankenau Hospital Research Institute in ... an adult cell's epigenome can ...
p284
sg5
VWill Cloning Ever Save Endangered Animals?: Scientific American
p285
sa(dp286
g3
VWe do not understand cloning. How does it work? How is it done? ... another identical cell. This figure shows the procedure common to ... the first mammal ...
p287
sg5
VWonderQuest: Cloning - Science mysteries solved - ask a question ...
p288
sa(dp289
g3
VThe cloning of an adult mammal from the ... from an adult cell--is born at the Roslin Institute ... from adult cells is still a hit-and-miss procedure, ...
p290
sg5
VWhat is MAMMALIAN CLONING?
p291
sa(dp292
g3
VCloning was therefore a potential ... led the team that created the world's first mammal cloned from an adult cell. ... Why was this research done at Roslin Institute?
p293
sg5
VThe Roslin Institute (University of Edinburgh) - Public Interest ...
p294
sa(dp295
g3
Vbe cloned from an adult somatic cell.\u201d1 How can cloning technologies be used? ... the procedure known ... the first mammal cloned from the cell of an adult animal, ...
p296
sg5
VREPRODUCTIVE CLONING BACKGROUND INFORMATION
p297
sa(dp298
g3
V... the first cloning of an animal from an adult cell was done by Ian Wilmut, ... (= first successful cases of cloning using the procedure) for mammal species
p299
sg5
VWho thought of the idea/invented cloning? - Yahoo! UK & Ireland ...
p300
sa(dp301
g3
VBest Answer: - 1952 ==> A tadpole is cloned: A tiny tadpole makes history as the first cloned animal. Using cells from a tadpole embryo, Robert Briggs and ...
p302
sg5
VWhat was the first cloning ever done? - Yahoo! Answers
p303
sa.