(lp1
(dp2
S'description'
p3
VThe best known tradition of stone circle construction occurred ... stone circles began to appear in ... Stone Age sites in the United Kingdom; Stones; Stone circles;
p4
sS'title'
p5
VStone circle - Wikipedia, the free encyclopedia
p6
sa(dp7
g3
VAvebury is a Neolithic henge monument containing three stone circles, ... they began the construction of large ... most famous places" in the United Kingdom. ...
p8
sg5
VAvebury - Wikipedia, the free encyclopedia
p9
sa(dp10
g3
VWHEN AND HOW DID STONEHENGE BEGIN? ... Not until about 2550 BCE did construction of a ring of stones ... A circle of bluestones was commenced but the stones were ...
p11
sg5
VStonehenge Building
p12
sa(dp13
g3
VConstruction of Stonehenge was broken into three periods: Click here for the Phase map . Stonehenge Period I (c. 2950-2900 BC) ... Other UK Stone Circles .
p14
sg5
VStonehenge construction phases and who built it
p15
sa(dp16
g3
VIn a second phase of construction, ... No other circle has massive stones trimmed into neat shapes, ... United Kingdom; United States;
p17
sg5
VYahoo! Answers - How long did it take to build the Stonehenge?
p18
sa(dp19
g3
V... the building of Avebury began. ... The northern circle was made up of a ring of 27 stones (of which ... or thoughts to info@stonehenge.co.uk .
p20
sg5
VStonehenge.co.uk - Your guide to Stonehenge, the World's Favourite ...
p21
sa(dp22
g3
VThe building of Maes Howe marked both the peak of the passage grave ... A stone circle affected by any of these circumstances would have errors that cannot be ...
p23
sg5
VStone Circles of Scotland. Introduction - Odyssey, Adventures in ...
p24
sa(dp25
g3
VA prehistoric stone circle on Salisbury Plain famous for having lintels ... The first phase of construction occurred during the ... new work began in the early ...
p26
sg5
VStonehenge - A Profile of Stonehenge - European History The ...
p27
sa(dp28
g3
VArchaeologists begin dig on buried stone circle ... Although the henge no longer has its vast stone circle it ... chronology of their construction, ...
p29
sg5
VArchaeologists begin dig on buried stone circle TEN times bigger ...
p30
sa(dp31
g3
VAncient stones, circles, quoits, fougos, wells and forts - Ancient Sites of Cornwall | Cornwall Guide from the Cornwall Guide, UK
p32
sg5
VAncient stones, circles, quoits, fougos, wells and forts - Ancient ...
p33
sa(dp34
g3
V... it all began with a ... Neolithic stone circles, ... It is thought that in Western Europe megalithic construction involving the use of stone only dates back ...
p35
sg5
VSyria's Stonehenge: Neolithic stone circles, alignments and ...
p36
sa(dp37
g3
VNeolithic / Bronze Age Henge and Stone Circle ... the subsequent stone building episodes means that ... side of the earthwork begin to be used ...
p38
sg5
VStonehenge - stone-circles.org.uk - The Prehistoric sites of Great ...
p39
sa(dp40
g3
V- Virtual UK Tours British Life - ... inner Bluestone circle and began to realise that there was ... 5,000-year old tradition of building stone circles in Wales each ...
p41
sg5
VSecrets of the Preseli Bluestones - Britannia.com - British ...
p42
sa(dp43
g3
Vc.3000-2500 - Castlerigg Stone Circle ... c.2300 - Construction begun on Britain's largest stone circle at Avebury. ... Began transfer of military authority from ...
p44
sg5
VTimeline of British History
p45
sa(dp46
g3
VStonehenge : Stonehenge. History Facts about Stonehenge & Stone Circles; Who built Stonehenge? What was the purpose of Stonehenge? Facts about the Construction of ...
p47
sg5
VStonehenge - Castles
p48
sa(dp49
g3
VThis gap in the literature began ... Dieter Arnold's Building in Egypt: Pharaonic Stone ... Travel back in time to Ancient Britain and create your own stone circle ...
p50
sg5
VBBC - History - Ancient History in depth: Building the Great Pyramid
p51
sa(dp52
g3
VThe hollowing out of trees for log-boats began in the Mesolithic (Middle Stone ... timbers for building) was a Neolithic (Late Stone ... stone circles and ...
p53
sg5
VBBC - History : British History Timeline
p54
sa(dp55
g3
VThe scientists have also been able to date the construction of the first stone circle to ... of stone. bbc.co.uk. ... ago \u2014around the time construction began on ...
p56
sg5
VStonehenge Stone Circle : The Megalithic Portal and Megalith Map:
p57
sa(dp58
g3
VThis suggests that there may have been other stone circles or other ... Then the two scientists began to look particularly ... BMF is the UK\u2019s biggest ...
p59
sg5
VScientists discover source of rock used in Stonehenge's first circle
p60
sa(dp61
g3
V... Society of Antiquaries began another dig inside the Stone circle to retrieve ... years prior to the construction of the first stones, ... co.uk - August 13, 2010 ...
p62
sg5
VStonehenge - Crystalinks
p63
sa(dp64
g3
VAt some point this construction was dismantled and work began on the final phase of the site. The bluestones were moved within the circle and the gigantic stones that ...
p65
sg5
VThe Mystery of Stonehenge
p66
sa(dp67
g3
VStonehenge began as a Neolithic monument, ... World Heritage Sites in the United Kingdom ... A thoughtful site on the stone circles of Wessex, ...
p68
sg5
VDid the druids or Celts build Stonehenge?
p69
sa(dp70
g3
V... other ancient sites and stone circles in Britain, ... It has been estimated that the construction took more than thirty million ... at Stonehenge.co.uk. Welcome ...
p71
sg5
VStonehenge.co.uk - Your guide to Stonehenge, the World's Favourite ...
p72
sa(dp73
g3
V... to begin excavations. ... through the decades of construction. During the building season, ... Another view of the stone circle.
p74
sg5
VGobekli Tepe - Paradise Regained? | Articles | Features | Fortean ...
p75
sa(dp76
g3
VThe Stonehenge complex was built in several construction phases ... Society of Antiquaries began another dig inside the Stone circle to retrieve ... United Kingdom
p77
sg5
VHow was Stonehenge found - The Q&A wiki
p78
sa(dp79
g3
VConstruction of Stonehenge was broken into three periods: Stonehenge Period I (c. 2950-2900 BC) ... A 100 foot diameter circle of 30 sarsen-stone ...
p80
sg5
VStonehenge Construction Periods, Phases, and History ...
p81
sa(dp82
g3
VWhat was the original use for the ancient stone circles of United Kingdom Scotland and Ireland? In: ... Where did Irish dancing begin? Answer it! How old is the ...
p83
sg5
VWhat was the original use for the ancient stone circles of United ...
p84
sa(dp85
g3
VWhat they may not know are the various legends ascribed to the stone ring legends that link its construction to ... for the creation of the stone circle, ...
p86
sg5
VStonehenge - Old Urban Myths, Legends & Tales
p87
sa(dp88
g3
VStonehenge Photo Gallery - see inside the stone circle at Stonehenge! ... they began the process of building a double ring of stones inside the henge.
p89
sg5
VStonehenge - UK travel and heritage - Britain Express UK travel guide
p90
sa(dp91
g3
Vhttp://atschool.eduweb.co.uk ... The largest stone of this late Neolithic henge and stone circle is just N ... this construction contains 42 huge stones, ...
p92
sg5
VThe largest stones of all time - Ancient-Wisdom - Online Guide to ...
p93
sa(dp94
g3
VNeolithic people living in the Carnac region began building these megaliths around 5000 BC and continued for the ... Stone Circles; Dolmen; Tumuli; Standing ...
p95
sg5
VMegaliths of Carnac: Introduction
p96
sa(dp97
g3
VConstruction 11: Construct a circle through three given points. Construction 12: Circumscribe a circle about a given triangle. Construction 13:
p98
sg5
VGeometry Construction Reference - Whistler Alley
p99
sa(dp100
g3
VThe University of Exeter huss.exeter.ac.uk /archaeology/staff ... View a slide show of stone circles and other ... Building the Great Cathedrals. How did medieval ...
p101
sg5
VNOVA | Secrets of Stonehenge - PBS: Public Broadcasting Service
p102
sa(dp103
g3
VMonolithic and megalithic construction ... we could not even begin to tackle such massive construction ... or groups of standing stones, arranged in circles, ...
p104
sg5
VThe Bible UFO Connection - Ancient Monoliths and Megaliths
p105
sa(dp106
g3
VThe stone circles are ... were believed to have supervised construction of Stonehenge and other stone circles ... began with a wooden ...
p107
sg5
VStonehenge Facts, information, pictures | Encyclopedia.com ...
p108
sa(dp109
g3
VThe United Kingdom; Great Britain. England; Scotland; Wales; ... It is a circle of stones. ... People began building Stonehenge about 5,000 years ago, ...
p110
sg5
VFamous Landmarks of England
p111
sa(dp112
g3
VJohn Michell Began by researching stone circles in Cornwall, ... Chris Street - (http://earthstars.co.uk) - Revealed in his book 'Earthstars', ...
p113
sg5
VGeometric alignments - Ancient-Wisdom - Online Guide to Prehistory.
p114
sa(dp115
g3
VStonehenge Stone Circle, Wilts, England. ... As tile-covered concrete began to replace marble as ... Roman building techniques in brick and stone were largely ...
p116
sg5
VArchitecture, History, Styles of Building Design: Famous ...
p117
sa(dp118
g3
VEach area contains a focal stone circle and henge and ... the shaping of the landscape through monument building for around 2000 ... United Kingdom of Great ...
p119
sg5
VStonehenge, Avebury and Associated Sites - UNESCO World Heritage ...
p120
sa(dp121
g3
VIt is suggested by some cryptologists and others that crop circles are depicted in prehistoric stone and ... a crop circle construction, ... UK bent stalks have been ...
p122
sg5
VWorld Mysteries - The Crop Circles
p123
sa(dp124
g3
VThe successful candidate, whose 'office' will be the giant pre-historic stone circle in Wiltshire, will be required to oversee the 5,000-year-old monument's 'exciting ...
p125
sg5
VPosition vacant: Must like old rocks... Stonehenge to employ first ...
p126
sa(dp127
g3
VIt was not until about 5000 years ago that the great stone monuments began to ... stones and stone circles ... a great building boom of the stone ...
p128
sg5
VIrish Antiquities
p129
sa(dp130
g3
VHowever, this series of castle building did not cause the ... William started a programme of building stone ... me at enquiries@historylearningsite.co.uk.
p131
sg5
VMotte and Bailey Castles - History Learning Site
p132
sa(dp133
g3
VWe had been making plans to re-energize the Temple of the Stone-ATC and up its ... yet they began to wain as we could ... and join our Circle. Building a Pagan ...
p134
sg5
VTemple of the Stone - Temple of the Stone - ATC
p135
sa(dp136
g3
V... he built huge stone keep ... wood is a weak building material; ... or notice any problems please contact me at enquiries@historylearningsite.co.uk.
p137
sg5
VCastles - History Learning Site
p138
sa(dp139
g3
VEgyptians began building pyramids; ... The first stone circles (henges) were built. Pre-dynastic Eqypt ... Hunt Road Tonbridge Kent TN10 4BB UK ...
p140
sg5
VEgypt - Woodlands Junior School, Tonbridge, Kent UK
p141
sa(dp142
g3
VThat this discovery led to a new style of architecture and the building of the Great Cathedrals ... stone circles and ... UK Crop Circles Werner ...
p143
sg5
VWorld Mysteries - Strange Artifacts, Celtic Cross - by Crichton Miller
p144
sa(dp145
g3
VDid construction of the Interstate System ... When the Interstate Construction Program began in ... with five silver stars in a circle on the upper ...
p146
sg5
VEisenhower Interstate Highway System -Frequently Asked Questions
p147
sa(dp148
g3
VLike stone circles in the British Isles some appear to be concerned with the passage of the seasons as indicated ... building style, b) expertise in stone working ...
p149
sg5
VMalta - Archaeology and Prehistory
p150
sa(dp151
g3
VWHEN DID CONSTRUCTION BEGIN? On March ... with the following inscription going around in full circle: ... work was done by Harold Vogel of Wood and Stone, ...
p152
sg5
VWall Information
p153
sa(dp154
g3
V... Kjellson observed that the stones placed in the target hole began ... the natives are replacing their old building ... most of the stone circles are ...
p155
sg5
VAncient Mysteries, Lost Human History, Mysterious Origins.
p156
sa(dp157
g3
VBut the stone circle was left ... In the year 1594 the people of Greifswald needed stones for a building, ... When they began digging into the second grave ...
p158
sg5
VStone Monument Legends - Home | University of Pittsburgh
p159
sa(dp160
g3
VThe secret of the Viking ship lay in its unique construction. ... The modern phase of Viking ship investigation began with ... View a slide show of stone circles and ...
p161
sg5
VNOVA | Secrets of Viking Ships - PBS: Public Broadcasting Service
p162
sa(dp163
g3
VScientists and explorers alike have helped to uncover the development of the pyramidal building process. To begin ... for stone bench\u201d (\u201cmastaba ... bbc.co.uk ...
p164
sg5
VConstruction of the Egyptian Pyr - Cochise College
p165
sa(dp166
g3
VIt was over thirty years ago that I began to read books ... the setting up of groups and the building of centres would ... icons, stone circles, turf mazes ...
p167
sg5
VIt was over thirty years ago that I began to read books on Sufism ...
p168
sa(dp169
g3
V... 2 metre Mint Sandstone paving circles and man-made paving brick. New stock of kerbs, ... Manor Stone Quarries supply Building Stone, Paving Stone, Paving slabs, ...
p170
sg5
VManor Stone Quarries, Ireland, paving, slabs, patio, hearths ...
p171
sa(dp172
g3
V... http://www.knowledge.co.uk/sis/abstract ... Many of the myriad of lowland lakes left by the ice age also began to be choked by ... Stone Circles: Towards the end ...
p173
sg5
VBronze Age Ireland - Wesley Johnston
p174
sa(dp175
g3
Vhttp://museums.ncl.ac.uk ... but ultimately they began ... The Grampian region of Scotland has a large concentration of recumbent stone circles, a type of ...
p176
sg5
VPrehistoric People - 42explore2 Temporary Index Page
p177
sa(dp178
g3
VPA Stone Pier Cap ... Circle & Square Patio Packs ... Construction Accessories ; Cleaners ...
p179
sg5
VBegin with A Better Paver - Nicolock Interlocking Paving Stones ...
p180
sa(dp181
g3
V
sg5
VBritish Isles Cruise Crown Princess Featuring our latest ...
p182
sa(dp183
g3
V... and founding the united kingdom of Scotland. ... It was made from a series of circles of progressively taller wooden poles, ... Decorated Stones [1]
p184
sg5
VCeltic Ireland in the Iron Age: the Celts - Wesley Johnston
p185
sa(dp186
g3
VThe Stone Circles in Britain seem to have been built between 2500 to 1300 BC during the Neolithic and Bronze ages. Two ... (New Stone Age) construction. ...
p187
sg5
VCardinal Points
p188
sa(dp189
g3
VDraw a circle in the dirt by finding the ... put stones around the hearth to help contain ... Begin by building the frame of the sleeping platform, as in ...
p190
sg5
VNativeTech: Wigwams - Basic Wigwam Construction
p191
sa(dp192
g3
VThis is Part 2 of a series on building a backyard fire pit. ... This will help you to make a perfect circle to build a stone fire pit. 2. ... Weber BBQ UK. Like Us On ...
p193
sg5
VBuilding a backyard fire pit, Part 2 - The Fire Pit and Grilling ...
p194
sa(dp195
g3
VThe Stone Age defined with images of examples from art ... or Middle Stone Age, began at the end of the last glacial ... dolmens, and stone circles across Europe.
p196
sg5
VArtLex on the Stone Age - ArtLex Art Dictionary
p197
sa(dp198
g3
VBefore the Romans began to master ... The post and lintel building technique used by previous civilizations was ... in Greek structures built with stone ...
p199
sg5
VRoman Domes & Arches | eHow.com
p200
sa(dp201
g3
V... what divers discovered in the deep Guardian UK. Holy Land Farming Began 5,000 Years ... be destroyed Circle of ... to construction of massive stone ...
p202
sg5
VArchaeological News
p203
sa(dp204
g3
VCatapult Construction: Members: Master: Begin by talking with the Tyras Guard next to the catapult ... Begin by speaking to Kaqemeex near the Stone Circle north of ...
p205
sg5
VQuest Guides/Walkthroughs | Sal's Realm of RuneScape
p206
sa(dp207
g3
VStone Circle Database for United Kingdom. Stone Circle - Wikipedia ... Construction began in July, 2006. The word "Gushen" or "Gu Shen" ...
p208
sg5
VSacred Circle: Bibliography, Links, Resources, Quotes, Notes
p209
sa(dp210
g3
VThe definition appears in Book VI but there is a construction given in ... This idea that Plato began the ... at least in terms of chords of circles, begin to be ...
p211
sg5
VGolden ratio - MacTutor History of Mathematics
p212
sa(dp213
g3
VNews and truth on crop circles by ... and such frequencies are known to exist at ancient sacred sites such as stone circles ... It began with anectodal ...
p214
sg5
VCrop circles secrets
p215
sa(dp216
g3
VExtremely large stone circles ... The long period of use and construction of the central cairn at the Majorville Medicine ... that began to break up in the ...
p217
sg5
VMedicine Wheel - Crystalinks - Crystalinks Home Page
p218
sa(dp219
g3
VBut he was also fascinated by prehistoric stone circles. ... There was a pause in Bath's building boom ... Wood acquired extra land in 1762 and work began on the ...
p220
sg5
VThe Circus, Bath - Researching Historic Buildings in the British Isles
p221
sa(dp222
g3
VUK United Kingdom ... Experts speculated the stone circle ... may have served as the starting point of a processional walk that began at the ...
p223
sg5
VStonehenge Discovery: Wooden Structure Found Near Famous Monument
p224
sa(dp225
g3
VAn information resource and contact point for all who work with stone - sculptors, carvers, masons, ... Begin main content: ... did not have much of a future.
p226
sg5
VAbout Stone - Sculpture and Carving
p227
sa(dp228
g3
V... the phases of construction, ... The massive sarsen stones of the circle and trilithons formed a precision scientific ... maxpinxtreme@live.co.uk ...
p229
sg5
VStonehenge Astronomical Observatory - YouTube
p230
sa(dp231
g3
V... invisible earth energy said to connect various sacred sites, such as churches, temples, stone circles, ... when it began to ... Northumberland, England, UK
p232
sg5
VLey Lines - Occultopedia, the Occult and Unexplained Encyclopedia
p233
sa(dp234
g3
V... standing stones, or pillars, are arranged in circles. ... We don't have any modern examples of people building some giant ... does the modern era of man begin.
p235
sg5
VGobekli Tepe: The World\u2019s First Temple? | History & Archaeology ...
p236
sa(dp237
g3
V... but in all cases their rudeness of construction, ... inhabiting Gaul when his conquest began; ... The circles are the standing stones, ...
p238
sg5
VCeltic Religion - Ardue Holistic Education
p239
sa(dp240
g3
VThen the Norman strategy of building Stone Castles began ... The stone used for building medieval castles was generally mined in quarries. However, ...
p241
sg5
VNorman Stone Castles
p242
sa(dp243
g3
VThere exist other means of working stone and building pyramids, ... as well as the 360 degrees in a circle). ... they began the building of the first structures.
p244
sg5
VThe World of the Maya - Alternativna Historija
p245
sa(dp246
g3
VFaced with mellow Bath stone, ... which took 12 months to prepare before building work could begin. When work did start it took 13 weeks to ... The Queen and the UK.
p247
sg5
VThe Royal Residences > Buckingham Palace > History
p248
sa(dp249
g3
VThe Rosetta Stone. The Rosetta Stone ... Then he began tracing these demotic signs back to hieroglyphic signs. By working out what some hieroglyphs stood for, ...
p250
sg5
VThe Rosetta Stone - Story
p251
sa(dp252
g3
VUK travel and history guide, ... The story of English architecture and historic building styles, ... you pass over a long stone bridg; ...
p253
sg5
VUK travel and heritage - Britain Express UK travel guide
p254
sa(dp255
g3
VThe Mesolithic, or Middle Stone Age, began around 12,000 years ago and continued through about 8,000 years ago. The Neolithic, or New Stone Age, ...
p256
sg5
VTools And The Stone Age - World History For Kids - By KidsPast.com
p257
sa(dp258
g3
VCastles only began ... During the 12th century many castles were improved and strengthened using stone instead of wood ... Please let SchoolHistory.co.uk ...
p259
sg5
VCastles - Year 7 - SchoolHistory.co.uk
p260
sa(dp261
g3
VThe Stones are just three of a growing circle of musicians who ... from the groundfloor and building ... as success began to grow. However The Stones did once ...
p262
sg5
VTHE ROLLING STONES BIOGRAPHY
p263
sa(dp264
g3
V196- Rosetta Stone carved 100 B.C. 31- Battle of Actium 30- Cleopatra VII died 0 A.D. 100 A.D. ... Egyptologists began formal excavations in Egypt 1900 A.D.
p265
sg5
VTimeline
p266
sa(dp267
g3
V... critics began to call the world's ... ^ Glass Steel and Stone - Chrysler Building & automobile parts http ... ^ http://www.bssa.org.uk/topics.php ...
p268
sg5
VNew York Architecture Images- Chrysler Building
p269
sa(dp270
g3
VJapan's Mysterious Submerged Stone Structures: ... and stone circles encompassing hexagonal columns look intriguingly, ... that he began to entertain the notion.
p271
sg5
VConversation for Exploration - Japan's Underwater Stone Monuments ...
p272
sa(dp273
g3
VAn illustrated guide to the construction, architecture and the evolution of the design of the pyramids from Tour Egypt. ... Solid walls of stone ran from the center, ...
p274
sg5
VEgypt: Overview of Egypt Pyramid Construction
p275
sa(dp276
g3
VThe place where humans began to strive for the impossible, ... He is credited as being the inventor of building in stone and was a man of many talents - Architect ...
p277
sg5
VThe Step Pyramid at Saqqara Video 3D reconstruction
p278
sa(dp279
g3
Vconstruction. stone: type. ... the church was visited by Queen Elizabeth II of the United Kingdom, ... Construction began in November 2000, ...
p280
sg5
VTop Ten New York Architecture
p281
sa(dp282
g3
VUnfortunately because of the building ... But when will Solar Cycle 24 begin? "Maybe it already did --on July 31st," says ... Another crop circle ...
p283
sg5
VALL ABOUT 2012 - DREAMS OF THE GREAT EARTH CHANGES
p284
sa(dp285
g3
VBegin stacking stones atop each other, ... Building one takes a bit of planning, ... Stone Columns for Porches; Resources. Read this Article in UK English; ...
p286
sg5
VHow to Build Stone Porch Columns | eHow.com
p287
sa(dp288
g3
VThe walls are all made of stone. ... ibn az-Zubayr put up four pillars around the kaaba and hung cloth over them until the building was completed. People began to do ...
p289
sg5
VThe Kaaba - Mission Islam
p290
sa(dp291
g3
VNorth Star Circle; Make a Gift; Membership; Volunteer; ... Building Permits ... It's a very good source to begin to find out more about the people who once inhabited ...
p292
sg5
VBuilding and House History | Library - MNHS.ORG | Minnesota ...
p293
sa(dp294
g3
VWe use the same principle as designated by the building regulations for foundations and ... The stone we are using for ... drive and drive forward as they begin to ...
p295
sg5
VHow to Gravel a Driveway - DIY and Home Improvement Help and ...
p296
sa(dp297
g3
VIt did so, and the bridge was eventually opened on June 30, ... As soon as the piers had been finished the building of the towers began. Stone Over Steel.
p298
sg5
VBuilding the Tower Bridge
p299
sa(dp300
g3
VIn this way the rules of construction of geometric patterns ... the circle, and its centre, are ... are the point at which all Islamic patterns begin and is an apt ...
p301
sg5
VIslamic Art
p302
sa.