(lp1
(dp2
S'description'
p3
VETA Cease-Fire: Is Basque Terrorism ... this is the first time it has committed itself to ... the political wing of ETA, to bring an end to the Basque ...
p4
sS'title'
p5
VETA Cease-Fire: Is Spain's Basque Terrorism Finally Over? - TIME
p6
sa(dp7
g3
VThe Basque separatist group ETA said Monday it was declaring a permanent cease-fire ... this the end? I would say no." ... ETA to announce unilaterally a ...
p8
sg5
VETA announces permanent cease-fire in Spain - CNN.com
p9
sa(dp10
g3
VETA was founded on 31 July 1959 as Euskadi Ta Askatasuna (Basque ... These events marked the end of the ... ETA exacts an estimated 900,000 euros a year in this ...
p11
sg5
VETA - Wikipedia, the free encyclopedia
p12
sa(dp13
g3
VThe armed Basque separatist group ETA, under pressure from political allies to end violence and ... separatist group ETA declaring a cease-fire.
p14
sg5
VBasque separatists known for violence declare cease-fire - The ...
p15
sa(dp16
g3
VMADRID \u2014 Basque militant group ETA called an end to a 43-year armed campaign ... ETA called a cease-fire and ... Basque militant group ETA called an end ...
p17
sg5
VBasque ETA ends armed independence campaign - World news - Europe ...
p18
sa(dp19
g3
VThe Basque separatist group ETA released a cease-fire ... Basque separatist group announces cease-fire. ... ETA to end its armed fight, and to announce ...
p20
sg5
VBasque separatist group announces cease-fire - CNN.com
p21
sa(dp22
g3
VThe Basque separatist group ETA declared a "permanent" cease-fire and pledged ... this is the beginning of the end." ... Euskadi Ta Askatasuna, Basque ...
p23
sg5
VBasque separatists call 'permanent' cease-fire - SFGate
p24
sa(dp25
g3
VThe Basque militant group ETA called an end to a ... The Basque militant group ETA called an end to a 43-year ... ETA called a cease-fire and ...
p26
sg5
VBasque Terrorist Group ETA Ends Armed European Independence ...
p27
sa(dp28
g3
VBasque separatists call cease-fire ... was about to announce an end to its ... the beginning of the end" of ETA, which stands for "Basque Homeland and ...
p29
sg5
VBasque separatists call cease-fire - CSMonitor.com
p30
sa(dp31
g3
VSpain without ETA? Basque group may be nearing end. ... In this Jan . 21, 2000 photo, a ... ETA has not killed anyone in Spain in over a year and it ...
p32
sg5
VSpain without ETA? Basque group may be nearing end - Boston.com
p33
sa(dp34
g3
VBasque separatists Eta announce ceasefire. ... Eta's 40-year campaign for independence in the Basque ... Basque separatists Eta announce ceasefire. This ...
p35
sg5
VBasque separatists Eta announce ceasefire | World news | The Guardian
p36
sa(dp37
g3
VETA stands for Euskadi ta Askatasuna, which means \u201cBasque ... to announce a "permanent cease-fire" and ... ETA announced an end to the cease-fire amid ...
p38
sg5
VBasque Fatherland and Liberty (ETA) (Spain, separatists, Euskadi ...
p39
sa(dp40
g3
VLONDON \u2014 The armed Basque separatist group ETA, ... Since late last year, ... Ares said the group's decision to announce Sunday a cease-fire supposedly decided upon ...
p41
sg5
VBasque separatists ETA announce cease fire - World news - Europe ...
p42
sa(dp43
g3
V... ETA, the Basque separatist ... Spain's Basque separatists ETA announce ... this decision would mean a permanent or temporary cease fire, ...
p44
sg5
VSpain's Basque separatists ETA announce ceasefire - YouTube
p45
sa(dp46
g3
V... many people in the Basque region had been expecting a cease-fire. ... announce Sunday a cease-fire ... this. She said that ETA did not ...
p47
sg5
VBasque Separatist Group ETA Declares Ceasefire
p48
sa(dp49
g3
VBasque separatists Eta call a permanent ... "This is Eta's firm commitment ... In September last year, Eta announced an end to its armed offensive ...
p50
sg5
VBBC News - Spain's Basque separatists Eta call 'permanent truce'
p51
sa(dp52
g3
VEta members announce an end ... The announcement came 53 years after Euskadi ta Askatasuna, which means Basque homeland ... More on this story; Eta ...
p53
sg5
VEta declares halt to armed conflict | World news | The Guardian
p54
sa(dp55
g3
VThe deadly car bomb set off by the Basque separatist group Euskadi Ta Askatasuna ... year-end news conference on ... on ETA to respect the cease-fire. This strongly ...
p56
sg5
VETA: The Beginning of the End?
p57
sa(dp58
g3
VThis week, ETA (the initials stand for Basque ... In the past decade \u2014 and especially after the failure of a 2006 cease-fire \u2014 the ... By the end of the decade ...
p59
sg5
VBasque Terror Group ETA Marks 50th Year with Attacks - TIME
p60
sa(dp61
g3
VOur day's top images, in ... the website of Basque regional newspaper Gara. "This is ETA's firm commitment toward a ... difficult process to see the end to ...
p62
sg5
VSpanish government rejects ETA ceasefire move | Reuters
p63
sa(dp64
g3
VAt the end of the 1970s the ETA had gained some ... from the ETA even to this day. All they did was to ... \u201cBasque Separatist Group Announces Cease-Fire ...
p65
sg5
VTHE BASQUE SEPARATIST MOVEMENT - University of North Carolina at ...
p66
sa(dp67
g3
VThe Basque separatist group ETA announced a permanent cease-fire, bringing a dramatic end to a ... This targeting of Basque ... ETA announced a cease-fire ...
p68
sg5
VBasque Country Conflict Briefing - Flashpoints
p69
sa(dp70
g3
V... in which ETA (Euskadi ta Askatasuna, or "Basque ... end to his 36-year regime also ended in violence. But this is the ... ETA to announce once ...
p71
sg5
VETA announces end to 40 years of extortion - Features - Al Jazeera ...
p72
sa(dp73
g3
VSpain hails ETA end to Basque ... Talks in 2006 went nowhere and ETA ended a cease-fire after just a few months ... to maybe win this title one year ...
p74
sg5
VSpain hails ETA end to Basque separatist violence - Yahoo! News
p75
sa(dp76
g3
VSpain hails end to Basque ... and ETA ended a cease-fire after just a few months ... battle to bring ETA to its knees, said, "If only this day had ...
p77
sg5
VSpain hails end to Basque separatist war | News.com.au
p78
sa(dp79
g3
V... the website of Basque regional newspaper Gara. "This is ETA ... the group did not specify how the permanent cease-fire ... difficult process to see the end to ETA ...
p80
sg5
VSpanish government rejects ETA ceasefire move - MSN News UK
p81
sa(dp82
g3
VIn Spain, relief over ETA's end to violence ... But this time, ETA's bombs and bullets ... ETA declared a cease-fire ...
p83
sg5
VNation & World | In Spain, relief over ETA's end to violence ...
p84
sa(dp85
g3
VIn this photo released by the Basque ... ETA is preparing to announce such an end to its 42-year ... ETA declared its latest cease-fire in ...
p86
sg5
VLeader of Basque Group ETA Says Terror Group Now Rejects Violence ...
p87
sa(dp88
g3
VETA has decided to declare a permanent cease-fire ... We reaffirm our commitment to continue to take steps towards this end. ... ETA abducts and kills Basque ...
p89
sg5
VCBC News Indepth: ETA
p90
sa(dp91
g3
V... with ETA, read THIS POST I did ... separatist group ETA that shattered a 9-month cease-fire and snuffed ... and end the occupation of Basque ...
p92
sg5
VSpaniards Protest Basque Separatist ETA\u2019s Bullet-Riddled ...
p93
sa(dp94
g3
VETA statement that it plans to end ceasefire December 3, ... Basque Rebels in Spain Ending Cease-Fire after 14 Months. ... For up-to-date information on the ETA ...
p95
sg5
VETA Spain/ Freedom for the Basque Homeland
p96
sa(dp97
g3
V... the Basque separatist group Euskadi ta Askatasuna (ETA, Basque ... ETA Basque separatists announce open-ended truce ... Armed group announces end of year-long ...
p98
sg5
VBackground Report: ETA Ceasefires by the Numbers
p99
sa(dp100
g3
VThe armed Basque separatist group ETA has said it is ... The document called on ETA to announce a ... cease-fire. The statement comes a day after the Spanish ...
p101
sg5
VETA 'willing to undergo mediation' - MSN News UK
p102
sa(dp103
g3
VAmong those allegedly killed by ETA since January this year are 6 ... In December 1999 ETA decided to end its ceasefire ... established since the ETA cease-fire ...
p104
sg5
VSpanish government clamps down on Basque separatist ETA - World ...
p105
sa(dp106
g3
VThe Basque separatist group ETA has declared a permanent ... "This is ETA's firm commitment towards a process to achieve a lasting resolution and towards an end to ...
p107
sg5
VSpain's ETA in permanent ceasefire - Europe - Al Jazeera English
p108
sa(dp109
g3
V... Euskadi ta Askatasuna - means Basque ... 'This is ETA's firm commitment toward a ... elections scheduled for May of this year, ...
p110
sg5
VBasque separatist group Eta declares permanent cease-fire after ...
p111
sa(dp112
g3
V... which made its statement in Basque, did not ... This ETA statement ... with new video for single End of Night The 41-year-old singer ...
p113
sg5
VIt's time to talk: Spain's ETA terrorist group declares a 'cease-fire'
p114
sa(dp115
g3
V... during this period and the repercussions did not end ... in the Basque Country. The first contacts date ... ETA would announce a "cease-fire." This would ...
p116
sg5
VSurveys - ECCP
p117
sa(dp118
g3
V... whose initials stand for Euskadi ta Askatasuna (Basque ... In its bloodiest year, ETA kills nearly ... ETA lays out conditions for an end to ...
p119
sg5
VTimeline: Key events in history of Basque separatists ETA | Reuters
p120
sa(dp121
g3
VThe Basque terrorist group ETA, ... agreed to a cease-fire last year, ... marks the end of Europe's violent separatist movements ...
p122
sg5
VSpain's Basques enter unfamiliar territory of peacetime politics ...
p123
sa(dp124
g3
VThe Basque terrorist group ETA detonated a car bomb on ... since the beginning of the year. ... as marking the end of the terrorist group's cease-fire.
p125
sg5
VBasque terrorists attack regional TV station in Bilbao ...
p126
sa(dp127
g3
VETA Euskadi Ta Askatasuna, ... (abertzale stands for patriot in Basque). These include ETA, ... ETA declares a permanent cease-fire.
p128
sg5
VETA - Welcome back to The Frost blog
p129
sa(dp130
g3
VETA, (Euskadi Ta Askatasuna ... the IRA weakened and ETA announced a cease fire for ... anti Basque policies. The attack did not fit the ...
p131
sg5
VETA (Euskadi Ta Askatasuna) - Military History Encyclopedia on the Web
p132
sa(dp133
g3
VEuskadi Ta Askatasuna: Aliases: Basque ... However, these bombings were ... ETA members during the cease-fire. It must be noted that ETA did not officially ...
p134
sg5
VTerrorist Organization Profile - START - National Consortium for ...
p135
sa(dp136
g3
V"All we want from ETA is a definitive end to ... time ETA declared a permanent cease fire, ... relocation still haunt my family to this day. As a Basque ex ...
p137
sg5
VETA's ceasefire: A permanent ceasefire, at least for now | The ...
p138
sa(dp139
g3
VThese Puppies Will Make Your Day 113; ... MADRID \u2014 A member of the Basque separatist group ETA responsible for ... Basque Militants Announce Permanent Cease-Fire ...
p140
sg5
VEta
p141
sa(dp142
g3
V... The first and only meeting to date between Eta and ... to end violence in the Basque ... This page is best viewed in an up-to-date web ...
p143
sg5
VBBC News - Timeline: Eta campaign
p144
sa(dp145
g3
VThe ETA did not say when it would end. ... making the number of ETA suspects detained this week to 33. They worked on a Basque-language ... Euskadi Ta Askatasuna."
p146
sg5
VETA - dKosopedia
p147
sa(dp148
g3
VThe prime minister apologized Monday for putting his faith in a Basque ... did not announce any ... ETA had shattered a nine-month cease-fire ...
p149
sg5
VMy Right Word: Instead of Spain - Israel; Instead of ETA - PLO
p150
sa(dp151
g3
VBrowse back issues of this publication by date. March 22, ... ETA (Euskadi Ta Askatasuna--Basque Homeland and ... Basque country following ETA cease-fire.
p152
sg5
VWhy Do They Kill?(violence in Spain's Basque Country) - World ...
p153
sa(dp154
g3
VEuskadi Ta Askatasuna or ETA (Basque for "Basque Homeland and ... From this year onwards, ... ETA also claims that the cease fire is still in place despite the ...
p155
sg5
VETA - Wikipedia, the free encyclopedia
p156
sa(dp157
g3
VThe prime minister apologized Monday for putting his faith in a Basque ... did not announce any ... ETA had shattered a nine-month cease-fire ...
p158
sg5
VMy Right Word: Instead of Spain - Israel; Instead of ETA - PLO
p159
sa(dp160
g3
VBrowse back issues of this publication by date. March 22, ... ETA (Euskadi Ta Askatasuna--Basque Homeland and ... Basque country following ETA cease-fire.
p161
sg5
VWhy Do They Kill?(violence in Spain's Basque Country) - World ...
p162
sa(dp163
g3
VA Spanish citizen suspected of belonging to the Basque terrorist group ETA ... end of the terrorist group's cease-fire. ETA, ... This Is Best Mother's Day ...
p164
sg5
VMexico arrests suspected ETA member | Fox News Latino
p165
sa(dp166
g3
VRatings have been disabled for this video. ... ETA Basque govt dismisses ETA ceasefire as 'insufficient' by ... The End of Humanity by TheAlexJonesChannel ...
p167
sg5
VSpain - ETA separatists announce end of terror campaign - YouTube
p168
sa(dp169
g3
V... its 14-month cease-fire nearly a year ... attack this year attributed to the Basque ... ETA declared an end to the cease-fire in December ...
p170
sg5
VCar Bomb Kills Spanish Judge / 2 others dead, 66 wounded in attack ...
p171
sa(dp172
g3
V... bomb blast blamed on the armed Basque separatist group ETA, ... nine-month cease-fire that ETA had ... than ever to end ETA's nearly ...
p173
sg5
VSecond body found in rubble of Madrid car bombing - USATODAY.com
p174
sa(dp175
g3
V... blaming the Basque group ETA, ... stop attacks in its cease-fire declaration this year that was seen as the greatest hope in a decade of a peaceful end to the ...
p176
sg5
VBombing prompts Spain to cut off talks with separatists | The San ...
p177
sa(dp178
g3
VThe arguments of Friedlander and Cohen do not agree with these two ... end of cease-fire. In the year 2000, ETA ... Euskadi Ta Askatasuna (ETA, or Basque ...
p179
sg5
VThe Basque Conflict in Spain - Silver Nickel Productions
p180
sa(dp181
g3
V... France said on Friday it wanted Basque separatist group ETA to ... ETA earlier in the day ... end definitively the consequences of this ...
p182
sg5
VFrance calls on Basque separatists to disarm | Reuters
p183
sa(dp184
g3
V... After the breakdown of the cease-fire, ... ETA has now put an end to the stage of forming respective ... Acts in praise of ETA are usual at these events.
p185
sg5
VSpanish Daily Outlines ETA's Current Structure and Activities
p186
sa(dp187
g3
VA Case Study of the Basque Country This article investigates ... ETA announced the end of cease-fire. In the year 2000, ETA killed ... Data on macroeconomic announce-
p188
sg5
VThe Economic Costs of Conflict: A Case Study of the Basque Country ...
p189
sa(dp190
g3
V... in which ETA (Euskadi ta Askatasuna, or 'Basque Fatherland ... Franco's death put an end to his 36-year regime ... this: SPAIN: ETA Announces End to 40 ...
p191
sg5
VSPAIN: ETA Announces End to 40 Years of Extortion \u2014 Global Issues
p192
sa(dp193
g3
V... terrorists agreed to a cease-fire this ... the homeland of Euskadi Ta Askatasuna, or ETA (Basque for ... "We are approaching the beginning of the end of ETA ...
p194
sg5
VPeace at Last? | People & Places | Smithsonian Magazine
p195
sa(dp196
g3
V... resulting in more non-Basque immigration. These developments ... with ETA and in 1966 the Aberri-Eguna (Day of ... ETA Cease-fire Challenges Spanish ...
p197
sg5
VThe Ongoing Conflict in Spain: Basque Nationalism.
p198
sa(dp199
g3
VIN JANUARY Euskadi Ta Askatasuna ("Basque Homeland ... The end of ETA: A new Basque ... opposed to the working classes of ETA and the radical left of this ...
p200
sg5
VETA timeline: From first blood to ceasefire | The Economist
p201
sa(dp202
g3
V... \u201cEuskadi Ta Askatasuna,\u201d or \u201cBasque Homeland ... last time to just 50 this year. Despite ETA\u2019s ... and Spain since the end of the cease-fire, ...
p203
sg5
VThe Other Terrorism by Judith Miller, City Journal Spring 2008
p204
sa(dp205
g3
V... manifested in 1959 with the creation of Euskadi Ta Askatasuna (ETA ... do not see the logic in Basque secession. ETA\u2019s ... when ETA called for a cease-fire ...
p206
sg5
VSpanish Essays - Euskadi Ta Askatasuna - UK Essays, Dissertations ...
p207
sa(dp208
g3
VFollowing the end of that cease-fire, ETA ... The following day, ETA ... Franco-Spanish bilateral cooperation is enhanced by joint action against Basque ETA ...
p209
sg5
VSpain: Government >> globalEDGE: Your source for Global Business ...
p210
sa(dp211
g3
VETA was founded on 31 July 1959 as Euskadi Ta Askatasuna (Basque Homeland ... These events marked the end of the armed "counter-terrorist ... ^ ETA cease-fire, ...
p212
sg5
VETA Articles & ETA Websites at HealthHaven.com
p213
sa(dp214
g3
V... to democracy had been completed and to end the 'Basque ... the community and the ETA. This year, ... declared a cease-fire. Why doesn't ETA do the ...
p215
sg5
VBasques' struggle for self-determination | Green Left Weekly
p216
sa(dp217
g3
V... ETA announced an end to the cease-fire amid ... ETA stands for Euskadi Ta Askatasuna, which means "Basque ... This suggests that the eta mode was an ...
p218
sg5
VETA - Factbites
p219
sa(dp220
g3
VColombia's Marxist FARC rebels sought to forge an alliance with the Basque separatist group ETA to ... 40-year campaign for an independent Basque ... cease-fire ...
p221
sg5
VColombia: FARC sought to launch attack with ETA - FRANCE 24
p222
sa(dp223
g3
VThis Muslim state, ... and in 1999 the ETA ended the cease-fire. With the end of the cease-fire the ... The ETA, the militant Basque independence group that had ...
p224
sg5
VSpain: History | Infoplease.com
p225
sa(dp226
g3
V... ETA cease fire, ... in Basque nationalism during the Franco years was the founding of ETA (Euskadi Ta Askatasuna, or Basque Homeland and ... To this end, the PNV ...
p227
sg5
VGlobalization, Nationalism and Sovereignty in the Basque Country
p228
sa(dp229
g3
VThe only official language to this day in the French Basque ... In 1959 the group ETA (Euskadi Ta Askatasuna \u2014 Basque Country ... that has led to the IRA's cease-fire.
p230
sg5
VBasque militants seek negotiated settlement | Green Left Weekly
p231
sa(dp232
g3
VThe Government of Spain is involved in a long-running campaign against Basque Fatherland and Liberty (ETA ... end of that cease-fire, ETA conducted ... day, ETA ...
p233
sg5
VSpain - Encyclopedia of Earth
p234
sa(dp235
g3
V... Here is a timeline of some major events since Euskadi ta Askatasuna (Basque ... In its bloodiest year, ETA kills ... French police announce the ...
p236
sg5
VTimeline: Basque rebels ETA say to halt armed attacks | Reuters
p237
sa(dp238
g3
VThe Basque separatist group Euskadi Ta Askatasuna ... said that it would end a 15-month cease-fire and ... with ETA unless the group agreed to disarm. This split ...
p239
sg5
VSpain\u2019s Counter-Terrorism Policy Under Challenge by Al-Qaeda and ETA
p240
sa(dp241
g3
VSpain's armed Basque separatist group ETA ... in a statement published on a Basque news site. The group, which last year ... the group had refused to announce ...
p242
sg5
VSpain's ETA ready to disband if certain conditions met - Yahoo ...
p243
sa(dp244
g3
VIn the end of the 1970s the Basque left began a ... There is still a lot to do in the Basque Country and Spain: 1. ETA's cease fire is ... this year a Basque group ...
p245
sg5
VDaily Kos: Elections in the Basque Country
p246
sa(dp247
g3
VThe government continues to battle the Basque Fatherland and Liberty (ETA) ... Following the end of that cease-fire, ETA conducted a ... The following day, ETA ...
p248
sg5
VSpain Country Information - WORLD CITIES
p249
sa(dp250
g3
VBasque: '''Euskadi Ta Askatasuna''' or ETA ... From this year onwards ... http://www.eitb24.com/portal/eitb24/noticia/en/politics/effective-on-march-24-eta-cease-fire ...
p251
sg5
VETA explained
p252
sa(dp253
g3
VWhilst the announcement that Basque separatist group ETA will end its violent ... announce an end to\u2026 05/09/2010. ETA suspects ... on March 16 this year, ...
p254
sg5
VETA | euronews
p255
sa(dp256
g3
V... one of the highest-ranking members of the armed Basque group ETA , ... The 54-year-old Francisco ... but announced a permanent cease-fire in January 2011 ...
p257
sg5
VSpain: Ex-leader of armed Basque group ETA dies in French hospital
p258
sa(dp259
g3
VThe school day for Basque children allows for a lengthy midday ... and sing Basque songs. These families consider Basqueness ... A new cease-fire by the ETA, ...
p260
sg5
VBasques Facts, information, pictures | Encyclopedia.com articles ...
p261
sa(dp262
g3
V... this month by the ETA. Sep 9, 1994: Two Basque ... armed Basque separatist group ETA in June last year, ... ETA announced it would end its cease fire in ...
p263
sg5
VMAR | Data | Chronology for Basques in Spain
p264
sa(dp265
g3
V... including 10 persons with no connection to the Basque terrorist group, ETA, ... the year as a result of these ... cease-fire declaration and the end of ...
p266
sg5
VSpain - U.S. Department of State
p267
sa(dp268
g3
VFollowing the end of that cease-fire, ETA ... The following day, ETA ... Franco-Spanish bilateral cooperation is enhanced by joint action against Basque ETA ...
p269
sg5
VSpain (08/18/10) - U.S. Department of State
p270
sa(dp271
g3
V... 2011 On October 20th the Basque group ETA (Euskadi ta Askatasuna ... of ETA. The policy, which lasts to this day and has ... to announce the end of ...
p272
sg5
VETA says it will kill no more but the Basque conflict isn\u2019t over ...
p273
sa(dp274
g3
VThe Euskadi ta Askatasuna or ETA, were founded in the Spain|Spanish Basque ... The Euskadi ta Askatasuna or ETA, ... At this point, the ETA returned to Spain ...
p275
sg5
VETA - Everything2.com
p276
sa(dp277
g3
V... the Basque terrorist organization ETA said that it ... that this will be the beginning of the end." ... if there ever was one in this day and age of ...
p278
sg5
VETA terrorist group announces laying down arms - RenewAmerica
p279
sa(dp280
g3
VETA is the Basque acronym for ... Why has ETA called for a cease-fire? ... that justice will be traded for peace and an end to violence. Of course, this is not an ...
p281
sg5
VRealClearPolitics - Articles - The Price of Peace in Spain
p282
sa(dp283
g3
V... regarded by Spain as the political wing of the Euskadi Ta Askatasuna (Basque ... ETA announced an end to four decades of ... Stay up to date on ...
p284
sg5
VBasque separatists Batasuna say they are closing down
p285
sa(dp286
g3
VSpain and France continued to cooperate in bringing to justice members of the Basque Fatherland and Liberty (ETA) ... At the end of the year, ... The IRA cease-fire ...
p287
sg5
V1997 Global Terrorism: Europe and Eurasia Overview
p288
sa(dp289
g3
VWhy is this not an election issue... ... one of the highest-ranking members of the armed Basque group ETA , ... but announced a permanent cease-fire in January 2011 ...
p290
sg5
VSpain: Ex-leader of armed Basque group ETA dies in French hospital
p291
sa(dp292
g3
V... ETA (Euskadi Ta Askatasuna ... The reason why ETA wasn't behind these attacks is ... group announced an end to its 14-month ceasefire in a Basque ...
p293
sg5
V"Terrorists want a lot of people watching, not a lot of people ...
p294
sa(dp295
g3
VIn the end, Spain is regarded as ... in a long-running campaign against Basque Fatherland and Liberty (ETA), ... ETA declared a "permanent cease-fire" that ...
p296
sg5
VCompare and Contrast...? - Yahoo! Answers
p297
sa(dp298
g3
V"The president of the republic associates this order ... order to end the blind violence perpetrated by ETA ... ETA Declares a 'Permanent Cease-Fire'
p299
sg5
VSarkozy Dedicates Spanish Honor To Victims Of ETA | Fox News Latino
p300
sa(dp301
g3
VThis year, there will be no ... raising hopes that its campaign was at an end. ETA called off the cease-fire in ... stands for Euskadi Ta Askatasuna, Basque for ...
p302
sg5
VSinn Fein / IRA plus ETA, FARC, PLO, Osama ect - General Comments ...
p303
sa.