(lp1
(dp2
S'description'
p3
VTufts University is a private ... including a $136 million bequest to its endowment upon the dissolution ... Current and former Tufts faculty include former ...
p4
sS'title'
p5
VTufts University - Wikipedia, the free encyclopedia
p6
sa(dp7
g3
VTo learn more about endowment and capital support, you may view the Tufts University Endowment Policies or contact: Eric Johnson Executive Director, ...
p8
sg5
VGiving to Tufts - Endowment
p9
sa(dp10
g3
VCurrent Events Calendar; U.S. Economy; India; Energy; Housing; ... Tufts University Endowment is an endowment fund with $677 million in assets under ...
p11
sg5
VTufts University Endowment: Private Company Information - Businessweek
p12
sa(dp13
g3
VCurrent Consultant ... Tufts University ... and organizer. Most recently, I was the National Organizer at the Responsible Endowments Coalition, ...
p14
sg5
VMartin Bourqui | LinkedIn
p15
sa(dp16
g3
VTufts' endowment is the 49th ... receive the same benefit from the endowment as current students ... of a substantial portion of university endowment funds ...
p17
sg5
VCongress, universities clash on endowment spending - News - Tufts ...
p18
sa(dp19
g3
VTufts' total endowment now stands at more than $1 ... At Tufts, University President Lawrence Bacow said in a Sept. 8 e\u2212mail to the Tufts community that the ...
p20
sg5
VTufts, Harvard report endowment turnarounds, financial ...
p21
sa(dp22
g3
VTufts University's endowment fund, boosted by record gifts from two wealthy alumni, ... in their endowment is almost three TIMES Tufts' ENTIRE current endowment!!!
p23
sg5
VTufts endowment - wow! - College Confidential
p24
sa(dp25
g3
VAn endowment fund is created when the University receives a ... Market value is the current or appreciated ... please send email to peter.boyajian@tufts ...
p26
sg5
VEndowment Fund - Budget & Accounting - - Finance Division -
p27
sa(dp28
g3
VKatz's former teammate and current professional player Julia Browne was the last to win this award ... Tufts University Steve Tisch Sports and Fitness Center
p29
sg5
VKatz Earns Second Team Honors and Senior Sportswoman of the Year ...
p30
sa(dp31
g3
VTufts is recognized as a premier university dedicated to educating new leaders for a changing world. Superb teaching and world-class research equip graduates to ...
p32
sg5
VTufts University
p33
sa(dp34
g3
VANNUAL FINANCIAL REPORT OF TUFTS UNIVERSITY2012 Table of ConTenTs PAGE ... student loans while current ... The University\u2019s endowment consists of approximately ...
p35
sg5
VANNUAL FINANCIAL REPORT OF TUFTS UNIVERSITY 2012
p36
sa(dp37
g3
VTufts University A Graduate School of International Affairs. ... Contact a Current Student. Natalie Chang, ... National Endowment for Democracy, ...
p38
sg5
VChang | Tufts Fletcher School
p39
sa(dp40
g3
VTufts\u2019 endowment is valued at $1.4 billion. ... As a university, Tufts has little or no sway over the politicians who write ... Given Tufts\u2019 current investment ...
p41
sg5
VEndowments, Divestment, and Climate Change | Tufts Divest For Our ...
p42
sa(dp43
g3
VTufts University is firing staff, ... The endowment was valued at $1.45 billion on June 30 ... \u201cWe have already aligned our expenditures with our current reserves ...
p44
sg5
VTufts University Cuts Staff, Freezes Pay as Endowment Falls 30% ...
p45
sa(dp46
g3
Vtion equivalent to the current ... Tufts University, November 2011. 2 Endowment Policies Tufts University spending level of all funds in the pool.
p47
sg5
VEndowment Policies
p48
sa(dp49
g3
VTufts University East Hall, room 103 Medford, ... National Endowment for the Humanities Fellowship ... Current Projects.
p50
sg5
VDepartment of History - Tufts University
p51
sa(dp52
g3
VTufts Now is the content and information hub for the university community, featuring news, events, media highlights, blogs, social media, photos, videos and more.
p53
sg5
VHome | Tufts Now
p54
sa(dp55
g3
VANNUAL FINANCIAL REPORT OF TUFTS UNIVERSITY 2010 TABLE OF ... current disclosure framework for ... The University\u2019s endowment consists of approximately 1 ...
p56
sg5
VTABLE OF CONTENTS
p57
sa(dp58
g3
VCurrent Events Calendar; U.S. Economy; India; Energy; Housing; Europe; ... To contact Tufts University Endowment, please visit . Company data is provided by Capital IQ.
p59
sg5
VTufts University Endowment: CEO and Executives - Businessweek
p60
sa(dp61
g3
VTufts is relying on its endowment to fund only about 10 percent of ... according to the university. Tufts ended the last school year ... the current sophomores ...
p62
sg5
VTufts Says Wealthy College Endowments Should Take Less Risk ...
p63
sa(dp64
g3
V2011 Endowment: $1,403,883,000 Applying. ... Tufts University offers a number of student services including nonremedial tutoring, women's center, ...
p65
sg5
VTufts University | Best College | US News
p66
sa(dp67
g3
Vwhile current liabilities represent accounts payable, deferred revenue and other liabilities. Debt ... TUFTS UNIVERSITY 2008 ENDOWMENT AND INVESTMENT REPORT
p68
sg5
V2008
p69
sa(dp70
g3
VCompany profile for Tufts University Endowment in Boston,MA. Get accurate business information including key contacts, company financials and more in the Tufts ...
p71
sg5
VTufts University Endowment - Company Profile by Insideview
p72
sa(dp73
g3
VResources for employment at Tufts including benefits, career services and job openings
p74
sg5
VJobs - Tufts University
p75
sa(dp76
g3
VTufts University Guest Speakers 2010-11 In 2011-12, we look forward to deepening our sense of in-tellectual and human commu-nity. Our MA students plan a
p77
sg5
VTufts University
p78
sa(dp79
g3
VEndowment and Capital Giving ... between families and their students at the university. We are your resource at Tufts, ... we have your current email address by ...
p80
sg5
VThe Tufts Parents Program - Giving to Tufts
p81
sa(dp82
g3
VTufts University A Graduate School of ... He has co-authored several studies on public policy issues for the Carnegie Endowment and the ... Current Dean; Past ...
p83
sg5
VCurrent Dean | Tufts Fletcher School
p84
sa(dp85
g3
VThe university runs on a $600 million operating budget, of which the endowment makes up about 13 percent. Tufts' endowment, ...
p86
sg5
VTufts freezes some salaries, announces layoffs - Local News ...
p87
sa(dp88
g3
VTufts University will break ground for the Steve ... The current design incorporates a new facility with a ... a $40 million endowment gift from ...
p89
sg5
VNews - Home Page - Giving to Tufts
p90
sa(dp91
g3
V... Science Foundation and to the National Endowment for the Humanities ... from the current \u201cfirst-inventor-to-invent ... The Tufts University ...
p92
sg5
VTufts University: Research News @ Tufts
p93
sa(dp94
g3
VSearch technologies from Tufts University and Tufts Medical Center. Tufts Clinical and Translational Science Institute (CTSI) ...
p95
sg5
VResearch - Tufts University
p96
sa(dp97
g3
VFor current and up-to-date Tufts news and ... "The Delta Dental endowment will enable Tufts dental school to increase community ... Tufts University School of ...
p98
sg5
VTufts E-News: A Strengthened Commitment To Community Service
p99
sa(dp100
g3
VCurrent and former Tufts faculty include former American Psychological Association ... 2012 NACUBO-Commonfund Study of Endowments. ... Tufts University Fact Book 2009 ...
p101
sg5
VTufts University - Wikipedia, the free encyclopedia
p102
sa(dp103
g3
VTufts University Endowment Survey << Back to Report Card . ... The University reports its endowment value once a year. << Back to Report Card : Contact ;
p104
sg5
VTufts University - Green Report Card 2010
p105
sa(dp106
g3
VTufts University is launching a ... including endowment and ... The university will engage an outside consultant to assess current administrative processes ...
p107
sg5
VTufts to Assess Administrative Structure | Tufts Now
p108
sa(dp109
g3
Vtain the University's current atmosphere, rather than ex- ... and the endowment, ... new Tufts University Digital Collections and Archives
p110
sg5
Vat Tufts University
p111
sa(dp112
g3
VMUSEUM STUDIES at Tufts University. Museum ideas, information, ... Promotes the work of the Division and larger goals of the Endowment to outside constituents.
p113
sg5
VMUSEUM STUDIES at Tufts University - sites.tufts.edu
p114
sa(dp115
g3
VFor current and up-to-date Tufts news ... Tufts University President Lawrence S ... as a Trustee of the University, and through the endowment of the Cummings ...
p116
sg5
VTufts E-News: Veterinary School Changes Name
p117
sa(dp118
g3
VMarcos Cancels Funds For Tufts Endowment. By Suzanne R. Spring, January 07, 1981. 0 comments; Email; Print; ... visited Tufts University in 1977, ...
p119
sg5
VMarcos Cancels Funds For Tufts Endowment | News | The Harvard Crimson
p120
sa(dp121
g3
VFor current and up-to-date Tufts ... As tuition at elite universities like Tufts rises, parents, students and university ... "Tufts also spends endowment and ...
p122
sg5
VTufts E-News: The Return On Investment
p123
sa(dp124
g3
VAbout 60 percent of the money raised by Beyond Boundaries is targeted toward the Tufts endowment, ... Annual Support for Current Initiatives ... Tufts University, ...
p125
sg5
VFinancial Aid Is Top Priority for Tufts University\u2019s New $1.2 ...
p126
sa(dp127
g3
VThe endowment benefited ... The recent Jaharis and Tisch gifts reflect the generous commitment of Tufts\u2019 alumni and friends to the university. ... Our current ...
p128
sg5
VSummer News and Updates - Office of the President
p129
sa(dp130
g3
VThe campaign aims to raise 60 percent of the total goal for Tufts' endowment, ... highest rates of any American university. And of our current undergraduate and ...
p131
sg5
VGiving to Tufts - About the Campaign
p132
sa(dp133
g3
VWhile it is true that SWF\u2019s have been attracted to university endowments as models of ... Tufts University ... In the current financial market environment, ...
p134
sg5
VThe Sovereign Wealth Fund Initiative Summer 2012
p135
sa(dp136
g3
VCurrent students rank the worst things about Tufts. ... Tufts University The Best & Worst Worst Of Location ... The small endowment. Expensive.
p137
sg5
VTufts University - The Best & Worst - Worst Of - College Prowler
p138
sa(dp139
g3
VWe have the most up-to-date and current immigration information! We are here to make your experience at Tufts University productive, ...
p140
sg5
VInternational Center - Tufts University
p141
sa(dp142
g3
VAll students are required to maintain full time status and good academic standing while studying at Tufts University. "Full time ... still be current within the ...
p143
sg5
VInternational Center - Tufts University
p144
sa(dp145
g3
VThe Corporate and Foundation Relations (CFR) team at Tufts University is the starting point for organizations wishing to develop unique and profitable partnerships ...
p146
sg5
V- Corporate and Foundation Relations -
p147
sa(dp148
g3
VThe Carnegie Endowment for International Peace An educational organization, ... Tufts University | School of Arts & Sciences | School of Engineering | ...
p149
sg5
VUndergraduate Education at Tufts University
p150
sa(dp151
g3
VCurrent Value Tufts University KEY: highest value for past 6 yrs 50% 45% ... Endowment Value in millions TUFTS % Instructional faculty with tenure TUFTS 9/10 Finance
p152
sg5
VTufts University - Office of the Provost and Senior Vice President
p153
sa(dp154
g3
VTufts University has committed to reducing direct emissions consistent with the goals of the ... The university makes a list of endowment holdings available to ...
p155
sg5
VTufts University - Green Report Card 2009
p156
sa(dp157
g3
V... Tufts University. The Perseus Project is funded by the Alpheios Project, the ... the National Endowment for the Humanities, ...
p158
sg5
VPerseus Digital Library
p159
sa(dp160
g3
VTufts University A Graduate ... she was a Research Associate for the Reagan-Fascell Democracy Fellows Program at the National Endowment for ... Current Issue;
p161
sg5
VStaff | Tufts Fletcher School
p162
sa(dp163
g3
VTufts University is a private research ... Current and former Tufts faculty include former American ... 2012 NACUBO-Commonfund Study of Endowments.
p164
sg5
VTufts University - MedLibrary.org: FDA Approved Prescription ...
p165
sa(dp166
g3
VOf the 62 schools with billion-dollar-plus endowments, Tufts University, ... Current deficit plunges 32% . Dow closes above 15,000 for first time.
p167
sg5
VHarvard leads billion-dollar endowment club - Jan. 22, 2007
p168
sa(dp169
g3
Valumnae gathered with current faculty, ad- ... Endowment The Experimental College has been graced ... at Tufts University. Title: newsletter2000 Author: hwoolf
p170
sg5
Vat Tufts University
p171
sa(dp172
g3
VTufts' overall endowment is $880.5 million. ... Brown University in Providence three years ago also ... Tufts had 15,500 applicants for the current ...
p173
sg5
VTufts University to restore need-blind admission policy - Boston ...
p174
sa(dp175
g3
VCURRENT MEMBERS; REGIONAL PARTNERSHIPS; RESOURCES. CIVIC ENGAGEMENT RESOURCES; ... Tufts University 72 Professors Row Medford, MA 02155 617-627-6056. Rob Hollister ...
p176
sg5
VCONTACT US - The Talloires Network
p177
sa(dp178
g3
VJust For Current College Students: ... Post to the Tufts University community. 0. Tufts University Diversity was reviewed by singer30425 On Feb 20. C.
p179
sg5
VTufts University - Diversity - College Prowler
p180
sa(dp181
g3
V... press releases and information about Tufts University. ... For current and up-to-date Tufts news and ... and Melinda Gates Foundation and the Duke Endowment, ...
p182
sg5
VDoing His Civic Duty - Tufts E-News: Daily News. Tufts University ...
p183
sa(dp184
g3
VCurrent Issue: Winter 2013 ... Tufts University School of Medicine and the Sackler School of Graduate Biomedical Sciences at Tufts University are international ...
p185
sg5
VTufts Medicine | Tufts University School of Medicine
p186
sa(dp187
g3
VRelationships of Tufts University Endowment Mutual Connections Positions / Titles Elizabeth Lang
p188
sg5
VTufts University Endowment - MarketVisual Knowledge Map
p189
sa(dp190
g3
V... including Boston University, Tufts University, ... This session will include speakers from the New Economics Institute and the Sustainable Endowments ...
p191
sg5
VTufts University - Your Town - Boston.com
p192
sa(dp193
g3
VTufts University, Boston, hired alternatives consultant Cliffwater to help Tufts staff set an "optimal asset allocation" for Tufts' $748 million endowment ... current ...
p194
sg5
VTufts University, Boston, hired alterna... - Pensions & Investments
p195
sa(dp196
g3
VPosts large and small from current Tufts students. Jump to ... of apartheid South Africa and again in 1994 to protest the University investing endowment assets in ...
p197
sg5
V19 Responses to a Thought Catalog Article, and a Hitchhiker's ...
p198
sa(dp199
g3
VReviewed the current goals in these areas and ... Investment of the Tufts endowment only in environmentally and socially ... Tufts University - Miller Hall
p200
sg5
VTufts Campus Sustainability Council - Office of Sustainability
p201
sa(dp202
g3
VView Barbara Freedman's business profile as Co-Chair of the Graduate Program In Theater at Tufts University and ... Endowment for the Humanities, the ... her current ...
p203
sg5
VBarbara Freedman | Tufts University | ZoomInfo.com
p204
sa(dp205
g3
VDivestBU Pushes for Green Endowment Student group wants University to ... by Tufts Divest, one of 22 university ... resources for current ...
p206
sg5
VDivestBU Pushes for Green Endowment | BU Today | Boston University
p207
sa(dp208
g3
VKansas State University: Tufts University: ... Endowment-Total Applied: ... The number of current faculty members who have received an American Veterinary Medical ...
p209
sg5
VKansas State (K-State) - College of Veterinary Medicine vs Tufts ...
p210
sa(dp211
g3
VTufts Now is the content and information hub for the university community, featuring news, events, media highlights, blogs, social media, photos, videos and more.
p212
sg5
VHome | Tufts Now
p213
sa(dp214
g3
Vcombined with uncertain returns on endowments; ... Tufts University has the opportunity to build on its history ... The University\u2019s current resource allocation ...
p215
sg5
VPrelude to the Strategic Plan March 2013
p216
sa(dp217
g3
VCurrent Studies. 2685: Egg Breakfast Research Study; ... Tufts University; USDA/ARS; Current Studies. Please click on a study number below to learn more about that study.
p218
sg5
VCurrent Studies - Human Nutrition Research Center on Aging
p219
sa(dp220
g3
VTufts Lacrosse Jumbo Victory. The Tufts men's lacrosse team tied its school record for goals in a game with a 26-4 victory over Norwich University.
p221
sg5
VTufts University Admissions Department
p222
sa(dp223
g3
VCurrent and former Tufts faculty include former American Psychological Association ... 2012 NACUBO-Commonfund Study of Endowments. ... Tufts University Fact Book 2009 ...
p224
sg5
VTufts University - Minor League Sports News on OurSports Central
p225
sa(dp226
g3
VThe Tufts University Pre-Veterinary Society is comprised of Tufts students who are all interested in veterinary medicine, animal care, animal welfare, ...
p227
sg5
VTufts Pre-Veterinary Society
p228
sa(dp229
g3
Vthis site tufts.edu people About PJS. Faculty ... and current MALD candidate at the Fletcher School ... labor, and the Tufts University endowment.
p230
sg5
VProseminar Series - Peace and Justice Studies - Tufts University
p231
sa(dp232
g3
V... Tufts University has ... Tufts alumnus Jonathan M. Tisch\u2019s generous $40 million endowment gift ensured the ... Current undergraduates and recent ...
p233
sg5
VTufts University in Medford, MA - TU - StateUniversity.com
p234
sa(dp235
g3
VTufts University. No Reviews Yet ... N/A \u2022 Endowment: N/A. ... you confirm that you are a current or former student from there (or parent), ...
p236
sg5
VTufts University - Student Reviews - 15,276 College Reviews From ...
p237
sa(dp238
g3
VContacting Current TUSM ... Any applicant accepted into Tufts University School of Medicine must provide documentation for the State and University immunization ...
p239
sg5
VAdmitted Applicants | Tufts University School of Medicine MD Programs
p240
sa(dp241
g3
VHome - Tufts University ... Welcome. The Student Services Center supports current and prospective graduate students in the School of Arts and Sciences and the School ...
p242
sg5
VHome - Office of Graduate Studies - Tufts University
p243
sa(dp244
g3
VTufts University encompasses its ... and has an endowment of ... and has worked closely with the administration and faculty staff including the current ...
p245
sg5
VTufts University_ Tufts University School of Medicine_ Tufts
p246
sa(dp247
g3
VTufts University School of Medicine is pleased to announce the release of our redesigned website. The project began in early 2011 and we launched the new site on ...
p248
sg5
VOur New Look | Tufts University School of Medicine
p249
sa(dp250
g3
VThe Bird's Eye View Tufts University. Steve Eliopoulos, Class of 89, loves Tufts so much he rented a helicopter and filmed campus (seriously, we're not making this up).
p251
sg5
VTufts University Admissions Department
p252
sa(dp253
g3
VMark Roche is a member of the Tufts University Police ... and current practice of experimental filmmaking as ... Distler Family Endowment, ...
p254
sg5
VTufts University: The Experimental College
p255
sa(dp256
g3
VStudent and alumni reviews of Tufts University ... The only thing that's holding Tufts back is its small endowment, but luckily the current President has ...
p257
sg5
VTufts University (StudentsReview) - Comments, Reviews and Advice ...
p258
sa(dp259
g3
V... and University Library Technology ... the Berger Family Technology Transfer Endowment. For more ... 2013 Tufts University ...
p260
sg5
VTufts University: Research Paper Navigator: Welcome
p261
sa(dp262
g3
V... former president of Tufts University and founder of Tufts' School of Nutrition, ... the school has matured into a current student body over 200, ...
p263
sg5
VAbout | Friedman School of Nutrition Science and Policy
p264
sa(dp265
g3
VNominees from the past two years who did not receive an award will be automatically reconsidered with the current ... endowment fund for teaching ... Tufts University
p266
sg5
VZucker Clinical Teaching Prizes | Tufts University School of ...
p267
sa(dp268
g3
VTufts University Biodiesel Processor Feasibility Study ... current and incoming students, ... Emissions and Endowment 0.00 1.00 2.00 3.00 4.00 5.00 6.00
p269
sg5
VCampus Sustainability at Tufts
p270
sa(dp271
g3
VCurrent Tufts first-years, ... Writing Fellows are Tufts\u2019 undergraduate writing tutors. ... Site designed by Tufts University ITS Department. ...
p272
sg5
VTufts University - Academic Resource Center
p273
sa(dp274
g3
VTufts University encompasses its ... and has an endowment of ... and has worked closely with the administration and faculty staff including the current ...
p275
sg5
VTufts University, Tufts University School of Medicine, Tufts ...
p276
sa(dp277
g3
VThe current president of Tufts University is Lawrence S. Bacow. ... and Tufts University. National Endowment for the Arts, the Packard Humanities Institute, ...
p278
sg5
VTufts University - Factbites
p279
sa(dp280
g3
VThe current design incorporates a ... , a $40 million endowment gift ... The center continues the enhancement of Tufts' athletic facilities. The university ...
p281
sg5
VTUFTS BREAKS GROUND ON NEW STEVE TISCH SPORTS AND FITNESS CENTER ...
p282
sa(dp283
g3
VRecognizing and celebrating the varying modes of research at Tufts University is ... \u201cThis has been a remarkable opportunity for all of us to reflect on current ...
p284
sg5
VStrategic Plan -
p285
sa(dp286
g3
VHome - Tufts University ... Goldwater Scholar. Noah Kurinsky, E14, was named a 2013 Goldwater Scholar as part of the Barry Goldwater Scholarship and Excellence in ...
p287
sg5
VHome - Engineering - Tufts University
p288
sa(dp289
g3
V... Tufts University. ... 2 National Endowment for the Humanities Residents, 11 Rockefeller Fellows, ... and current scholarship in child development.
p290
sg5
VPoints of Pride - Arts and Sciences - Tufts University
p291
sa(dp292
g3
VTufts University, main ... This came at the prompting of current and former Tufts Presidents ... the donation was invested entirely in the university's endowment.
p293
sg5
VTufts University | Learn everything there is to know about Tufts ...
p294
sa(dp295
g3
VHe went on to serve on more committees than any other current member of the board ... board, the university\u2019s endowment was $50 ... Tufts University ...
p296
sg5
VTufts Journal: People: James A. Stern
p297
sa(dp298
g3
VCURRENT MEMBERS; REGIONAL PARTNERSHIPS; RESOURCES. CIVIC ENGAGEMENT RESOURCES; HELPFUL LINKS; NEWSLETTER; CONFERENCES. ... Tufts University 23 Bellevue Street Medford ...
p299
sg5
VMidlands State University (Zimbabwe) - The Talloires Network
p300
sa(dp301
g3
VThe National Endowment ... What chunks of Arabic would best match that reader's current ... a collaboration of the Perseus Digital Library at Tufts University ...
p302
sg5
VGrants - Perseus Digital Library
p303
sa.