(lp1
(dp2
S'description'
p3
VThe 82nd Airborne Division is an ... After the 11 September attacks on the United States, the 82nd's 49th ... the division began reorganizing from a division based ...
p4
sS'title'
p5
V82nd Airborne Division - Wikipedia, the free encyclopedia
p6
sa(dp7
g3
VThe 82nd Airborne Division is an active airborne infantry division of the United States Army specializing in parachute landing operations. Based at Fort Bragg, North ...
p8
sg5
VFort Bragg
p9
sa(dp10
g3
VThe 82nd Airborne Division is an elite, active duty airborne infantry division of the United States Army. ... The 82nd Airborne Division is based at Fort Bragg, ...
p11
sg5
VThe 82nd Airborne Division - Elite magazine for elite warriors!
p12
sa(dp13
g3
VIndian army soldiers with the 99th Mountain Brigade watch a machine gunner with the U.S. Army, 82nd Airborne Division\u2019s 1st ... Hawaii-based 2nd Stryker ...
p14
sg5
VDVIDS - News - Annual India - US training at Bragg this year
p15
sa(dp16
g3
VBased at Fort Bragg, North Carolina, the 82nd Airborne Division is part of the XVIII Airborne Corps. ... /wikipedia/en/United_States_82nd_Airborne_Division; Edit; Delete
p17
sg5
V82nd Airborne Division - Freebase
p18
sa(dp19
g3
VThe 82nd Airborne Division is an active airborne infantry division of the United States Army specializing in parachute landing operations. Based at Fort Bragg, North ...
p20
sg5
V82nd Airborne Division - InfoRapid Knowledge Portal
p21
sa(dp22
g3
VThe 82nd Sustainment Brigade is a sustainment brigade of the United States Army based at Fort Bragg, ... It would continue to support the 82nd Airborne Division, ...
p23
sg5
V82nd Sustainment Brigade (United States) - Wikipedia, the free ...
p24
sa(dp25
g3
VSterling silver U.S. Army 82nd Airborne Division Ring. ... Based at Fort Bragg, North Carolina, the 82nd Airborne Division is the primary fighting arm of the XVIII ...
p26
sg5
V82nd Airborne Division Ring - US Military Marketplace
p27
sa(dp28
g3
VThey left from RAF North Witham having trained there with the 82nd Airborne Division. ... of the division was based around Zell ... establishment of U.S. airborne ...
p29
sg5
V101st Airborne Division - Wikipedia, the free encyclopedia
p30
sa(dp31
g3
V... 25th Infantry Division 10th Mountain Division 101st Airborne Division 82nd Airborne ... is a light infantry division in the United States Army based at ...
p32
sg5
V10th mountain division deployment
p33
sa(dp34
g3
VThe 82nd Airborne Division of the United States Army was constituted in the National Army as ... Calif.-based 15th MEU moved forward into Iraq's ...
p35
sg5
VGates Approves 82nd Airborne Division Deployment to Kuwait ...
p36
sa(dp37
g3
VBased at Fort Bragg, North Carolina, the 82nd ... and was redesignated the 82nd Airborne Division. ... The division returned to the United States on 3 ...
p38
sg5
VAirborne: 82nd Airborne Division 1970 US Army "The Big Picture ...
p39
sa(dp40
g3
VThe 82nd Airborne Division is an active airborne infantry division of the United States Army specializing in parachute landing operations. Based at Fort Bragg, North ...
p41
sg5
V82nd Airborne Division Custom Challenge Coin | U.S. DOD COINS
p42
sa(dp43
g3
V82nd Airborne Division gets new division commander. ... Discover the breathtaking beauty of these U.S. National Parks. The most amazing parks; 20 Expressions.
p44
sg5
V82nd Airborne Division gets new division commander - Wichita ...
p45
sa(dp46
g3
V82nd Airborne Division History The 82nd Airborne Division is an airborne infantry division based at ... the United States to war again. The 82nd Infantry ...
p47
sg5
VBrief History of the 82nd Airborne : 82nd LHA
p48
sa(dp49
g3
VThe 82nd Airborne Division of the United States Army is a division of airborne infantry. ... It is based in Fort Bragg, North Carolina, ...
p50
sg5
VWhat is the 82nd Airborne Division? - wiseGEEK: clear answers for ...
p51
sa(dp52
g3
VA U.S. soldier was killed in Saudi Arabia on Thursday in an off-road accident in a Hum ... All were from the 82nd Airborne Division, based in Ft. Bragg, ...
p53
sg5
VFeatured Articles about 82nd Airborne Division - Page 3 - Los ...
p54
sa(dp55
g3
VThe 82nd Airborne Division is an active airborne infantry division of the United States Army specializing in parachute landing operations. Based at Fort Bragg, North ...
p56
sg5
VAbout: 82nd Airborne Division
p57
sa(dp58
g3
VThe 82nd Airborne Division is the largest formation of the United States Army that is ... It is based at Fort Bragg in ... The division returned to the U.S. on 3 ...
p59
sg5
V82nd Airborne Division - encyclopedia article - Citizendium
p60
sa(dp61
g3
V... the 82nd Airborne Division re-assumed ... U.S. Forces Afghanistan and the Afghan government ... The 101st Airborne Division, based out of ...
p62
sg5
V82nd Airborne assumes command in eastern Afghanistan | Article ...
p63
sa(dp64
g3
VThe United States Army ... Live wallpaper of 82nd Airborne Division shoulder ... is the main branch of the United States Armed Forces responsible for land-based ...
p65
sg5
V82nd Airborne Division LWP - Android - Download thousands of ...
p66
sa(dp67
g3
V10 Grams .999 Fine Silver Bar / U.S Army 82nd Airborne Division SB089 in Coins & Paper Money, Bullion, Silver | eBay
p68
sg5
V10 grams 999 Fine Silver Bar U s Army 82nd Airborne Division SB089 ...
p69
sa(dp70
g3
VThis electronic book on CD-ROM contains information and material about the U.S. Army 82nd Airborne Division at Fort Bragg. The 82nd Airborne Division, based at Fort ...
p71
sg5
V21st Century U.S. Military: U.S. Army 82nd Airborne Division at ...
p72
sa(dp73
g3
VThe 82nd Airborne Division Association is for anyone who ever served in the 82nd Airborne Division, ... Steven P. Copening, U.S. Military Marketplace LLC
p74
sg5
VHome of the 82nd Airborne Division Association
p75
sa(dp76
g3
VThe 82nd Airborne Division of the United States Army is an elite airborne infantry division and was constituted in the National Army as the ... Based at Fort Bragg ...
p77
sg5
V82nd Airborne Division - Conservapedia
p78
sa(dp79
g3
VThe 82nd Airborne Division during World War II. ... the Division took wings as The 82nd Airborne - becoming the U.S. Army's first airborne division ...
p80
sg5
V82nd Airborne Division During WW II - Overview
p81
sa(dp82
g3
VOccupy Wall Street and the U.S. Army's 82nd Airborne Division: ... domestic intelligence program that collected information on U.S. persons based purely on their ...
p83
sg5
VOccupy Wall Street and the U.S. Army's 82nd Airborne Division: A ...
p84
sa(dp85
g3
VThe mission of the 82nd Airborne Division ... conduct forcible entry parachute assault and secure key objectives for follow-on military operations in support of U.S ...
p86
sg5
V82nd Airborne Division - GlobalSecurity.org - Reliable Security ...
p87
sa(dp88
g3
V82nd Airborne Division, ... AMERICAN AND PACIFIC ISLANDER HERITAGE MONTH IN THE U.S. ARMED ... Based at Fort Bragg, N.C., the 82nd Airborne Division is the ...
p89
sg5
V82nd Airborne Division | Facebook
p90
sa(dp91
g3
VThe 82nd Airborne Division was recognized as a liberating unit by the US Army's Center of Military History and the United States Holocaust Memorial Museum in 1991.
p92
sg5
VThe 82nd Airborne Division - United States Holocaust Memorial Museum
p93
sa(dp94
g3
VCreation of the 82nd Airborne division. Initially ... the U.S. military creates for the ... Brigadier General Matthew Ridgway and it is based at ...
p95
sg5
VHistorical account of the 82nd Airborne division
p96
sa(dp97
g3
V... which then consisted of the 82nd Airborne Division and the 101st Airborne ... all airborne units in the U.S. Army fell ... being division-based to brigade-based.
p98
sg5
VXVIII Airborne Corps (United States) - Wikipedia, the free ...
p99
sa(dp100
g3
VLater that same year, the United States War Department announced plans to form an Airborne Division. ... Here the 82nd Airborne Division earned the name, ...
p101
sg5
V1st Brigade Combat Team, 82nd Airborne Division
p102
sa(dp103
g3
VTHE 82ND AIRBORNE DIVISION \u201cALL AMERICANS\u201d ... Since the return of the 82nd to the United States on Jan. 3, 1946, the division has gone through
p104
sg5
VTHE 82ND AIRBORNE DIVISION - South Central Library System
p105
sa(dp106
g3
V... in effect when the United States entered the war against Germany, was based upon the National Defense Act of 1916. ... The 82nd Airborne Division was no exception.
p107
sg5
VHistory for 82nd Airborne Division - Military and Veteran Benefits ...
p108
sa(dp109
g3
VBased at Fort Bragg, North Carolina, the 82nd Airborne ... the 82nd Airborne Division was now ... XVIII Airborne Corps, which consisted of the U.S ...
p110
sg5
V82nd Airborne Division in World War II pt2-2 1948 US Army - YouTube
p111
sa(dp112
g3
VParatrooper of 82nd Airborne Division, United States Army. 6:57 PM MJ Qamar No comments. ... It is based at Fort Bragg, North Carolina.
p113
sg5
VParatrooper of 82nd Airborne Division, United States Army ~ Global ...
p114
sa(dp115
g3
V"All American" (Updated 6-15-08) The 82nd Airborne Division is an elite parachute nit of the U.S. Army whose home base is at Ft Bragg, North Carolina.
p116
sg5
VHistory of the 82nd Airborne | All American
p117
sa(dp118
g3
V82nd Airborne 101st Airborne 173rd Airborne ... Task Force 1st Armored Division was the largest division-based task force in U.S. Army history. Units serving ...
p119
sg5
VHistory of the 1st Armored Division | Old Ironsides
p120
sa(dp121
g3
VThe offical web site of the U.S. Army Bands Program. ... 82ND AIRBORNE DIVISION BAND FORT BRAGG, NORTH CAROLINA - ACTIVE ARMY. Home; News; Performances; Leaders;
p122
sg5
V82ND AIRBORNE DIVISION BAND - Contact Us - U.S. Army Bands
p123
sa(dp124
g3
V... the 82nd Airborne Division\u2019s entire 2nd Brigade Combat Team ... on tap as the U.S. global response ... based on what\u2019s in the theater,\u201d he said. \u201cBut ...
p125
sg5
VDefense.gov News Article: 82nd Airborne Soldiers Begin Haiti ...
p126
sa(dp127
g3
VHistories for 82nd Airborne Division ... signals intelligence, including ground and air based ... is also one of the most diverse units in the United States ...
p128
sg5
VHistory for 82nd Airborne Division - Military and Veteran Benefits ...
p129
sa(dp130
g3
VThe nine U.S. soldiers killed when a truck bomb exploded next to their patrol base in Iraq were all paratroopers from the 82nd Airborne Division, based ...
p131
sg5
VOfficials Investigate Missing Ammo at Fort Bragg | Fox News
p132
sa(dp133
g3
V... 82nd Infantry Division / 82nd Airborne Division ... of the U.S. 17th, 82nd, and 101st Airborne ... reorganizing from a division based organization to a ...
p134
sg5
V82nd Infantry Division / 82nd Airborne Division - INFANTRY - U.S ...
p135
sa(dp136
g3
VUnited States Department of ... 82nd Airborne Division Becomes ... About 170 of the division's combat engineers were temporarily based on the Navy ...
p137
sg5
VDefense.gov News Article: 82nd Airborne Division Becomes ...
p138
sa(dp139
g3
VThe 82nd Airborne Division is an airborne infantry division based at Fort Bragg North ... U.S. Army Issue 82nd Airborne Division "All American" Infrared Glow Unit ...
p140
sg5
VUS Army ACU Uniform 82nd "All American" Airborne Division Unit Patch
p141
sa(dp142
g3
VPosts about 82nd Airborne Division written by ... Mont.; assigned to 2nd Battalion, 3rd Field Artillery Regiment, 1st Armored Division, U.S. Army Reserve, based in ...
p143
sg5
V82nd Airborne Division | The Communicator
p144
sa(dp145
g3
VBut there is also the 173rd Airborne Brigade based in ... the 82nd Airborne Division. ... How many different Airborne Divisions are there in the U.S. ...
p146
sg5
VHow many Army airborne divisions are there? - Yahoo! Answers
p147
sa(dp148
g3
V82nd Airborne is based out of Fort ... The 82nd Airborne Division of the United States Army is an elite modular airborne infantry division and was ...
p149
sg5
VWhat is the difference between the 101st and the 82nd airborne ...
p150
sa(dp151
g3
V... the free encyclopedia 82nd Airborne Division (United States) ... the division began reorganizing from a division based organization to a brigade based one.
p152
sg5
VU.S._82nd_Airborne_Division - Docstoc \u2013 We Make Every Small ...
p153
sa(dp154
g3
V... the free encyclopedia 82nd Airborne Division (United States) ... the division began reorganizing from a division based organization to a brigade based one.
p155
sg5
VU.S._82nd_Airborne_Division - Docstoc \u2013 We Make Every Small ...
p156
sa(dp157
g3
VThe 82nd Airborne Division is an active airborne infantry division of the United States Army ... based at Fort Bragg that ... 82nd Airborne Division chorus ...
p158
sg5
VWhat is 82ND AIRBORNE CHORUS?
p159
sa(dp160
g3
VReports that the 82nd Airborne Division of the U.S. Army has captured known or suspected ... imide salts and ionic liquids based on 1,8-diazabicyclo[5.4.0]undec ...
p161
sg5
VCitations with the tag: UNITED States. Army. Airborne Division, 82nd
p162
sa(dp163
g3
VHe was an U.S. Army veteran, 82nd Airborne Division. He is survived by three sons and a daughter-in-law, Arthur and Laura Grenier III of Wethersfield, ...
p164
sg5
VArticles about 82nd Airborne Division - Hartford Courant
p165
sa(dp166
g3
VA U.S. Army gun crew conduct a proficiency drill demonstration with fellow members of the 3rd Battalion, ... (Airborne), 82nd Airborne Division, based at Fort Bragg, ...
p167
sg5
V82nd Airborne | 4GWAR
p168
sa(dp169
g3
VAbeBooks.com: Ready", The History of the 505th Parachute Infantry Regiment, 82nd Airborne Division, World ... VA, U.S.A. AbeBooks Bookseller Since ... Home based ...
p170
sg5
VReady", The History of the 505th Parachute Infantry Regiment, 82nd ...
p171
sa(dp172
g3
VFormer 82nd Airborne Division soldier (782nd/DISCOM 1988-92) Fought in Iraq during Operation Desert Storm (1990-91)
p173
sg5
VThe Surge, Iraq 2008 Filmed by the paratroopers of the 82nd ...
p174
sa(dp175
g3
VNextag cannot be held liable for any actions taken based on the information provided and Nextag ... A Major in the U.S. Army\u2019s 82nd Airborne Division contacted ...
p176
sg5
V82nd Airborne Division - Compare Prices, Reviews and Buy at Nextag
p177
sa(dp178
g3
VThe 82nd Airborne Division is an active duty airborne infantry division of the United States Army. ... Based at Fort Bragg, ... About the 82nd Airborne Division ...
p179
sg5
VThe 82nd Airborne Monument | ArtSWFL.com - SWFL Art in the News ...
p180
sa(dp181
g3
VThe offical web site of the U.S. Army Bands Program. ... 82ND AIRBORNE DIVISION BAND ALL-AMERICAN BAND: ALL-AMERICAN REVIEW PIKE FIELD FORT BRAGG, NC: 12:30 p.m.
p182
sg5
V82ND AIRBORNE DIVISION BAND - Performances - U.S. Army Bands
p183
sa(dp184
g3
V... on Amazon.com. *FREE* super saver shipping on qualifying offers. The 82nd Airborne Division ... and the U.S . occupation of ... is based on all firsthand ...
p185
sg5
VAll American, All the Way: The Combat History of the 82nd Airborne ...
p186
sa(dp187
g3
VThe 82 nd Airborne Division of the United States Army is an ... the division began reorganizing from a division based ... U.S. Army, 82nd Airborne Division ...
p188
sg5
VMap of 82nd Airborne Division (United States) - The Full Wiki
p189
sa(dp190
g3
VArmyStudyGuide.com provide extensive information about 82nd Airborne Division (ArmyStudyGuide.com) Like Us ... The 82nd returned to the United States January ...
p191
sg5
V82nd Airborne Division (ArmyStudyGuide.com)
p192
sa(dp193
g3
Vof the 82nd Airborne Division, United States Army, who were assigned or attached to and honorably ... based on nonpayment of dues or assessment, or on any reason which
p194
sg5
VND 82 AIRBORNE DIVISION ASSOCIATION, INC.
p195
sa(dp196
g3
VThe U.S. Army Center of Military History ... The famous 82nd Airborne followed a similar pattern. ... The army is restructuring itself from a division based force ...
p197
sg5
VHistory News Network
p198
sa(dp199
g3
VRank given is based on a number of ... The 11th Airborne Division was a United States Army ... the disappointing performance of the 82nd Airborne Division during ...
p200
sg5
VHome - 11th Airborne Division
p201
sa(dp202
g3
VUnited States Army 82nd Airborne Division Liaison Pilot's Type M1944 "Ike" Coat: green/chocolate olive drab wool waist length jacket; ...
p203
sg5
VTunic, Type M1944, Liaison Pilot, 82nd Airborne Division, United ...
p204
sa(dp205
g3
VAn Air Force C-130H Hercules was dedicated to the Soldiers of the Army's 82nd Airborne Division ... 82nd Airborne Division based in ... of U.S. Air Forces Central ...
p206
sg5
VAir Force C-130 dedicated to Army's 82nd Airborne in Afghanistan
p207
sa(dp208
g3
VADVANCED AIRBORNE SCHOOL 82ND AIRBORNE DIVISION ... The United States Army Advanced Airborne School is ... based upon ABN CDR\u2019S risk analysis of the obstacle ...
p209
sg5
VTHE UNITED STATES ARMY ADVANCED AIRBORNE SCHOOL 82ND AIRBORNE DIVISION
p210
sa(dp211
g3
VThe way we are organized for most games is classic United States Army rank and ... and earn promotions based on time in ... United Sim Army 82nd Airborne Division
p212
sg5
VWelcome to the 82nd Airborne Division of United Sim Army Teams
p213
sa(dp214
g3
V... the new commander of the 1st U.S. Army based at Fort Meade told ... "The proud parent of a member of the elite 82nd Airborne Division of the United States ...
p215
sg5
VArticles about 82nd Airborne - Baltimore Sun
p216
sa(dp217
g3
VThe 82nd Airborne Division Headquarters was relieved by the 1st Marine Expeditionary Division in ... The United States Army. www.army.mil. Medal of Honor - Chaplain ...
p218
sg5
V82nd Airborne Division | Facebook
p219
sa(dp220
g3
VLeadership Failure Firsthand Accounts of Torture of Iraqi Detainees by the U.S. Army's 82nd Airborne Division I. Summary
p221
sg5
VLeadership Failure | Human Rights Watch
p222
sa(dp223
g3
VTo decree that the Divisional Colours of the 82nd Airborne Division of the United States army shall be decorated with the "MILITAIRE WILLEMS ORDE", ...
p224
sg5
V82nd Airborne Division During WW II - Citations
p225
sa(dp226
g3
VWear it proudly! Get customized gear and clothing for the United States Army, 82nd Airborne Division at an exclusive discount through Military.com.
p227
sg5
VUnited States Army, 82nd Airborne Division - Unit Pages
p228
sa(dp229
g3
V82nd Airborne division: Mediterranean & European: 101st Airborne division: European: View the U.S. Army Divisions in World War II Print. Browse by category All Prints
p230
sg5
VU.S. Army Divisions of World War II List of Airborne Divisions
p231
sa(dp232
g3
V... all airborne units in the U.S. Army fell under the ... plan to go from being division-based to brigade-based. ... the 82nd Airborne Division, ...
p233
sg5
V18th (XVIII) Airborne Corps - IACMC MILITARIA FORUM
p234
sa(dp235
g3
VA Ft. Bragg paratrooper who says he left his Army barracks last summer because he was disillusioned with U.S ... 82nd Airborne Division, based ...
p236
sg5
VArticles about 82nd Airborne Division - Page 2 - Chicago Tribune
p237
sa(dp238
g3
VHome> Search> United States> Units> 82nd Airborne Division . ... The 82nd Airborne Division Association is for anyone who ever served in the 82nd Airborne ...
p239
sg5
V82nd Airborne Division - Allied WW2 Casualties in The Netherlands ...
p240
sa(dp241
g3
V2nd Brigade Combat Team, 82nd Airborne Division Public Affairs Hometown: Fort Bragg, NC, US. ... 82nd Airborne Division, drops from a U.S. Air Force C-17 ...
p242
sg5
VDVIDS - 2nd Brigade Combat Team, 82nd Airborne Division Public Affairs
p243
sa(dp244
g3
VA Major in the U.S. Army\u2019s 82nd Airborne Division contacted ... Nextag cannot be held liable for any actions taken based on the information provided and ...
p245
sg5
V82nd Airborne - Compare Prices, Reviews and Buy at Nextag
p246
sa(dp247
g3
V\u2190 82nd Airborne Division Custom ... are a component of the Army\u2019s 101st Airborne Division (Air Assault). Based in Fort ... not only promote the United States ...
p248
sg5
V101st Airborne Division Parachute Demonstration Team \u2013 Screaming ...
p249
sa(dp250
g3
VThe 82nd Airborne Division of the United States Army was formed originally as the 82nd Infantry Division on August 25, 1917, at Camp Gordon, Georgia.
p251
sg5
V82nd Airborne Division
p252
sa(dp253
g3
VThe 82nd Airborne is ... New York-based Human Rights ... The 82nd Airborne is one of the most storied units in the U.S. military. The division has a record ...
p254
sg5
VWarcrimes of 82nd Airborne Division : 'the Murderous Maniacs'
p255
sa(dp256
g3
VHe was a U.S. Army Ranger serving with the 82nd Airborne. ... the assistant district commander with the 82nd Airborne Division based at Fort Bragg, N.C., ...
p257
sg5
V1-505 by 3rd Brigade, 82nd Airborne Division on Myspace
p258
sa(dp259
g3
VThe 82nd Airborne Division - United States Holocaust ... 82nd Airborne Division History The 82nd Airborne Division is an airborne infantry division based at Fort ...
p260
sg5
VWhat is UNITS OF THE 82ND AIRBORNE?
p261
sa(dp262
g3
V\u7b2c82\u7a7a\u633a\u5e2b\u56e3\uff08U.S.Army 82nd Airborne Division\uff09\u3068\u306f\uff01 ... the division began reorganizing from a division based organization to a brigade based one.
p263
sg5
VU.S. 82nd Airborne Division - Nethelper
p264
sa(dp265
g3
VThe parent headquarters of the 82nd Airborne Division and the United States Army's ... requirement to project power from a sea-based platform.
p266
sg5
V82ND AIRBORNE DIVISION 2010 - THE RIGHT FORCE STRUCTURE FOR THE ...
p267
sa(dp268
g3
V101st Airborne Division ... 164th Infantry Brigade and 82nd Infantry Division, since Sept. 17, 1917, based in Ft. Gordon, ... along with those of the U.S. State ...
p269
sg5
V1st BCT Home Page
p270
sa(dp271
g3
V... 1st Brigade Combat Team, 82nd Airborne Division leave Combat Outpost Giro, Ghazni ... Kemp is based on Forward Operating Base ... U.S. Army Sgt . Brandon Ingram ...
p272
sg5
VThe United States Army - Thread - Page 101 - Military photos . net
p273
sa(dp274
g3
V101st Airborne Division (United States) ... with the 82nd Airborne Division. ... with the Fort Campbell-based 5th Special Forces Group. The Division quickly ...
p275
sg5
V101st Airborne Division (United States) | Flickr - Photo Sharing!
p276
sa(dp277
g3
VGerman POW's captured by the U.S. 82nd Airborne division in Belgium. ... Soldiers of the U.S. Army's 82nd Airborne float to the ground at Normandy drop zone on Fort ...
p278
sg5
V82nd Airborne Division - Wikimedia Commons
p279
sa(dp280
g3
V82nd Airborne Division of the United States Arm... 28 days ago. When is 4th BCT of the 82nd airborne division deploying? The 4th Brigade of the 82nd ...
p281
sg5
VWhat does the airborne division in the army do? | ChaCha
p282
sa(dp283
g3
VThe 1994 Baker High School graduate told the church members then that he believed in the U.S. military ... with the 82nd Airborne Division based at ...
p284
sg5
V3rd Brigade, 82nd Airborne Division | blog on Myspace
p285
sa(dp286
g3
VThe 101st Airborne Division of the United States Army is a highly versatile division which ... It is based in Fort ... What is the 82nd Airborne Division?
p287
sg5
VWhat is the 101st Airborne Division of the US Army?
p288
sa(dp289
g3
VOur mission is to commemorate the 82nd Airborne division of the United States Army during World War II. Our work is designed to honor the glidermen and paratroopers ...
p290
sg5
V82nd Airborne WWII Living History Association
p291
sa(dp292
g3
VTHE ARMY is investigating allegations that a captive was shot to death during the U.S ... Oct. 27 ambush on members of the 82nd Airborne Division based at ...
p293
sg5
VFeatured Articles about 82nd Airborne Division - Page 2 - Orlando ...
p294
sa(dp295
g3
VThis page is dedicated to the men and women of the 82nd Airborne Division. ... 25,000 airborne troops, U.S., ... is an airborne infantry division based at ...
p296
sg5
V82nd Airborne Division Tribute Page - The Blade Girl Cool Hand Cutlery
p297
sa(dp298
g3
VThe 82nd Airborne Division America\u2019s Guard of Honor Website: ... 1942, the 82nd Infantry Division became the first airborne division in the U.S. Army.
p299
sg5
V82nd Airborne Division | www.Hooah4ever.com
p300
sa(dp301
g3
VThe Airborne is a USA based private militia that serves as a powerful ... of the United States Airborne; ... of the other division, the 82nd Airborne, ...
p302
sg5
VUnited States Airborne - eRepublik Official Wiki
p303
sa.