(lp1
(dp2
S'description'
p3
VThis is the first year for the event. LPGA.com Sponsor. News; LPGA. Photos; Videos; Blogs. Blogs; This week is all about; For the Love of the Fans; ... LPGA Tour ...
p4
sS'title'
p5
VHome | Professional Golfers | Tour Schedule, Leaderboard & News | LPGA
p6
sa(dp7
g3
VThis is the first year for the event. LPGA.com Sponsor. News; LPGA. Photos; Videos; ... LPGA Tour member Jacqui Concolino has been named to the Board of Directors of ...
p8
sg5
VFeatured News | Professional Golfers | Tour Schedule, Leaderboard ...
p9
sa(dp10
g3
VLadies Professional Golf Association; Current season or competition: 2013 LPGA Tour: ... Most of the LPGA Tour's events are held in the United States.
p11
sg5
VLPGA - Wikipedia, the free encyclopedia
p12
sa(dp13
g3
VLPGA Tour makes first North Texas ... Part of the PGA Tour's two-step through Texas ... She also won at Ladies European Tour event in China ...
p14
sg5
VLPGA Tour makes first North Texas stop since '91 - AP News ...
p15
sa(dp16
g3
VThis is the first year for the event. LPGA.com Sponsor. News; LPGA. Photos; Videos; Blogs. Blogs; This week is all about; ... LPGA Tour Schedule; Symetra Tour ...
p17
sg5
VMobile Bay LPGA Classic - Home | Professional Golfers | Tour ...
p18
sa(dp19
g3
VThe LPGA will play 27 official money events this ... More than $100,000 in cash and prizes on the line including PGA TOUR and LPGA Tour exemptions for winner of Golf ...
p20
sg5
VLPGA releases 2012 schedule; 27 official events | Golf Channel
p21
sa(dp22
g3
VJohn is an avid LPGA fan who spends part of his year in ... lack of contracts for many events in 2010 a sign of the imminent demise of the LPGA Tour?
p23
sg5
VIs the LPGA Dying? - Golf on About.com - Your Guide to Everything Golf
p24
sa(dp25
g3
V... before the foundation of the Asian Tour, tournaments in Asia were part ... meaning they are entitled to play in most of the tour's events. ... The LPGA Tour is ...
p26
sg5
VProfessional golf tours - Wikipedia, the free encyclopedia
p27
sa(dp28
g3
VSo from the LPGA Tour's founding in 1950 through 1954, there were three majors: ... The Women's British Open was first counted as an LPGA Tour event in 1979, ...
p29
sg5
VLPGA Majors - Women's Major Championships in Golf
p30
sa(dp31
g3
VLPGA Tour Ready to Resume ... and how they've touched the lives now of the LPGA with this event. ... No part of Cybergolf.com may be reproduced or transmitted ...
p32
sg5
VLPGA Tour Ready to Resume after Hiatus - Cybergolf
p33
sa(dp34
g3
VLorie Kane will be playing in her first LPGA Legends Tour event at the Country Club of Jackson.
p35
sg5
VLorie Kane of LPGA Tour taking part in her first LPGA Legends Tour ...
p36
sa(dp37
g3
V10-time major winner Annika Sorenstam said that Michelle Wie's decision to play in in men's events hurt ... on the LPGA Tour, ... Golf.com is part of Sports ...
p38
sg5
VAnnika Sorenstam on Michelle Wie: 'Talent Is Not There' - GOLF.com
p39
sa(dp40
g3
VFifty-five of the players here this week are currently on the LPGA Tour and are trying to improve ... of the tour's events. ... No part of Cybergolf.com ...
p41
sg5
VNerves on Edge, Futures on Line, in Daytona Beach with LPGA Q ...
p42
sa(dp43
g3
VThe picture was part of the LPGA profile for Nicole. ... That is a very good thing for the LPGA Tour. 26. Jeanne Cho. Photo courtesy of golf.about.com.
p44
sg5
VLPGA Babes: 50 Hottest Women Golfers | Bleacher Report
p45
sa(dp46
g3
VAnd the advertising units assured to be bought on Golf Channel and NBC as part of the network ... In a typical PGA Tour event, ... LPGA players do not use ...
p47
sg5
VPGA Tour events are risky business - Golf - ESPN
p48
sa(dp49
g3
VFull Golf Event Schedule, PGA Championships, PGA Tour and more ... MOBILE BAY LPGA CLASSIC; Tournament schedule; ... PGA.COM is part of Bleacher Report ...
p50
sg5
VFull Golf Event Schedule | PGA Championships, PGA Tour and more ...
p51
sa(dp52
g3
V... there were 34 official LPGA events, ... serious questions about the tour\u2019s future. If so many longtime LPGA partners no longer had ... part of the association ...
p53
sg5
VLPGA Commissioner Mike Whan making an impact | Golf Channel
p54
sa(dp55
g3
V2- What is the best path to the PGA/LPGA Tour. ... large amounts of money to play golf and the event/tour went ... is part of a Two-Week series on ...
p56
sg5
VHow To Become A Golf Tour Pro - MyGolfSpy.com
p57
sa(dp58
g3
VNew Year Brings New Opportunities for the Symetra Tour \u2013 Road to the LPGA; Qualifying Tournament History 2009 to 2011; ... Hosting an Event; LPGA International; Fan ...
p59
sg5
VHome | Symetra Professional Golfers | Tour Schedule, Leaderboard ...
p60
sa(dp61
g3
VThe sage of the LPGA Tour also has some ... plus they drew crowds from their native countries for events overseas. Inkster has taken part in the ...
p62
sg5
VJuli Inkster has seen and done it all on the LPGA Tour - ESPN
p63
sa(dp64
g3
VReturn to Kingsmill part of LPGA's revival. September 02, 2012 | By David Teel, ... a cheaper alternative to the PGA Tour men's event that Kingsmill staged for 22 ...
p65
sg5
VLPGA Kingsmill Championship: Return to Kingsmill part of LPGA's ...
p66
sa(dp67
g3
VPRATTVILLE, Ala. -- Lexi Thompson was poised to become the youngest player to win an LPGA Tour event at a fresh-faced 16, sitting five strokes ahead of the ...
p68
sg5
VLexi Thompson, 16, becomes youngest to win LPGA Tour event - ESPN
p69
sa(dp70
g3
VWhat tees do women who play college golf or on the LPGA Tour play from? 5 years ago; ... I have attended a few LPGA events at places I have played myself.
p71
sg5
VWhat tees do women who play college golf or on the LPGA Tour play ...
p72
sa(dp73
g3
VThe LPGA, for its part, ... 'gays on the LPGA tour? I don't know. Do I care? No. Do I want to know? No. ... Uniquely among major sporting events, ...
p74
sg5
VLPGA: The lesbian connection | Sport | The Observer
p75
sa(dp76
g3
VA casual golf fan who occasionally enjoys watching final round coverage of a PGA Tour event ... \u201cI have always wanted to be part of a golf tour ... The LPGA Tour ...
p77
sg5
VThe harsh realities of golf\u2019s mini tours - GolfWRX
p78
sa(dp79
g3
VCurrent tour(s) LPGA Tour (joined 2009) Professional wins 2 Number of wins by tour LPGA Tour 2 Best results in LPGA Major Championships Kraft Nabisco C'ship T3: 2006
p80
sg5
VHow many LPGA tournaments has Michelle Wie won?
p81
sa(dp82
g3
V... Alabama's Justin Thomas (Part 11) ... If you\u2019re counting PGA Tour events, ... How many wins will Lexi Thompson have on the LPGA tour?
p83
sg5
V2012 golf predictions for the PGA Tour, LPGA Tour, European PGA ...
p84
sa(dp85
g3
VHawaii Professional Golf Season PGA Tour, Champions Tour and LPGA Tour Events in 2013. By John Fischer, About.com Guide
p86
sg5
VHawaii Professional Golf Season - PGA Tour, Champions Tour and ...
p87
sa(dp88
g3
VBut is it the kind of attention the tour ... The issue of how to market sexuality has always been a hot-button issue for the LPGA. Many ... These players aren't part ...
p89
sg5
VGolf: Sirak: Overexposed? LPGA players posing semi-nude: Golf Digest
p90
sa(dp91
g3
VPGA Tour Event Pro-Am: ... I'd pick playing with an LPGA Tour player." Tom Dodd of Justin, ... "Another fun part is that you are playing the round the day before the ...
p92
sg5
VTravel Golf: PGA Tour Event Pro-Am - Plan and book your golf ...
p93
sa(dp94
g3
VOn the women's LPGA golf tour, Asian players have come to dominate the scene. They make up 7 or the top 10 spots, ... For the most part though, ...
p95
sg5
VWhy Asian Women Dominate the LPGA Tour - Yahoo! Voices - voices ...
p96
sa(dp97
g3
VThere are some bona fide hotties on the LPGA tour and elsewhere. ... At 19 years, Ahn was the youngest non-American winner of an LPGA event in 2003.
p98
sg5
V12 Sexiest Korean LPGA Golfers - Total Pro Sports | The Lighter ...
p99
sa(dp100
g3
VLaura Davies has played in a men's European Tour event and Se Ri Pak made ... over to other parts of ... a 13-year LPGA Tour career, spoke for many when ...
p101
sg5
VWomen still setting sights on PGA Tour - Golf Today - Over 80,000 ...
p102
sa(dp103
g3
VNews & Events. Latest News; Golf Leaderboards; ... tour players and PGA instructors. ... PGA.COM is part of Bleacher Report ...
p104
sg5
VPGA.com | The Official Home of The PGA of America
p105
sa(dp106
g3
V... 29 PGA Tour event ... Harry Vardon was the third part of the "Great Triumvirate," which included ... She won 10 majors and 41 LPGA events, ...
p107
sg5
VThe 50 Best Golfers of All Time | Bleacher Report
p108
sa(dp109
g3
VPGA Tour | LPGA Tour | Web.Com Tour | European Tour | Champions Tour : May 10th, 2013: Here is a listing of the PGA Tour schedule for golf on television this week.
p110
sg5
VGolf on Television - Golf TV Schedules for PGA, LPGA, Nationwide ...
p111
sa(dp112
g3
VTour Events Change to text version ... Nov 20-23 - LPGA Tour Championship Held at the Desert Inn Country Club 1996 Winner : Karrie Webb. 1997 Winner : ...
p113
sg5
VGolfing in Las Vegas - Tour Events in Las Vegas -
p114
sa(dp115
g3
VCARLSBAD, Calif. \u2013 Top-ranked Yani Tseng won the Kia Classic on Sunday for her second straight LPGA Tour title and third in five events this year ...
p116
sg5
VYani Tseng wins Kia Classic | Fox News
p117
sa(dp118
g3
VPGA Tournament Events Won by Fred Couples; Relevant answers: ... How do you earn your LPGA Tour Card? There are several ways to earn an LPGA Tour Card. .
p119
sg5
VHow do you earn a PGA tour card - The Q&A wiki
p120
sa(dp121
g3
VProfessional women golfers play to support charitable donations in this Phoenix golf event. Local; ... Prepares for LPGA - Amateur Qualifying; 2012 LPGA Tour Schedule ...
p122
sg5
VLPGA Golf in Phoenix Arizona - RR Donnelley LPGA Founders Cup ...
p123
sa(dp124
g3
VMayor Wayne S. Creadick Jr. announced the LPGA Futures Tour at a recent town meeting, saying local businesses would do well to capitalize on the event. ... parts, he ...
p125
sg5
VAround west Frederick County: Myersville looks ahead to LPGA ...
p126
sa(dp127
g3
VPGA Tour official site featuring live scoring, tournaments, players, videos, news, stats, games, charity, fedexcup, etc.
p128
sg5
VThe Official Site of the PGA TOUR - PGATOUR.com
p129
sa(dp130
g3
VAttend the event Purchase your tickets to the 2013 TOUR Championship by Coca-Cola at East Lake Golf Club in Atlanta.
p131
sg5
VPGATOUR.com \u2013 2013 TOUR Championship by Coca-Cola
p132
sa(dp133
g3
VEuropean tour schedule. PGA European Tour, Wentworth Drive, Virginia Water, Surrey, GU25 4LX.
p134
sg5
VEuropean Tour - Tournaments
p135
sa(dp136
g3
VThe korean culture plays a major part. ... Let's remember, also, that she is not a member of that tour, yet. She plays in events, LPGA or PGA, on sponsor exemptions.
p137
sg5
VWhy are Korean women starting to dominate LPGA Tour? Look to their ...
p138
sa(dp139
g3
VSymetra Tour; Pro Shop; LPGA Foundation; Teaching & Club Pros; Girls Golf; Search. Players; ... LPGA Corporate; About LPGA; History; LPGA International; Employment ...
p140
sg5
VLPGAScoring.com .:. LPGA Leaderboard
p141
sa(dp142
g3
VEvent Location Defending Champion Add to Calendar; Aug 1 - 4: Reno-Tahoe Open ... TOUR Championship by Coca-Cola Purse: $8,000,000: East Lake Golf Course Atlanta ...
p143
sg5
V2013 Schedule - PGA Tour - Golf - Yahoo! Sports
p144
sa(dp145
g3
VEvery week of the 2010 PGA Tour season, ... It'll be the most awkward sports event ever: ... All Rights Reserved. Golf.com is part of Sports Illustrated Sites. Facebook;
p146
sg5
VPGA Tour Confidential: Masters Week - GOLF.com
p147
sa(dp148
g3
VIn the cases of co-sanctioned Tour events, ... Framing of this website or any part of it on another site, or mirroring this website on another server, ...
p149
sg5
VOfficial World Golf Ranking - About_Us - Introduction - 5/8/2013 ...
p150
sa(dp151
g3
V... part of the Spaniard's 5-under 66 on ... a seven-time LPGA Tour winner, ... This is the first full-field LPGA event in North Texas since the 1991 U.S ...
p152
sg5
VCarlota Ciganda leads LPGA Tour's North Texas LPGA Shootout - ESPN ...
p153
sa(dp154
g3
VBy having a PGA Tour card, a golfer can play in PGA Tour events. Many players also receive sponsor endorsements and advertising contracts.
p155
sg5
VWhat Are the Requirements for a PGA Tour Card? | GolfLink.com
p156
sa(dp157
g3
VHow to Earn My PGA Tour Card. How to Earn My PGA Tour Card. Part of the ... the LPGA Tour operates a senior circuit, called the Legends Tour, that hosts events for ...
p158
sg5
VHow to Qualify for the PGA Senior Tour | eHow.com
p159
sa(dp160
g3
VOther important large scale employers for caddies in the US are the LPGA tour and the Senior Tour. Hundreds of caddies are associated with the PGA Tour, ...
p161
sg5
VEarnings for a PGA Tour Caddy | GolfLink.com
p162
sa(dp163
g3
VTour de France 2013 ... The organizers of the Tour de France today announced the teams that have been selected to take part in the 100th edition of the event which ...
p164
sg5
VTour de France 2013
p165
sa(dp166
g3
VWhether you follow the PGA Tour, the LPGA Tour or ... In addition to the top PGA Tour events, ... The best part of a membership with www.watchlivegolf.com is that ...
p167
sg5
VLive Golf Online | Golf Tournament Streaming Live & Championship ...
p168
sa(dp169
g3
VLPGA Tour winners in 2013 include Stacy Lewis, Jiyai Shin, ... Event: North Texas LPGA Shootout Site: Las Colinas Country Club at Irving, Texas Dates: April 25-28
p170
sg5
VLPGA Tour winners in 2013 - FOX Sports Photo Gallery | FOX Sports ...
p171
sa(dp172
g3
V2013 LPGA Tour Class making ... Bahamas and the 11-part series will unfold on the Tom Weiskopf ... a once-in-a-lifetime opportunity to compete in an LPGA Tour event.
p173
sg5
VPop Culture Round Up - Big Break Style | Symetra Professional ...
p174
sa(dp175
g3
VProfessional Golf Tours - Mini Tours Moonlight Golf Tour (www.moonlightgolf.com) Since 1992 Frank and Mary Magee have run thousands of Events.
p176
sg5
VBecome a Mini Tour Player, Join The Minor League Golf Tour
p177
sa(dp178
g3
VLPGA TOUR. Next Event: Mobile Bay LPGA Classic May 16-19. Champions Tour. Next Event: Senior PGA Championship May 23-26. European Tour. Next Event: Madeira Islands Open
p179
sg5
VTSN Golf Leaderboard | PGA Scores, TV Schedule | PGA Highlights
p180
sa(dp181
g3
VThough not a member of the tour, she has been in the lead in three LPGA events this year. ... she can play in LPGA events via sponsors' exemption or through Monday ...
p182
sg5
V17-year-old leads LPGA event - Yahoo! Sports
p183
sa(dp184
g3
VLPGA Tour; European Tour; Champions Tour; Web.com Tour; ... (Part 6) 12-year-old misses European Tour cut in China; Meet Taylor ... Wells Fargo event deserved better ...
p185
sg5
VLatest stories - Golfweek.com | Breaking Golf News, Scores and ...
p186
sa(dp187
g3
VBMW PGA Championship Director Jamie Birkmyre speaks about the star-studded Pro-Am for The European Tour's flagship event. ... part or parts of this website by any ...
p188
sg5
VEuropean Tour
p189
sa(dp190
g3
V... the World Pro Am at Pebble Beach, the LPGA Championship and various LPGA Tour events, ... All Bird Golf Schools include plush accommodations as a part of your ...
p191
sg5
VBird Golf Academy - Rated Best Golf Schools - PGA School of Golf
p192
sa(dp193
g3
VTOUR DE FRANCE 2012. Running from Saturday June 30 th to Sunday July 22 th 2012, the 99 th Tour de France will be made up of 1 prologue and 20 stages and will cover a ...
p194
sg5
VTour de France - 2012 - Tour of Oman 2013
p195
sa(dp196
g3
VCaroline Masson still feels at times like the LPGA Tour ... That was part of her best ... This is the first full-field LPGA event in North Texas ...
p197
sg5
VMasson shoots 64 to lead LPGA in North Texas | Comcast
p198
sa(dp199
g3
VHow do you qualify for a senior PGA tour event? ... How do you qualify for the PGA Tour? /rankings like many European players who play in the states.
p200
sg5
VHow do you qualify to play on the Senior Champions PGA Tour
p201
sa(dp202
g3
VHow to Earn a PGA Tour Card. Many scratch golfer's dream of hitting a 30-foot ... Know that an individual playing on the Nationwide Tour can win three events in a ...
p203
sg5
VHow to Earn a PGA Tour Card | eHow
p204
sa(dp205
g3
V... Texas \u2014 Caroline Masson still feels at times like the LPGA Tour ... That was part of her ... This is the first full-field LPGA event in North Texas ...
p206
sg5
VLPGA Tour rookie Masson shoots 64 to take first-round lead at ...
p207
sa(dp208
g3
V... Texas \u2014 LPGA Tour rookie Caroline Masson shot a bogey-free 7-under 64 on Thursday to take a two-stroke lead over Carlota Ciganda after the ... More sports events.
p209
sg5
VLPGA Tour rookie Masson shoots 64 to take first-round lead at ...
p210
sa(dp211
g3
VTour Schedule ; Latest News ; Solheim ... Christel Boeljon is aiming for a hat-trick of Turkish Airlines Ladies Open titles when the event gets under way at ...
p212
sg5
VLadies European Tour (LET) - The official Ladies European Tour ...
p213
sa(dp214
g3
VThe LPGA Tour rookie from Germany led after each of the first two rounds and started the final round tied for ... Part of Sporting News Media/Perform ...
p215
sg5
VInbee Park wins North Texas LPGA, 3rd win in '13
p216
sa(dp217
g3
VCarlota Ciganda shot a 5-under 66 on Saturday to take a two-stroke lead over the world's No. 1 player and an LPGA Tour ... part of the Spaniard's 5 ... LPGA event in ...
p218
sg5
VCiganda takes 2-stroke lead into LPGA final round - Golf, PGA Tour ...
p219
sa(dp220
g3
V... the showcase event on the PGA Tour. Comment? ... LPGA Golf; Longs Drugs Challenge; Nissan Open; PGA Championship; PGA Golf; Ryder Cup; Safeway Classic; Shell ...
p221
sg5
VGolf News - Topix
p222
sa(dp223
g3
VLPGA (136) Other (108) PGA (352 ... How many 2009 PGA Tour event starts would the guy who came 25th at Q School or 25th on the Nationwide Tour expect to get with ...
p224
sg5
VA Brief Look at the PGA Tour Exemption System (Thrash Talk) - The ...
p225
sa(dp226
g3
VThe North Texas LPGA Shootout makes its debut on the tour ... 10-time winner Suzann Pettersen won in Hawaii and captured a Ladies European Tour event in ...
p227
sg5
VLPGA gets ready for shootout in North Texas
p228
sa(dp229
g3
V... the only two-time winner in the tour's ... Jutanugarn took a two-shot lead into the final hole at the LPGA ... skipped this event last year ...
p230
sg5
V17-year-old Jutanugarn leads LPGA at Kingsmill
p231
sa(dp232
g3
VFilename: Wiki: List of golfers with most LPGA Tour wins Downloaded: 2 Times Added: May 6, ... Decpetion in the name part 1 05/07 by ... Key events in Ohio missing ...
p233
sg5
VWiki: List of golfers with most LPGA Tour wins | BrokenControllers.com
p234
sa(dp235
g3
VThe Hyundai Tournament of Champions is the season-opening event of the PGA TOUR and held at the legendary Plantation Course.
p236
sg5
VGolf | Kapalua Resort
p237
sa(dp238
g3
VSingh is charging the PGA Tour with violating ... the showcase event for the Tour at ... Ai, Beatriz, Suzann and others on the PGA and LPGA Tours for USA ...
p239
sg5
VVijay Singh files suit against PGA Tour
p240
sa(dp241
g3
V... plenty of other golfers took the "shootout" part of ... next 21 events this year as they have in the LPGA ... event to her original home tour ...
p242
sg5
VMostly Harmless
p243
sa(dp244
g3
VWelcome to Locust Hill Country Club located in the towns of Henrietta and Pittsford approximately five miles southeast of Rochester, New York.
p245
sg5
VHome - Locust Hill Country Club
p246
sa(dp247
g3
V... NFL, MLB, MLS, NASCAR, LPGA, Comcast-Spectacor, IMG, ATP, WTA, and features Ask Buffy, portal to sports and live events jobs ... PGA TOUR joins TeamWork Online!
p248
sg5
VSports and Live Event Jobs - TeamWork Online LLC - Portal to ...
p249
sa(dp250
g3
V... opted not to play in '11 and joined the BBC Sport commentary team for the event ... He is the boyfriend of LPGA ... But pointing to a problem is the easy part.
p251
sg5
VGolf news on PGA Tour, LPGA, European tour | Golf.com
p252
sa(dp253
g3
VLPGA Tour ... These players aren't part of golf's ... Golf Digest Golf Schools Golf Digest Shop Arnie's Army Advertiser Events & Promotions ...
p254
sg5
VStack and Tilt: The New Tour Swing: Golf Digest
p255
sa(dp256
g3
VRolex LPGA World Ranked, and 15 time ... Ticketamerica.com provides pro Golf tickets for all events on the PGA tour. ... The Fansided Network is part of ...
p257
sg5
V2013 LPGA Golf: Christie Kerr Carries 54 Hole Lead In The ...
p258
sa(dp259
g3
VAnswer To enter a monday qualifier you must contact your local PGA section to get the tournament information for which you wish to enter. There is an application to ...
p260
sg5
VHow do you enter the Monday qualifier for the nationwide PGA golf tour
p261
sa(dp262
g3
VThe event will return to Southern Trace Country Club, July 22-26. ... (left) and Cristie Kerr prevailed in playoffs to capture wins on the PGA and LPGA Tours.
p263
sg5
VAJGA
p264
sa(dp265
g3
VThe PGA Tour organizes many prestigious events during the year, including the Ryder Cup, the Players Championship, and the much-touted majors: the Masters, ...
p266
sg5
VPGA Tickets - PGA Golf Tickets at StubHub!
p267
sa(dp268
g3
V... and two ahead of top-ranked Inbee Park (70), 18-year-old LPGA Tour rookie ... in Europe next month after six LPGA events, ... Part of Sporting ...
p269
sg5
VMasson keeps LPGA lead after 3 bogeys last 4 holes
p270
sa(dp271
g3
VThe LP Tour: Big Head Todd & The Monsters, Soul Asylum, The Wailers Mandalay Bay Beach, Las Vegas, NV ... BE A PART OF IT. Ticket Your Event; Custom Tickets;
p272
sg5
VTickets | The LP Tour: Big Head Todd & The Monsters, Soul Asylum ...
p273
sa(dp274
g3
VWorld Vision presents THE STORY Tour featuring many of your favorite Christmas carols as well as ... Independence Event Center: Buy Tickets: 12/2: St. Paul, MN: Xcel ...
p275
sg5
VThe Story | Tour
p276
sa(dp277
g3
VTours & Events. 2013 Easter ... DC for assistance in submitting a tour request. Take a Virtual Tour: As part of President and Mrs. Obama\u2019s commitment to open the ...
p278
sg5
VTours & Events | The White House
p279
sa(dp280
g3
VBut then, the actual race is just a small part of the show. ... the caravan, and the atmosphere, watching the Tour go by is as good as many other events, ...
p281
sg5
VThe Tour de France 2013 in English - route and map
p282
sa(dp283
g3
V... The Asian Tour completed the first nine events of its milestone 2013 season with Thai ace Kiradech Aphibarnrat seizing pole position in the race to become the ...
p284
sg5
VAsian Tour \u2013 Professional Golf in Asia
p285
sa(dp286
g3
V... in this part of ... In the past we may not find any Malaysian in any Asian tour neither in ... Look at how Koreans ladies making up the numbers in LPGA events.
p287
sg5
VGolf Addix
p288
sa(dp289
g3
V... we produced the opening of the E3 [Electronic Entertainment Expo] press event in 2011 ... TND: What's the hardest part of setting up a tour of this magnitude?
p290
sg5
VJason Michael Paul Talks 'Legend of Zelda' Symphony Tour ...
p291
sa(dp292
g3
VGet tour dates, view race routes ... Be a part of the tour! Volunteer registration is now open for the 2013 Amgen Tour of California. Click here for more details ...
p293
sg5
VAMGEN Tour of California Bike Race - Welcome Cycling Fans!
p294
sa(dp295
g3
VKings Of The Mic Tour: LL Cool J, Ice Cube, Public Enemy, De La Soul DTE Energy Music Theatre, Clarkston, MI ... BE A PART OF IT. Ticket Your Event; Custom Tickets;
p296
sg5
VTickets | Kings Of The Mic Tour: LL Cool J, Ice Cube, Public Enemy ...
p297
sa(dp298
g3
VCheck out the PGA Tour schedule dates as well as the LPGA, European, Champions and Web.com Tours. Read about the golf courses on this year's PGA Tour.
p299
sg5
VPGA Tour Golf Schedule - CBSSports.com
p300
sa(dp301
g3
VTiger Woods PGA TOUR 2014 returns with an array of exciting new features, Go for the Grand Slam, Step Into the Past or join up with friends and form the ultimate ...
p302
sg5
VTiger Woods PGA TOUR 2014 | Golf Video Game | EA SPORTS | EA SPORTS
p303
sa.