(lp1
(dp2
S'description'
p3
VThe first record of the outbreak in Hong Kong appeared on ... genes from avian influenza viruses. The new subtypes arose ... Hong Kong flu strain shared ...
p4
sS'title'
p5
VHong Kong flu - Wikipedia, the free encyclopedia
p6
sa(dp7
g3
VHong Kong on standby for H7N9 outbreak as China confirms three new ... cases of H7N9 avian flu in Hong Kong in the next ... appeared in the South ...
p8
sg5
VHong Kong on standby for H7N9 outbreak as China confirms three new ...
p9
sa(dp10
g3
V... possibly creating a new virulent influenza strain that is easily transmissible ... The Thailand outbreak of avian flu caused massive ... "Hong Kong flu" 2009;
p11
sg5
VAvian influenza - Wikipedia, the free encyclopedia
p12
sa(dp13
g3
VHong Kong-listed shares of Chinese ... The CDC hopes to receive a virus isolate or isolates from China within the next ... Concerns Grow About New Avian ...
p14
sg5
VConcerns Grow About New Avian-Flu Strain - WSJ.com
p15
sa(dp16
g3
VAvian Influenza: Hong Kong Outbreak 1. ... a 2-year-old boy developed flu ... An interesting finding was that the very young appeared resistant. Only two out of ...
p17
sg5
VVM138/VM103: Avian Influenza: Hong Kong Outbreak
p18
sa(dp19
g3
V... avian influenza outbreak among poultry in 20 years. This was an outbreak of avian ... Hong Kong, Special ... Two cases of highly pathogenic avian ...
p20
sg5
VCDC - Avian Influenza (Flu) | Avian Influenza A Virus Infections ...
p21
sa(dp22
g3
VBEIJING\u2014Concerns about a deadly new strain of bird flu intensified last week as the disease claimed a sixth life in eastern China and agricultural authorities in ...
p23
sg5
VConcerns Grow About New Avian-Flu Strain - Wall Street Journal ...
p24
sa(dp25
g3
VSwine Influenza A Outbreak, Fort Dix, New Jersey, ... a new avian flu virus appeared. The new virus caused illness in two children in Hong Kong.
p26
sg5
VPandemic Flu History | Flu.gov
p27
sa(dp28
g3
VThe first record of the outbreak in Hong Kong appeared on ... genes from avian influenza viruses. The new subtypes arose ... Hong Kong flu strain shared ...
p29
sg5
VThe 1968 Hong Kong Flu - Influenza Virus Net - Flu News ...
p30
sa(dp31
g3
VAppearance of a new influenza strain in humans H9N2 Appeared for ... strain in humans H5N1 Caused two Hong Kong ... avian (bird), and pandemic flu.
p32
sg5
VTimeline of Human Flu Pandemics - National Institutes of Health (NIH)
p33
sa(dp34
g3
VSince only 11 years had passed between the two ... among poultry in Hong Kong was traced to the H5N1 virus strain ... An outbreak of avian flu will severely ...
p35
sg5
VAvian Flu: Preparing for a Pandemic
p36
sa(dp37
g3
V... outbreak of 1918-19 was a strain of avian or bird flu. ... within three days \u2013 of Hong Kong\u2019s entire ... children occurred in Hong Kong in 1999 (two ...
p38
sg5
VBird Flu and the Great Flu Pandemic of 1918-19
p39
sa(dp40
g3
VThe appearance of several new flu strains in humans over the past few years \u2014 including the H5N1 "avian flu" strain in the late ... Caused two Hong Kong family ...
p41
sg5
VLessons Found in History of Flu Pandemics | LiveScience
p42
sa(dp43
g3
VH5 viruses keep changing and we have to change the vaccine strain.' Hong Kong has experienced ... the H5N1 avian flu ... her teen years in new music ...
p44
sg5
VBird flu: Hong Kong kills 17k chickens after H5N1 virus found at ...
p45
sa(dp46
g3
VThe H5 strain of avian flu has hit ... including the probability that a person will be infected with bird flu in Hong Kong ... Two forest fires in New ...
p47
sg5
VThe next pandemic? - CBC News In Depth: Avian Flu
p48
sa(dp49
g3
VHong Kong-listed shares of ... The CDC hopes to receive a virus isolate or isolates from China within the next week ... Concerns Grow About New Avian-Flu Strain.
p50
sg5
VConcerns Grow About New Avian-Flu Strain - Barrons.com
p51
sa(dp52
g3
V... the H5 strain hit Canada. Two wild ducks in ... be declared free of avian flu. The outbreak was ... infected with bird flu in Hong Kong by ...
p53
sg5
VThe next pandemic? - CBC News In Depth: Avian Flu
p54
sa(dp55
g3
V... There was negative news flow on a new strain of avian flu ... During the peak of the SARS outbreak, Hong Kong\u2019s Cathay Pacific ... Two new bird flu cases in ...
p56
sg5
VNew avian flu may have impact on aviation - Yahoo! News Malaysia
p57
sa(dp58
g3
VTwo more people have died from a new strain of avian ... checkpoint in Hong Kong April 11, 2013. New rapid tests ... an outbreak of a new strain of bird flu, ...
p59
sg5
VChina's bird flu outbreak not cause for panic: WHO | World | News ...
p60
sa(dp61
g3
VBird Flu / Avian Influenza. There has ... in Virginia following a poultry outbreak. 2003 H5N1. Caused two Hong Kong family members to be ... because this flu strain, ...
p62
sg5
VBird Flu / Avian Influenza - GlobalSecurity.org - Reliable ...
p63
sa(dp64
g3
VNew flu strain. In Hong Kong, ... Hong Kong saw the world's first case of H5N1 avian flu in 1997. The outbreak, ... Two years since the start of the uprising, ...
p65
sg5
VChina says patients with bird flu critical - Asia-pacific - Al ...
p66
sa(dp67
g3
V... as in A/Chicken/Hong Kong/G9 ... with avian and human flu simultaneously, the two types of ... to make the new strain of virus often ...
p68
sg5
VThe Flu Types\u2014Seasonal, Pandemic, Avian (Bird), Swine
p69
sa(dp70
g3
VA new strain of avian flu that jumped ... seven years has been diagnosed in Hong Kong, ... responded to a recent avian flu outbreak on a English ...
p71
sg5
VBird Flu: News & Videos about Bird Flu - CNN.com
p72
sa(dp73
g3
V... transmissible influenza strain worldwide within days and ... Hong Kong avian influenza outbreak, ... years of residence in Hong Kong, ...
p74
sg5
VAvian influenza risk perception, Hong Kong. - Free Online Library
p75
sa(dp76
g3
V... April 15, 2013 Last month, a new strain of flu ... plan during a possible flu outbreak. Hong Kong ... for over the last 10 years in Hong Kong.
p77
sg5
VKwiksure Discusses Advantages of Private Health Insurance Benefits ...
p78
sa(dp79
g3
V... Hong Kong is on standby as a new strain of bird flu ... Hong Kong on high alert for bird flu next door ... growing number of cases of avian flu in ...
p80
sg5
VHong Kong on high alert for bird flu next door in China - Yahoo ...
p81
sa(dp82
g3
V... died from H7N9 in early March within two weeks of ... to confirm that the cases involved the new strain of the avian flu. ... Hong Kong is also reported to ...
p83
sg5
VAvian Flu Strain H7N9 Kills 2 in China | China Power
p84
sa(dp85
g3
VThe United States has yet to meet the challenges that avian flu ... outbreak of ''bird flu.'' That strain ... Hong Kong reporting two more cases of a new ...
p86
sg5
VH1N1 (Swine) Influenza - The New York Times - Breaking News, World ...
p87
sa(dp88
g3
VAvian flu; H5N1; Indonesia bird flu ... Bird flu strikes Hong Kong once again - 17,000 chickens killed; ... New strain of bird flu kills two men in China.
p89
sg5
VIndonesian man latest death from bird flu - National Healthcare ...
p90
sa(dp91
g3
VWithin three days, Hong Kong's entire chicken population ... for two new influenza drugs that ... been infected with a deadly strain of avian flu ...
p92
sg5
VAvian Flu : Web focus : Nature - Nature Publishing Group : science ...
p93
sa(dp94
g3
V... and then in Hong Kong in 1997. Hong Kong's avian flu outbreak ... Within three days, Hong Kong's ... for next pandemic was that the new flu strain would ...
p95
sg5
Vbird flu - definition of bird flu in the Medical dictionary - by ...
p96
sa(dp97
g3
V... 2005 of a discussion on Avian Flu with the Honorable ... would be vaccinated within one year of the pandemic\u2019s outbreak. ... New York | Museum; Hong Kong; Houston;
p98
sg5
VAvian Flu: Risks, Treatment and the HIV/AIDS Link | Asia Society
p99
sa(dp100
g3
VAvian flu has two forms, ... A 1983-84 outbreak of avian flu in Pennsylvania began with low mortality, ... A rapid response by Hong Kong authorities ...
p101
sg5
VFast Facts on Avian Flu - ABC News - ABCNews.com - Breaking News ...
p102
sa(dp103
g3
V... (localized circulation of a known strain). The 1997 Hong Kong outbreak ... and then within the next ... only two years ago, an avian flu outbreak in Hong ...
p104
sg5
VThe 1918 Spanish Flu Pandemic and the Hong Kong Incident at SARS ...
p105
sa(dp106
g3
V... Three years into the outbreak of the H5N1 avian flu virus, two international teams ... people appeared in Hong Kong ... new virus strain capable ...
p107
sg5
VAvian Flu Watch
p108
sa(dp109
g3
VIt comes after a dead chicken there tested positive for the deadly H5N1 avian ... outbreak in Hong Kong which ... strain of bird flu emerges in Asia ...
p110
sg5
VH5N1 Bird Flu Appears in Hong Kong - YouTube
p111
sa(dp112
g3
V\u2022 Deadly H5N1 Avian Flu Found in Hong Kong ... Two in Bali \u2022 Bird flu outbreak, strain H5N1 ... swine flu vaccination . This new strain appeared to be closely ...
p113
sg5
VSwine Flu, Bird Flu, Avian Flu, Avian Influenza, Pandemic ...
p114
sa(dp115
g3
V\u2022 Hong Kong: Fatal case with ... possibility of a bird flu outbreak. They acknowledged that two people had ... infected with H7N9 avian influenza, the new strain of ...
p116
sg5
VFlu Wiki Forum:: News Reports for April 10, 2013
p117
sa(dp118
g3
V... Influenza Season Peaking Hong Kong: ... The 2012 flu season: worst outbreak in 10 years, ... Worst Outbreak of Influenza in 10 Years, Says CDC appeared first on ...
p119
sg5
VNews Pouch: Avian and Pandemic Influenza, 10 Jan 2013 | Avian ...
p120
sa(dp121
g3
V... measures to protect themselves from a new strain of bird flu ... An avian flu outbreak in Japan could ... of avian flu in Hong Kong ...
p122
sg5
VAsia braces for spill-over of new bird flu strain
p123
sa(dp124
g3
VAntiviral drugs can be effective if taken within two days of the ... (The Hong Kong Flu). ... disease at the same time a widespread avian flu outbreak hit ...
p125
sg5
VRx for Survival . Deadly Diseases . Influenza | PBS
p126
sa(dp127
g3
VOn the 11th of May 1997 a three year old boy in Hong Kong ... How has avian flu progressed since the first outbreak ... before the outbreak. It is a new strain ...
p128
sg5
VAvian flu, (chicken flu), swine flu, viruses and influenza.
p129
sa(dp130
g3
V... of a new strain of bird flu infecting ... new flu surfaced two weeks ... in 2007 in Hong Kong or click on http://avian-influenza ...
p131
sg5
VMystery of Chinese bird flu outbreak grows | Reuters
p132
sa(dp133
g3
V... same time and with the same strain that was infecting Hong Kong's ... to a new subtype of the flu ... has a known avian flu outbreak try to avoid ...
p134
sg5
VCenter for Health and Health Care in Schools - Avian Flu Fact Sheet
p135
sa(dp136
g3
VIn most years, one or two of the three virus strains in the ... from where it spread to Hong Kong, ... A new avian influenza strain appeared in Hong Hong ...
p137
sg5
VInfluenza - Online Textbook of Bacteriology
p138
sa(dp139
g3
VMild Bird flu: the birds appeared to be normal but show ... identified is Hong Kong in ... another outbreak of the Avian influenza, a few years ago it hit ...
p140
sg5
VAvian Influenza Bird Flu - dilipchandra12 on HubPages
p141
sa(dp142
g3
V"An outbreak, therefore, may be years ... flu epidemics from Spain to Russia and Hong Kong had killed millions of ... of Avian Flu (Hardcover), New Press (October ...
p143
sg5
VAvian flu pandemic - SourceWatch
p144
sa(dp145
g3
V... and then in Hong Kong in 1997. Hong Kong's avian flu outbreak coincided ... for next pandemic was that the new flu strain would ... every two to four years.
p146
sg5
Vbird flu Facts, information, pictures | Encyclopedia.com articles ...
p147
sa(dp148
g3
VBut faced with the third outbreak of bird flu in five years, ... up to Lunar New Year. But next week's ... avian flu led to the slaughter of Hong Kong's ...
p149
sg5
VBBC News | ASIA-PACIFIC | Hong Kong seals off chicken farms
p150
sa(dp151
g3
VH7N9 avian flu. The influenza A(H7N9 ... Mayan prophecy: a new beginning. Editor's Pick. A great waste. ... Step up bird flu tests on chickens, Hong Kong health ...
p152
sg5
VFour more die of bird flu in China, pushing toll to 31 | South ...
p153
sa(dp154
g3
VThe 1997 Hong Kong outbreak of an avian ... diseases/flu_1997.htm) detected new cases of human ... in recent years (1976, United States; 1997, Hong Kong) ...
p155
sg5
VThe Next Influenza Pandemic: Lessons from Hong Kong, 1997 - Vol. 5 ...
p156
sa(dp157
g3
V... Hong Kong, Taiwan and elsewhere. Bird flu story source: AFP ... New bird flu strain requires vigilance ... Within the next few weeks we will be adding an avian ...
p158
sg5
VBird flu - Bird flu Symptoms - Avian Influenza
p159
sa(dp160
g3
VYet Ngoan's death and more than 50 others in Southeast Asia over the past two years ... new flu subtype appeared, ... strain of H5N1 cropped up in Hong Kong ...
p161
sg5
VKiller Flu, Tracking the Next Killer Flu - National Geographic ...
p162
sa(dp163
g3
VGet the seasonal and pandemic flu information you need at Flu.gov. Skip Navigation. Home ... A new and potentially lethal Avian Influenza A (H7N9) virus is present in ...
p164
sg5
VHome | Flu.gov
p165
sa(dp166
g3
VAuthorities in Shanghai said on Thursday two more people in the city had died from the rare H7N9 avian flu, ... flu has appeared ... in Hong Kong \u2014 and more recent ...
p167
sg5
VFifth bird flu death as China sounds high alert - The Hindu
p168
sa(dp169
g3
VAvian influenza or 'bird flu' is a ... associated with the 1997 Hong Kong outbreak. How can bird flu ... in people appeared in Hong Kong in ...
p170
sg5
VWhat is bird flu? - Telegraph - Telegraph.co.uk - Telegraph online ...
p171
sa(dp172
g3
VA study from Hong Kong ... virus has been present in birds for more than two years. ... would be in slowing the spread of a pandemic from a new virus strain.
p173
sg5
VWHO | Avian influenza: food safety issues
p174
sa(dp175
g3
VNext story in Bird Flu Hong Kong reports bird flu outbreak ... detect any emergence of the new strain, ... in controlling avian flu is in altering ...
p176
sg5
VWHO warning on bird flu - Health - Infectious diseases - Bird Flu ...
p177
sa(dp178
g3
VThis was a new strain of avian flu, ... outbreak of H5N1 avian influenza in Hong Kong caused 2 cases and ... not in the next year or two it's quite possible ...
p179
sg5
VAvian flu: the creation of expectations in the interplay between ...
p180
sa(dp181
g3
VThe detection of the virus in Lagos will raise fears that Nigeria's outbreak H5N1 strain of bird flu, ... sent to Hong Kong for ... two new cases in a wild bird and ...
p182
sg5
VAvian Flu - What we need to know
p183
sa(dp184
g3
VA pandemic would happen if a new flu virus began ... There are prototypes that could protect against the H5N1 strain. Research shows two doses ... (Hong Kong flu).
p185
sg5
VBird flu (Avian flu) - NetDoctor.co.uk - The UK's leading ...
p186
sa(dp187
g3
VThe enormously pathogenic avian flu in the Hong Kong region is a ... years, epidemics of avian flu ... of avian flu and new alternatives ...
p188
sg5
VA Sample Critique Essay on the Avian Flu Policy of Hong Kong
p189
sa(dp190
g3
VThe H7N9 bird flu strain does not appear to be transmitted from human to human but authorities in Hong Kong raised a ... the last two years ...
p191
sg5
VChina readies to fight new bird flu; Japan, HK on guard - Yahoo! News
p192
sa(dp193
g3
VA/chicken/Hong Kong/220/97 (H5N1) 1997 : New ... the viral strain and species of host. Ferrets appeared to mirror ... aquatic poultry in Hong Kong SAR. Avian ...
p194
sg5
VInfluenza Book | Avian Influenza
p195
sa(dp196
g3
VA Hong Kong study concluded that even ... They assumed that a strain of flu hit New York that was ... I am concerned about what an avian flu outbreak could mean ...
p197
sg5
VAvian Flu Update - Council on Foreign Relations
p198
sa(dp199
g3
V... the avian strain jumps directly from ... in at least two countries within one WHO ... since the \u201cHong Kong\u201d flu of 1968. Over the next few ...
p200
sg5
VInfluenza Virus (Flu) - Department of Molecular Virology and ...
p201
sa(dp202
g3
VThe CDC hasn't recommended that people cancel travel plans as a result of the avian-flu outbreak. ... of Hong Kong, who gets two or ... Hong Kong." For the next ...
p203
sg5
VAvian Flu Information - National AIDS Treatment Advocacy Project ...
p204
sa(dp205
g3
V"If there's any bird flu outbreak at the farm or at any place within 13 ... fight new bird flu; Japan, Hong Kong on ... with the new H1N1 strain of avian flu ...
p206
sg5
VFlu Wiki Forum:: News Reports for April 4, 2013
p207
sa(dp208
g3
V... outbreak of 1918-19 was a strain of avian or bird flu. ... within three days \u2013 of Hong Kong\u2019s entire ... children occurred in Hong Kong in 1999 (two ...
p209
sg5
VBird Flu and the Great Flu Pandemic of 1918-19
p210
sa(dp211
g3
VThe Hong Kong flu strain shared internal ... The first record of the outbreak in Hong Kong appeared on ... \u2191 Chapter Two : Avian Influenza by Timm C. Harder ...
p212
sg5
VH3N2 - wikidoc
p213
sa(dp214
g3
VAvian Flu: Frequently Asked ... occasions after these birds have been found dead within flight range of a poultry outbreak. ... Hong Kong experienced the first H5N1 ...
p215
sg5
VAvian Flu | Embassy of the United States Beijing, China
p216
sa(dp217
g3
V... expected to cause the flu the next ... the new strain although they ... occurred in Hong Kong in 1997. An outbreak of avian flu has affected bird ...
p218
sg5
VInfectious Diseases - Influenza - Flu, Pandemic, Virus, and People
p219
sa(dp220
g3
V... of the new virus raised fears of a major outbreak. ... bomb flu. Just regular flu. Within a week or two of ... Hong Kong flu when I was 7 years ...
p221
sg5
VThe last flu pandemic was in 1968 when \u201cHong Kong\u201d flu killed ...
p222
sa(dp223
g3
VWithin three days, Hong Kong's entire chicken population is slaughtered ... Two new flu drugs, Relenza and ... South Korea has its first outbreak of avian ...
p224
sg5
VWhen did the avian bird flu started? - Yahoo! Answers
p225
sa(dp226
g3
V... which was first spotted in Hong Kong in 1997 but ... next flu pandemic? Maybe. When a new strain of flu makes it from ... rose around the avian flu outbreak ...
p227
sg5
VThe Latest Bird Flu Freakout, Explained | Mother Jones
p228
sa(dp229
g3
V... \u2014 A surprise attack by a new strain of the bird flu ... doctors began suspecting an outbreak of type A bird flu. ... Have Hong Kong stocks caught bird flu ...
p230
sg5
VBird flu\u2019s latest talons force defense in China - MarketWatch
p231
sa(dp232
g3
VWhen a highly lethal strain of avian flu broke ... of avian flu broke out in Asia in recent years ... outbreaks of bird flu in mainland China, Hong Kong, ...
p233
sg5
VThe Fatal Strain: On the Trail of Avian Flu and the Coming ...
p234
sa(dp235
g3
VThe bottom line is that the threat does remain for the next new mutant strain of ... and the Hong Kong Flu Pandemics are ... Avian flu outbreak maps go to ...
p236
sg5
VBCPFFA - Avian Flu and First Responders
p237
sa(dp238
g3
V... caused by the same strain, in Hong Kong 's poultry ... when an outbreak of H5N1 avian influenza in Hong ... Preparing for the next pandemic. New ...
p239
sg5
VInfluenza - Medical Ecology @ www.MedicalEcology.org
p240
sa(dp241
g3
VThe deadly H5N1 strain of bird flu has ... WHO said the Health Ministry denied a report in Hong Kong ... Local authorities are slaughtering all poultry within two ...
p242
sg5
VAvian flu cases spread across China / 14 regions report confirmed ...
p243
sa(dp244
g3
V... an outbreak of avian flu may be ... after nearly two years of using mainly culling ... Reuters reports Hong Kong infectious disease expert ...
p245
sg5
VTransmission and infection of H5N1 - Northwest Seed & Pet ...
p246
sa(dp247
g3
VYour source for credible news and authoritative insights from Hong Kong, ... H7N9 avian flu. ... 2013 as New bird flu outbreak creates echoes of Sars.
p248
sg5
VEchoes of Sars in bird flu panic | South China Morning Post
p249
sa(dp250
g3
V... starting a global outbreak (pandemic). Of the few avian flu viruses that have ... Hong Kong experienced the first H5N1 ... despite an advance warning of two years.
p251
sg5
VAvian Flu Information | Embassy of the United States
p252
sa(dp253
g3
V... A new strain of avian flu has killed two people ... for the first time in Hong Kong a ... she channels her teen years in new music video ...
p254
sg5
VNew strain of bird flu which has never been seen in humans before ...
p255
sa(dp256
g3
V... to prevent further spread of an outbreak of highly pathogenic avian ... in a cow that died two years ... Hong Kong issues public warning ...
p257
sg5
VTaiwan: Hundreds of chickens destroyed in response to avian ...
p258
sa(dp259
g3
V... including killing all poultry within a couple miles of the outbreak. Avian and ... flu"), and 1968\u201369 (the "Hong Kong ... a new strain to which many ...
p260
sg5
VInfluenza definition of Influenza in the Free Online Encyclopedia.
p261
sa(dp262
g3
V... Consulate General in Hong Kong about an outbreak of H7 avian ... in New South Wales (NSW) in 4 years, ... resulted in two swine flu deaths in ...
p263
sg5
VNews Pouch: Avian and Pandemic Influenza, 20 Mar 2013 | Avian ...
p264
sa(dp265
g3
VThe Spanish Flu outbreak occurred 87 years ago. ... uncovered in poultry in Hong Kong back in ... vaccine effective against the H5N1 strain of Avian Flu.
p266
sg5
VInformation about Bird or Avian Flu H5N1
p267
sa(dp268
g3
V... as Japan and Hong Kong stepped up vigilance against the ... nationwide to combat a new strain of deadly bird flu that has ... that this is an avian ...
p269
sg5
VChina mobilises to fight new bird flu; Japan, HK on guard - World ...
p270
sa(dp271
g3
V... the emergence of a new strain of influenza with pandemic ... It first appeared in Hong Kong live bird ... that the SARS outbreak was the next flu ...
p272
sg5
VAvian Influenza and China - Erika Elvander
p273
sa(dp274
g3
VThe H5N1 strain is the same strain also called the Hong Kong Flu (Read more ... In the two years that this scourge ravaged the ... within the next year, ...
p275
sg5
VChina says father of bird flu victim also infected
p276
sa(dp277
g3
V... and affect new species The Hong Kong epidemic of ... to combat avian influenza over the next several years ... Avian flu: H5N1 virus outbreak in ...
p278
sg5
VCIDRAP >> Avian Influenza (Bird Flu): Agricultural and Wildlife ...
p279
sa(dp280
g3
VThe 1957 Asian Flu; C. The 1968 Hong Kong Flu; The \u201cAvian ... and C) based on differences within two of ... In the event that a new and virulent strain appeared ...
p281
sg5
VCurrent Publications: Health: Influenza Pandemic (PRB 04-57E)
p282
sa(dp283
g3
VAvian flu special: The flu pandemic: ... he was transferred to a hospital in Hong Kong, ... Tamiflu needs to be administered within two days of anyone showing symptoms.
p284
sg5
VAvian flu special: The flu pandemic: were we ready? : Article : Nature
p285
sa(dp286
g3
V... There are 18 new human cases of H5N1 bird flu in Hong Kong, ... arising from the H5N1 avian flu strain. ... the next outbreak happens. - Beating the Flu: ...
p287
sg5
VTimeline: World History of Viral Pandemics: 412BC to 2009
p288
sa(dp289
g3
V... could occur "over the next 50 years and maybe even over ... Hong Kong, where the avian flu has appeared, ... and the Hong Kong flu outbreak of 1968 ...
p290
sg5
Vinfowars: Is President Bush Hyping the Avian Flu?
p291
sa(dp292
g3
VOur understanding of the H7N9 avian flu virus, ... A novel strain of ... as versions of it have also appeared in Hong Kong\u2019s Apple Daily and USA Today over ...
p293
sg5
VAvian Flu Diary
p294
sa(dp295
g3
V... the flu again made an appearance in both 1970 and two years ... outbreak of avian flu occurred in Hong Kong with ... because a new strain of a ...
p296
sg5
VThe History and Future of Pandemics | Health Training Guide
p297
sa(dp298
g3
V'Efficacy of vaccines in chickens against highly pathogenic Hong Kong H5N1 Avian ... within a few years. ... a new outbreak of the H5N1 strain of bird flu ...
p299
sg5
VAvian Influenza 2005-2007 - warmwell.com - on UK animal health policy
p300
sa(dp301
g3
VFebruary 16, 2013 \u2013 CHINA - A woman diagnosed with the H5N1 strain of the bird flu last week, has died in southwest China. Health authorities in Guiyang ...
p302
sg5
VHas it finally happened? Bird Flu death in China sparks fear of ...
p303
sa.