(lp1
(dp2
S'description'
p3
VThroughout his career, Bing Crosby often credited Mildred Bailey for getting him his first important ... He used his clout, both professional and ...
p4
sS'title'
p5
VBing Crosby - Wikipedia, the free encyclopedia
p6
sa(dp7
g3
VIn 1929 a friend introduced Dixie to Bing Crosby. Bing recounted in his ... Although Bing demonstrated an active involvement in his sons\u2019 professional ...
p8
sg5
VTHE CROSBY FAMILY | Bing Crosby
p9
sa(dp10
g3
VThe Bing Crosby Show, his first TV special, was broadcast January 3, ... While Crosby\u2019s professional load became increasingly lighter in the early 1970s, ...
p11
sg5
VBING CROSBY - Sam Houston State University - Texas - Carnegie ...
p12
sa(dp13
g3
VBing Crosby drops in for a visit to the \u201cStar Spangled Radio Hour\u201d this week with a 1945 NBC \u201cKraft Music Hall\u201d broadcast. The ultimate professional approach ...
p14
sg5
VBing Crosby's 1945 broadcast featured on 'Star Spangled Radio Hour ...
p15
sa(dp16
g3
VYou won't regret getting acquainted with the talent of Bing Crosby. Bing got his professional start as a singer with Paul Whiteman's orchestra.
p17
sg5
VIt's a Bing Crosby World!
p18
sa(dp19
g3
V... devotedly pulled himself up from his bootshiners to excel at his profession. ... Bing Crosby was so full of his self-importance then, ...
p20
sg5
VBing Crosby - Uncyclopedia, the content-free encyclopedia
p21
sa(dp22
g3
VBing Crosby, 73, Dies After ... newspaper l'Humanite praised the millionaire singer for putting in a "16-hour day trying to perfect all the facets of his profession."
p23
sg5
VAP and BBC Report Bing's Death -- Bing Crosby Internet Museum ...
p24
sa(dp25
g3
VComedy-Drama With Bing Crosby and Barry ... Having hit about as high in his profession as any average man would hope to hit--and that is to say the top notes in ...
p26
sg5
VComedy-Drama With Bing Crosby and Barry Fitzgerald
p27
sa(dp28
g3
VAlso Known As: Harry Lillis Crosby Died: October 14, 1977: Born: May 3, 1903: Cause of Death: heart attack: Birth Place: Tacoma, Washington: Profession:
p29
sg5
VOverview for Bing Crosby
p30
sa(dp31
g3
VI believe this highlights the most important part of the song witch is the father\u2019s profession of love to his son. ... Bing Crosby\u2019s version- ...
p32
sg5
VRhetorical Analysis of the song \u201cDanny Boy\u201d | logansfantasticblog
p33
sa(dp34
g3
VHe also has a passionate belief that his dad\u2019s legacy will be revitalized as new generations discover Bing Crosby on ... Find a Professional; Member Tournaments;
p35
sg5
VEubanks: Nathaniel Crosby Remembers his Father's Tournament
p36
sa(dp37
g3
VSinging was a pastime, hardly a profession. ... You could say that Bing Crosby spent his life outwardly embodying the casual charm of his father while ...
p38
sg5
VA Long Way From Tacoma - The New York Times - Breaking News, World ...
p39
sa(dp40
g3
VRuss made his professional debut at Imperial Theater in San Francisco at the age of 13. ... with many of his band members, like Bing Crosby, ...
p41
sg5
VBing Crosby | David Kulczyk
p42
sa(dp43
g3
VHe used his clout, both professional and financial, to innovate new methods of reproducing audio of his ... Because his own Bing Crosby Enterprises produced the ...
p44
sg5
VBing Crosby - Always Victorian
p45
sa(dp46
g3
VHarry Lillis "Bing" Crosby was an ... historian John Dunning wrote about German engineers having developed a tape recorder with a near-professional broadcast ...
p47
sg5
VBing Crosby (Singer) - Pics, Videos, Dating, & News
p48
sa(dp49
g3
VBing is a search engine that brings together the best of search and people in your social networks to help you spend less time searching and more time doing.
p50
sg5
VBing
p51
sa(dp52
g3
VHaving hit about as high in his profession as any average man would hope to hit\u2014and that to say the top notes in the musical comedy league\u2014Bing Crosby has ...
p53
sg5
V'Going My Way,' Comedy-Drama With Bing Crosby and Barry Fitzgerald ...
p54
sa(dp55
g3
VBecause his own Bing Crosby Enterprises ... Beach National Pro-Am?has been a leading event in the world of professional golf. Crosby first took up the game ...
p56
sg5
VBing Crosby | Biography - Lyrics, Song Lyrics \u2013 LyricsFreak.com
p57
sa(dp58
g3
VThe youngest child of actor/singer Bing Crosby and his second wife Kathryn Grant, Mary Crosby made her first professional appearances in the company of her siblings ...
p59
sg5
VMary Crosby | Celebrities | Hollywood.com
p60
sa(dp61
g3
VGet the scoop on Bing Crosby with fun facts, ... that Bing Crosby loved to play golf and was a big fan of the professional golfers on the PGA tour.
p62
sg5
VBing Crosby Career and Biography Facts and Features | Destination ...
p63
sa(dp64
g3
VBing Crosby, the Unsung King of Song By GARY GIDDINS. ... High school and college clubs as well as professional pundits routinely debated their respective merits.
p65
sg5
VDeath and Funeral of Bing Crosby - A Christmas Carol Treasury ...
p66
sa(dp67
g3
VHe eventually worked on the production staff of his father's company, Bing Crosby Productions. ... Kenny Solms began his professional career in New York, ...
p68
sg5
VIMDb: Most Popular People With Biographies Matching "Bing+Crosby"
p69
sa(dp70
g3
VTurned professional: 1984 Regained amateur ... He is the seventh child of the actor and singer Bing Crosby and the youngest of his three children from his second ...
p71
sg5
VNathaniel Crosby - Wikipedia, the free encyclopedia
p72
sa(dp73
g3
V\u2013 Bing Crosby, 1977 The uppermost quote, whether concocted by a press agent or not, ... Bing created excitement and anticipation for his every professional move.
p74
sg5
VBING THE RADIO STAR | Bing Crosby
p75
sa(dp76
g3
VI am a mental health professional and anyone who has been a ... What I found most interesting is how great Bing Crosby seemed with his children from the second ...
p77
sg5
VGoing My Own Way: Gary Crosby, Ross Firestone: 9780385170550 ...
p78
sa(dp79
g3
VBing Crosby: A Pocketful of Dreams The Early Years: 1903-1940. ... Binge drinking and professional irresponsibility characterized most of his time with Paul Whiteman.
p80
sg5
VBing Crosby: Pocketful of Dreams - Home | University of Pittsburgh
p81
sa(dp82
g3
VBirth Name: Harry Lillis Crosby; Birth Place: Tacoma, WA; Date of Birth / Zodiac Sign: 05/03/1903, Taurus; Date of Death: 10/14/1977; Profession: Actor; singer
p83
sg5
VBing Crosby News, Bing Crosby Bio and Photos | TVGuide.com
p84
sa(dp85
g3
VShe is the daughter of the singer and actor Bing Crosby, from his second marriage to the ... Profession: Actor. Date of Birth: Sep 14, 1959. Nicknames: Mary Frances ...
p86
sg5
VMary Crosby | Celebrity Net Worth
p87
sa(dp88
g3
VProfessional Points of interest. Click for more information Academy Awards. Year Category Work; 1944 ... Does Bing Crosby deserve this star on the Hollywood Walk of Fame?
p89
sg5
VBing Crosby - Hollywood Star Walk - Los Angeles Times
p90
sa(dp91
g3
VAlso Known As: Died: October 14, 1977: Born: May 3, 1903: Cause of Death: heart attack: Birth Place: Tacoma, Washington: Profession: Cast ...
p92
sg5
VFilmography for Bing Crosby - TCM Turner Classic Movies
p93
sa(dp94
g3
VHe turned professional in 1984 and having failed ... He is the seventh child of the actor and singer Bing Crosby and the youngest of his three children from his ...
p95
sg5
VNathaniel Crosby - Freebase
p96
sa(dp97
g3
VBing Crosby on IMDb: Movies, TV, Celebs, and more... IMDb ... the first sitcom to feature a black actress as a professional woman rather than a domestic worker.
p98
sg5
VBing Crosby - News
p99
sa(dp100
g3
VAs The Rhythm Boys, Crosby and his partners regained their professional standing quickly. ... The Bing Crosby Show, which ran for two seasons in the mid-1960s.
p101
sg5
VCrosby, Bing Study Guide & Homework Help - eNotes.com
p102
sa(dp103
g3
VHe used his clout, both professional and financial, to innovate new methods of reproducing audio of his ... Because his own Bing Crosby Enterprises produced the ...
p104
sg5
VAstrology: Bing Crosby, date of birth: 1903/05/03, Horoscope ...
p105
sa(dp106
g3
Vto help create a Bing Crosby legacy in his hometown. ... professional act before he and his performing partner Al Rinker moved on to greatness in Hollywood and beyond.
p107
sg5
VA Gala Dedication & Film Festival Kathryn Crosby
p108
sa(dp109
g3
VGary Crosby, Bing's oldest son, on Bing as his father. ... He's a pure professional and is that much of a pro that he doesn't tolerate anyone else who isn't.
p110
sg5
VWhat They Said About Bing Crosby -- Bing Crosby Internet Museum ...
p111
sa(dp112
g3
VThroughout his career, Bing Crosby often credited Mildred Bailey for getting him his first important job in ... He used his clout, both professional and ...
p113
sg5
V- Matt Monro - The singers singer -
p114
sa(dp115
g3
VThe Bing Crosby Edsel Show, ... Bing gave advice to his young male caddy about the importance of getting a college degree before trying to become a professional golfer.
p116
sg5
VBing Crosby and Gonzaga University: 1955 - 1977 - Gonzaga University
p117
sa(dp118
g3
VBing was always professional, always busy, filling up every spare moment with either singing or swinging\u2015a golf club, ... Bing Crosby, kept his personality in check.
p119
sg5
VMichael Feinstein\u2019s American Songbook | Bing Crosby | Performer
p120
sa(dp121
g3
VRegarding his own effort to become a reinstated amateur\u2014he played three years of professional golf after graduating ... Bob Hope and Bing Crosby ...
p122
sg5
VNathaniel Crosby, the son of one of the game's most - 06.16.08 ...
p123
sa(dp124
g3
VHe was a true professional held in high esteem by Jack Mullin. ... The following two links provide more information on Bing Crosby and his recordings: ...
p125
sg5
VFirst-Hand:Bing Crosby and the Recording Revolution - GHN: IEEE ...
p126
sa(dp127
g3
VWhile Bing Crosby never lost his passion for golf, ... He and his longtime professional partner Peter Jacobsen twice came within two strokes of the cut, ...
p128
sg5
VThe Heritage of the Crosby - Carmel Magazine
p129
sa(dp130
g3
VGeorge Robert "Bob" Crosby (1913-93) Bing got his name from a Sunday supplement included in the ... Nathaniel Patrick Crosby (born 1961) [Professional ...
p131
sg5
VKnow Old Time Radio: Bing Crosby (1903?-77)
p132
sa(dp133
g3
VDave Bing, former professional Basketball player; Jonathan Bing, a New York Assemblyman; ... officially titled "bing Crosby: A Celebration of His Life," takes place ...
p134
sg5
VBing | Learn everything there is to know about Bing at Reference.com
p135
sa(dp136
g3
VNathaniel Crosby made his late dad Bing, ... the golf professional at the Burlingame Country Club in Hillsborough, Calif., he developed into a very good player.
p137
sg5
VUSGA: Looking Back...Crosby Wins 1981 Amateur
p138
sa(dp139
g3
VA panicked Bing Crosby wired this note to his brother Everett after ... Everett hired Paul R. Williams to design a home in Hollywood celebrating his professional ...
p140
sg5
VEverett Crosby Residence - Bel Air - Paul Revere Williams
p141
sa(dp142
g3
VFind out how Bing Crosby handled his relationships and test what you and Bing Crosby have going in love, ... offers you the benefit of her vast professional experience.
p143
sg5
VBing Crosby relationships - Relationships with Celebrities & The ...
p144
sa(dp145
g3
VThe youngest child of actor/singer Bing Crosby and his second wife Kathryn Grant, Mary Crosby made her first professional appearances in the company of her siblings ...
p146
sg5
VMary Crosby - Biography - MSN Movies
p147
sa(dp148
g3
VBing Crosby was one of the very few new stars of the early talking pictures \u2014 we can't think of ... pleasant voice and the casual wit of his professional ...
p149
sg5
VThe Book on Bing Crosby: Bing Goes to the Movies - TIME
p150
sa(dp151
g3
VBiography of Bing Crosby, The singer of "White Christmas" ... Name at birth: Harry Lillis Crosby Though he is sometimes now forgotten, Bing Crosby was one of the ...
p152
sg5
VBing Crosby Biography (Singer/Actor) | Infoplease.com
p153
sa(dp154
g3
VBing Crosby was one of the very few new stars of the early talking pictures \u2014 we can't think of ... pleasant voice and the casual wit of his professional ...
p155
sg5
VThe Book on Bing Crosby: Bing Goes to the Movies - TIME
p156
sa(dp157
g3
VBiography of Bing Crosby, The singer of "White Christmas" ... Name at birth: Harry Lillis Crosby Though he is sometimes now forgotten, Bing Crosby was one of the ...
p158
sg5
VBing Crosby Biography (Singer/Actor) | Infoplease.com
p159
sa(dp160
g3
VBing and his piano-player partner, ... They took place through the summer of 1925 and were Bing Crosby\u2019s first true professional entertainment experience.
p161
sg5
VBing Crosby
p162
sa(dp163
g3
VIt may not have been reviewed by professional editors and is licensed ... Bryn Terfel records a "duet" with the late Bing Crosby in a version of his ...
p164
sg5
VBBC - Music - Bing Crosby
p165
sa(dp166
g3
VBecause his own Bing Crosby Enterprises ... National Pro-Am\u2014has been a leading event in the world of professional golf. Crosby first took up the game ...
p167
sg5
VBing Crosby : Wikis (The Full Wiki) - Students, get citable ...
p168
sa(dp169
g3
VWho We Are. Viewed by users in over 225 countries Mix is the world's leading magazine for the professional recording and sound production technology industry.
p170
sg5
VJohn T. Mullin: THE MAN WHO PUT BING CROSBY ON TAPE
p171
sa(dp172
g3
VBiography. The youngest child of actor/singer Bing Crosby and his second wife Kathryn Grant, Mary Crosby made her first professional appearances in the company of her ...
p173
sg5
VMary Crosby Biography - Movie Tickets & Movie Times - Fandango.com
p174
sa(dp175
g3
V... she\u2019s billed right up there with Bing Crosby and Barry ... and Judy Garland sang, recalled George Sanders in his 1960 tome, The Memoirs of a Professional Cad.
p176
sg5
VBing Crosby \u2013 classicmoviechat.com
p177
sa(dp178
g3
V(WayBack Machine) He used his clout, both professional and financial, ... Because his own Bing Crosby Enterprises produced the show, ...
p179
sg5
VBing Crosby | Artistopia Music
p180
sa(dp181
g3
VThe youngest child of actor/singer Bing Crosby and his second wife Kathryn Grant, Mary Crosby made her first professional appearances in the company of her siblings ...
p182
sg5
VMary Crosby - Rotten Tomatoes - Movies | Movie Trailers | Reviews ...
p183
sa(dp184
g3
VBing Crosby died on a golf course in Spain in 1977. Bing\u2019s son, Nathaniel, ... Bob has taught many well-known professional and amateur players, ...
p185
sg5
VThe Crosby Clambake - phillyburbs.com: Golf
p186
sa(dp187
g3
VStarted Bing Crosby Clambake: 1937 William D ... having just played 18 holes with Spanish professional Manuel Pinero. His tournament continued to thrive under the ...
p188
sg5
VWorld Golf Hall of Fame Member Profile
p189
sa(dp190
g3
VMany people do not know that Bing Crosby had his own sitcom during the 1964-1965 television ... his annual income of $750,000 put him at the top of his profession.
p191
sg5
VTHE BING CROSBY NEWS ARCHIVE: June 2011
p192
sa(dp193
g3
VWhat follows is an account of Bing Crosby's last round of golf and his subsequent death on October 14, 1977. ... "I'm a professional," he said.
p194
sg5
VBing Crosby - The Final Round - Lake Providence, Louisiana ...
p195
sa(dp196
g3
VProfessional Wrestling; Speculative Fiction; Sports Story; War; ... Harry Lillis "Bing" Crosby started his career as a singer and made in big in the early 1930s with ...
p197
sg5
VBing Crosby - Television Tropes & Idioms
p198
sa(dp199
g3
VForty-one years after Bing Crosby played in the United States Amateur Championship, ... the former touring professional, in Florida, where Crosby attends college ...
p200
sg5
VUSGA Museum - About the Museum - News Article
p201
sa(dp202
g3
VBing was indeed a private man who had his public "Bing Crosby" image and obviously we fans who know everything about his professional work can have little idea of his ...
p203
sg5
VMy Last Years with Bing (Book 2002) - Barnes & Noble
p204
sa(dp205
g3
VBiography: The youngest child of actor/singer Bing Crosby and his second wife Kathryn Grant, Mary Crosby made her first professional appearances in the company of her ...
p206
sg5
VMary Crosby - Overview - MSN Movies
p207
sa(dp208
g3
VBing Crosby. View Album. Oct 8, 2012. 3 Photos June Lockhart Archive Pictures. View Album. May 31, 2011. 1 Photo COMING SOON COMING SOON View All ...
p209
sg5
VHarry Crosby (Actor) - Pics, Videos, Dating, & News
p210
sa(dp211
g3
V... credits and award information for The Bing Crosby CBS Radio Recordings 1954-56 - Bing Crosby on ... lessons he'd learned over 30 years of professional ...
p212
sg5
VThe Bing Crosby CBS Radio Recordings 1954-56 - Bing Crosby : Songs ...
p213
sa(dp214
g3
VHe lived for a time with Oliver Hardy and played golf with everyone from Howard Hughes to W.C. Fields to Bing Crosby, his ... Montague never entered a professional ...
p215
sg5
VThe Mysterious Montague: A True Tale of Hollywood, Golf, and Armed ...
p216
sa(dp217
g3
VHarry Lillis "Bing" Crosby (May 3, 1903 ... His first important professional engagements were with the Edgar Benson and Ray Miller bands, ...
p218
sg5
VFrankie Trumbauer Orchestra Bing Crosby - Mississippi Mud 1928 ...
p219
sa(dp220
g3
VBing Crosby was, along with Louis Armstrong, one of the fathers of the jazz-influenced singing. ... Their professional encounters, mostly on radio and then TV, ...
p221
sg5
VFrank Sinatra vs Bing Crosby
p222
sa(dp223
g3
VJosh Mallon (Bing Crosby) and Ace Lannigan ... the two main characters are usually con-men, although in this movie it is not their starting profession.
p224
sg5
V1940 - Road to Singapore - Bob Hope, Bing Crosby (download torrent ...
p225
sa(dp226
g3
VFew stars in the history of show business can match Bing Crosby for longevity and popularity in every ... That doesn\u2019t include his other professional ...
p227
sg5
Vmusic review: The Bing Crosby CBS Radio Recordings 1954-56 ...
p228
sa(dp229
g3
VBecause his own Bing Crosby Enterprises ... Pro-Am\u2014has been a leading event in the world of professional golf. Crosby first took up the ...
p230
sg5
VBing Crosby - The Archangel Michael [Religion, Theology, relevant ...
p231
sa(dp232
g3
VProfession: Actor; Born: May 2, 1903 Died: Oct 14, 1977 Birth Name: Harry Lillis Crosby; Biography: American actor/singer Bing Crosby acquired his ...
p233
sg5
VBing Crosby | Movies.com - New Movies | Movie Trailers | Movie ...
p234
sa(dp235
g3
VAlready a professional by 1922, ... A star of unparalleled proportions during his 1930s-1940s, Bing Crosby (born Harry Lillis Crosby, Spokane, May 31st 1903 ...
p236
sg5
VBing Crosby - Bing With A Swing - Bygone Days
p237
sa(dp238
g3
VAnd his tournament - originally known as the Bing Crosby Professional-Amateur ... Hope followed his good friend Bing Crosby onto the PGA Tour, ...
p239
sg5
VCelebrities To Host PGA Tour Tournaments - Golf on About.com ...
p240
sa(dp241
g3
VCrosby, Bing (1903-1977) and Mildred Bailey (1907-1951), Spokane's Jazz Royalty. ... Crosby realized that he wanted to be a professional musician.
p242
sg5
VCrosby, Bing (1903-1977) and Mildred Bailey (1907-1951), Spokane's ...
p243
sa(dp244
g3
VFind out a lot of information about Bing Crosby at Celebrina.com. Bing Crosby profile: height, weight, nationality. ... Profession: Unknown (update information ...
p245
sg5
VBing Crosby Quotes, Trivia and Photos at Celebrina.com
p246
sa(dp247
g3
VProfession: Actor; Born: May 2, 1903 Died: Oct 14, 1977 Birth Name: Harry Lillis Crosby; Biography: American actor/singer Bing Crosby acquired his ...
p248
sg5
VBing Crosby Movies | Movies.com
p249
sa(dp250
g3
VDarrell Berg-Smith, CEO of The Asian Regional Impact Initiative, is a professional speaker, author, ... Legendary Crooners - Bing Crosby, ...
p251
sg5
VLegendary Crooners - Bing Crosby, A Man of Many Talents Who Had ...
p252
sa(dp253
g3
VMary Crosby: Profession : Actor: Born : ... She is the daughter of the singer and actor Bing Crosby, from his second marriage to the actress Kathryn Grant.
p254
sg5
VMary Crosby Biography, Bio, Profile, pictures, photos from ...
p255
sa(dp256
g3
VBing, real name Harry Lillis Crosby. 1904--77, US singer and film actor; famous for his style of crooning: ... medical, or any other professional. ...
p257
sg5
VCrosby definition of Crosby in the Free Online Encyclopedia.
p258
sa(dp259
g3
VBing Crosby - World Golf Hall of ... having just played 18 holes with Spanish professional Manuel Pinero. His tournament continued to thrive under the watchful eye ...
p260
sg5
VGolf Player Friend Finder Horoscope - Bing Crosby - Actor
p261
sa(dp262
g3
VBing Crosby's former 1936 southern colonial home in the Toluca Lake section of Los Angeles is offered at $4.795 million. ... No, I'm not a real estate professional.
p263
sg5
VBing Crosby's Former Toluca Lake Home Listed for $4.795 (PHOTOS)
p264
sa(dp265
g3
VBing Crosby was born in Tacoma ... but beneath that outward charm lay a tough showbusiness professional. \u2026." Further Reading. Bing Crosby's autobiography is Call ...
p266
sg5
VHarry Lillis Crosby \u2013 FREE Harry Lillis Crosby information ...
p267
sa(dp268
g3
VHis administrative profession; Views on the purpose of organizations; Overview of his book 'Running Things: ... son of singer Bing Crosby.
p269
sg5
VArticles citations with the tag: CROSBY, Philip
p270
sa(dp271
g3
VBing Crosby\u2019s dulcet tones made him the most influential and loved singer and entertainer ... He took his recreation seriously, as he did his profession ...
p272
sg5
Vtorpeyhour
p273
sa(dp274
g3
VYet Bing Crosby was far more than that: He was an architect of 20th century entertainment, ... We do not offer professional advice on careers or memorabilia.
p275
sg5
VBing Crosby - About | Facebook
p276
sa(dp277
g3
V"Bing Crosby made golf cool," Soltau said to the crowd during the ceremony. ... it has been a leading event in the world of professional golf.
p278
sg5
VBing Crosby, Bob Hope and Dinah Shore inducted into SCGA Hall ...
p279
sa(dp280
g3
VFeatures new Bing Crosby songs and videos, ... It may not have been reviewed by professional editors and is licensed under the GNU Free Documentation License.
p281
sg5
VBing Crosby Music, News and Photos - AOL Music
p282
sa(dp283
g3
VRegarding his own effort to become a reinstated amateur \u2014 he played three years of professional golf after graduating from ... Bob Hope and Bing Crosby, ...
p284
sg5
VWhy Nathaniel Crosby holds a special place in the game - GOLF.com
p285
sa(dp286
g3
VNOOK Books Bargain Books Calendars The Paperback Store Professional Books Rare & Collectible Libros ... American actor/singer Bing Crosby acquired his nickname as a ...
p287
sg5
VBarnes & Noble - Bing Crosby Biography
p288
sa(dp289
g3
VIt would have greatly surprised Bing Crosby to learn that his maternal grandfather was Canadian; ... Singing was a pastime, hardly a profession.
p290
sg5
VHarry Crosby: biography, pictures and information - Fold3.com
p291
sa(dp292
g3
VBing CROSBY Going Hollywood, Vol. 1: 1930-1936. ... Soon realising he could make more money as a singer than by pursuing a career in the legal profession, ...
p293
sg5
VBing CROSBY - Going Hollywood, Vol. 1: 1930-1936 - Jasmine Records
p294
sa(dp295
g3
VBing Crosby's widow, Kathryn Crosby, ... Penn Badgley says he and ex-girlfriend were 'professional' on Gossip Girl set after she married Ryan Reynolds;
p296
sg5
VBing Crosby's widow recovering after crash which killed second ...
p297
sa(dp298
g3
VHolm\u2019s first professional theatrical role was in a production of \u201cHamlet\u201d starring Leslie Howard ... Bing Crosby relaxing with his friends!! Bing Crosby . Bing ...
p299
sg5
VBing Crosby | Classic Cinema Gold
p300
sa(dp301
g3
VMary Crosby Biography: The youngest child of actor/singer Bing Crosby and his second wife Kathryn Grant, Mary Crosby made her first professional appearances in the ...
p302
sg5
VMary Crosby Biography - Rotten Tomatoes - Movies | Movie Trailers ...
p303
sa.