(lp1
(dp2
S'description'
p3
VDespite being contemporary with true Neolithic henges and stone circles, Stonehenge is in many ways atypical ... a Stonehenge Cursus was built 700 metres ...
p4
sS'title'
p5
VStonehenge - Wikipedia, the free encyclopedia
p6
sa(dp7
g3
VThe great and ancient stone circle of Stonehenge is one of ... what purpose Stonehenge served. Certainly, it was the focal point in a ... the people who built ...
p8
sg5
VStonehenge Guide. The great and ancient stone circle of Stonehenge ...
p9
sa(dp10
g3
VNeolithic / Bronze Age Henge and Stone Circle Amesbury, Wiltshire OS Map Ref SU12254219 OS ... What was Stonehenge built for? There ...
p11
sg5
VStonehenge - Neolithic / Bronze Age Henge and Stone Circle ...
p12
sa(dp13
g3
VYour guide to Stonehenge, other ancient sites and stone circles in Britain, ... About Stonehenge. Stonehenge: How it was built; Ceremonial Use; Visitors Comments ...
p14
sg5
VStonehenge.co.uk - Your guide to Stonehenge, the World's Favourite ...
p15
sa(dp16
g3
VStonehenge was built ... of several enormous stones arranged in a circle ... Stonehenge was brought to the English county of Wiltshire from ...
p17
sg5
VThe mystery of Stonehenge: Solved? - The Week
p18
sa(dp19
g3
VStonehenge, prehistoric stone circle monument, ... (county , England, United ... Stages of Stonehenge. Stonehenge was built within an area that was already special to ...
p20
sg5
VStonehenge (ancient monument, Wiltshire, England, United Kingdom ...
p21
sa(dp22
g3
VDrombeg stone circle - County ... there was a tradition of making stone circles during the ... There was a separate period of stone circle building from the eighth ...
p23
sg5
VStone circle - Wikipedia, the free encyclopedia
p24
sa(dp25
g3
V... Modern Stone Circle in Klickitat County, ... Stonehenge lies at what was the ... Modern Stone Circle in Klickitat County, Washington. Built as the nation ...
p26
sg5
VMaryhill Stonehenge [Sam Hill's Stonehenge Replica] Modern Stone ...
p27
sa(dp28
g3
VStonehenge is located near Amesbury in the English county of Wiltshire. Stonehenge ... and stone circles, Stonehenge is ... Stonehenge complex was built in ...
p29
sg5
VStonehenge Is A Neolithic Stone Circle Dating To The Bronze Age ...
p30
sa(dp31
g3
VStonehenge : Stonehenge. History Facts about Stonehenge & Stone Circles; Who built Stonehenge? What was the purpose of Stonehenge? Facts about the Construction of ...
p32
sg5
VStonehenge - Castles
p33
sa(dp34
g3
V... the most famous stone circles of all\u2014Stonehenge and Avebury\u2014are ... the tombs are stone built, ... the stone was manoeuvred to its place in the circle ...
p35
sg5
VStone Circles of Scotland. Introduction - Odyssey, Adventures in ...
p36
sa(dp37
g3
VAvebury is the site of a large henge and several stone circles in the English county of ... stone. When a new village school was built in 1969 ... Stonehenge, though ...
p38
sg5
VMysterious Stone Circles - Crystalinks Home Page
p39
sa(dp40
g3
V... the stone-circle building phase was preceded by a short period of 'Henge' building. ... The circumference of the Stonehenge sarsen-stone-circle ...
p41
sg5
VStone-circles Homepage - Ancient-Wisdom - Online Guide to Prehistory.
p42
sa(dp43
g3
VNew Stonehenge theory: Stonehenge was built over a ... years before the Stonehenge we know today was built, a larger stone circle was erected at the ...
p44
sg5
VNew Stonehenge theory: Stonehenge was built over a graveyard ...
p45
sa(dp46
g3
V... giving the appearance of a giant interconnected stone circle surrounding the horseshoe. ... There are numerous theories as to why Stonehenge was built.
p47
sg5
VStonehenge: Facts & Theories About Mysterious Monument | LiveScience
p48
sa(dp49
g3
VStonehenge is located in the English county ... It was Merlin who suggested that they move Ireland's Giant's Ring stone circle to ... Why was Stonehenge Built?
p50
sg5
VInteresting Facts About Stonehenge - Buzzle
p51
sa(dp52
g3
VThe plethora of stone circles created ... the infamous Stonehenge, is located in Wiltshire County, ... The Maryhill Stonehenge in Maryhill, Washington was built by ...
p53
sg5
VStonehenge - Bizarre & Weird Stories, Art & News from the Web
p54
sa(dp55
g3
VStonehenge Photo Gallery - see inside the stone circle at Stonehenge! Early construction There was a henge at the Stonehenge site before the Bronze Age, built ...
p56
sg5
VStonehenge - UK travel and heritage - Britain Express UK travel guide
p57
sa(dp58
g3
VWhi1e many modern scholars now agree that Stonehenge was once ... Ages and deposited a stone\u2019s throw ... to complete the circle. Who Built Stonehenge? ...
p59
sg5
VStonehenge \u2014 History.com Articles, Video, Pictures and Facts
p60
sa(dp61
g3
VSTONEHENGE: The Building Sequence and ... WHAT WAS STONEHENGE USED FOR, ... There is a ring of bluestones inside the sarsen stone circle;
p62
sg5
VStonehenge Building
p63
sa(dp64
g3
VThat Stonehenge was of ... shortly after the stones began arriving at Stonehenge. It is the largest stone circle ... Built around 2660 BC, it was carefully ...
p65
sg5
VThe Area Around Stonehenge - Bradshaw Foundation
p66
sa(dp67
g3
VStonehenge Country: England County: Wiltshire Type: Stone Circle Internal Links: Stonehenge was a precision-engineered monument used in the search for extra ...
p68
sg5
VWas Stonehenge Built To Spot Aliens? Stone Circle : The Megalithic ...
p69
sa(dp70
g3
VStonehenge was built as a ... Exploring the Greatest Stone Age Mystery, the place in the county of ... Other theories suggested the great stone circle was ...
p71
sg5
VStonehenge Built as Symbol of Unity : Discovery News
p72
sa(dp73
g3
VThe county of Wiltshire, in the ... is most famous for Stonehenge, the stone circle where Druids still celebrate ... Stonehenge was Built in Four Stages Beginning ...
p74
sg5
VStonehenge and Nearby Prehistoric Sites - Squidoo : Welcome to Squidoo
p75
sa(dp76
g3
VThe first of three phases of Stonehenge was built by ... In the county of ... From an excavation in the 1920s there was evidence that a stone circle ...
p77
sg5
VSalisbury Plain: The History of Stonehenge - Yahoo! Voices ...
p78
sa(dp79
g3
VMerlin @ Stonehenge Stone Circle ... organised by Somerset County Council last week. ... stone circles and hill camps. Each was built within eyeshot of the next.
p80
sg5
Vstonehenge map | Stonehenge News and Information
p81
sa(dp82
g3
VIn those days, all stone circles originated from being layed over these rings. ... Stonehenge was built long before there were Druids. In fact, ...
p83
sg5
VStonehenge
p84
sa(dp85
g3
VStonehenge is a prehistoric monument located in the English county ... and stone circles, Stonehenge is ... Stonehenge 3 IV was rather shabbily built ...
p86
sg5
VStonehenge - 2008/9 Wikipedia Selection for schools
p87
sa(dp88
g3
VWhile there are bigger stone circles in the world, Stonehenge is unique because the Sarsen stones ... Stonehenge wasn't built in one phase, but was created over a ...
p89
sg5
VStonehenge - A Profile of Stonehenge - European History The ...
p90
sa(dp91
g3
VA large amount of tourists and scientists are attracted to Witshire County every year. Stonehenge, ... that Stonehenge was built for ... within the stone circle of ...
p92
sg5
VThe mystery behind Stonehenge - Bukisa - Share Your Knowledge
p93
sa(dp94
g3
VThe Stonehenge Memorial was built by entepreneur Sam Hill as a tribute to the soldiers of Klickitat County, ... The great and ancient stone circle of Stonehenge is ...
p95
sg5
VThe Columbia River - Stonehenge Memorial, Maryhill, Washington
p96
sa(dp97
g3
V... the purpose of stone circles was probably connected to ... people believed the Druids built Stonehenge -- it seems that the circles existed long before the ...
p98
sg5
VStone Circles - Paganism & Wicca - Pagan and Wiccan Religion
p99
sa(dp100
g3
VSpeculation on the reason Stonehenge was built ranges from ... deferring to the county\u2019s highway authority ... The stone circle of Stonehenge is recognised ...
p101
sg5
VAvebury | Stonehenge News and Information
p102
sa(dp103
g3
V... Stonehenge was built over many ... with many other sites in the same county such as Avebury and ... Many henges and stone circles were made ...
p104
sg5
VStonehenge, Wiltshire - Stone Circles, Neolithic and Bronze Age Sites
p105
sa(dp106
g3
VStone Circle, Henge and Standing Stone: Wiltshire: Nearest town: Salisbury ... Early mention of Stonehenge was made in 1135 by chronicler Geoffrey of Monmouth, ...
p107
sg5
VStones of England - Stonehenge - Stone Pages \u2022 Web guide to ...
p108
sa(dp109
g3
VWithin the sarsen stone circle were also configurations of smaller and lighter bluestones (igneous rock of diabase, ... Why Stonehenge was built is unknown, ...
p110
sg5
VStonehenge - Mac OS X Server
p111
sa(dp112
g3
V... there are known to be over a thousand remains of stone circles throughout the British ... in County Cork which is just 9 ... that Stonehenge was built to unify ...
p113
sg5
VSeven Wonders of the Midieval World - Stonehenge
p114
sa(dp115
g3
VA symbol of eternity, Stonehenge was built to stand forever, ... the great stone circle was abandoned. Its age was eclipsed by a new technology, a new way of being.
p116
sg5
VNOVA | Secrets of Stonehenge - PBS: Public Broadcasting Service
p117
sa(dp118
g3
V... was built approximately 1000 years before the stone circle was constructed. ... Stonehenge Stone Circle, England More Information: Stonehenge Fast Facts.
p119
sg5
VStonehenge, England - Sacred Sites: Places of Peace and Power, General
p120
sa(dp121
g3
VStonehenge is a prehistoric stone monument that stands on the ... to form the Giant's Circle due to ... The theory that the Stonehenge was built by the Druids ...
p122
sg5
VTheories about Stonehenge - Buzzle
p123
sa(dp124
g3
VWhat is Stonehenge? When was it built? And by whom? What ... which has the world's biggest stone circles and whose broadly-similar mysteries are being solved by ...
p125
sg5
VAvebury Stonehenge Stone Circles in Wessex.
p126
sa(dp127
g3
VIt was improved over thousands of years with ... the Stone Circle and Avenue leading 1 ... from Stonehenge to the River Avon is built on the axis of the midsummer ...
p128
sg5
VStonehenge -- World Heritage Site -- National Geographic
p129
sa(dp130
g3
VThe prehistoric stone circle was believed to have been erected around 2600 BC, ... Some suspect that Stonehenge was built for elite gatherings, ...
p131
sg5
VStonehenge - standing stones - prehistoric temple - Giants' dance
p132
sa(dp133
g3
VStructure built on top of a huge tomb used between ... the concentric stone circles are expected to be a haven for marine ... Was Stonehenge a temple for sun ...
p134
sg5
VThe Stonehenge Stone Circle News Blog: September 2012
p135
sa(dp136
g3
VThe new theory would overturn the long-held belief that the stone circle was ... The earlier timeline they propose suggests that Stonehenge was built before ...
p137
sg5
VStonehenge Was Ancient Rave Spot : Discovery News
p138
sa(dp139
g3
VStonehenge is a prehistoric monument located in the English county ... and stone circles, Stonehenge is ... Stonehenge 3 IV was rather shabbily built ...
p140
sg5
VStonehenge - The Visitor Center Main Page
p141
sa(dp142
g3
VWas Stonehenge a temple for sun worship, a healing centre, ... Visit our Stonehenge Stone Circle Access page for information about a once in a lifetime experience;
p143
sg5
VStonehenge | English Heritage
p144
sa(dp145
g3
VStonehenge Dromberg Stone Circle, County Cork, ... Who Built Stonehenge? ... Stonehenge. Video Clip (2:51) What was the true purpose of Stonehenge?
p146
sg5
VStonehenge Photos \u2014 History.com Picture Galleries
p147
sa(dp148
g3
VEvery year thousands of tourists flock to Stonehenge, the iconic stone circle on ... Ireland Drombeg Stone Circle in County Cork is ... This was deliberate; the stone ...
p149
sg5
VFive stunning stone circles (besides Stonehenge) | Gadling.com
p150
sa(dp151
g3
VVisit the Stonehenge replica at Maryhill, WA (Photos) Stonehenge - USA; March 28, 2012; By: John Howard; Subscribe; 7 photos View the full slideshow ...
p152
sg5
VVisit the Stonehenge replica at Maryhill, WA - Portland Scenic ...
p153
sa(dp154
g3
VEvery year thousands of tourists flock to Stonehenge, the iconic stone circle on ... Ireland Drombeg Stone Circle in County Cork is ... This was deliberate; the stone ...
p155
sg5
VFive stunning stone circles (besides Stonehenge) | Gadling.com
p156
sa(dp157
g3
VVisit the Stonehenge replica at Maryhill, WA (Photos) Stonehenge - USA; March 28, 2012; By: John Howard; Subscribe; 7 photos View the full slideshow ...
p158
sg5
VVisit the Stonehenge replica at Maryhill, WA - Portland Scenic ...
p159
sa(dp160
g3
VThe Stones At Stonehenge. Stonehenge was not built overnight. ... It is located just inside the entrance of the henge between the Heel Stone and the Stone Circle.
p161
sg5
VWhat Is Stonehenge ? A Layman's Briefing
p162
sa(dp163
g3
VIt is the largest prehistoric stone circle in the ... particularly in medieval times for building or ... the former county town of Wiltshire was also very ...
p164
sg5
V~ Visit Wiltshire - Stonehenge Guide. The great and ancient stone ...
p165
sa(dp166
g3
VSome said Stonehenge was brought to the English county of ... So why was Stonehenge built? ... Stone Age culture, which Pearson says was ...
p167
sg5
VThe mystery of Stonehenge: Solved? - Yahoo! News
p168
sa(dp169
g3
VWhy do you think stone circles like stonehenge were built? 5 years ago; Report Abuse; by Stench ... Stonehenge was built about 2,500 years before the Celts ...
p170
sg5
VWhy do you think stone circles like stonehenge were built? - Yahoo ...
p171
sa(dp172
g3
V... a county in England. Photos by ... the minds of those who built it. What was on the ... we view today. 40km south is Stonehenge \u2013 the most famous stone circle ...
p173
sg5
VWiltshire, England: Standing Stones, Crop Circles, and Visits From ...
p174
sa(dp175
g3
VNo one is really sure who built Stonehenge or why it was built. ... Stone Circles and Alignments - Celtic Wisdom; Summer Solstice 2012; Winter Solstice 2011;
p176
sg5
VStonehenge Monument - Who Built the Stonehenge Monument and Why
p177
sa(dp178
g3
VThis is before the building of ... It is of course an ancient stone circle and it is believed that what is left ... The first 'stonehenge' was a circular ...
p179
sg5
VStonehenge - Photographers Resource
p180
sa(dp181
g3
VStonehenge is built in the shape of concentric circles ... but people took bits of stone from Stonehenge, ... It could be that Stonehenge was built ...
p182
sg5
VStonehenge - ThinkQuest
p183
sa(dp184
g3
V... People embrace by the ancient stone circle of Stonehenge, ... the Stonehenge we know today was built, a larger stone circle was erected at the ...
p185
sg5
VFILE - People embrace by the ancient stone circle of Stonehenge ...
p186
sa(dp187
g3
VWhen and by whom Stonehenge was built (a) ... Most of the stone circles in the South of England face towards the north-east. ... History of Niagara County, ...
p188
sg5
VNephilim Chronicles: Giant Human Skeletons: Stonehenge Facts
p189
sa(dp190
g3
VDespite the large number of both plausible and far fetched theories as to why it was built, the mystery of Stonehenge ... circle. This 35 ton stone is the only ...
p191
sg5
VStonehenge: 2000 BC - Then Again. . .
p192
sa(dp193
g3
VThe stone circles are situated on a henge, ... Subsequent studies have revealed that Stonehenge was built in waves of construction spanning several centuries.
p194
sg5
VStonehenge Facts, information, pictures | Encyclopedia.com ...
p195
sa(dp196
g3
VWiltshire is a county ... "My Greek-American mother-in-law made a comment about Stonehenge having been built at ... Much of Avebury's stone circle ...
p197
sg5
VWiltshire's monuments, mounds and new-age eccentrics | Travel ...
p198
sa(dp199
g3
VStonehenge is a Neolithic and Bronze Age monument located near Amesbury in the English county ... The Stonehenge complex was built in ... Prehistoric Stone Circles ...
p200
sg5
VStonehenge - Academic Kids
p201
sa(dp202
g3
VEach area contains a focal stone circle and henge and many ... Stonehenge, which was built in several distinct ... about 200 km away in Pembroke County, ...
p203
sg5
VStonehenge, Avebury and Associated Sites - UNESCO World Heritage ...
p204
sa(dp205
g3
VThe county of Wiltshire contains the most famous stone circles in the world: Stonehenge ... The latest research has revealed that Stonehenge was built in ...
p206
sg5
VStonehenge World Heritage - YouTube
p207
sa(dp208
g3
VAt Stonehenge, the stone circle enclosure is over 300 feet in diameter, ... Introduction When & Who Built It? How Was It Built? The Area Sounds of Stonehenge.
p209
sg5
VStonehenge - Bradshaw Foundation
p210
sa(dp211
g3
VStonehenge is a megalithic rock monument ... the main portion of it built about 2000 BC. The outside circle of Stonehenge includes 17 ... Stone Circles and ...
p212
sg5
VStonehenge - Megalithic Monument on the Salisbury Plain of England
p213
sa(dp214
g3
VStonehenge is a prehistoric monument located in the English county ... and stone circles, Stonehenge is ... Stonehenge 3 IV was rather shabbily built ...
p215
sg5
VHow was Stonehenge found - The Q&A wiki
p216
sa(dp217
g3
VSome people believe that the people who built Stonehenge, were, as they say, Stone ... These proved that Stonehenge was built in ... balancing in a perfect circle.
p218
sg5
VStonehenge - ThinkQuest
p219
sa(dp220
g3
VArchaeologists had believed that the iconic stone monument was ... mysterious circle of ... and it is almost unquestioned that Stonehenge was built as a ...
p221
sg5
VStonehenge Built - Timelines.com
p222
sa(dp223
g3
VA little later was added inside the circle of sarsens, ... Stonehenge was more ... The alignment also made it clear that whoever built Stonehenge had precise ...
p224
sg5
VSacred Places: Stonehenge - Sweet Briar College
p225
sa(dp226
g3
VStonehenge was built over a long period. ... But we are as far removed from the first stone works at Stonehenge, ... the first and the only raised stone circle known.
p227
sg5
VStonehenge Phase I - Standing Stones - M E g A L i T h i A - Stone ...
p228
sa(dp229
g3
VWho built Stonehenge? ... The heel stone was erected and the 50 Aubrey holes dug. 1750 BC - Second wave of construction. Double circle of bluestones constructed.
p230
sg5
VStonehenge: Facts, Pictures, History, and Stories
p231
sa(dp232
g3
VStonehenge Stone Circle. Stonehenge is a prehistoric monument located in the county of Wiltshire in ... is a Neolithic henge and stone circle built on the ...
p233
sg5
VPhotographs and information re prehistoric stone circles in the UK ...
p234
sa(dp235
g3
VStonehenge was built as a dance arena for prehistoric ... making the stone circle an ideal setting for listening to ... Located in the county of ...
p236
sg5
VStonehenge: One totally awesome rave location - Technology ...
p237
sa(dp238
g3
V... the world's most famous stone circle Stonehenge: ... "For years people have speculated that Stonehenge was built as a complex astronomical observatory.
p239
sg5
VStonehenge builders had geometry skills to rival Pythagoras - Home ...
p240
sa(dp241
g3
VA stonehenge is a giant stone circle composed of a series of ... Whiltshire county England large stones formed in a circle??? Why it was built is a bit of ...
p242
sg5
VWhere is stonehenge,what does it look like,and why was it built ...
p243
sa(dp244
g3
V... Atkinson's view was that Stonehenge was built by what he called ... up the lochs of Scotland to survey the 900 or so other stone circles besides Stonehenge.
p245
sg5
VNOVA | Astronomy at Stonehenge? - PBS: Public Broadcasting Service
p246
sa(dp247
g3
VStonehenge is a prehistoric monument located in the English county of Wiltshire, ... the first stone circle ... Stonehenge was probably finally completed around 1500 BC.
p248
sg5
VStonehenge | - Historical Sites Around the World
p249
sa(dp250
g3
VStone Circle Access ... -- Stonehenge was declared a World Heritage Site in 1986. ... Erected as a memorial to the dead of Klickitat County in W.W.I, ...
p251
sg5
VStonehenge Stone Circle Access
p252
sa(dp253
g3
VStonehenge is in the county of Wiltshire on ... Is it true stone henge was built by ... The monument known as Stonehenge is a prehistoric circle of stones on ...
p254
sg5
VWhere is Stonehenge - The Q&A wiki
p255
sa(dp256
g3
VStonehenge is a prehistoric megalithic monument in county Wiltshire in England. The large stone circle ... The large stone circle is ... Stonehenge was built ...
p257
sg5
VWhat Is Stonehenge - Squidoo : Welcome to Squidoo
p258
sa(dp259
g3
VThe first period of Stonehenge was basically a ... for the second wave of building at Stonehenge. ... Stone was the focal point of two circles of sarsen and ...
p260
sg5
VStonehenge Construction Periods, Phases, and History ...
p261
sa(dp262
g3
VThe reason why Stonehenge was built remains a mystery ... Why Was Stonehenge Built In A Circle? ... Stonehenge is a prehistoric monument in the English county of ...
p263
sg5
VWhy Was the Stonehenge Built? - Ask.com
p264
sa(dp265
g3
VSee photographs of the new Stone Age village discovered near Stonehenge ... one of two timber circles first discovered 40 ... in which Stonehenge was built.
p266
sg5
VStonehenge Builders' Village Found - Daily Nature and Science News ...
p267
sa(dp268
g3
VStonehenge is an iconic circle of standing ... marked by a change from building in wood to building in stone. ... the blue stone circle was probably around 60 ...
p269
sg5
VStonehenge - Coins \u2013 Collector Gold & Silver Coins & Limited ...
p270
sa(dp271
g3
VSituated in the chalky lands of Wiltshire county in ... Stonehenge is the world's only stone circle to contain ... that the first henge was built in ...
p272
sg5
VThe Eternal Mystery of Stonehenge - TimeTravel-Britain.com: Your ...
p273
sa(dp274
g3
V... neither the druids nor the Celts built Stonehenge. Stonehenge was built long before the Celts arrived in ... A thoughtful site on the stone circles of Wessex, ...
p275
sg5
VStonehenge - The Site for Celtic Studies \u2014 Celtic Studies Resources
p276
sa(dp277
g3
VThis stone circle is called Stonehenge . ... It was built by the Normans from timber and later rebuilt in stone. ... next to County Hall, ...
p278
sg5
VFamous Landmarks of England - Woodlands Junior School, Tonbridge ...
p279
sa(dp280
g3
VThe county of Wiltshire contains the most famous stone circles in the world: Stonehenge ... The latest research has revealed that Stonehenge was built in ...
p281
sg5
VStonehenge sunrise - sunset, a World Heritage Site - YouTube
p282
sa(dp283
g3
V... People embrace by the ancient stone circle of Stonehenge, ... before the Stonehenge we know today was built, a larger stone circle was erected at the same ...
p284
sg5
VFILE - People embrace by the ancient stone circle of Stonehenge ...
p285
sa(dp286
g3
VView from the center of Stonehenge towards the Heel Stone, ... Aubrey circle representing the ... the time over which it was built. Map Of Stonehenge. ...
p287
sg5
VStonehenge and the Sun - NUS - Home
p288
sa(dp289
g3
VStonehenge is one of the world's precious prehistoric sites. Standing on Salisbury Plain in England's Wiltshire County, ... stone circle was built on the axis of ...
p290
sg5
VStonehenge and Salisbury, England - Getaway >> Home
p291
sa(dp292
g3
V... the mystery of how and why the stone circle was built. ... They now believe that Stonehenge was initially built as a major healing centre, ...
p293
sg5
VThe secret of Stonehenge - This Britain - UK - The Independent
p294
sa(dp295
g3
VStonehenge Building Inc. 5622 Ambau RD Spring Grove, ... warmth in stone ... This customized pergola was designed especially to make way for a lovely tulip tree to ...
p296
sg5
VStonehenge Building
p297
sa(dp298
g3
V... and how the intriguing rock structure was built. ... They built gateways at Stonehenge. Each stone circle has its gateway, It's entrance ...
p299
sg5
VThe Legend of Stonehenge
p300
sa(dp301
g3
V... long before the creation of the stone circles or even the ... Stonehenge is located in the county of Wiltshire in ... to why and how Stonehenge was built.
p302
sg5
VStonehenge Said to Be Place of Healing - findingDulcinea | Online ...
p303
sa.