(lp1
(dp2
S'description'
p3
VThe 82nd Airborne Division is an ... After the 11 September attacks on the United States, the 82nd's 49th ... the division began reorganizing from a division based ...
p4
sS'title'
p5
V82nd Airborne Division - Wikipedia, the free encyclopedia
p6
sa(dp7
g3
VThe 82nd Airborne Division is an active airborne infantry division of the United States Army specializing in parachute landing operations. Based at Fort Bragg, North ...
p8
sg5
VFort Bragg
p9
sa(dp10
g3
VThe 82nd Airborne Division is an elite, active duty airborne infantry division of the United States Army. ... The 82nd Airborne Division is based at Fort Bragg, ...
p11
sg5
VThe 82nd Airborne Division - Elite magazine for elite warriors!
p12
sa(dp13
g3
VIndian army soldiers with the 99th Mountain Brigade watch a machine gunner with the U.S. Army, 82nd Airborne Division\u2019s 1st ... Hawaii-based 2nd Stryker ...
p14
sg5
VDVIDS - News - Annual India - US training at Bragg this year
p15
sa(dp16
g3
VBased at Fort Bragg, North Carolina, the 82nd Airborne Division is part of the XVIII Airborne Corps. ... /wikipedia/en/United_States_82nd_Airborne_Division; Edit; Delete
p17
sg5
V82nd Airborne Division - Freebase
p18
sa(dp19
g3
VThey left from RAF North Witham having trained there with the 82nd Airborne Division. ... of the division was based around Zell ... establishment of U.S. airborne ...
p20
sg5
V101st Airborne Division - Wikipedia, the free encyclopedia
p21
sa(dp22
g3
VSterling silver U.S. Army 82nd Airborne Division Ring. ... Based at Fort Bragg, North Carolina, the 82nd Airborne Division is the primary fighting arm of the XVIII ...
p23
sg5
V82nd Airborne Division Ring - US Military Marketplace
p24
sa(dp25
g3
VBased at Fort Bragg, North Carolina, the 82nd ... and was redesignated the 82nd Airborne Division. ... The division returned to the United States on 3 ...
p26
sg5
VAirborne: 82nd Airborne Division 1970 US Army "The Big Picture ...
p27
sa(dp28
g3
VThe 82nd Airborne Division is an active airborne infantry division of the United States Army specializing in parachute landing operations. Based at Fort Bragg, North ...
p29
sg5
V82nd Airborne Division Custom Challenge Coin | U.S. DOD COINS
p30
sa(dp31
g3
V... 25th Infantry Division 10th Mountain Division 101st Airborne Division 82nd Airborne ... is a light infantry division in the United States Army based at ...
p32
sg5
V10th mountain division deployment
p33
sa(dp34
g3
VThe 82nd Airborne Division of the United States Army was constituted in the National Army as ... Calif.-based 15th MEU moved forward into Iraq's ...
p35
sg5
VGates Approves 82nd Airborne Division Deployment to Kuwait ...
p36
sa(dp37
g3
V82nd Airborne Division gets new division commander. ... Discover the breathtaking beauty of these U.S. National Parks. The most amazing parks; 20 Expressions.
p38
sg5
V82nd Airborne Division gets new division commander - Wichita ...
p39
sa(dp40
g3
VThe 82nd Airborne Division of the United States Army is a division of airborne infantry. ... It is based in Fort Bragg, North Carolina, ...
p41
sg5
VWhat is the 82nd Airborne Division? - wiseGEEK: clear answers for ...
p42
sa(dp43
g3
V82nd Airborne Division History The 82nd Airborne Division is an airborne infantry division based at ... the United States to war again. The 82nd Infantry ...
p44
sg5
VBrief History of the 82nd Airborne : 82nd LHA
p45
sa(dp46
g3
VThe 82nd Airborne Division Association is for anyone who ever served in the 82nd Airborne Division, ... Steven P. Copening, U.S. Military Marketplace LLC
p47
sg5
VHome of the 82nd Airborne Division Association
p48
sa(dp49
g3
VMembers of the U.S. Army 82nd Airborne Division based out of Fort Bragg, S.C. patrol the streets of the French Quarter. Hector Mata\u2013AFP/Getty Images. Related News.
p50
sg5
VNation & World: The 82nd Airborne\u2014a waiting game - US News and ...
p51
sa(dp52
g3
VThe 82nd Airborne Division of the United States Army is an elite airborne infantry division and was constituted in the National Army as the ... Based at Fort Bragg ...
p53
sg5
V82nd Airborne Division - Conservapedia
p54
sa(dp55
g3
VA U.S. soldier was killed in Saudi Arabia on Thursday in an off-road accident in a Hum ... All were from the 82nd Airborne Division, based in Ft. Bragg, ...
p56
sg5
VFeatured Articles about 82nd Airborne Division - Page 3 - Los ...
p57
sa(dp58
g3
VThe 82nd Airborne Division is the largest formation of the United States Army that is ... It is based at Fort Bragg in ... The division returned to the U.S. on 3 ...
p59
sg5
V82nd Airborne Division - encyclopedia article - Citizendium
p60
sa(dp61
g3
VThe 82nd Airborne Division is an active airborne infantry division of the United States Army specializing in parachute landing operations. Based at Fort Bragg, North ...
p62
sg5
VAbout: 82nd Airborne Division
p63
sa(dp64
g3
VOccupy Wall Street and the U.S. Army's 82nd Airborne Division: ... domestic intelligence program that collected information on U.S. persons based purely on their ...
p65
sg5
VOccupy Wall Street and the U.S. Army's 82nd Airborne Division: A ...
p66
sa(dp67
g3
V... the 82nd Airborne Division re-assumed ... U.S. Forces Afghanistan and the Afghan government ... The 101st Airborne Division, based out of ...
p68
sg5
V82nd Airborne assumes command in eastern Afghanistan | Article ...
p69
sa(dp70
g3
VThis electronic book on CD-ROM contains information and material about the U.S. Army 82nd Airborne Division at Fort Bragg. The 82nd Airborne Division, based at Fort ...
p71
sg5
V21st Century U.S. Military: U.S. Army 82nd Airborne Division at ...
p72
sa(dp73
g3
VThe mission of the 82nd Airborne Division ... conduct forcible entry parachute assault and secure key objectives for follow-on military operations in support of U.S ...
p74
sg5
V82nd Airborne Division - GlobalSecurity.org - Reliable Security ...
p75
sa(dp76
g3
VNC-based 82nd Airborne headquarters ... N.C. -- The 82nd Airborne Division headquarters will deploy in the spring ... The U.S. has about 38,000 troops in Afghanistan ...
p77
sg5
VNC-based 82nd Airborne headquarters to Afghanistan
p78
sa(dp79
g3
VThe 82nd Airborne Division was recognized as a liberating unit by the US Army's Center of Military History and the United States Holocaust Memorial Museum in 1991.
p80
sg5
VThe 82nd Airborne Division - United States Holocaust Memorial Museum
p81
sa(dp82
g3
VBased at Fort Bragg, North Carolina, the 82nd Airborne ... the 82nd Airborne Division was now ... XVIII Airborne Corps, which consisted of the U.S ...
p83
sg5
V82nd Airborne Division in World War II pt2-2 1948 US Army - YouTube
p84
sa(dp85
g3
V... in effect when the United States entered the war against Germany, was based upon the National Defense Act of 1916. ... The 82nd Airborne Division was no exception.
p86
sg5
VHistory for 82nd Airborne Division - Military and Veteran Benefits ...
p87
sa(dp88
g3
VThe 82nd Airborne Division during World War II. ... the Division took wings as The 82nd Airborne - becoming the U.S. Army's first airborne division ...
p89
sg5
V82nd Airborne Division During WW II - Overview
p90
sa(dp91
g3
VTHE 82ND AIRBORNE DIVISION \u201cALL AMERICANS\u201d ... Since the return of the 82nd to the United States on Jan. 3, 1946, the division has gone through
p92
sg5
VTHE 82ND AIRBORNE DIVISION - South Central Library System
p93
sa(dp94
g3
VCreation of the 82nd Airborne division. Initially ... the U.S. military creates for the ... Brigadier General Matthew Ridgway and it is based at ...
p95
sg5
VHistorical account of the 82nd Airborne division
p96
sa(dp97
g3
V82nd Airborne Division, ... AMERICAN AND PACIFIC ISLANDER HERITAGE MONTH IN THE U.S. ARMED ... Based at Fort Bragg, N.C., the 82nd Airborne Division is the ...
p98
sg5
V82nd Airborne Division | Facebook
p99
sa(dp100
g3
VFeatured 82nd Airborne Division News. ... of Sutherlin, Ore.; U.S. Navy, based on USS Rentz. Died Nov. 28 in Port Jebel Ali, United Arab Emirates, ...
p101
sg5
VFeatured Articles about 82nd Airborne Division - Page 2 ...
p102
sa(dp103
g3
VBased at Fort Bragg, North Carolina, the 82nd Airborne Division is the primary fighting arm of the ... U.S. Army 82nd Airborne Division Challenge Coin. ...
p104
sg5
V82nd airborne division patch Collectibles | Bizrate
p105
sa(dp106
g3
V... the 82nd Airborne Division\u2019s entire 2nd Brigade Combat Team ... on tap as the U.S. global response ... based on what\u2019s in the theater,\u201d he said. \u201cBut ...
p107
sg5
VDefense.gov News Article: 82nd Airborne Soldiers Begin Haiti ...
p108
sa(dp109
g3
V... which then consisted of the 82nd Airborne Division and the 101st Airborne ... all airborne units in the U.S. Army fell ... being division-based to brigade-based.
p110
sg5
VXVIII Airborne Corps (United States) - Wikipedia, the free ...
p111
sa(dp112
g3
VParatrooper of 82nd Airborne Division, United States Army. 6:57 PM MJ Qamar No comments. ... It is based at Fort Bragg, North Carolina.
p113
sg5
VParatrooper of 82nd Airborne Division, United States Army ~ Global ...
p114
sa(dp115
g3
VHistories for 82nd Airborne Division ... signals intelligence, including ground and air based ... is also one of the most diverse units in the United States ...
p116
sg5
VHistory for 82nd Airborne Division - Military and Veteran Benefits ...
p117
sa(dp118
g3
V10 Grams .999 Fine Silver Bar / U.S Army 82nd Airborne Division SB089 in Coins & Paper Money, Bullion, Silver | eBay
p119
sg5
V10 grams 999 Fine Silver Bar U s Army 82nd Airborne Division SB089 ...
p120
sa(dp121
g3
VPosts about 82nd Airborne Division written by ... Mont.; assigned to 2nd Battalion, 3rd Field Artillery Regiment, 1st Armored Division, U.S. Army Reserve, based in ...
p122
sg5
V82nd Airborne Division | The Communicator
p123
sa(dp124
g3
V"All American" (Updated 6-15-08) The 82nd Airborne Division is an elite parachute nit of the U.S. Army whose home base is at Ft Bragg, North Carolina.
p125
sg5
VHistory of the 82nd Airborne | All American
p126
sa(dp127
g3
VThe offical web site of the U.S. Army Bands Program. ... 82ND AIRBORNE DIVISION BAND FORT BRAGG, NORTH CAROLINA - ACTIVE ARMY. Home; News; Performances; Leaders;
p128
sg5
V82ND AIRBORNE DIVISION BAND - Contact Us - U.S. Army Bands
p129
sa(dp130
g3
V... 82nd Infantry Division / 82nd Airborne Division ... of the U.S. 17th, 82nd, and 101st Airborne ... reorganizing from a division based organization to a ...
p131
sg5
V82nd Infantry Division / 82nd Airborne Division - INFANTRY - U.S ...
p132
sa(dp133
g3
VThe 82nd Airborne Division is an active airborne infantry division of the United States Army ... based at Fort Bragg that ... 82nd Airborne Division chorus ...
p134
sg5
VWhat is 82ND AIRBORNE CHORUS?
p135
sa(dp136
g3
V... 82nd Airborne Division, based out of Fort Bragg, North Carolina. ... in the Amarah operation with U.S. forces as kind of a supporting and overwatch.
p137
sg5
VCommander, 1st Brigade, 82nd Airborne Division Col. Charles Flynn
p138
sa(dp139
g3
VFormer 82nd Airborne Division soldier (782nd/DISCOM 1988-92) Fought in Iraq during Operation Desert Storm (1990-91)
p140
sg5
VThe Surge, Iraq 2008 Filmed by the paratroopers of the 82nd ...
p141
sa(dp142
g3
V... which consisted of the U.S. 17th, 82nd, and 101st Airborne Divisions. ... A Division based in Fort Bragg. 5 years ago; Report Abuse; by jaime Member since:
p143
sg5
VWhat is the 82nd Airborne? - Yahoo! Answers
p144
sa(dp145
g3
VHe was an U.S. Army veteran, 82nd Airborne Division. He is survived by three sons and a daughter-in-law, Arthur and Laura Grenier III of Wethersfield, ...
p146
sg5
VArticles about 82nd Airborne Division - Hartford Courant
p147
sa(dp148
g3
V82nd Airborne is based out of Fort ... The 82nd Airborne Division of the United States Army is an elite modular airborne infantry division and was ...
p149
sg5
VWhat is the difference between the 101st and the 82nd airborne ...
p150
sa(dp151
g3
V82nd Airborne 101st Airborne 173rd Airborne ... Task Force 1st Armored Division was the largest division-based task force in U.S. Army history. Units serving ...
p152
sg5
VHistory of the 1st Armored Division | Old Ironsides
p153
sa(dp154
g3
VReports that the 82nd Airborne Division of the U.S. Army has captured known or suspected ... imide salts and ionic liquids based on 1,8-diazabicyclo[5.4.0]undec ...
p155
sg5
VCitations with the tag: UNITED States. Army. Airborne Division, 82nd
p156
sa(dp157
g3
VThe 504th P.I.R. (U.S. 82nd Airborne Division), in Evington during the war. I was born in Leicester in March 1939, and obviously my early memories are hazy.
p158
sg5
VWartime Leicestershire: The U.S. 82nd Airborne Division in Evington
p159
sa(dp160
g3
V... all airborne units in the U.S. Army fell under the ... The 82nd Airborne Division was to ... plan to go from being division-based to a brigade-based.
p161
sg5
VXVIII Corps / XVIII Airborne Corps - ARMY CORPS - U.S. Militaria Forum
p162
sa(dp163
g3
V... the free encyclopedia 82nd Airborne Division (United States) ... the division began reorganizing from a division based organization to a brigade based one.
p164
sg5
VU.S._82nd_Airborne_Division - Docstoc \u2013 We Make Every Small ...
p165
sa(dp166
g3
VThe 82nd Airborne Division is an airborne infantry division based at Fort Bragg North ... U.S. Army Issue 82nd Airborne Division "All American" Infrared Glow Unit ...
p167
sg5
VUS Army ACU Uniform 82nd "All American" Airborne Division Unit Patch
p168
sa(dp169
g3
VAn Air Force C-130H Hercules was dedicated to the Soldiers of the Army's 82nd Airborne Division ... 82nd Airborne Division based in ... of U.S. Air Forces Central ...
p170
sg5
VAir Force C-130 dedicated to Army's 82nd Airborne in Afghanistan
p171
sa(dp172
g3
VUnited States Army 82nd Airborne Division Liaison Pilot's Type M1944 "Ike" Coat: green/chocolate olive drab wool waist length jacket; ...
p173
sg5
VTunic, Type M1944, Liaison Pilot, 82nd Airborne Division, United ...
p174
sa(dp175
g3
VArmyStudyGuide.com provide extensive information about 82nd Airborne Division (ArmyStudyGuide.com) Like Us ... The 82nd returned to the United States January ...
p176
sg5
V82nd Airborne Division (ArmyStudyGuide.com)
p177
sa(dp178
g3
VThat's what gives Vern Gregory satisfaction as chairman of the Ottawa-based 82nd Airborne Division ... were members of the U.S. Army's 82nd Airborne Division.
p179
sg5
V82nd Airborne Division Association John Steele Chapter bases ...
p180
sa(dp181
g3
VThe way we are organized for most games is classic United States Army rank and ... and earn promotions based on time in ... United Sim Army 82nd Airborne Division
p182
sg5
VWelcome to the 82nd Airborne Division of United Sim Army Teams
p183
sa(dp184
g3
VNextag cannot be held liable for any actions taken based on the information provided and Nextag ... A Major in the U.S. Army\u2019s 82nd Airborne Division contacted ...
p185
sg5
V82nd Airborne Division - Compare Prices, Reviews and Buy at Nextag
p186
sa(dp187
g3
V... on Amazon.com. *FREE* super saver shipping on qualifying offers. The 82nd Airborne Division ... and the U.S . occupation of ... is based on all firsthand ...
p188
sg5
VAll American, All the Way: The Combat History of the 82nd Airborne ...
p189
sa(dp190
g3
VThe offical web site of the U.S. Army Bands Program. ... 82ND AIRBORNE DIVISION BAND ALL-AMERICAN BAND: ALL-AMERICAN REVIEW PIKE FIELD FORT BRAGG, NC: 12:30 p.m.
p191
sg5
V82ND AIRBORNE DIVISION BAND - Performances - U.S. Army Bands
p192
sa(dp193
g3
VAbeBooks.com: Ready", The History of the 505th Parachute Infantry Regiment, 82nd Airborne Division, World ... VA, U.S.A. AbeBooks Bookseller Since ... Home based ...
p194
sg5
VReady", The History of the 505th Parachute Infantry Regiment, 82nd ...
p195
sa(dp196
g3
VThe 82nd Airborne Division is an active duty airborne infantry division of the United States Army. ... Based at Fort Bragg, ... About the 82nd Airborne Division ...
p197
sg5
VThe 82nd Airborne Monument | ArtSWFL.com - SWFL Art in the News ...
p198
sa(dp199
g3
Vof the 82nd Airborne Division, United States Army, who were assigned or attached to and honorably ... based on nonpayment of dues or assessment, or on any reason which
p200
sg5
VND 82 AIRBORNE DIVISION ASSOCIATION, INC.
p201
sa(dp202
g3
VDelivery time is estimated using our proprietary method which is based on ... U.S. ARMY 82ND AIRBORNE ... Tanks and Infantrymen of the 82nd Airborne Division ...
p203
sg5
VArmy 82nd Airborne Division Battle of The Bulge | eBay
p204
sa(dp205
g3
VThe 82 nd Airborne Division of the United States Army is an ... the division began reorganizing from a division based ... U.S. Army, 82nd Airborne Division ...
p206
sg5
VMap of 82nd Airborne Division (United States) - The Full Wiki
p207
sa(dp208
g3
VWear it proudly! Get customized gear and clothing for the United States Army, 82nd Airborne Division at an exclusive discount through Military.com.
p209
sg5
VUnited States Army, 82nd Airborne Division - Unit Pages
p210
sa(dp211
g3
VLeadership Failure Firsthand Accounts of Torture of Iraqi Detainees by the U.S. Army's 82nd Airborne Division I. Summary
p212
sg5
VLeadership Failure | Human Rights Watch
p213
sa(dp214
g3
V... the new commander of the 1st U.S. Army based at Fort Meade told troops ... home more than 4,000 troops of the 82nd Airborne Division tomorrow in a ...
p215
sg5
VArticles about 82nd Airborne by Date - Page 3 - Baltimore Sun
p216
sa(dp217
g3
VThe U.S. Army Center of Military History ... The famous 82nd Airborne followed a similar pattern. ... The army is restructuring itself from a division based force ...
p218
sg5
VHistory News Network
p219
sa(dp220
g3
VA Major in the U.S. Army\u2019s 82nd Airborne Division contacted ... Nextag cannot be held liable for any actions taken based on the information provided and ...
p221
sg5
V82ND Airborne For - Compare Prices, Reviews and Buy at Nextag
p222
sa(dp223
g3
V2nd Brigade Combat Team, 82nd Airborne Division Public Affairs Hometown: Fort Bragg, NC, US. ... 82nd Airborne Division, drops from a U.S. Air Force C-17 ...
p224
sg5
VDVIDS - 2nd Brigade Combat Team, 82nd Airborne Division Public Affairs
p225
sa(dp226
g3
V82nd Airborne division: Mediterranean & European: 101st Airborne division: European: View the U.S. Army Divisions in World War II Print. Browse by category All Prints
p227
sg5
VU.S. Army Divisions of World War II List of Airborne Divisions
p228
sa(dp229
g3
VADVANCED AIRBORNE SCHOOL 82ND AIRBORNE DIVISION ... The United States Army Advanced Airborne School is ... based upon ABN CDR\u2019S risk analysis of the obstacle ...
p230
sg5
VTHE UNITED STATES ARMY ADVANCED AIRBORNE SCHOOL 82ND AIRBORNE DIVISION
p231
sa(dp232
g3
VThis page is dedicated to the men and women of the 82nd Airborne Division. ... 25,000 airborne troops, U.S., ... is an airborne infantry division based at ...
p233
sg5
V82nd Airborne Division Tribute Page - The Blade Girl Cool Hand Cutlery
p234
sa(dp235
g3
VThe 82nd Airborne Division Headquarters was relieved by the 1st Marine Expeditionary Division in ... The United States Army. www.army.mil. Medal of Honor - Chaplain ...
p236
sg5
V82nd Airborne Division | Facebook
p237
sa(dp238
g3
VTo decree that the Divisional Colours of the 82nd Airborne Division of the United States army shall be decorated with the "MILITAIRE WILLEMS ORDE", ...
p239
sg5
V82nd Airborne Division During WW II - Citations
p240
sa(dp241
g3
V82nd Airborne USAT United Sim Army Teams ... Due: 1st Information & History Recent Donors: 82nd_G2_SPC=K.Shell Mar 31, 2013
p242
sg5
VWelcome to the 82nd Airborne Division of United Sim Army Teams
p243
sa(dp244
g3
VThe 82nd Airborne is ... New York-based Human Rights ... The 82nd Airborne is one of the most storied units in the U.S. military. The division has a record ...
p245
sg5
VWarcrimes of 82nd Airborne Division : 'the Murderous Maniacs'
p246
sa(dp247
g3
VRank given is based on a number of ... The 11th Airborne Division was a United States Army ... the disappointing performance of the 82nd Airborne Division during ...
p248
sg5
VHome - 11th Airborne Division
p249
sa(dp250
g3
VThe 82nd Airborne Division - United States Holocaust ... 82nd Airborne Division History The 82nd Airborne Division is an airborne infantry division based at Fort ...
p251
sg5
VWhat is UNITS OF THE 82ND AIRBORNE?
p252
sa(dp253
g3
V101st Airborne Division ... 164th Infantry Brigade and 82nd Infantry Division, since Sept. 17, 1917, based in Ft. Gordon, ... along with those of the U.S. State ...
p254
sg5
V1st BCT Home Page
p255
sa(dp256
g3
V82nd Airborne Division, U.S. Army Divisions of World War II. Name: 82nd: Type: Airborne: Nickname: All American: Source: Regular Army: Theater: Mediterranean ...
p257
sg5
VU.S. Army Divisions of World War II: 82nd Airborne Division ...
p258
sa(dp259
g3
VHome> Search> United States> Units> 82nd Airborne Division . ... The 82nd Airborne Division Association is for anyone who ever served in the 82nd Airborne ...
p260
sg5
V82nd Airborne Division - Allied WW2 Casualties in The Netherlands ...
p261
sa(dp262
g3
VThe 82nd Airborne Division of the United States Army was formed originally as the 82nd Infantry Division on August 25, 1917, at Camp Gordon, Georgia.
p263
sg5
V82nd Airborne Division
p264
sa(dp265
g3
VBUY A UNITED STATES SAVINGS ... The 82nd Airborne Division's official ... to avoid confusion of our organization with other living history groups based on the 505th ...
p266
sg5
VThe 505th PIR Living History Group Homepage AHA Home of the "Panthers"
p267
sa(dp268
g3
VThe army is restructuring itself from a division based ... Cavalry Division. In the 1930's the United States ... 82nd Airborne Division never included ...
p269
sg5
VWhy Do We Hear About the 82nd and 101st Airborne Divisions? Where ...
p270
sa(dp271
g3
VThe jump schedule varies greatly based on class ... Soldiers of the U.S. Army's 82nd Airborne Division stream out from two U.S. Air Force C-17 Globemasters ...
p272
sg5
VArmy Airborne School, Ft. Benning, GA - Baseops.net Flight ...
p273
sa(dp274
g3
VThe parent headquarters of the 82nd Airborne Division and the United States Army's ... requirement to project power from a sea-based platform.
p275
sg5
V82ND AIRBORNE DIVISION 2010 - THE RIGHT FORCE STRUCTURE FOR THE ...
p276
sa(dp277
g3
V... 1st Brigade Combat Team, 82nd Airborne Division leave Combat Outpost Giro, Ghazni ... Kemp is based on Forward Operating Base ... U.S. Army Sgt . Brandon Ingram ...
p278
sg5
VThe United States Army - Thread - Page 101 - Military photos . net
p279
sa(dp280
g3
VGerman POW's captured by the U.S. 82nd Airborne division in Belgium. ... Soldiers of the U.S. Army's 82nd Airborne float to the ground at Normandy drop zone on Fort ...
p281
sg5
V82nd Airborne Division - Wikimedia Commons
p282
sa(dp283
g3
V82nd Airborne Division Dispatched To ... the command of Major General Curtis M. Scaparrotti based in ... In announcing the U.S. response to Haiti's ...
p284
sg5
V82nd Airborne Division Dispatched To Haiti To Provide Security ...
p285
sa(dp286
g3
VThe 82nd Airborne Division is an airborne infantry division based at Fort Bragg, ... special forces, united states military, lrrp, veterans, airborne, photo, ...
p287
sg5
V82nd Airborne Division iPhone 4 Case from Zazzle.com
p288
sa(dp289
g3
VA Ft. Bragg paratrooper who says he left his Army barracks last summer because he was disillusioned with U.S ... 82nd Airborne Division, based ...
p290
sg5
VArticles about 82nd Airborne Division - Page 2 - Chicago Tribune
p291
sa(dp292
g3
VOfficials at Fort Bragg announced Tuesday 82nd Airborne Division ... attended Basic Combat Training and U.S. Army Airborne School at ... Interest-Based Ads;
p293
sg5
V82nd Airborne Division Paratrooper dies in barracks | 7online.com
p294
sa(dp295
g3
VHe was a U.S. Army Ranger serving with the 82nd Airborne. ... the assistant district commander with the 82nd Airborne Division based at Fort Bragg, N.C., ...
p296
sg5
V1-505 by 3rd Brigade, 82nd Airborne Division on Myspace
p297
sa(dp298
g3
V82nd Airborne Division Paratrooper dies in barracks. ... attended Basic Combat Training and U.S. Army Airborne School at Fort Benning, ... Interest-Based Ads;
p299
sg5
V82nd Airborne Division Paratrooper dies in barracks | abc11.com
p300
sa(dp301
g3
VUnited States Army Airborne soldiers ... My decision to attack at this time and place was based ... Elite paratroopers with the 82nd Airborne Division march ...
p302
sg5
VAIRBORNE ALL THE WAY -- WW2 History Guide Normandy D-Day June 1944 ...
p303
sa.