(lp1
(dp2
S'description'
p3
V... Prince Edward and ... And where did they cozy up at the ... The honeymoon of the ill-fated marriage between Prince Charles and Princess Diana was ...
p4
sS'title'
p5
VRoyal Honeymoons - British Prince Royal Honeymoons
p6
sa(dp7
g3
V... young Macaulay Culkin needed his mom's permission to get a marriage license, ... that got Prince Edward to the ... a pal of Edward's. "They're busy ...
p8
sg5
VEdward & Sophie - Weddings, The British Royals, Prince Edward ...
p9
sa(dp10
g3
V... such a marriage would have conflicted with Edward's status as ... they were brought back to Britain by Louis ... Letters From a Prince: Edward to Mrs Freda ...
p11
sg5
VEdward VIII - Wikipedia, the free encyclopedia
p12
sa(dp13
g3
VMichelle Obama has beaten hundreds of adoring women to get closest to Prince Harry after Britain's most ... they swiftly found ... ride on honeymoon in ...
p14
sg5
VHello ladies! Britain's most eligible bachelor Prince Harry ...
p15
sa(dp16
g3
VThe news that Britain's Prince William and ... They were married at ... Did the Duchess of Cambridge conceive while on Asia Pacific 'second honeymoon ...
p17
sg5
VDid the Duchess of Cambridge conceive while on Asia Pacific ...
p18
sa(dp19
g3
V... they established The Prince William and Miss ... The British government tourist authority ... the wording "To celebrate the marriage of Prince William of ...
p20
sg5
VWedding of Prince William and Catherine Middleton - Wikipedia, the ...
p21
sa(dp22
g3
VInformation about The Queens marriage to Prince Philip. ... They spent their honeymoon at ... Prince Edward, in 1964. Prince Andrew and Prince Edward were the first ...
p23
sg5
VMarriage and Family
p24
sa(dp25
g3
VEyes on honeymoon after British ... Britain's Prince William and his ... the pressure they will face as the future British king and queen ...
p26
sg5
VEyes on honeymoon after British royal wedding joy | Reuters
p27
sa(dp28
g3
VBRITAIN-ROYALS-MARRIAGE. ... reportedly not even told his new wife where they are going on honeymoon, ... princess Beatrice and Eugenie and Prince Edward.
p29
sg5
VPrince William declares Kate Middleton his 'rock', keeps honeymoon ...
p30
sa(dp31
g3
VThis past Tuesday, April 24th, marked the 27th anniversary of the death of the most scandalous woman to ever marry into the British Royal family, American-born Wallis ...
p32
sg5
V27th Anniversary of Britain's most scandalous woman's death ...
p33
sa(dp34
g3
VThey originally planned ... It was not the first time a royal couple has chosen to honeymoon at Balmoral. The Prince and the ... Edward and Sophie begin married ...
p35
sg5
VHoneymoon over for Edward and Sophie - BBC - Homepage
p36
sa(dp37
g3
V... King Edward was willing to give up the British throne - and he did. Education; ... Prince Edward's Struggle ... hat would my Navy friends say if they saw me in ...
p38
sg5
VKing Edward VIII Abdicated to Marry Mrs. Wallis Simpson
p39
sa(dp40
g3
VGreat Britain. Prince Edward. ... Prince Edward, Earl of Wessex ... and they were married at St George\u2019s Chapel, Windsor Castle, ...
p41
sg5
VPrince Edward - British Royal Family History
p42
sa(dp43
g3
VHow they met Prince Charles first met ... of their honeymoon. With a 'just married' sign attached to the landau by the groom's younger brothers Andrew and Edward, ...
p44
sg5
VIconic weddings: Prince Charles and Lady Diana Spencer ...
p45
sa(dp46
g3
VThe couple have reportedly drawn up a shortlist of British honeymoon destinations ... When she married Prince Edward, ... Can't they just paint her as she really is ...
p47
sg5
VRoyal wedding: Prince William and Kate Middleton planning Scilly ...
p48
sa(dp49
g3
VPrince Edward was best man to his 26-year-old ... in her 1981 marriage to Prince Charles. After they had signed the register the ... appearances on British and ...
p50
sg5
VBBC ON THIS DAY | 23 | 1986: Prince Andrew weds Sarah Ferguson
p51
sa(dp52
g3
VPrince William & Kate Middleton are said to make Birkhall ... Scotland -- their home after they get married. Home; About; ... Prince Edward & Sophie; Princess Anne ...
p53
sg5
VWilliam & Kate to Live in Birkhall after Marriage | British Royals
p54
sa(dp55
g3
VQueen Elizabeth is the first British monarch to ... First Marriage: Yes. Did You Know? Prince Philip is ... 1999, Edward married Sophie Rhys-Jones. They have a ...
p56
sg5
VQueen Elizabeth II and Prince Philip - Marriage -- Free Advice and ...
p57
sa(dp58
g3
VTheir Suggested Morganatic marriage proposal is refused by Parliament ... In planning their honeymoon, they decide to go where ... Edward, Prince of ...
p59
sg5
VWallis and Edward Story.htm
p60
sa(dp61
g3
V"A friend and I have questioned for some time why the only child of Prince Edward is ... We read British ... when her parents married, they decided that ...
p62
sg5
VLiving in England: Prince Edward's Daughter
p63
sa(dp64
g3
V... Britain's newly married Prince ... have left the island nation of the Seychelles after a 10-day honeymoon, officials said Saturday. "They left ...
p65
sg5
VPrince William & Kate Middleton End Seychelles Honeymoon
p66
sa(dp67
g3
V... British Prince William and Catherine, ... are expecting their first child after 19 months of marriage. | Prince William, ... if they were to have a royal baby ...
p68
sg5
VPrince William, Kate to name baby after Diana? - Rediff.com News
p69
sa(dp70
g3
V\u2014from the 1940 film They ... the newly titled Duke of York and fourth in line to the British throne, married ... Prince Edward, Andrew's ...
p71
sg5
VThe Royal Wedding - Weddings, The British Royals, Prince Andrew ...
p72
sa(dp73
g3
V... that between Prince Albert Edward ... He is said to be one of Britain's ... * Queen Victoria set two crucial royal wedding dress trends when she married Prince ...
p74
sg5
VThe Royal Wedding: Trees, tiaras and trestle tables - This Britain ...
p75
sa(dp76
g3
V... Prince Albert, and they had nine children. A. ... a British photographer. Their marriage dissolved in ... Whom did he marry? Edward married Sophie Rhys ...
p77
sg5
VMake a Royal Match: Match the royal brides and grooms to make the ...
p78
sa(dp79
g3
VAndrew and Sarah's marriage was watched by British royals ... How they met Prince Andrew and his ... was supported by brother Prince Edward, and Prince ...
p80
sg5
VIconic weddings: Prince Andrew and Sarah Ferguson - hellomagazine.com
p81
sa(dp82
g3
VPRINCE EDWARD OF WINDSOR AND ... Prince Edward is the youngest son of Britain's Queen Elizabeth. He married Sophie Rhys-Jones ... They also have another very ...
p83
sg5
VPrince Edward and Sophie Rhys-Jones marriage
p84
sa(dp85
g3
V... Britain's Prince William and ... What type of honeymoon do ... so they're both considerably older than Diana was when she got married, and they don ...
p86
sg5
VPrince William and Kate Middleton engagement
p87
sa(dp88
g3
VBritain's royalty and nobility ... Prince Edward did become King Edward VIII ... then-husband was named Earl of Snowdon at their marriage in 1960. They have been ...
p89
sg5
VWho are the Duke of York, Duke of Kent, etc., and how did they get ...
p90
sa(dp91
g3
VThey'll arrive June 30 and tour Alberta, Prince Edward Island, ... Canada is a member of the British Commonwealth of former colonies, ...
p92
sg5
VPrince William and Kate to 'honeymoon' in Canada ...
p93
sa(dp94
g3
VThey married in 1947, ... Prince Edward and Sophie Rhys-Jones, ... britain; royal family; royal wedding; house of windsor; prince charles;
p95
sg5
VRoyal Wedding - The Royal Marriages - How Royal Marriages Have Fared
p96
sa(dp97
g3
V(Golf fans probably know St Andrew's better as one of the locations used for the British ... did not get married in ... Prince William & Kate's Honeymoon ...
p98
sg5
VPrince William's Wedding - Squidoo : Welcome to Squidoo
p99
sa(dp100
g3
VIt's been two years since Prince William married Catherine ... of the Princess exercising to the British tabloid ... of their privacy than they did as ...
p101
sg5
VThe honeymoon's over. Now what? | Column | Opinion | The Kingston ...
p102
sa(dp103
g3
VBRITAIN\u2019S Prince William will marry longtime love Kate Middleton in ... better when they are married ... togeather and I\u2019m still waiting for a honeymoon.
p104
sg5
VPRINCE WILLIAM AND KATE MIDDLETON\u2019S WEDDING TO COST THE BRITISH ...
p105
sa(dp106
g3
V... one title by the monarch when they are married. ... of York when he married while Prince Edward became ... British tourists' complaint ...
p107
sg5
VRoyal wedding: Prince William and Kate Middleton become Duke and ...
p108
sa(dp109
g3
VPrince Albert Frederick Arthur ... Both George and his elder brother Edward did not spend much ... the couple married on 26th April 1923. They spent the first part ...
p110
sg5
VGeorge VI - British history and tourist information
p111
sa(dp112
g3
VYet, for some reason, Prince Edward preferred married women ... After their marriage, they settled ... the glamor and power of being close to the heir of Britain's ...
p113
sg5
VKing Edward VIII Abdicated for Love - Page 2 - 20th Century History
p114
sa(dp115
g3
V... Countess of Wessex, is the wife of Prince Edward, ... and Sophie Rhys-Jones became the Countess of Wessex when they were married. ... The British Monarchy.
p116
sg5
VBritish Royal Family \u2013 Sophie, The Countess of Wessex | Suite101
p117
sa(dp118
g3
VThey enjoyed their honeymoon at ... This really was an incredibly accurate prophecy because Prince Philip did not propose marriage to ... So ended Britain's ...
p119
sg5
VGerman ancestry, Sexual perversion in the royal family, Prince ...
p120
sa(dp121
g3
VMichael Cole reports from Westminster Abbey as Prince Andrew marries Sarah Ferguson. ... with Prince Edward as the supporter ... They divorced in 1996, ...
p122
sg5
VBBC - History - Prince Andrew's wedding (pictures, video, facts ...
p123
sa(dp124
g3
VPrince Edward Island; ... Brooke Burke & David Charvet waited a month after they got married to do it all over ... Destination Weddings Honeymoon packages ...
p125
sg5
VRenew your Vows - Destination Weddings Honeymoon packages and planning
p126
sa(dp127
g3
VBuckingham Palace cleared its calendar for the long-awaited marriage of Prince William and long-time ... and the future of Britain's ... The Royal honeymoon.
p128
sg5
VPrince William, Kate Middleton, Baby News, Biography, Quotes
p129
sa(dp130
g3
VWhen did the last British King ... Edward VIII married Wallis Simpson ... Why are Prince Andrew's daughters princesses when Prince Edward's daughter is ...
p131
sg5
VBritish Royal Family History - Frequently Asked Questions
p132
sa(dp133
g3
VWhy did they change their name? ... Prince Edward, ... Younger sons of the monarch are normally given dukedoms at the time of their marriage. However, given the ...
p134
sg5
VMembers of Royal Family
p135
sa(dp136
g3
V... the rarely photographed daughter of Prince Edward ... honeymoon. It's thought likely that they ... Britain for a generation, Prince ...
p137
sg5
VRoyal wedding live - Telegraph - Telegraph.co.uk - Telegraph ...
p138
sa(dp139
g3
VWhich Prince Edward is Prince Edward ... Mountbatten when he adopted British citizenship prior to his marriage. ... Philip receive when they married in 1947 ...
p140
sg5
VHow well do you know the Royal Family? A regal quiz | Arts ...
p141
sa(dp142
g3
VThe marriage of Edward VIII and Wallis Warfield ... the Prince and Wallis took a ... They divorced on April 27, 1937. The British government released documents ...
p143
sg5
VThe Duke of Windsor and Wallis Warfield Simpson -- The Marriage of ...
p144
sa(dp145
g3
VSo it's not as if they could just get married under a tent in the Middleton ... and that of Prince Edward and Sophie Rhys-Jones ... The Honeymoon: Top bet ...
p146
sg5
VYvonne Yorke: William and Kate's Royal Wedding -- What to Expect
p147
sa(dp148
g3
V... Edward, the Prince of Wales, and her father ... romantic relationship was Prince Philip of Greece. They had met during a royal ... the honeymoon to ...
p149
sg5
VQueen Elizabeth II: Duty Comes First
p150
sa(dp151
g3
VThe couple delayed their honeymoon. ... Britain's Prince William ... Michael and Carole Middleton smile and wave at the crowds following the marriage of Prince ...
p152
sg5
VKate Middleton and Prince William celebrate two year anniversary ...
p153
sa(dp154
g3
V... who married Middleton on Friday in an ... They will go on a honeymoon to an undisclosed ... The palace has not revealed where in Britain they have gone for ...
p155
sg5
VPrince William, Kate Middleton to delay honeymoon - NYPOST.com
p156
sa(dp157
g3
VThe latest on the Royal Couple Prince William and Catherine \u201cKate ... Britain's most eligible bachelor arrives in the US (by ... Prince Edward & Sophie; Princess ...
p158
sg5
VPrince William & Catherine | British Royals
p159
sa(dp160
g3
V... the rarely photographed daughter of Prince Edward ... honeymoon. It's thought likely that they ... Britain for a generation, Prince ...
p161
sg5
VRoyal wedding live - Telegraph - Telegraph.co.uk - Telegraph ...
p162
sa(dp163
g3
V... Countess of Wessex, is the wife of Prince Edward, ... and Sophie Rhys-Jones became the Countess of Wessex when they were married. ... The British Monarchy.
p164
sg5
VBritish Royal Family \u2013 Sophie, The Countess of Wessex | Suite101
p165
sa(dp166
g3
VThey enjoyed their honeymoon at ... This really was an incredibly accurate prophecy because Prince Philip did not propose marriage to ... So ended Britain's ...
p167
sg5
VGerman ancestry, Sexual perversion in the royal family, Prince ...
p168
sa(dp169
g3
V... only Prince Edward is still in his first marriage. ... and they had a church service after. ... British law recognizes only those offspring from Anglican ...
p170
sg5
VPostPartisan - Prince William, Kate Middleton and 'obsolete' marriage
p171
sa(dp172
g3
VWhy did they change their name? ... Prince Edward, ... Younger sons of the monarch are normally given dukedoms at the time of their marriage. However, given the ...
p173
sg5
VMembers of Royal Family
p174
sa(dp175
g3
VPrince Edward Island; ... Brooke Burke & David Charvet waited a month after they got married to do it all over ... Destination Weddings Honeymoon packages ...
p176
sg5
VRenew your Vows - Destination Weddings Honeymoon packages and planning
p177
sa(dp178
g3
VBritish media widely reported they had ... Prince William & Kate Depart On Honeymoon ... the feelings are different after a marriage. A honeymoon gives ...
p179
sg5
VPrince William & Kate Depart On Honeymoon In Seychelles Islands ...
p180
sa(dp181
g3
VPrince Edward Island; Quebec; ... with the destinations but they also have proven relationships ... usually for those who wanted to run away to get married.
p182
sg5
VDestination Weddings Honeymoon packages and planning |
p183
sa(dp184
g3
VThey were married at St Paul's Cathedral in London on 29 July ... and Prince Edward (now The Earl of Wessex) ... They finished their honeymoon with a stay at Balmoral.
p185
sg5
VDiana, Princess of Wales > Biography > Marriage and family
p186
sa(dp187
g3
VA couple for a time before they married ... Prince Charles married Diana ... Charles would be the first king married to a divorcee. King Edward VIII had ...
p188
sg5
VPrince Charles and Camilla Parker Bowles Marriage Profile -- The ...
p189
sa(dp190
g3
V... and splendid in the life of Great Britain, the marriage was solemnized. ... and they were all young ladies of ... The honeymoon was spent at Windsor Castle ...
p191
sg5
VQueen Victoria - The Marriage of Queen Victoria and Prince Albert ...
p192
sa(dp193
g3
VKing Edward VIII was the eldest child of Britain's King ... They are buried at the ... which began when he was Prince of Wales and she was still married to ...
p194
sg5
VRoyalty.nu - Edward VIII and Wallis Simpson, the Duke and Duchess ...
p195
sa(dp196
g3
V... as they pledged their lives to one another at the church with ... enter Westminster Abbey ahead of her marriage to Britain's Prince William, London, Friday ...
p197
sg5
VPhotos: The Royal Wedding of Prince William and Kate Middleton - Plog
p198
sa(dp199
g3
V... of Italy after they had a second marriage ceremony at ... home, where they are spending their honeymoon. ... Britain's Prince Edward and his bride ...
p200
sg5
VUPDATED: Royal weddings - Beaumont Enterprise
p201
sa(dp202
g3
V... Edward, the Prince of Wales, and her father ... romantic relationship was Prince Philip of Greece. They had met during a royal ... the honeymoon to ...
p203
sg5
VQueen Elizabeth II: Duty Comes First
p204
sa(dp205
g3
V... where they took up residence at Saint-Cloud, ... the marriage of Prince Philip's parents began to crumble. ... HRH The Prince Edward, Earl of Wessex: 10 March 1964:
p206
sg5
VPrince Philip, Duke of Edinburgh - Hellenica, Information about ...
p207
sa(dp208
g3
VPrince william and kate are 15th cousins- so how did they know that? When the prince and kate met at ... married Prince Edward ... queens in Britain.
p209
sg5
VCould prince william have married someone who is not royal blood ...
p210
sa(dp211
g3
V... "W.E.," which explores the relationship between commoner Wallis Simpson and Britain's King Edward ... Yes they do this year is seen I ... prince Edward married ...
p212
sg5
VWallis Simpson News, Photos and Videos - ABC News
p213
sa(dp214
g3
VThey spent a private moment together with their families as they signed the marriage ... Prince William and ... This royal wedding is Britain's Marie ...
p215
sg5
VRoyal wedding: A stylish marriage for William and Kate | UK news ...
p216
sa(dp217
g3
VIt's a sign that they ... Buckingham Palace and London get ready for the April 29 marriage of Prince ... Princess Diana still looms large in Britain's ...
p218
sg5
VComplete Coverage - The Royal Wedding of Prince William and Kate ...
p219
sa(dp220
g3
VThe only solution offered was a morgantic marriage, whereby Edward could marry Wallis ... it was in Britain's interest and ... What foreign prince married an American ...
p221
sg5
VWho is the American divorcee who married a prince
p222
sa(dp223
g3
VKing Edward VII of Great Britain and his wife Queen ... After they married, ... Princess Maud of Great Britain married her maternal cousin Prince Carl of ...
p224
sg5
VThe Children of King Edward VII of Great Britain | Suite101
p225
sa(dp226
g3
VHe received the title of His Royal Highness from George VI the day before he married Elizabeth on Nov. 20, ... They had two children, ... The Prince Edward, ...
p227
sg5
VBritish Royal Family - Who's Who in the Royal Family
p228
sa(dp229
g3
VAndrews has a reputation as "Britain's ... In spite of the suggestion so far that they may choose to honeymoon ... "To celebrate the marriage of Prince ...
p230
sg5
VPrince William and Kate Wedding Journal Souveneir Download
p231
sa(dp232
g3
VHe was named Duke of Edinburgh shortly before they got married but was not made a Prince ... Prince Edward. When they ... Britain. Has 8 grandchildren:Prince ...
p233
sg5
VQueen Elizabeth II - Biography
p234
sa(dp235
g3
V... the husband of Queen Victoria of Britain, was a German prince who came to wield great ... and by all accounts their marriage was very happy. They loved ...
p236
sg5
VBiography of Prince Albert | Husband of Queen Victoria
p237
sa(dp238
g3
VPrince Edward who is married to Sophie does not appear ... That's what they do. ... or through longer visits to strengthen Britain's diplomatic and ...
p239
sg5
VWhat job does Prince edward do? - Yahoo! UK & Ireland Answers
p240
sa(dp241
g3
VWhen Prince William and Kate ... Anne and Edward, were both married for four years ... I dont think Americans would be because they paetrd from Britain long ago ...
p242
sg5
VRoyal baby! When will Prince William and Kate Middleton have kids?
p243
sa(dp244
g3
VPRINCESS DI PRINCE CHARLES HONEYMOON TIME POST CARD in ... "Off they go! Honeymoon Time! ... Three of the past six British monarchs, Victoria, Edward VII, ...
p245
sg5
VPrincess Di Prince Charles Honeymoon Time Post Card | eBay
p246
sa(dp247
g3
VRead about the wedding of HRH Prince Andrew ... Prince Edward & Sophie Rhys-Jones Windsor Castle's ... bride and groom escaped on a honeymoon to ...
p248
sg5
VBritish Royal Wedding Index - HRH Prince Andrew & Sarah Ferguson ...
p249
sa(dp250
g3
VThey spent their honeymoon at Broadlands, ... Prince Edward, ... 5:30 Queen Elizabeth II marries Prince Philip by TrendingNowTV 59,793 views
p251
sg5
VBritish Royal Family - Diamond Jubilee 2012 - Queen Elizabeth II ...
p252
sa(dp253
g3
VThe duchess was admitted to King Edward VII Hospital today in ... according to Britain's Press ... Prince William and Kate were married on ...
p254
sg5
VKate Middleton Is Pregnant - ABC News - ABCNews.com - Breaking ...
p255
sa(dp256
g3
V... that married into the British ... upon marriage unless they had to step down to marry,like Prince Michael of Kent did,because he married a ...
p257
sg5
VWhat happens if a Prince or Princess marries a commoner? - Yahoo ...
p258
sa(dp259
g3
VKing Edward VIII abdicated the throne not because ... The Prince-Duke of Teck ... Quite the Opposite- if a British Royal married a Catholic- they would have to ...
p260
sg5
VCan Americans marry into the British royal family - The Q&A wiki
p261
sa(dp262
g3
V... but they were Roman Catholics. The British did not want a Catholic monarch. ... Edward VII, married a Danish ... that Queen Victoria married Prince ...
p263
sg5
VHow Did the British Royal Family become German? - Yahoo! UK ...
p264
sa(dp265
g3
V... first days of marriage in an British ... They did take a belated honeymoon in 1842 to ... also used by Prince Edward and Sophie ...
p266
sg5
VThe Royal country house honeymoon | The Country Seat
p267
sa(dp268
g3
V71 Responses to \u201cPrince William & Catherine\u2019s honeymoon delayed, ... She is Prince Edward\u2019s ... I hope they married because they were ready and really loved ...
p269
sg5
V71 Responses to \u201cPrince William & Catherine\u2019s honeymoon ...
p270
sa(dp271
g3
V... the current Prince of Wales, he thought that they way to keep the monarchy ... The couple married on June 3rd ... Prince Edward in British Columbia for the ...
p272
sg5
VBritish Royal Wedding Look-Back: Edward VIII and Wallis | The ...
p273
sa(dp274
g3
VIt looks like they are already ... was Prince Albert Victor, eldest son of Edward ... upon marrying a Prince, in Great Britain marriage does not ...
p275
sg5
VROYAL WORLD: Kate Middleton's future title
p276
sa(dp277
g3
VThe photos have potential implications for the Prince\u2019s image representing Britain ... honeymoon was respected by the British Press in ... Britain, they were ...
p278
sg5
VPrince Harry Vegas Pictures: The Sun publishes photos of naked ...
p279
sa(dp280
g3
VPrince William and his newly titled bride the Duchess of Cambridge kiss on the balcony of Buckingham Palace, ... What they wore, ... Secret honeymoon.
p281
sg5
VBBC News - Royal wedding
p282
sa(dp283
g3
VHis mother is the current reigning Monarch of the United Kingdom of Great Britain ... wrote to Prince Edward indicating that they ... The marriage quieted, but did ...
p284
sg5
VPrince Edward, Earl of Wessex Biography - Entertainment and World ...
p285
sa(dp286
g3
VThey suck the life right out of many wives . ... The missus and I have been in a honeymoon-or-hell marriage since we began all this mess lol ...
p287
sg5
VHow long does the "honeymoon" last? - Talk About Marriage - The ...
p288
sa(dp289
g3
V... Seychelles Indian island paradise where they were celebrating their honeymoon, ... their recent marriage. ... Britain's Prince William and his bride ...
p290
sg5
VSeychelles Shark Kills Honeymoon Tourist : Discovery News ...
p291
sa(dp292
g3
V
sg5
VAccess Hollywood
p293
sa(dp294
g3
V... for their honeymoon, where later, they were joined by ... the Prince was displeased by the way some British officers ... She married Edward ...
p295
sg5
VEdwardVII - MARTINSTOWN VILLAGE WEBSITE ~ Dorset England
p296
sa(dp297
g3
VThey used a real priest to film ... are already married because he did all the things you would do ... during an interview with British GQ. ...
p298
sg5
VRobert Pattinson: Kristen Stewart and I May Already Be Married ...
p299
sa(dp300
g3
V... and Victoria, in love with him, proposed marriage. They were ... 1840, and the Prince of Wales, Edward, in ... of great britain prince consort king george ...
p301
sg5
VQueen Victoria - Women's History - Comprehensive Research and ...
p302
sa.