(lp1
(dp2
S'description'
p3
VDavid Moyes appointed Manchester United manager following ... has done and for the football club. ... to be a genuine Manchester United man," said Sir ...
p4
sS'title'
p5
VDavid Moyes appointed Manchester United manager following Alex ...
p6
sa(dp7
g3
VEnglish soccer's most successful manager -- Manchester United's Alex Ferguson -- is retiring at the end of the season, the club announced Wednesday.
p8
sg5
VAlex Ferguson retires as Manchester United manager - CNN.com
p9
sa(dp10
g3
VDavid Moyes was handed a six-year contract to become manager of Manchester United yesterday, showing the deep belief the club have in naming the Scot as ...
p11
sg5
VDavid Moyes quits as Everton manager to take over at Manchester United
p12
sa(dp13
g3
VFootball News; Club News; ... has all the qualities we expect of a manager at this Club. ... said that we wanted the next manager to be a genuine Manchester United man.
p14
sg5
VUnited appoint Moyes - Official Manchester United Website
p15
sa(dp16
g3
VBehind the scenes at top soccer club Manchester United, all is not well. The story of the week is the retirement of Sir Alex Ferguson, a manager whose ...
p17
sg5
VManchester United Go Two Down. Rooney Might Make It Three - Forbes
p18
sa(dp19
g3
VDavid Moyes has been appointed as the new manager of Manchester United ... the football club. ... told the club's official website. "David is a man of ...
p20
sg5
VDavid Moyes signs six-year deal at Manchester United - CNN.com
p21
sa(dp22
g3
VI have great respect for everything he has done and for the Football Club ... "I have always said that we wanted the next manager to be a genuine Manchester United man.
p23
sg5
VSoccer-Man United turn to Moyes, Ferguson influence lives on ...
p24
sa(dp25
g3
V"I have always said that we wanted the next manager to be a genuine Manchester United man. ... by continuing this club's tradition of flair football ...
p26
sg5
VMoyes is the Man for United - Hindustan Times
p27
sa(dp28
g3
VBet on Man Utd; Club; TICKETS & HOSPITALITY; ... United appoint MoyesDavid Moyes confirmed as new United manager, ... Manchester United Ltd, ...
p29
sg5
VOfficial Manchester United Website
p30
sa(dp31
g3
V... manager of Manchester United, ... One man touted to be the possible next United ... That is so rare in European club soccer that no one ...
p32
sg5
VAlex Ferguson\u2019s Move Shakes Soccer, and Business - NYTimes.com
p33
sa(dp34
g3
VShares in Manchester United fell early Wednesday after the club's most successful manager said he would retire after 26 years on the job.
p35
sg5
VIs Manchester United's winning streak over? - May. 8, 2013
p36
sa(dp37
g3
VI have great respect for everything he has done and for the football club. ... the next manager to be a genuine Manchester United man,\u201d said ...
p38
sg5
VChanging of the guard at Man United: David Moyes to succeed Alex ...
p39
sa(dp40
g3
VManchester United manager Sir Alex Ferguson is retiring at the end of ... "Proud man. Great manager. ... gave me the confidence and time to build a football club, ...
p41
sg5
VManchester United manager Alex Ferguson to retire at season end ...
p42
sa(dp43
g3
VTo buy the world-renowned English football club Manchester United almost eight years ago, Tampa Bay Buccaneers owner Malcolm Glazer and family incurred great debt ...
p44
sg5
VAlex Ferguson, famed manager of Glazers\u2019 Manchester United ...
p45
sa(dp46
g3
VManchester United have confirmed that David Moyes is to become the club\u2019s new manager. The former Everton boss will move to Old Trafford on 1 July and ...
p47
sg5
VManchester United Manager News: David Moyes Signs Six-Year Deal ...
p48
sa(dp49
g3
VReaction to Wednesday's announcement by Premier League champions Manchester United that manager Alex ... made to our football club. ... at Man United.
p50
sg5
VReaction to Sir Alex Ferguson's retirement from Manchester United ...
p51
sa(dp52
g3
VSupporters of one of the world\u2019s biggest soccer clubs, Manchester United, are looking at a post-Alex Ferguson future today, after the manager of 26 years ...
p53
sg5
VSoccer shocker: Sir Alex Ferguson steps down as manager of ...
p54
sa(dp55
g3
VSOCCER Arsenal v Man Utd. Manchester United manager Sir Alex Ferguson ... signing Rio Ferdinand stands with club manager Alex Ferguson as they pose ...
p56
sg5
VAlex Ferguson Retires: Manchester United Manager Leaving At The ...
p57
sa(dp58
g3
VDeparting Everton manager David Moyes is due to hold his weekly press conference but the club insist he will not answer questions about his appointment as Manchester ...
p59
sg5
VDeparting Moyes to face the press, but will not answer questions ...
p60
sa(dp61
g3
VMANAGER. Sir Alex Ferguson. NICKNAME. ... v Man City (H) 1 - 2: BPL: 14 Apr 2013: v Stoke (A) ... Official Manchester United Football Club website.
p62
sg5
VClub Profile | Manchester United - Official Site of the Premier ...
p63
sa(dp64
g3
VManchester United's manager Alex Ferguson reacts ... Soccer. Video: United manager Ferguson ... the final match for the man who has turned the club into one of ...
p65
sg5
VLegendary Manchester United manager Alex Ferguson stepping down ...
p66
sa(dp67
g3
VAfter 27 years and 49 trophies at the club, ... Man United-bound David Moyes is football's ... Next Manchester United manager. Clone wars: Man United-bound ...
p68
sg5
VAlex Ferguson's Manchester United retirement surprised his own ...
p69
sa(dp70
g3
VSir Alex Ferguson has announced he will retire as Manchester United manager after 27 years at the club, moving upstairs to be a member of the board. It is a day that ...
p71
sg5
VAlex Ferguson retires as Manchester United manager and joins the ...
p72
sa(dp73
g3
VAlex Ferguson will retire as British soccer\u2019s most successful manager, having led Manchester United to ... club: he emphasized football was a ... Man Utd ...
p74
sg5
VManchester United Coach Ferguson to Retire After 26 Years - Bloomberg
p75
sa(dp76
g3
VBritish football's most successful manager confirms he is stepping down after 26 years in charge to become club director and ambassador.
p77
sg5
VBBC Sport - Sir Alex Ferguson to retire as Manchester United manager
p78
sa(dp79
g3
VAfter 27 years in charge of one of the biggest football clubs ... next Manchester United manager is already ... soccer odds for the next Man Utd manager is ...
p80
sg5
VSoccer Picks: Next Manchester United Manager Betting Odds
p81
sa(dp82
g3
VThe soccer club's manager will retire later this month. Arguably the most famous coach in the world, he's been in charge as Man U has become one of the ...
p83
sg5
VManchester United's Alex Ferguson Is Retiring : The Two-Way : NPR
p84
sa(dp85
g3
V"I have always said that we wanted the next manager to be a genuine Manchester United man ... I have great respect for everything he has done and for the football club.
p86
sg5
VThe official statement to unveil David Moyes as Manchester United ...
p87
sa(dp88
g3
VMan United hires Moyes to replace ... 2013 that its manager David Moyes is leaving the club at the end of the season and wants to replace Alex Ferguson at ...
p89
sg5
VMan United hires Moyes to replace Ferguson - Soccer - Boston.com
p90
sa(dp91
g3
VManchester United Football Club is an English professional football club, ... Alex Ferguson has been manager of Manchester United since November 1986.
p92
sg5
VManchester United F.C. - Wikipedia, the free encyclopedia
p93
sa(dp94
g3
VThe Manchester United manager ... the world\u2019s most-famous club, Manchester United. ... about football. In any case, the man who spoke ...
p95
sg5
VAlex Ferguson interview: The Manchester United manager discusses ...
p96
sa(dp97
g3
V\u201cFergie time\u201d is finally up for England\u2019s most famed soccer club, Manchester United (MANU). Alex Ferguson, the winningest manager in English Premier ...
p98
sg5
VAlex Ferguson Retires as Manchester United Manager - Businessweek
p99
sa(dp100
g3
VManchester United Football Club is an English professional football club based in Old Trafford, Greater Manchester. The club was formed in Newton Heath in 1878 as ...
p101
sg5
VList of Manchester United F.C. managers - Wikipedia, the free ...
p102
sa(dp103
g3
V... seven years in charge of Manchester United ... Alex Ferguson as "the greatest manager in the history of British football". ... manager and the club ...
p104
sg5
VCarrick: Sir Alex Ferguson is the greatest manager in British ...
p105
sa(dp106
g3
V\u201cI have always said that we wanted the next manager to be a genuine Manchester United man. ... great respect for everything he has done and for the Football Club.
p107
sg5
VManchester United appoints new manager: David Moyes | Ryan Giggs ...
p108
sa(dp109
g3
VManchester United manager Alex Ferguson will retire at ... managerial career in British soccer. ... 1,498 matches for the club, said on United's ...
p110
sg5
VManchester United manager Alex Ferguson to retire at end of season ...
p111
sa(dp112
g3
VSir Alex Ferguson has announced he will retire as Manchester United manager after 27 years at the club, moving upstairs to be a member of the board. It is a day that ...
p113
sg5
VSir Alex Ferguson retires as Manchester United manager and joins ...
p114
sa(dp115
g3
VEverton chairman Bill Kenwright says it is vitally important the club get a manager who is ... The Manchester United manager is ... Legendary soccer manager ...
p116
sg5
VDavid Moyes announced as the new Manchester United manager ...
p117
sa(dp118
g3
VCaptain of Manchester United Football Club is Nemanja ... Next year Matt Busby resigned as Manchester United manager. ... Manchester United anthem - Glory Glory Man ...
p119
sg5
VManchester United Football Club - Squidoo : Welcome to Squidoo
p120
sa(dp121
g3
VDavid Moyes will be named as the new manager of Manchester United in the next 24 hours. The Barclays Premier League champions have agreed to appoint the Everton ...
p122
sg5
VDavid Moyes to succeed Sir Alex Ferguson as Manchester United manager
p123
sa(dp124
g3
V... the most successful manager in British soccer ... as Manchester United manager. ... in the final match for the man who has turned the club into one of ...
p125
sg5
VAlex Ferguson retiring as Manchester United manager - SOCCER ...
p126
sa(dp127
g3
V... the World\u2019s Most Successful Football Manager ... pugnacious, seemingly indefatigable manager of Manchester United ... Share prices in the club ...
p128
sg5
VRetirement for Alex Ferguson, the World\u2019s Most Successful ...
p129
sa(dp130
g3
VMan Utd are the right club for ... Pat Nevin assesses David Moyes's chances after the Everton manager is confirmed as ... Manchester United fan ...
p131
sg5
VBBC Sport - Football - Manchester United
p132
sa(dp133
g3
V... Manchester United (MANU) manager Alex Ferguson announced his retirement at the end of the season after 26 ... The famed soccer club is owned by the Glazer ...
p134
sg5
VManchester United PLC : Manchester United Manager Ferguson Retires ...
p135
sa(dp136
g3
V... trophy-filled years at the helm of Manchester United, the club announced ... as Manchester United manager - FOOTBALL - FRANCE ... man. Great manager.
p137
sg5
VAlex Ferguson retires as Manchester United manager - FOOTBALL ...
p138
sa(dp139
g3
VPlaying as FC United of Manchester, ... semi-professional football club based in Bury, Greater Manchester ... as the club\u2019s manager on 22 ...
p140
sg5
VThe FC United > Man United Challenge | Football Manager How-To
p141
sa(dp142
g3
VEverton manager David Moyes with Manchester United manager Alex Ferguson. ... understanding the football club is not just what happens on the first team pitch ...
p143
sg5
VMoyes set to succeed Ferguson as Manchester United manager on July ...
p144
sa(dp145
g3
V... confirmed that Man Utd "and other big clubs in ... he agreed to become Manchester United's new manager ... NCAA Basketball NCAA Football NFL NHL Olympics ...
p146
sg5
VTransfer News - Liverpool FC, Manchester United target Kevin ...
p147
sa(dp148
g3
VRichard Jolly wonders if new Man Utd boss David Moyes' meticulous ... Admitted to Football League: 1892 Manchester United are an English club ... Club stats; Manager;
p149
sg5
VManchester United Football / Soccer Club - ESPN FC
p150
sa(dp151
g3
VManchester United: Youth Soccer Club and Academy of Alta Loma, CA: Club Teams: MUYSAC ... Center Forward,KEEPER, Sweeper-Full Back-GU13 - Born on/after 8-01-1999
p152
sg5
VMANCHESTER UNITED YSA - Competitive Youth Soccer Academy Club
p153
sa(dp154
g3
VMan Utd are the right club for ... Pat Nevin assesses David Moyes's chances after the Everton manager is confirmed as ... Manchester United fan ...
p155
sg5
VBBC Sport - Football - Manchester United
p156
sa(dp157
g3
V... Manchester United (MANU) manager Alex Ferguson announced his retirement at the end of the season after 26 ... The famed soccer club is owned by the Glazer ...
p158
sg5
VManchester United PLC : Manchester United Manager Ferguson Retires ...
p159
sa(dp160
g3
V... trophy-filled years at the helm of Manchester United, the club announced ... as Manchester United manager - FOOTBALL - FRANCE ... man. Great manager.
p161
sg5
VAlex Ferguson retires as Manchester United manager - FOOTBALL ...
p162
sa(dp163
g3
V... Ferguson would end his glorious reign as manager of Manchester United and at long last the ... London and Manchester clubs. ... on Man United appointment;
p164
sg5
VDavid Moyes is the right man to succeed Sir Alex Ferguson at ...
p165
sa(dp166
g3
VPlaying as FC United of Manchester, ... semi-professional football club based in Bury, Greater Manchester ... as the club\u2019s manager on 22 ...
p167
sg5
VThe FC United > Man United Challenge | Football Manager How-To
p168
sa(dp169
g3
VEverton manager David Moyes with Manchester United manager Alex Ferguson. ... understanding the football club is not just what happens on the first team pitch ...
p170
sg5
VMoyes set to succeed Ferguson as Manchester United manager on July ...
p171
sa(dp172
g3
V... the most successful manager in British soccer history, ... The club debuted on the New York ... the longest-serving manager in Manchester United ...
p173
sg5
VAfter Successful Year, Manchester United's Alex Ferguson To Retire ...
p174
sa(dp175
g3
V... confirmed that Man Utd "and other big clubs in ... he agreed to become Manchester United's new manager ... NCAA Basketball NCAA Football NFL NHL Olympics ...
p176
sg5
VTransfer News - Liverpool FC, Manchester United target Kevin ...
p177
sa(dp178
g3
VSir Alex Ferguson latest: Manager retires but will remain a director of club after 27 years in charge of Manchester United
p179
sg5
VSir Alex Ferguson latest: Manager retires but will remain a ...
p180
sa(dp181
g3
VRichard Jolly wonders if new Man Utd boss David Moyes' meticulous ... Admitted to Football League: 1892 Manchester United are an English club ... Club stats; Manager;
p182
sg5
VManchester United Football / Soccer Club - ESPN FC
p183
sa(dp184
g3
VManchester United: Youth Soccer Club and Academy of Alta Loma, CA: Club Teams: MUYSAC ... Center Forward,KEEPER, Sweeper-Full Back-GU13 - Born on/after 8-01-1999
p185
sg5
VMANCHESTER UNITED YSA - Competitive Youth Soccer Academy Club
p186
sa(dp187
g3
VManchester United manager Sir Alex Ferguson will undergo ... Real Zaragoza drew 0-0 at nine-man ... Nigel Reed Soccer power shifting to German clubs May ...
p188
sg5
VManchester United manager Alex Ferguson to go under the knife
p189
sa(dp190
g3
VLong-running manager of U.K. soccer club Manchester United, Alex Ferguson, is retiring, the club announced on Wednesday. Seventy one-year-old Ferguson has spent 26 ...
p191
sg5
VManchester United Manager Ferguson Retires
p192
sa(dp193
g3
V\u201cI have always said that we wanted the next manager to be a genuine Manchester United man. ... respect for everything he has done and for the Football Club. ...
p194
sg5
VDavid Moyes confirmed as the new manager of Manchester United
p195
sa(dp196
g3
VThe current Manchester United manager is Sir Alex Ferguson. Manager of manchester united? ... Manchester United Football Club; Middlesbrough Football Club;
p197
sg5
VWho is the manager of Manchester United - The Q&A wiki
p198
sa(dp199
g3
VWith David Moyes joining Manchester United just what legacy will he ... the man and manager that created an ... Soccer AM; Fantasy Football Club; Goals on ...
p200
sg5
VManchester City manager Roberto Mancini says the FA Cup is still ...
p201
sa(dp202
g3
VAlex Ferguson is retiring as manager of Manchester United, the club has confirmed. United confirmed the news on their website this morning. \u201cThe decision to retire ...
p203
sg5
VFerguson retires after 26 years as Manchester United manager ...
p204
sa(dp205
g3
V... fixtures, live scores, results, videos, photos, and stats on Manchester United Football Club. ... class keeper from an average ... Man United should get ...
p206
sg5
VManchester United Fixtures, News, Transfers | Sky Sports Football
p207
sa(dp208
g3
VManchester United's manager Alex Ferguson holds the English Premier League trophy following their English Premier League soccer ... the club, said on United ...
p209
sg5
VManchester United manager Alex Ferguson retires | Soccer | Sports ...
p210
sa(dp211
g3
V\u201cI have always said that we wanted the next manager to be a genuine Manchester United man. ... great respect for everything he has done and for the Football Club.
p212
sg5
VOfficial: Moyes next United Manager.
p213
sa(dp214
g3
VLegendary manager Sir Alex Ferguson announced his retirement plans on Wednesday morning\u2014and even for the most anti- Manchester United ... Soccer; EPL; Man Utd;
p215
sg5
VManchester United: What World Football Will Miss Most from the ...
p216
sa(dp217
g3
V... SIR Alex Ferguson will retire as Manchester United manager at the ... gave me the confidence and time to build a football club, ... "What a man and great that ...
p218
sg5
VSir Alex Ferguson retires as Manchester United manager after 26 ...
p219
sa(dp220
g3
VDavid Moyes was named manager of Manchester United on ... I have great respect for everything he has done and for the football club. ... \u201cDavid is a man of great ...
p221
sg5
VDavid Moyes Is Named The New Manager Of Manchester United | Elite ...
p222
sa(dp223
g3
V... gossip and more on Manchester United football club ... I like his character as a manager. I believe Manchester United ... and my good friends know which club I ...
p224
sg5
VPremier League: Jose Mourinho expects David Moyes to succeed at ...
p225
sa(dp226
g3
VNot content with having their thunder stolen by their city rivals this week, it seems as if Manchester City are about to name a new manager of their own sooner rather ...
p227
sg5
VUnited aren't the only Manchester club about to change their manager
p228
sa(dp229
g3
VManchester United Football Club History: The Red Devils (who initially wore green and gold) ... the first great Man United manager arrived, Matt Busby.
p230
sg5
VManchester United Football Club | logo, nicknames, history, colors
p231
sa(dp232
g3
VSir Alex Ferguson will retire as Manchester United manager at the end of the season. ... gave me the confidence and time to build a football club, ...
p233
sg5
VFootball Premier-league: Manchester United manager Sir Alex ...
p234
sa(dp235
g3
VManchester United Football Club is an English football club, based at the Old Trafford stadium in Trafford, Greater Manchester, and is one of the most popular ...
p236
sg5
VManchester United - Football Manager Wiki
p237
sa(dp238
g3
V... SunSport runs the rule over the contenders to replace Alex Ferguson as next Man Utd manager. ... Manchester United in need of a new manager. ... old club at White ...
p239
sg5
VNext Man Utd manager: Who will replace Alex Ferguson? | The Sun ...
p240
sa(dp241
g3
VOne of the great one-club men in Manchester United ... Another man retiring from football at ... Nani has not been helped by a manager playing him out of ...
p242
sg5
VManchester United: 5 Players Who Stayed Too Long at the Club ...
p243
sa(dp244
g3
VManchester United are the most successful Premier League club having won the title 12 times. It all began in 1993 when manager Sir Alex Ferguson ended a 26-year wait ...
p245
sg5
VManchester United Football Club - Official Site of the Premier ...
p246
sa(dp247
g3
VWho will be the next Manchester United Manager? ... Fifa Club World ... is without doubt the most successful manager in the history of British football he famously ...
p248
sg5
VWho will be the next Manchester United Manager? - News - Bubblews
p249
sa(dp250
g3
VWhen does man united players finish training? ... Sir Alex Ferguson has been the manager of Manchester united since the mid 80's ... Manchester United Football Club;
p251
sg5
VWho is the coach of Manchester United - The Q&A wiki
p252
sa(dp253
g3
VPremier League - Paper Round: Moyes' transfer targets emerge . With David Moyes now confirmed as Manchester United manager, speculation turns to who he will look to ...
p254
sg5
VManchester United Football Club (FC) | News - Yahoo! Eurosport UK
p255
sa(dp256
g3
VDavid Moyes has been appointed as the new manager of Manchester United ... Man United Manager his ... Manager his early years story Part 2 Soccer ...
p257
sg5
VDavid Moyes is the new Manager at Manchester United - YouTube
p258
sa(dp259
g3
VManager: Sir Alex Ferguson: ... There\u2019ll be all the Manchester United football news you need, ... - Man United ace provides the biggest statistical anomaly of all time;
p260
sg5
VManchester United - Football News and Football Blogs ...
p261
sa(dp262
g3
VMoyes will be Moyes even under scrutiny David Moyes had a dilemma. He was manager of Preston North End, but was being offered a job by a bigger club in Sheffield ...
p263
sg5
VManchester United | The Times
p264
sa(dp265
g3
VManchester United FC News Man United updates straight to your Facebook ... Manchester City Football Club ... Manchester United manager Sir Alex Ferguson clears up ...
p266
sg5
VManchester United manager Sir Alex Ferguson clears up Newcastle ...
p267
sa(dp268
g3
VSoccer-Manchester United name Moyes ... to Ferguson retirement as Man Utd manager. Wed, ... appointed as manager of Manchester United on a six-year ...
p269
sg5
VSoccer-Manchester United name Moyes as manager | Reuters
p270
sa(dp271
g3
V... the name "Manchester" has become synonymous with Manchester United Football Club, "Man-U ... United employed their first true manager, ...
p272
sg5
VManchester United Football Club
p273
sa(dp274
g3
VManchester United Football Club is an English football club ... Matt Busby was appointed as the manager of Man United in 1945 and that was the beginning of the club ...
p275
sg5
VManchester United - News, Stats and Info About the Soccer Team
p276
sa(dp277
g3
VRead why Neville thinks the appointment is a \u201cresult for sanity in football ... manager to be a genuine Manchester United man. ... club manager there has ever been ...
p278
sg5
VManchester United - Manchester, United Kingdom - Professional ...
p279
sa(dp280
g3
V"I have always said that we wanted the next manager to be a genuine Manchester United man ... off by continuing this Club's tradition of flair football ...
p281
sg5
VSir Bobby Charlton 'delighted' at appointment of David Moyes at ...
p282
sa(dp283
g3
VNICKNAME: The Red Devils FOUNDED: 1878 as Newton Heath LYR FC MANAGER: Sir Alex Ferguson GROUND: Old Trafford, 75,811 Official Website. Manchester United Football ...
p284
sg5
VManchester United Football Club | Premier League Team ProfilesNews ...
p285
sa(dp286
g3
VMan United manager, Sir Alex Ferguson, ... Manchester United Football Club. Appears in: 79 games. First Appearance: Football Manager. Aliases: M.U.F.C Man Utd The Red ...
p287
sg5
VManchester United Football Club (Concept)
p288
sa(dp289
g3
VThat is the name of the biggest football club in ... on Manchester United. The paper writes about Man Utd ... new manager at Old Trafford it ...
p290
sg5
VThe Brand, The Value, The Football Club; Manchester United ...
p291
sa(dp292
g3
VAbout Man Utd - a Manchester United Football Club encyclopaedia. Players, news, matches, seasons, ... David Moyes is appointed manager of Manchester United.
p293
sg5
VAbout Man Utd | The Manchester United Football Club resource
p294
sa(dp295
g3
VManchester United Football Club News. ... Ferguson's Man United Highlights. ... Would David Moyes Get Your Approval as the Next United Manager? Suggested By: Red Boy ...
p296
sg5
VManchester United Football Club. Website for fans of The Red Devils.
p297
sa(dp298
g3
VManchester United Soccer Club Presentation Transcript. Project Management Manchester United Soccer Club GROUP \u2013 D BY Keshani Malindi Chanaka Reeza Fazily
p299
sg5
VManchester United Soccer Club - Upload & Share PowerPoint ...
p300
sa(dp301
g3
VManchester United Football Club on GFDb.com - Manchester United is a football (soccer) club from England. Find news, description, players, information and more.
p302
sg5
VManchester United Football Club - The Global Football Database ...
p303
sa.