(lp1
(dp2
S'description'
p3
VWhat You Should Know About Avian Flu; Key Facts; Infections in Humans; ... Kong, Special Administrative Region, 1997: ... poultry outbreak in Wales. H9N2, Hong Kong, ...
p4
sS'title'
p5
VCDC - Avian Influenza (Flu) | Avian Influenza A Virus Infections ...
p6
sa(dp7
g3
VHong Kong Avian Flu Outbreak in 1997. ... The first case of Avian Flu in humans was a young three ... four people had died from the Avian Flu. Hong Kong\u2019s ...
p8
sg5
VHong Kong Avian Flu Outbreak in 1997 - RingSurf- Join our create ...
p9
sa(dp10
g3
VThe Effects of Avian Flu ... Avian viruses generally don\u2019t affect humans, but in 1997, an outbreak of bird flu in Hong Kong infected 18 people, six of whom died.
p11
sg5
VThe Effects of Avian Flu(bird flu) on Poultry Sales/humans/birds ...
p12
sa(dp13
g3
VChronology of Events Related to the Hong Kong Avian Influenza Outbreak. ... In May 1997, a 3-year-old boy died of ... In November 1997, a 2-year-old boy developed flu ...
p14
sg5
VVM138/VM103: Avian Influenza: Hong Kong Outbreak
p15
sa(dp16
g3
V... but infections can occur in humans. ... confirmed cases of human infection have been reported since 1997. ... Navigation for the CDC Avian Flu Website
p17
sg5
VCDC - Influenza (Flu) |Avian Flu
p18
sa(dp19
g3
V... commonly called bird flu, ... infected humans in 1997 during a poultry outbreak in Hong Kong ... management of humans infected with avian ...
p20
sg5
VWHO | Avian influenza
p21
sa(dp22
g3
V1968\u20131969 Hong Kong; 1957 Asian flu; 1918; Outbreaks; ... which is why for many purposes avian flu virus is ... 359 humans have died from the H5N1 in twelve ...
p23
sg5
VAvian influenza - Wikipedia, the free encyclopedia
p24
sa(dp25
g3
V... have either died or been ... increase in the number of outbreaks of avian flu in poultry ... were revealed in 1997 during outbreaks in Hong Kong.
p26
sg5
VAvian Flu - Background
p27
sa(dp28
g3
VFewer people died during this pandemic than the ... The Hong Kong flu was the first known outbreak of the ... and direct transmission of avian viruses to humans is ...
p29
sg5
VHong Kong flu - Wikipedia, the free encyclopedia
p30
sa(dp31
g3
VDecember 1997. Avian Flu in Hong Kong ... A three-year-old child was ill in May and died of complications. ... Why did the avian flu in humans begin in China?
p32
sg5
VInformation - Avian Flu in Hong Kong - Public Health Agency of Canada
p33
sa(dp34
g3
VAvian flu is also known as ... first seen in Hong Kong in 1997. ... the 1918 Spanish flu pandemic was an avian flu virus. Around 40 million people died, ...
p35
sg5
VBird flu (Avian flu) - NetDoctor.co.uk - The UK's leading ...
p36
sa(dp37
g3
VH7N9 avian flu. Sino-Japanese ... hits 10 in H7N9 bird flu outbreak. Friday, 12 ... To Animal Inspection Station on live poultry being brought into Hong Kong.
p38
sg5
VChina death toll hits 10 in H7N9 bird flu outbreak | South China ...
p39
sa(dp40
g3
V... and information about one type of bird flu, called avian ... and in humans. Skip to main content ... in 1997 in Hong Kong, where it caused poultry outbreaks and ...
p41
sg5
VPandemic Influenza - Avian influenza (Bird Flu) - key facts
p42
sa(dp43
g3
V... except Hong Kong flu was much less deadly than Avian flu is in humans. ... Flu from an outbreak in that ... Kong in 2009 How many died hong kong flu in ...
p44
sg5
VWhat were the symptoms of Hong Kong flu - The Q&A wiki
p45
sa(dp46
g3
VHong Kong health authorities on Tuesday stepped up checks on travellers and hospital ... H7N9 avian flu. MPF. ... Some of the patients have died of severe pneumonia ...
p47
sg5
VHong Kong steps up checks as new bird flu cases reported | South ...
p48
sa(dp49
g3
VThere could be several reasons fewer people in the United States died due to this virus: The Hong Kong flu virus ... swine flu outbreak ... (avian flu) in Hong Kong.
p50
sg5
VPandemic Flu History | Flu.gov
p51
sa(dp52
g3
V... Hong Kong Bird Flu or Avian Flu - What Do I Need to Know. Answer: Hong Kong Bird Flu outbreaks, ... Hong Kong hit the headlines in 1997, ...
p53
sg5
VHong Kong Bird Flu or Avian Flu - What Do I Need to Know
p54
sa(dp55
g3
VWhat is avian influenza (bird \u2018flu or ... There have been around 21 HPAI outbreaks in poultry ... This strain of the virus first appeared in Hong Kong in 1997.
p56
sg5
VQ&A: Avian Influenza - BirdLife International - conserving the ...
p57
sa(dp58
g3
VOutbreak of Avian Influenza (bird flu) ... to infect humans on 10 occasions. Most avian influenza viruses ... this virus compared to the 1997 Hong Kong ...
p59
sg5
VOutbreak of Avian Influenza (bird flu) in Human in - Avian Flu Talk
p60
sa(dp61
g3
VHuman cases of avian flu 1997. ... as bird flu sparks alarm in Hong Kong'). Outbreaks of chicken flu occur in The ... (see 'Bird flu may have passed between humans').
p62
sg5
VTimelines : Avian Flu - Nature Publishing Group : science journals ...
p63
sa(dp64
g3
VAvian (or bird) flu is ... was first detected in humans in 1997 in Hong Kong, ... During this outbreak 18 people were hospitalized and 6 died. To control the outbreak ...
p65
sg5
VAvian Flu | Communicable Disease Control & Surveillance | New ...
p66
sa(dp67
g3
VAlthough the Netherlands epidemic wasn\u2019t as bad as the Hong Kong epidemic the results were still tragic. Many people died ... In humans many times the Avian ...
p68
sg5
VWhat Has Lead Avian Influenza to Affect Humans :: Bird Flu ...
p69
sa(dp70
g3
V... some humans. What is avian influenza (bird flu)? ... with bird flu viruses have occurred since 1997. ... an outbreak of bird flu in poultry in Hong Kong.
p71
sg5
VInformation about Avian Influenza (Bird Flu) and Avian Influenza A ...
p72
sa(dp73
g3
V... charting the first appearance of H5N1 avian flu in Hong Kong in 1997 to ... spread to humans. (see 'Outbreak of chicken flu ... died while in quarantine in the ...
p74
sg5
VTimelines : Avian Flu - Nature Publishing Group : science journals ...
p75
sa(dp76
g3
VSymptoms of bird flu (avian flu) in humans ... of small outbreaks of bird flu since 1997, ... death in Hong Kong in 2003. *As many as 10 deaths have been ...
p77
sg5
VHealth Info 4 You - Bird Flu
p78
sa(dp79
g3
VWhy Bird Flu is Seen as a Potential Health Risk to Humans. Avian Flu: ... 2004 over 100 million birds died of the flu, ... a 3 year old boy in 1997 in Hong Kong.
p80
sg5
VAvian Flu: Why Bird Flu is Seen as a Potential Health Risk to ...
p81
sa(dp82
g3
VThe first known human cases of avian flu occurred in 1997 in Hong Kong, ... died. A rapid response by Hong Kong ... avian flu outbreaks among humans ...
p83
sg5
VFast Facts on Avian Flu - ABC News - ABCNews.com - Breaking News ...
p84
sa(dp85
g3
VA sixth person in eastern China has died from an unusual strain of bird flu, ... Officials in Hong Kong test ... The better known H5N1 avian flu ...
p86
sg5
VChinese authorities kill 20,000 birds as avian flu toll rises to 6 ...
p87
sa(dp88
g3
VTwo people in China have died after falling ill with a strain of bird flu not detected before in humans, ... Hong Kong (CNN)-- Two people ... H5N1 avian ...
p89
sg5
V2 dead in China from unusual bird flu strain - CNN.com
p90
sa(dp91
g3
V... some humans. What is avian influenza (bird flu)? ... with bird flu viruses have occurred since 1997. ... outbreak of bird flu in poultry in Hong Kong, ...
p92
sg5
VKey Facts About Avian Influenza (Bird Flu) and Avian Influenza A ...
p93
sa(dp94
g3
VThe first avian influenza virus to infect humans occurred in Hong Kong in 1997. ... ill have died. The more the avian flu ... areas with an avian flu outbreak.
p95
sg5
VAvian Influenza - Symptoms, Diagnosis, Treatment of Avian ...
p96
sa(dp97
g3
VSeasonal flu is the term used to refer to the flu outbreaks that ... the flu to humans. In 1997, researchers discovered ... example, A/Hong Kong ...
p98
sg5
VThe Flu Types\u2014Seasonal, Pandemic, Avian (Bird), Swine
p99
sa(dp100
g3
V... 1957 Asian Flu | 1968 Hong Kong Flu | Avian ... Many fewer people died during this ... In May 1997, the Government Virus Unit in Hong Kong isolated an ...
p101
sg5
VHistory | MBay Flu Watch - Keeping Monterey Bay communities ...
p102
sa(dp103
g3
VFive died, raising the number of humans killed by ... be declared free of avian flu. The outbreak was ... be infected with bird flu in Hong Kong by ...
p104
sg5
VCBC News In Depth: Avian Flu - CBC.ca - Canadian News Sports ...
p105
sa(dp106
g3
VOrigin/History First H5N1 known crossover from birds to humans was in 1997 in Hong Kong ... 6 died In January of 2004 an outbreak ... with avian flu . Treatment ...
p107
sg5
VAvian Flu - Computing Services for Faculty & Staff
p108
sa(dp109
g3
VIt's rare for humans to contract bird flu, ... H5N1, Hong Kong, ... 1997: Highly pathogenic avian influenza A ...
p110
sg5
VBird Flu in Humans - Virus Home Page
p111
sa(dp112
g3
VA 1997 avian flu outbreak in Hong Kong, ... of humans with an avian influenza virus ... who contracted Bird Flu have died. Out of the 127 known avian ...
p113
sg5
VBird Flu (Avian Influenza) - Mold removal | Mold testing | Mold ...
p114
sa(dp115
g3
VWhat is the Government doing now to prepare for a pandemic flu outbreak? How many state ... in humans was first recognized in 1997 ... in Hong Kong; in 2002 ...
p116
sg5
VFrequently Asked Questions About Pandemic Influenza
p117
sa(dp118
g3
VFive died, raising the number of humans killed by ... be declared free of avian flu. The outbreak was ... be infected with bird flu in Hong Kong by ...
p119
sg5
VCBC News In Depth: Avian Flu - CBC.ca - Canadian News Sports ...
p120
sa(dp121
g3
V... Avian flu Definition Avian ... birds to humans was H5N1 in 1997 in Hong Kong. 16 people were infected, of whom 4 died. The outbreak was limited to Hong Kong.
p122
sg5
VBird flu - Medical and health information from Armenian Medical ...
p123
sa(dp124
g3
VIt can also be distributed among humans. In 1997, an outbreak of the virus in Hong Kong infected 18 people, six of whom died. ... Avian Flu: The Economic Costs ...
p125
sg5
VAvian Flu | Bird Flu| No Fly Zone, Inc | No Fly Zone, Inc.
p126
sa(dp127
g3
VThe first avian influenza virus to infect humans directly occurred in Hong Kong in 1997, ... Many people have died. ... The H7N7 avian flu outbreak in the ...
p128
sg5
VAvian influenza - Disease reference, symptoms and treatment
p129
sa(dp130
g3
VThe avian flu first spread among humans in Hong Kong where it infected 18 persons in 1997, six of whom died. Hong Kong had to cull the ... The latest outbreak in ...
p131
sg5
VEconomic Impact of Avian Flu \u2013 Avian Bird Flu | Avian Flu Virus ...
p132
sa(dp133
g3
VConfirmed instances of avian flu viruses infecting humans since 1997 include: 1997: In Hong Kong, ... died. To control the outbreak, ... an outbreak of avian flu ...
p134
sg5
VBird Flu (Avian Influenza) - Health and Medical Information For ...
p135
sa(dp136
g3
VReports of highly pathogenic Avian Influenza ("bird flu") ... Hong Kong in 1997, ... up for any chance of a possible bird flu outbreak/epidemic in the United ...
p137
sg5
VHuman Health
p138
sa(dp139
g3
VHONG KONG Avian flu: ... Since 1997 Hong Kong authorities have imposed strict controls on markets and ... Suspected new cases of bird flu in humans in China and ...
p140
sg5
VHONG KONG Avian flu: chicken farms to be inspected in Hong Kong ...
p141
sa(dp142
g3
VKey Facts About Avian Influenza (Bird Flu) ... usually infect humans. In 1997. ... was seen during an outbreak of bird flu in poultry in Hong Kong, ...
p143
sg5
VKey Facts About Avian Influenza (Bird Flu) and Avian Influenza A ...
p144
sa(dp145
g3
V1997: H5N1 Infects Humans ... Six people in Hong Kong died. ... (Appearance of new influenza strains in humans) H5N1: So-called Avian Flu causes illness in 47 ...
p146
sg5
VLessons Found in History of Flu Pandemics | LiveScience
p147
sa(dp148
g3
VConfirmed instances of avian influenza viruses infecting humans since 1997 include: 1997: In Hong ... In Hong Kong, cases of avian ... during an outbreak of avian flu ...
p149
sg5
VHistory of Bird Flu/Avian Influenza | Medindia
p150
sa(dp151
g3
VIn 1997 a new H5N1 strain of avian flu emerged in Asia, ... and hundreds of deaths in humans. ... as did Hong Kong flu in 1968-1969.
p152
sg5
VBOOKS SWINE INFLUENZA : AVIAN FLU : - CARBON TRADING | THE CLEAN ...
p153
sa(dp154
g3
VIn 1997 a new H5N1 strain of avian flu emerged in Asia, ... and hundreds of deaths in humans. ... as did Hong Kong flu in 1968-1969.
p155
sg5
VBOOKS SWINE INFLUENZA : AVIAN FLU : - CARBON TRADING | THE CLEAN ...
p156
sa(dp157
g3
V... and then in Hong Kong in 1997. Hong Kong's avian flu outbreak coincided with ... bird flu died. ... preparing for a possible outbreak of bird flu in humans.
p158
sg5
Vbird flu - definition of bird flu in the Medical dictionary - by ...
p159
sa(dp160
g3
V... first recorded in humans in the city in 1997 and ... Avian flu is a serious ... During the 2009 swine flu scare, Hong Kong quarantined ...
p161
sg5
VHong Kong Live Poultry Ban, Cull Hurts Solstice Banquet Plans ...
p162
sa(dp163
g3
VThe first bird flu outbreak in humans occurred in 1997 in Hong Kong, ... the outbreak. The avian-based 1918 Spanish flu pandemic of 1918 ... died, in the worst ...
p164
sg5
VHealth News \u2013 Bird Flu\u2019s Ominous Mutation | Pajamadeen.com
p165
sa(dp166
g3
VDetection of outbreaks in Hong Kong and ... The Emergence of H5N1\u2014Avian Flu In 1997, an outbreak of avian ... seen in humans before. Only one of them died, ...
p167
sg5
VAvian Flu: Preparing for a Pandemic
p168
sa(dp169
g3
VAt the end of February 2006 highly pathogenic avian ... During a H5N1 outbreak in poultry in 1997 in Hong Kong, ... Humans and other mammals need to come in ...
p170
sg5
VAvian Flu: Other animals
p171
sa(dp172
g3
VHave humans come down with bird flu? \u2022 Avian influenza does not normally ... infecting 18 humans, 6 of whom died. ... with H5N1 bird flu in Hong Kong in 1997, ...
p173
sg5
VKiller Asian Bird Flu - Essenes, Essene Teachings and Essene Theology
p174
sa(dp175
g3
VMany experts believe that the outbreak of highly pathogenic avian influenza A/H5N1 in Hong Kong in 1997 in ... for humans) or exchange genes with a human flu ...
p176
sg5
VHPA - Avian influenza and pandemic flu
p177
sa(dp178
g3
VOn the 11th of May 1997 a three year old boy in Hong Kong began ... How has avian flu progressed since the first outbreak ... What causes avian flu, in humans, ...
p179
sg5
VAvian flu, (chicken flu), swine flu, viruses and influenza.
p180
sa(dp181
g3
VAvian Influenza (Bird Flu) ... Here is a list of several widespread outbreaks: 1997 \u2013 H5N1, Hong Kong ... What are the symptoms of the bird flu in humans?
p182
sg5
VAvian Influenza (Bird Flu) Frequently Asked Questions
p183
sa(dp184
g3
VScientists first foresaw that there may be cause for concern when wild birds in Hong Kong were ... avian flu outbreak ... to Humans; Avian Flu ...
p185
sg5
VThe Avian Influenza: Dying to Kill - Yahoo! Voices - voices.yahoo.com
p186
sa(dp187
g3
VThe HPAI H5N1 strain of avian influenza was first identified in Hong Kong in 1997, ... in humans and 374 people have died ... outbreak of avian flu ...
p188
sg5
VAvian influenza
p189
sa(dp190
g3
VAvian Flu Yurij Kobasa ... First H5N1 known crossover from birds to humans was in 1997 in Hong Kong ... 18 people were infected and 6 died In January of 2004 an ...
p191
sg5
VAvian Flu-69e8f4cd_ppt2txt - Convert PowerPoint to Txt Online ...
p192
sa(dp193
g3
V... is long overdue for a flu outbreak. ... avian influenza, also known as bird flu, ... cases were seen in Hong Kong. Humans contract the ...
p194
sg5
VBird Flu: Cause for Alarm? - ABC News - ABCNews.com - Breaking ...
p195
sa(dp196
g3
V... the H5N1 strain of avian flu was first reported in Hong Kong in 1997. It rapidly infected eighteen humans, six of whom died. ... During outbreaks, many countries ...
p197
sg5
VAvian Flu History and Origins | Flu SuperTips
p198
sa(dp199
g3
V... about the potential danger of a deadly worldwide outbreak, or pandemic, of avian flu. ... in 1918 and in Hong Kong in 1997, ... of them have died.
p200
sg5
VAvian Flu: How Scared Should We Be? - TIME
p201
sa(dp202
g3
VHONG KONG - Current affairs ... avian flu) is caused by a type ... Outbreaks of avian influenza in the poultry industry cause devastating economic losses and is ...
p203
sg5
VThe Poultrysite Guide to Avian Flu - Poultry, Poultry Health ...
p204
sa(dp205
g3
VThe first avian influenza virus to infect humans occurred in Hong Kong in 1997. ... ill have died. The more the avian flu ... areas with an avian flu outbreak.
p206
sg5
VAvian influenza: MedlinePlus Medical Encyclopedia
p207
sa(dp208
g3
Vavian flu raises threat of global epidemic, ... usually reserved for humans, ... He maintains that a 1997 outbreak of avian flu in Hong Kong was a close call: ...
p209
sg5
V1. On the verge of disaster?
p210
sa(dp211
g3
VInformation on avian flu and ... and they might adapt over time to infect and spread among humans. During an outbreak of avian ... Croatia, Hong Kong ...
p212
sg5
VAvian Flu - The Health Information Network
p213
sa(dp214
g3
VHong Kong Flu Virus Symptoms. There are many strains of the ... The human case of bird flu infection occurs in Hong Kong in 1997. ... How Does the Avian Flu Kill Humans?
p215
sg5
VHong Kong Flu Virus Symptoms | eHow.com
p216
sa(dp217
g3
VKey Facts About Avian Influenza (Bird Flu) ... not usually infect humans. In 1997, ... to a human was seen during an outbreak of bird flu in poultry in Hong Kong.
p218
sg5
VKey Facts About Avian Influenza (Bird Flu) and
p219
sa(dp220
g3
VH5N1 Avian influenza (\u201cbird flu\u201d) ... Outbreak Communication Plans; ... The H5N1 strain first infected humans in Hong Kong in 1997, ...
p221
sg5
VH5N1 Avian Influenza | Illinois Pandemic Flu.org | Northern ...
p222
sa(dp223
g3
VKey Facts About Avian Influenza (Bird Flu) ... humans. In 1997. ... was seen during an outbreak of bird flu in poultry in Hong Kong, ...
p224
sg5
VDJ Feathers Aviary - Avian Flu Facts
p225
sa(dp226
g3
V... humans. 3 Outbreaks of bird flu in ... the avian influenza A (H5N1)\u2014since 1997, when a human case was first documented in Hong Kong. 7 Of the few bird flu ...
p227
sg5
VAvian Flu and Influenza Pandemics - Population Reference Bureau
p228
sa(dp229
g3
V... and there are still occasional outbreaks of the avian flu, ... in humans as early as 1997. ... first human case of it was isolated in Hong Kong in 1997.
p230
sg5
VBird Flu - How To Information | eHow.com
p231
sa(dp232
g3
V... which borders Hong Kong. He died last ... Guangdong has not reported any outbreaks of the H5N1 avian flu virus in ... to bird flu as a threat to humans at the ...
p233
sg5
VAvian Flu - What we need to know: China
p234
sa(dp235
g3
VThere have been a number of cases of bird flu virus in humans, ... 1997: In Hong Kong, avian ... an outbreak of avian flu ...
p236
sg5
VBird Flu | Avian Influenza Information - Transfer Factor | Boost ...
p237
sa(dp238
g3
VThe most recent pandemic "scares" was the Avian Flu Scare in 1997 and ... their ability to infect humans, ... the 1997 H5N1 avian influenza outbreak in Hong Kong, ...
p239
sg5
VFlu Pandemics in History - GlobalSecurity.org - Reliable Security ...
p240
sa(dp241
g3
VConfirmed instances of avian influenza viruses infecting humans since 1997 include: H5N1, Hong Kong, ... died. To control the outbreak, ... New Avian Flu Outbreak;
p242
sg5
VIs a Global Flu Pandemic Imminent?:Avian Influenza Infection in Humans
p243
sa(dp244
g3
VHow humans get bird flu Avian viruses generally don't affect humans, but in 1997, an outbreak of bird flu in Hong Kong infected 18 people, six of whom died.
p245
sg5
VHow does Bird Flu virus spread from birds to animals, especially ...
p246
sa(dp247
g3
V... live poultry markets in Hong Kong to humans. H5N1 Hong Kong Outbreak 18 ... died This avian virus exhibited high ... Hong Kong, 1997 Exposure to live ...
p248
sg5
VAVIAN INFLUENZA - Home | University of Pittsburgh
p249
sa(dp250
g3
VAvian influenza, commonly called "bird flu ... humans occurred in 1997, when the H5N1 virus triggered an outbreak in Hong Kong, infecting ...
p251
sg5
VThe American Society of International Law ASIL Insights - Global ...
p252
sa(dp253
g3
VRight out of the gate the picture comes into focus by taking note of the recent avian flu outbreak in Hong Kong ... humans by design. When will ... Hong Kong Avian ...
p254
sg5
VHong Kong Avian Outbreak - Kickoff to the Diabolic Globalist ...
p255
sa(dp256
g3
V... half of the victims have died. Cases have been traced to humans ... found in Hong Kong. That outbreak killed ... outbreak of H5N1 avian flu in humans.
p257
sg5
VAvian Flu Information - National AIDS Treatment Advocacy Project ...
p258
sa(dp259
g3
V... Preparation for Pandemic Avian Flu Timeline May 1997: H5N1 isolated from a human patient in Hong Kong. 18 are ... large outbreaks of avian ...
p260
sg5
VAvian Influenza A (H5N1) Infection in Humans
p261
sa(dp262
g3
V... (also referred to as avian flu), ... instances of transmission of bird flu to humans have been reported since 1997, ... officials in Hong Kong announced that ...
p263
sg5
VWhat Is Bird Flu? Should We Be Concerned? - MedicineNet
p264
sa(dp265
g3
Ving a 1997 outbreak among poultry in Hong Kong that subsequently spread to ... and subsequently died. ... that humans infect-ed with severe avian flu might require ...
p266
sg5
VPandemic Influenza - Trust for America's Health - Preventing ...
p267
sa(dp268
g3
VAvian Influenza (Bird Flu): ... in humans). A third family member died while in China of ... and healthcare workers in the 1997 outbreak in Hong Kong, ...
p269
sg5
VCIDRAP >> Avian Influenza (Bird Flu): Implications for Human Disease
p270
sa(dp271
g3
V... 18 people developed respiratory disease in Hong Kong during an outbreak of H5N1 ... past avian flu outbreaks have ... Bird flu infections in humans usually ...
p272
sg5
VBird Avian Flu Prevention Treatment Tamiflu News
p273
sa(dp274
g3
VThe appearance in humans of a type of flu that normally ... during an outbreak of avian influenza among poultry in Hong Kong. ... of whom six died. New flu ...
p275
sg5
VBird Flu UK - The symptoms
p276
sa(dp277
g3
VAlthough no outbreaks of this particular avian flu virus have been ... does not typically infect humans. But, in 1997, ... the 1997 Hong Kong outbreak) ...
p278
sg5
VAvian Influenza - Nursing Link
p279
sa(dp280
g3
VSince 1997, when the current avian flu outbreak ... The initial human cases were in Hong Kong but cases have ... A history of avian flu outbreaks where humans have ...
p281
sg5
VCommon questions about avian flu - King County, Washington
p282
sa(dp283
g3
VAt least four people are known to have died from bird flu in ... first seen in humans in Hong Kong, 1997 . ... which closed on Monday because of an avian flu outbreak.
p284
sg5
VIndonesia fears bird flu epidemic - Alex Jones' Infowars: There's ...
p285
sa(dp286
g3
VBefore the outbreaks in Hong Kong (1997) ... Avian influenza Avian influenza, or "bird flu", ... Can migratory and wild birds transmit Avian influenza A/H5N1 to humans?
p287
sg5
VWHO | Avian influenza: food safety issues
p288
sa(dp289
g3
VBird Flu in Humans. Of all viruses in the avian flu ... of the 1997 Hong Kong H5N1 outbreak was the presence ... in Hong Kong were hospitalized, six of whom died.
p290
sg5
VBird Flu / Avian Influenza - GlobalSecurity.org - Reliable ...
p291
sa(dp292
g3
VI continue to admire the Hong Kong Centre for Health Protection, ... The infected patient had died shortly after admission to the hospital. ... Avian Flu Diary
p293
sg5
VH5N1: Hong Kong: Testing the response to a novel influenza outbreak
p294
sa(dp295
g3
VAvian flu: this is not 1918 The ... and have been infecting humans since at least 1997. ... in human beings until a boy in Hong Kong died of an H5 virus in 1997 that ...
p296
sg5
Vspiked | Avian flu: this is not 1918
p297
sa(dp298
g3
VBird Flu Pandemic (Avian Flu ... The H5N1 strain first infected humans in Hong Kong in 1997, causing ... and Viet Nam), and more than half of these people have died.
p299
sg5
VBird Flu Pandemic (Avian Flu) - ClassBrain Latest News ...
p300
sa(dp301
g3
V... Two American researchers whose efforts to deliberately re-engineer the H5N1 avian flu virus to be more virulent and deadly to humans ... Hong Kong back in 1997.
p302
sg5
VU.S. virologists intentionally engineer super-deadly pandemic flu ...
p303
sa.