(lp1
(dp2
S'description'
p3
VBing Crosby drops in for a visit to the \u201cStar Spangled Radio Hour\u201d this week with a 1945 NBC \u201cKraft Music Hall\u201d broadcast. The ultimate professional approach ...
p4
sS'title'
p5
VBing Crosby's 1945 broadcast featured on 'Star Spangled Radio Hour ...
p6
sa(dp7
g3
VThroughout his career, Bing Crosby often credited Mildred Bailey for getting him his first important ... He used his clout, both professional and ...
p8
sg5
VBing Crosby - Wikipedia, the free encyclopedia
p9
sa(dp10
g3
VIn 1929 a friend introduced Dixie to Bing Crosby. Bing recounted in his ... Although Bing demonstrated an active involvement in his sons\u2019 professional ...
p11
sg5
VTHE CROSBY FAMILY | Bing Crosby
p12
sa(dp13
g3
VCrosby, Ovechkin, Tavares up for Hart Trophy Crosby ... most valuable to his team. Members of the Professional Hockey Writers ... Bing Images: Actress ...
p14
sg5
VCrosby, Ovechkin, Tavares up for Hart Trophy - NHL News | FOX ...
p15
sa(dp16
g3
VThe Bing Crosby Show, his first TV special, was broadcast January 3, ... While Crosby\u2019s professional load became increasingly lighter in the early 1970s, ...
p17
sg5
VBING CROSBY - Sam Houston State University - Texas - Carnegie ...
p18
sa(dp19
g3
VYou won't regret getting acquainted with the talent of Bing Crosby. Bing got his professional start as a singer with Paul Whiteman's orchestra.
p20
sg5
VIt's a Bing Crosby World!
p21
sa(dp22
g3
VBing is a search engine that brings together the best of search and people in your social networks to help you spend less time searching and more time doing.
p23
sg5
VBing
p24
sa(dp25
g3
VAlso Known As: Harry Lillis Crosby Died: October 14, 1977: Born: May 3, 1903: Cause of Death: heart attack: Birth Place: Tacoma, Washington: Profession:
p26
sg5
VOverview for Bing Crosby
p27
sa(dp28
g3
V... devotedly pulled himself up from his bootshiners to excel at his profession. ... Bing Crosby was so full of his self-importance then, ...
p29
sg5
VBing Crosby - Uncyclopedia, the content-free encyclopedia
p30
sa(dp31
g3
VI believe this highlights the most important part of the song witch is the father\u2019s profession of love to his son. ... Bing Crosby\u2019s version- ...
p32
sg5
VRhetorical Analysis of the song \u201cDanny Boy\u201d | logansfantasticblog
p33
sa(dp34
g3
VRuss made his professional debut at Imperial Theater in San Francisco at the age of 13. ... with many of his band members, like Bing Crosby, ...
p35
sg5
VBing Crosby | David Kulczyk
p36
sa(dp37
g3
VHe also has a passionate belief that his dad\u2019s legacy will be revitalized as new generations discover Bing Crosby on ... Find a Professional; Member Tournaments;
p38
sg5
VEubanks: Nathaniel Crosby Remembers his Father's Tournament
p39
sa(dp40
g3
VProfessional Points of interest. Click for more information Academy Awards. Year Category Work; 1944 ... Does Bing Crosby deserve this star on the Hollywood Walk of Fame?
p41
sg5
VBing Crosby - Hollywood Star Walk - Los Angeles Times
p42
sa(dp43
g3
VHarry Lillis "Bing" Crosby (May 3, 1903 ... Show All Professional Experiences (22) Educational Background. N/A Gonzaga University. Related People. Daughter ...
p44
sg5
VBing Crosby - Bing Crosby & Louis... - Yatedo: Free People Search
p45
sa(dp46
g3
VBing Crosby, 73, Dies After ... newspaper l'Humanite praised the millionaire singer for putting in a "16-hour day trying to perfect all the facets of his profession."
p47
sg5
VAP and BBC Report Bing's Death -- Bing Crosby Internet Museum ...
p48
sa(dp49
g3
VHe used his clout, both professional and financial, to innovate new methods of reproducing audio of his ... Because his own Bing Crosby Enterprises produced the ...
p50
sg5
VBing Crosby - Always Victorian
p51
sa(dp52
g3
VIn 1937, Bing Crosby was one the biggest stars in the world. ... The event was an instant hit both with Crosby\u2019s Hollywood pals and with the professional golfers.
p53
sg5
VBing Crosby Golf Clambake | Today News Gazette
p54
sa(dp55
g3
VBing Crosby: A Pocketful of Dreams The Early Years: 1903-1940. ... Binge drinking and professional irresponsibility characterized most of his time with Paul Whiteman.
p56
sg5
VBing Crosby: Pocketful of Dreams - Home | University of Pittsburgh
p57
sa(dp58
g3
VHarry Lillis "Bing" Crosby was an ... historian John Dunning wrote about German engineers having developed a tape recorder with a near-professional broadcast ...
p59
sg5
VBing Crosby (Singer) - Pics, Videos, Dating, & News
p60
sa(dp61
g3
VBecause his own Bing Crosby Enterprises ... Beach National Pro-Am?has been a leading event in the world of professional golf. Crosby first took up the game ...
p62
sg5
VBing Crosby | Biography - Lyrics, Song Lyrics \u2013 LyricsFreak.com
p63
sa(dp64
g3
VBing Crosby was, along with Louis Armstrong, one of the fathers of the jazz-influenced singing. ... Their professional encounters, mostly on radio and then TV, ...
p65
sg5
VFrank Sinatra vs Bing Crosby
p66
sa(dp67
g3
VHe eventually worked on the production staff of his father's company, Bing Crosby Productions. ... Kenny Solms began his professional career in New York, ...
p68
sg5
VIMDb: Most Popular People With Biographies Matching "Bing+Crosby"
p69
sa(dp70
g3
VBirth Name: Harry Lillis Crosby; Birth Place: Tacoma, WA; Date of Birth / Zodiac Sign: 05/03/1903, Taurus; Date of Death: 10/14/1977; Profession: Actor; singer
p71
sg5
VBing Crosby News, Bing Crosby Bio and Photos | TVGuide.com
p72
sa(dp73
g3
VIn 1937, Bing started a little golf tournament to assist struggling, underpaid professional golfers elevate their game and earn a little extra money and notoriety ...
p74
sg5
VPHILANTHROPIST | Bing Crosby
p75
sa(dp76
g3
VAlso Known As: Died: October 14, 1977: Born: May 3, 1903: Cause of Death: heart attack: Birth Place: Tacoma, Washington: Profession: Cast ...
p77
sg5
VFilmography for Bing Crosby - TCM Turner Classic Movies
p78
sa(dp79
g3
VFind out how Bing Crosby handled his relationships and test what you and Bing Crosby have going in love, ... offers you the benefit of her vast professional experience.
p80
sg5
VBing Crosby relationships - Relationships with Celebrities & The ...
p81
sa(dp82
g3
VBiography of Bing Crosby, The singer of "White Christmas" ... Name at birth: Harry Lillis Crosby Though he is sometimes now forgotten, Bing Crosby was one of the ...
p83
sg5
VBing Crosby Biography (Singer/Actor) | Infoplease.com
p84
sa(dp85
g3
VSinging was a pastime, hardly a profession. ... You could say that Bing Crosby spent his life outwardly embodying the casual charm of his father while ...
p86
sg5
VA Long Way From Tacoma - The New York Times - Breaking News, World ...
p87
sa(dp88
g3
VGary Crosby, Bing's oldest son, on Bing as his father. ... He's a pure professional and is that much of a pro that he doesn't tolerate anyone else who isn't.
p89
sg5
VWhat They Said About Bing Crosby -- Bing Crosby Internet Museum ...
p90
sa(dp91
g3
VBing Crosby, the Unsung King of Song By GARY GIDDINS. ... High school and college clubs as well as professional pundits routinely debated their respective merits.
p92
sg5
VDeath and Funeral of Bing Crosby - A Christmas Carol Treasury ...
p93
sa(dp94
g3
VHe turned professional in 1984 and having failed ... He is the seventh child of the actor and singer Bing Crosby and the youngest of his three children from his ...
p95
sg5
VNathaniel Crosby - Freebase
p96
sa(dp97
g3
VHe used his clout, both professional and financial, to innovate new methods of reproducing audio of his ... Because his own Bing Crosby Enterprises produced the ...
p98
sg5
VFree Music Online - Internet Radio - Jango
p99
sa(dp100
g3
VBing Crosby on IMDb: Movies, TV, Celebs, and more... IMDb ... the first sitcom to feature a black actress as a professional woman rather than a domestic worker.
p101
sg5
VBing Crosby - News
p102
sa(dp103
g3
VThe youngest child of actor/singer Bing Crosby and his second wife Kathryn Grant, Mary Crosby made her first professional appearances in the company of her siblings ...
p104
sg5
VMary Crosby | Celebrities | Hollywood.com
p105
sa(dp106
g3
V... she\u2019s billed right up there with Bing Crosby and Barry ... and Judy Garland sang, recalled George Sanders in his 1960 tome, The Memoirs of a Professional Cad.
p107
sg5
VBing Crosby \u2013 classicmoviechat.com
p108
sa(dp109
g3
VFeatures new Bing Crosby songs and videos, ... It may not have been reviewed by professional editors and is licensed under the GNU Free Documentation License.
p110
sg5
VBing Crosby Music, News and Photos - AOL Music
p111
sa(dp112
g3
VGet the scoop on Bing Crosby with fun facts, ... that Bing Crosby loved to play golf and was a big fan of the professional golfers on the PGA tour.
p113
sg5
VBing Crosby Career and Biography Facts and Features | Destination ...
p114
sa(dp115
g3
VBing was always professional, always busy, filling up every spare moment with either singing or swinging\u2015a golf club, ... Bing Crosby, kept his personality in check.
p116
sg5
VMichael Feinstein\u2019s American Songbook | Bing Crosby | Performer
p117
sa(dp118
g3
VHolm\u2019s first professional theatrical role was in a production of \u201cHamlet\u201d starring Leslie Howard ... Bing Crosby relaxing with his friends!! Bing Crosby . Bing ...
p119
sg5
VBing Crosby | Classic Cinema Gold
p120
sa(dp121
g3
VComedy-Drama With Bing Crosby and Barry ... Having hit about as high in his profession as any average man would hope to hit--and that is to say the top notes in ...
p122
sg5
VComedy-Drama With Bing Crosby and Barry Fitzgerald
p123
sa(dp124
g3
VJosh Mallon (Bing Crosby) and Ace Lannigan ... the two main characters are usually con-men, although in this movie it is not their starting profession.
p125
sg5
V1940 - Road to Singapore - Bob Hope, Bing Crosby (download torrent ...
p126
sa(dp127
g3
VWho We Are. Viewed by users in over 225 countries Mix is the world's leading magazine for the professional recording and sound production technology industry.
p128
sg5
VJohn T. Mullin: THE MAN WHO PUT BING CROSBY ON TAPE
p129
sa(dp130
g3
VBing and his piano-player partner, ... They took place through the summer of 1925 and were Bing Crosby\u2019s first true professional entertainment experience.
p131
sg5
VBing Crosby
p132
sa(dp133
g3
VAs The Rhythm Boys, Crosby and his partners regained their professional standing quickly. ... The Bing Crosby Show, which ran for two seasons in the mid-1960s.
p134
sg5
VCrosby, Bing Study Guide & Homework Help - eNotes.com
p135
sa(dp136
g3
VRegarding his own effort to become a reinstated amateur\u2014he played three years of professional golf after graduating ... Bob Hope and Bing Crosby ...
p137
sg5
VNathaniel Crosby, the son of one of the game's most - 06.16.08 ...
p138
sa(dp139
g3
VFind out a lot of information about Bing Crosby at Celebrina.com. Bing Crosby profile: height, weight, nationality. ... Profession: Unknown (update information ...
p140
sg5
VBing Crosby Quotes, Trivia and Photos at Celebrina.com
p141
sa(dp142
g3
VHe was a true professional held in high esteem by Jack Mullin. ... The following two links provide more information on Bing Crosby and his recordings: ...
p143
sg5
VFirst-Hand:Bing Crosby and the Recording Revolution - GHN: IEEE ...
p144
sa(dp145
g3
VHe used his clout, both professional and financial, to innovate new methods of reproducing audio of his ... Because his own Bing Crosby Enterprises produced the ...
p146
sg5
VAstrology: Bing Crosby, date of birth: 1903/05/03, Horoscope ...
p147
sa(dp148
g3
VBing Crosby Theater. Events & Tickets; Events Calendar; Signup for Email Alerts; Group Ticket Sales; ... Ryan Keberle, who makes his living as a professional ...
p149
sg5
VSpokane Jazz Orchestra - Keberle Connection | Bing Crosby Theater
p150
sa(dp151
g3
VStarted Bing Crosby Clambake: 1937 William D ... having just played 18 holes with Spanish professional Manuel Pinero. His tournament continued to thrive under the ...
p152
sg5
VWorld Golf Hall of Fame Member Profile
p153
sa(dp154
g3
VBing Crosby Theater. Events & Tickets; Events Calendar; Signup for Email Alerts; Group Ticket Sales; ... Ryan Keberle, who makes his living as a professional ...
p155
sg5
VSpokane Jazz Orchestra - Keberle Connection | Bing Crosby Theater
p156
sa(dp157
g3
VStarted Bing Crosby Clambake: 1937 William D ... having just played 18 holes with Spanish professional Manuel Pinero. His tournament continued to thrive under the ...
p158
sg5
VWorld Golf Hall of Fame Member Profile
p159
sa(dp160
g3
VI am a mental health professional and anyone who has been a ... What I found most interesting is how great Bing Crosby seemed with his children from the second ...
p161
sg5
VGoing My Own Way: Gary Crosby, Ross Firestone: 9780385170550 ...
p162
sa(dp163
g3
VBing Crosby net worth: American actor and singer Bing Crosby was famous f. ... Bing Crosby Profession, Bing Crosby Salary, Bing Crosby Siblings, Bing Crosby Story,
p164
sg5
VBing Crosby Net Worth - TheRichest
p165
sa(dp166
g3
VDave Bing, former professional Basketball player; Jonathan Bing, a New York Assemblyman; ... officially titled "bing Crosby: A Celebration of His Life," takes place ...
p167
sg5
VBing | Learn everything there is to know about Bing at Reference.com
p168
sa(dp169
g3
VBing, real name Harry Lillis Crosby. 1904--77, US singer and film actor; famous for his style of crooning: ... medical, or any other professional. ...
p170
sg5
VCrosby definition of Crosby in the Free Online Encyclopedia.
p171
sa(dp172
g3
VHaving hit about as high in his profession as any average man would hope to hit\u2014and that to say the top notes in the musical comedy league\u2014Bing Crosby has ...
p173
sg5
V'Going My Way,' Comedy-Drama With Bing Crosby and Barry Fitzgerald ...
p174
sa(dp175
g3
VTurned professional: 1984 Regained amateur ... He is the seventh child of the actor and singer Bing Crosby and the youngest of his three children from his second ...
p176
sg5
VNathaniel Crosby - Wikipedia, the free encyclopedia
p177
sa(dp178
g3
VWhile Bing Crosby never lost his passion for golf, ... He and his longtime professional partner Peter Jacobsen twice came within two strokes of the cut, ...
p179
sg5
VThe Heritage of the Crosby - Carmel Magazine
p180
sa(dp181
g3
VBecause his own Bing Crosby Enterprises ... National Pro-Am\u2014has been a leading event in the world of professional golf. Crosby first took up the game ...
p182
sg5
VBing Crosby : Wikis (The Full Wiki) - Students, get citable ...
p183
sa(dp184
g3
VProfessional Wrestling; Speculative Fiction; Sports Story; War; ... Harry Lillis "Bing" Crosby started his career as a singer and made in big in the early 1930s with ...
p185
sg5
VBing Crosby - Television Tropes & Idioms
p186
sa(dp187
g3
VNathaniel Crosby made his late dad Bing, ... the golf professional at the Burlingame Country Club in Hillsborough, Calif., he developed into a very good player.
p188
sg5
VUSGA: Looking Back...Crosby Wins 1981 Amateur
p189
sa(dp190
g3
VMany people do not know that Bing Crosby had his own sitcom during the 1964-1965 television ... his annual income of $750,000 put him at the top of his profession.
p191
sg5
VTHE BING CROSBY NEWS ARCHIVE: June 2011
p192
sa(dp193
g3
VProfession: Actor; Born: May 2, 1903 Died: Oct 14, 1977 Birth Name: Harry Lillis Crosby; Biography: American actor/singer Bing Crosby acquired his ...
p194
sg5
VBing Crosby Movies | Movies.com
p195
sa(dp196
g3
VBing CROSBY Going Hollywood, Vol. 1: 1930-1936. ... Soon realising he could make more money as a singer than by pursuing a career in the legal profession, ...
p197
sg5
VBing CROSBY - Going Hollywood, Vol. 1: 1930-1936 - Jasmine Records
p198
sa(dp199
g3
VGeorge Robert "Bob" Crosby (1913-93) Bing got his name from a Sunday supplement included in the ... Nathaniel Patrick Crosby (born 1961) [Professional ...
p200
sg5
VKnow Old Time Radio: Bing Crosby (1903?-77)
p201
sa(dp202
g3
V(WayBack Machine) He used his clout, both professional and financial, ... Because his own Bing Crosby Enterprises produced the show, ...
p203
sg5
VBing Crosby | Artistopia Music
p204
sa(dp205
g3
VHe was going to knock over Bing Crosby. He knew it in the pit of his gut. ... at first, to gain even rudimentary success as a professional singer.
p206
sg5
VFall Out Boy Tickets
p207
sa(dp208
g3
VBing Crosby died on a golf course in Spain in 1977. Bing\u2019s son, Nathaniel, ... Bob has taught many well-known professional and amateur players, ...
p209
sg5
VThe Crosby Clambake - phillyburbs.com: Golf
p210
sa(dp211
g3
VBing a.k.a. Bing Crosby: Harry Lillis "Bing" Crosby was an American singer and actor. ... profession: Actor; read more about Emma Bing (actress)
p212
sg5
VWho is Bing?
p213
sa(dp214
g3
VSee his autobiography, Call Me Lucky (1953); K. Crosby, Bing and Other Things (1967); G. Giddens, Bing Crosby: ... medical, or any other professional. ...
p215
sg5
VBing Crosby definition of Bing Crosby in the Free Online Encyclopedia.
p216
sa(dp217
g3
VIt may not have been reviewed by professional editors and is licensed ... Bryn Terfel records a "duet" with the late Bing Crosby in a version of his ...
p218
sg5
VBBC - Music - Bing Crosby
p219
sa(dp220
g3
V... credits and award information for The Bing Crosby CBS Radio Recordings 1954-56 - Bing Crosby on ... lessons he'd learned over 30 years of professional ...
p221
sg5
VThe Bing Crosby CBS Radio Recordings 1954-56 - Bing Crosby : Songs ...
p222
sa(dp223
g3
VBing Crosby - World Golf Hall of ... having just played 18 holes with Spanish professional Manuel Pinero. His tournament continued to thrive under the watchful eye ...
p224
sg5
VGolf Player Friend Finder Horoscope - Bing Crosby - Actor
p225
sa(dp226
g3
VYet Bing Crosby was far more than that: He was an architect of 20th century entertainment, ... We do not offer professional advice on careers or memorabilia.
p227
sg5
VBing Crosby - About | Facebook
p228
sa(dp229
g3
VOnline Tax Australia - Simple, Easy, Professional Tax Returns ($49 FIXED PRICE) ... Bing Crosby, Bing in Dixieland / Seasons: The Closing Chapter ...
p230
sg5
VBing Crosby Gets Reissued
p231
sa(dp232
g3
VMADRID (AP 10/15/77) -- Bing Crosby, 73, ... according to Juan Tomas Gandarias, one of Crosby's partners and a professional golfer. Gandarias, ...
p233
sg5
VWhat was Bing Crosby's golf score the day he died - The Q&A wiki
p234
sa(dp235
g3
VWhat follows is an account of Bing Crosby's last round of golf and his subsequent death on October 14, 1977. ... "I'm a professional," he said.
p236
sg5
VBing Crosby - The Final Round - Lake Providence, Louisiana ...
p237
sa(dp238
g3
V"It wasn't easy being Mrs. Bing Crosby." ... With typical determination, Kathryn carved out a series of professional lives apart from Bing's.
p239
sg5
VThings Aren't Rosy in the Crosby Clan as Kathryn Sells Bing's ...
p240
sa(dp241
g3
VThe Bing Crosby Edsel Show, ... Bing gave advice to his young male caddy about the importance of getting a college degree before trying to become a professional golfer.
p242
sg5
VBing Crosby and Gonzaga University: 1955 - 1977 - Gonzaga University
p243
sa(dp244
g3
VBing Crosby was one of the very few new stars of the early talking pictures \u2014 we can't think of ... pleasant voice and the casual wit of his professional ...
p245
sg5
VThe Book on Bing Crosby: Bing Goes to the Movies - TIME
p246
sa(dp247
g3
VA panicked Bing Crosby wired this note to his brother Everett after ... Everett hired Paul R. Williams to design a home in Hollywood celebrating his professional ...
p248
sg5
VEverett Crosby Residence - Bel Air - Paul Revere Williams
p249
sa(dp250
g3
VThat application came in the unlikely form of singer Bing Crosby ... Bing was recording his show ... Why your voice-over recordings need to be FULLY professional ...
p251
sg5
VBing Crosby and analog
p252
sa(dp253
g3
VProfession: Actor; Born: May 2, 1903 Died: Oct 14, 1977 Birth Name: Harry Lillis Crosby; Biography: American actor/singer Bing Crosby acquired his ...
p254
sg5
VBing Crosby | Movies.com - New Movies | Movie Trailers | Movie ...
p255
sa(dp256
g3
VBecause his own Bing Crosby Enterprises ... Pro-Am\u2014has been a leading event in the world of professional golf. Crosby first took up the ...
p257
sg5
VBing Crosby - The Archangel Michael [Religion, Theology, relevant ...
p258
sa(dp259
g3
V"Bing Crosby made golf cool," Soltau said to the crowd during the ceremony. ... it has been a leading event in the world of professional golf.
p260
sg5
VBing Crosby, Bob Hope and Dinah Shore inducted into SCGA Hall ...
p261
sa(dp262
g3
VBing Crosby Theater. Events & Tickets; Events ... Joe Vespaziani also began his professional comedy career in 1989 and has been a busy and consistent performer ever ...
p263
sg5
VBada Bing! Comedy Series with Kermet Apio and Joe Vespaziani ...
p264
sa(dp265
g3
VThe youngest child of actor/singer Bing Crosby and his second wife Kathryn Grant, Mary Crosby made her first professional appearances in the company of her siblings ...
p266
sg5
VMary Crosby - Biography - MSN Movies
p267
sa(dp268
g3
VBing Crosby singing Irving Berlin's "Easter Parade" from the 1942 film, "Holiday Inn". Posted by briggsie on Apr 23 2011 2669 printer friendly
p269
sg5
VBing Crosby singing Irving Berlin's "Easter Parade" from the 1942 ...
p270
sa(dp271
g3
VBing Crosby's widow, Kathryn Crosby, ... Penn Badgley says he and ex-girlfriend were 'professional' on Gossip Girl set after she married Ryan Reynolds;
p272
sg5
VBing Crosby's widow recovering after crash which killed second ...
p273
sa(dp274
g3
V***Here is an interesting article I found online regarding Bing's son*** Bing Crosby's son made sweet music ... finished on two-under with professional ...
p275
sg5
VTHE BING CROSBY NEWS ARCHIVE: HARRY CROSBY GOLFING WITH THE STARS
p276
sa(dp277
g3
Vto help create a Bing Crosby legacy in his hometown. ... professional act before he and his performing partner Al Rinker moved on to greatness in Hollywood and beyond.
p278
sg5
VA Gala Dedication & Film Festival Kathryn Crosby
p279
sa(dp280
g3
VIn a professional career that lasted 60 years, ... Bing Crosby; Perry Como; Peggy Lee; Tommy Dorsey; Bing Crosby; Harry James; Louis Armstrong; Billy Eckstine; Al ...
p281
sg5
V103.5 The Fox - 103.5 The Fox
p282
sa(dp283
g3
VIn 1947 Bing Crosby put Apalachicola on the map with a song called "APALACHICOLA, F-L-A". ... played professional baseball from 1937 to 1951.
p284
sg5
VHistory on the song "We're on our way" by Bing Crosby
p285
sa(dp286
g3
VNote: Nevada resident Carolyn Schneider is author of the book 'Bing: On the Road to Elko' about her uncle Bing Crosby and his 15 years as a Nevada cattle rancher. She ...
p287
sg5
VAs Veterans Day approaches, niece remembers Bing Crosby's service ...
p288
sa(dp289
g3
VAlready a professional by 1922, ... A star of unparalleled proportions during his 1930s-1940s, Bing Crosby (born Harry Lillis Crosby, Spokane, May 31st 1903 ...
p290
sg5
VBing Crosby - Bing With A Swing - Bygone Days
p291
sa(dp292
g3
VCrosby, Bing (1903-1977) and Mildred Bailey (1907-1951), Spokane's Jazz Royalty. ... Crosby realized that he wanted to be a professional musician.
p293
sg5
VCrosby, Bing (1903-1977) and Mildred Bailey (1907-1951), Spokane's ...
p294
sa(dp295
g3
VHarry Lillis "Bing" Crosby (May 3, 1903 ... His first important professional engagements were with the Edgar Benson and Ray Miller bands, ...
p296
sg5
VFrankie Trumbauer Orchestra Bing Crosby - Mississippi Mud 1928 ...
p297
sa(dp298
g3
VDarrell Berg-Smith, CEO of The Asian Regional Impact Initiative, is a professional speaker, author, ... Legendary Crooners - Bing Crosby, ...
p299
sg5
VLegendary Crooners - Bing Crosby, A Man of Many Talents Who Had ...
p300
sa(dp301
g3
VBing Crosby | Jazz | Vocal. Show: Penguins ... The company was then later run by his son Abner (Ab) Crosby Jr. until 1993 when ... View Dianne Crosby's professional ...
p302
sg5
VAb Crosby - Peeepl.com
p303
sa.