(lp1
(dp2
S'description'
p3
VThe Canadian Howdy Doody Show made its debut on November 15, ... there was a short-lived puppet character called Mr. X ... Main page; Contents; Featured content;
p4
sS'title'
p5
VHowdy Doody - Wikipedia, the free encyclopedia
p6
sa(dp7
g3
VThe Howdy Doody Show (1947\u20131960) "Puppet Playhouse" ... Create a character page for: ... Interest-Based Ads An company. Amazon Affiliates
p8
sg5
VThe Howdy Doody Show (1947\u20131960) "Puppet Playhouse" (original title)
p9
sa(dp10
g3
VPuppet Playhouse on IMDb: Movies, ... main details combined details full cast and crew company credits episode list episodes cast episode ... "The Howdy Doody Show" ...
p11
sg5
V"The Howdy Doody Show" (1947) - Full cast and crew
p12
sa(dp13
g3
VThe main character was a puppet named Elmer, a nerdish country-bumpkinish character. ... Within a week the show's name was changed to 'The Howdy Doody Show'.
p14
sg5
VHowdy Doody - Fun Facts and Information - Fun Trivia Quizzes ...
p15
sa(dp16
g3
VRemembering HOWDY DOODY's Cast of Characters All Other TV Shows ... Howdy Doody puppet. ... this character--who was eight-animals-in-one-- was voiced by Dayton Allen ...
p17
sg5
VRemembering HOWDY DOODY's Cast of Characters - Sitcoms Online ...
p18
sa(dp19
g3
VTV Main Page Index of All TV ... Puppet Playhouse Howdy Doody Cast. Bob Smith as Buffalo Bob Smith ... Howdy Doody was the first show to ever hit the 2,000 episode mark?
p20
sg5
VClassic TV Shows - Howdy Doody with Buffalo Bob Smith and Clarabell
p21
sa(dp22
g3
Vhowdy doody Cardboard Animated Puppet ... Movie & Character Toys, Howdy Doody ... puppet playhouse" and that it came with 5 other members of the howdy doody show.
p23
sg5
VHowdy Doody Cardboard Animated Puppet from The 1950's Puppet ...
p24
sa(dp25
g3
VThe Howdy Doody Show. The puppet was the character on The Howdy Doody ... is based on a number of things ... is worth anything. it has howdy doody and another person ...
p26
sg5
VHowdy Doody Collectibles - Marye Audet on HubPages
p27
sa(dp28
g3
VShe appeared as a real person but was killed in an auto accident. She returned to the Howdy Doody show as a puppet in future shows. Posted by Jonathan ...
p29
sg5
V"Ajacks' I Don't Know Why, I just do": Princess Summerfall ...
p30
sa(dp31
g3
V1952 Peter Puppet Clarabell Marionette in Orig. Box From Howdy Doody Show Toys ... Calculate Varies based on ... Peter Puppet: Year: 1952: Character Family: Howdy ...
p32
sg5
V1952 Peter Puppet Clarabell Marionette in Orig Box from Howdy ...
p33
sa(dp34
g3
VWe determined to \u201cimprove\u201d the Howdy Doody character to the ... and the show it\u2019s based ... of the puppet characters on the Howdy Doody TV show, ...
p35
sg5
VCartoon Brew TV #22: Howdy Doody and His Magic Hat (1953 ...
p36
sa(dp37
g3
VChild audiences are interested in the imagination shown in Howdy Doody and shows like ... a puppet is controlled by a person while he ... main character ...
p38
sg5
VThe Technology of Film Puppets: Breaking the Reality-Fantasy ...
p39
sa(dp40
g3
V... with Howdy Doody (the main character) ... for children and then created The BBC Television Puppet Theatre based in Lime Grove Studios ... Afghan puppet show;
p41
sg5
VMarionette - Wikipedia, the free encyclopedia
p42
sa(dp43
g3
V... that's starring in CBS' new Twitter-based ... or was it the exact replica of the original Howdy Doody puppet? ... (person only) more Howdy Doody ...
p44
sg5
VHowdy Doody News, Howdy Doody Bio and Photos | TVGuide.com
p45
sa(dp46
g3
VHowdy Doody character. Noticed that someone told you that the \u201cpuppet ... Princess was changed to a live person. Tyler left the show in ...
p47
sg5
V"Ajacks' I Don't Know Why, I just do": Princess Summer Fall Winter ...
p48
sa(dp49
g3
VMaybe on an animation site Howdy Doody the puppet is ... One person who might know is ... quality and realize that \u201cThe Howdy Doody Show\u201d was a huge ...
p50
sg5
VLost UPA Cartoon: Howdy Doody and his Magic Hat | Cartoon Brew
p51
sa(dp52
g3
VShopWiki has 32 results for Original box for the Howdy Doody Circus ... This same style box was used for all Howdy Doody character ... New Howdy Doody Show, ...
p53
sg5
VOriginal box for the Howdy Doody Circus Clarabell Toy - Peter ...
p54
sa(dp55
g3
VIn Character Toys. Brand. Disney (1) Gund (1) ... Vintage Howdy Doody Puppet Wall Climber Figure TV ... RUSHTON ZIP ZIPPY PLUSH MONKEY CHIMP HOWDY DOODY SHOW ORIGINAL ...
p56
sg5
VHowdy Doody | eBay
p57
sa(dp58
g3
V... a half-hour Walt Disney Productions TV series based on the well-known Zorro character, ... The Howdy Doody Show ... A bus driver and a sewer worker were the main ...
p59
sg5
VTelevision in the 50's - ProProfs: Knowledge Sharing Tools & Free ...
p60
sa(dp61
g3
V... who played Doodyville schoolteacher "Happy Harmony" on "The New Howdy Doody Show ... show them my puppet ... person in Boston to have her own TV show ...
p62
sg5
VHK AND CULT FILM NEWS: The Marilyn (Patch) Arnone Interview
p63
sa(dp64
g3
V... teamed up with Lord Lew Grade to bring to the home screen a new type of puppet show whose ... the show's lead character ... Howdy Doody (NBC, December ...
p65
sg5
VTen Classic Television Puppet Shows - Yahoo! Voices - voices.yahoo.com
p66
sa(dp67
g3
V... based on the 1970 movie of ... "The Howdy Doody Show" (originally titled "Puppet ... Sam Becket never returned home," which misspells the main character's ...
p68
sg5
VFamous Final Episodes - Fun Facts, Questions, Answers, Information
p69
sa(dp70
g3
V\u201cHowdy Doody,\u201d the puppet, ... Smith decided to name the main character, \u201cHowdy Doody.\u201d The full ... he thought he\u2019d do a Boston-based show and commute only ...
p71
sg5
VGrub Street | The Grub Street Interview - Grubstreet.ca | Read ...
p72
sa(dp73
g3
VThis page shows my all-wood and transition plastic base / wood figure puppets. Howdy Doody character ... The Kohner labels on the plastic based puppets ...
p74
sg5
VCharmayne's push puppet page, Kohner gallery
p75
sa(dp76
g3
V... the Howdy Doody character is synonymous ... original Howdy Doody puppet brought it to Warhols studio and ... used in filming the show. With Howdy Doody, ...
p77
sg5
VAndy Warhol (1928-1987) | Howdy Doody (from Myths) | Post-War ...
p78
sa(dp79
g3
V... Main | The Popeye Show ... a live-action character who spoke to ... it never got the national exposure that other puppet-based shows like The Howdy Doody ...
p80
sg5
VDiver Dan - Classic Kids TV - Madam Lichtenstein's Cosmic World
p81
sa(dp82
g3
VIt is interesting to note that Bob played the part of Clarabell the Clown on the old Howdy Doody show, ... His main character on the show was ... a puppet show maybe ...
p83
sg5
VCaptain Kangaroo - Squidoo : Welcome to Squidoo
p84
sa(dp85
g3
VCecil hand puppet (from "Beany & Cecil ... Howdy Doody hand puppets (Dilly Dally, ... i have over 40 anime figurines and another 20 anime character based keychains ...
p86
sg5
VClassic TV Character Toys - Sitcoms Online Message Boards - Forums
p87
sa(dp88
g3
V... he put on weekly puppet shows at the Veterans ... The original puppeteer on the Howdy Doody show was ... When I heard that the main day of shooting ...
p89
sg5
VArticles on Puppetry: writing about Puppets
p90
sa(dp91
g3
VUnlike the common puppet show, Karagiozis is performed with only one person manipulating the puppets. ... Karagiozis gets its name from the main character, ...
p92
sg5
VNo Strings Attached - ThinkQuest
p93
sa(dp94
g3
VHowdy Doody (Howdy Doody; ... is a caring person who wants the best for his family and his neighbors. ... a five-minute puppet show on WRC-TV.
p95
sg5
V10 Famous Puppets in the History of Television | The Sixth Wall
p96
sa(dp97
g3
V... the freckle-faced cowboy puppet Howdy Doody, ... shows the age of the person-- I'm in my mid-20s and have ... teased based on a clown or cow ...
p98
sg5
VGenerational Divide: Is This Name Stylish or Clownish? | NameCandy
p99
sa(dp100
g3
VThe third Howdy puppet known as Photo Doody ... At one time very early in the show (1947) the Howdy Doody puppet had a horse-like ... Houston Person Live ...
p101
sg5
VKnickerbocker Village: It's Howdy Doody Time
p102
sa(dp103
g3
V... It's The Howdy Doody Show Join Howdy in the ... a character named Elmer on the show. ... started out as a puppet but later became a real person on ...
p104
sg5
VeBay Canada Guides - Howdy Doody Show Buying Guide...Honk Honk
p105
sa(dp106
g3
VHOWDY DOODY VENTRILOQUIST DUMMY DOLL PUPPET! ... They Make A Great Show! We show one shot with this character in the protective ... You\u2019re the first person to watch ...
p107
sg5
VHOWDY DOODY VENTRILOQUIST DUMMY DOLL PUPPET! NEW! | eBay
p108
sa(dp109
g3
VHowdy Doody (1) -26" This is the show ... some people may call any puppet or vent figure Howdy Doody ... Lester is based on the wonderful character ...
p110
sg5
VTribute to Ventriloquism | Ventriloquist Central | VENTRILOQUIST ...
p111
sa(dp112
g3
V... creator of the original Howdy Doody and ... It is a puppet based show with an ... The Friends Puppet Company have performed their character education puppet ...
p113
sg5
VFree Puppet Scripts: General Links
p114
sa(dp115
g3
VA mere two days after the Howdy Doody finale, ... She appeared with Hush Puppy on variety shows where she and the puppet did an ... based on the book by ...
p116
sg5
VTV in 1960: Farewell to Howdy Doody, Hello to The Flintstones and ...
p117
sa(dp118
g3
V"A Children's Puppet Show", ... the Sicilian marionettes are based on local folklore and comedy. ... with Howdy Doody (the main character) ...
p119
sg5
VJ O H N N Y D E P P Z O N E \u2022 View topic - On Stranger Tides ...
p120
sa(dp121
g3
VHe also put together his own puppet shows in Sunday School and Elementary School using ... "Your Show of Shows", and "Howdy Doody". ... person who can make the ...
p122
sg5
VLarry Smith Biography
p123
sa(dp124
g3
VMain Show & Tell All Toys Auctions ... The most famous hand puppet characters evolved from 19th-century British street shows based on a comedic ... Howdy Doody ...
p125
sg5
VVintage and Antique Puppets - Collector Information | Collectors ...
p126
sa(dp127
g3
VKeeshan had previously played the clown Clarabell on the Howdy Doody Show. ... and puppet characters Mr ... grandfatherly character, and the show had a gentle ...
p128
sg5
VCaptain Kangaroo - Classic Kids TV - Madam Lichtenstein's Cosmic World
p129
sa(dp130
g3
VAdler also performed every person who came to Soupy's ... he started each of his 2,543 Howdy Doody shows ... nationally known for his puppet shows ...
p131
sg5
VPuppet Life Articles - Puppet Studio Design Performance Puppets ...
p132
sa(dp133
g3
VFor an actor almost universally associated with a single character ... TV show TekWar, based on the popular ... puppet lineup of Howdy and Heidi Doody, ...
p134
sg5
VWilliam Shatner Movies
p135
sa(dp136
g3
VI\u2019ve been watching Howdy Doody DVD ... the indescribable puppet made of mixed animal parts, Allen invited another character to join Howdy and him for a ...
p137
sg5
VHowdy Doody, November 15, 2009 - DCWatch home page
p138
sa(dp139
g3
VBeany and Cecil was a kid\u2019s puppet show, ... this character goes back a long way ... Do you remember the Pinky Lee show, which aired just before Howdy Doody?
p140
sg5
VBy Cracky! Remember Kids Shows of the 50's?
p141
sa(dp142
g3
V... in this memoir-based British drama of a young ... puppet shows were regarded as ... you are stuck with Howdy Doody,\u201d says Toronto puppeteer ...
p143
sg5
VWhy we still love the Muppets (and always will) - The Globe and Mail
p144
sa(dp145
g3
VThe Howdy Doody Show was one of the first and easily the ... at a table during a cabaret show. He later based the puppet\u2019s face ... Puppet character ...
p146
sg5
VANIMATED VENTRILOQUIST DUMMIES
p147
sa(dp148
g3
V... based the show on "the warm relationship between grandparents and children." Keeshan had portrayed the original Clarabell the Clown on The Howdy Doody Show ...
p149
sg5
VCaptain Kangaroo - WikiPedia Mobile by Verkata
p150
sa(dp151
g3
V'The Howdy Doody Show' ... to create a new Howdy puppet. ... Rufus Rose and his wife Margo were also hired as the main puppeteers for the show. See More.
p152
sg5
VEyes Of A Generation.com | Facebook
p153
sa(dp154
g3
V... in this memoir-based British drama of a young ... puppet shows were regarded as ... you are stuck with Howdy Doody,\u201d says Toronto puppeteer ...
p155
sg5
VWhy we still love the Muppets (and always will) - The Globe and Mail
p156
sa(dp157
g3
VThe Howdy Doody Show was one of the first and easily the ... at a table during a cabaret show. He later based the puppet\u2019s face ... Puppet character ...
p158
sg5
VANIMATED VENTRILOQUIST DUMMIES
p159
sa(dp160
g3
V... based the show on "the warm relationship between grandparents and children." Keeshan had portrayed the original Clarabell the Clown on The Howdy Doody Show ...
p161
sg5
VCaptain Kangaroo - WikiPedia Mobile by Verkata
p162
sa(dp163
g3
V'The Howdy Doody Show' ... to create a new Howdy puppet. ... Rufus Rose and his wife Margo were also hired as the main puppeteers for the show. See More.
p164
sg5
VEyes Of A Generation.com | Facebook
p165
sa(dp166
g3
V... freckled marionette with his own TV show in the 1950s 'The Howdy Doody Show ... The title is an acromn based on the names of the main ... The character was ...
p167
sg5
VComic Book Characters With Red Hair - Raising Redheads Parenting ...
p168
sa(dp169
g3
VIf you didn't watch this show during your childhood ... Puppet & Puppeteer; Howdy Doody and ... and ran for five seasons Also featuring a third main character, ...
p170
sg5
VChildren's TV of Yesteryear - Movies | Movie Trailers | Reviews ...
p171
sa(dp172
g3
Vthe main character. ... 1 person rated this as good; ... I think you're thinking about the " Buster Brown Show". Or was that the " Howdy Doody Show"?
p173
sg5
VSeniors< What was your favorite childrens' radio show, and why ...
p174
sa(dp175
g3
VPETER PUPPET PLAYTHINGS Marionettes. ... A character from the late 1940's TV kid's show. Some of the characters VERY closely resemble the Howdy Doody Characters.
p176
sg5
VMarionette String Puppets vintage and collectible for sale from ...
p177
sa(dp178
g3
VThe original title for the show: Puppet Playhouse. The Howdy Doody Cast: ... Superman the character continued on with the ... no young person with any self-respect ...
p179
sg5
V~Buffalo Gal's Attic~ \u2122 - Remember When
p180
sa(dp181
g3
VBased in Chicago, Frank Marshall (1900 ... Danny O. Day or Howdy Doody for a dummy that won't run ... of Ventriloquism when he introduced his famous character Charlie ...
p182
sg5
VThe Value of Ventriloquist Dolls | eHow.com
p183
sa(dp184
g3
VIt has been well documented that Bob Keeshan was Clarabelle the Clown on the 'Howdy Doody Show ' before he was Captain ... character on a drawing board ... TV puppet ...
p185
sg5
VCaptain Kangaroo / Bob Keeshan - Classic TV / TVparty!
p186
sa(dp187
g3
VWhat is the name of Caroll\u2019s most famous character that he ... To perform Howdy Doody His own Picklepuss show ... Whose person is Oscar the Grouch based on?
p188
sg5
VMuppet Central Guides - Caroll Spinney Trivia
p189
sa(dp190
g3
V... was a New York-based voice actor who was ... the live puppet series Howdy Doody in 1949 ... the title character on the puppet series Diver Dan ...
p191
sg5
VAllen Swift - Muppet Wiki
p192
sa(dp193
g3
V... who based the show on "the warm relationship between grandparents and ... Howdy Doody was a children's television ... Mr. Moose was a puppet character ...
p194
sg5
VCaptain Kangaroo - Turkcebilgi English Section
p195
sa(dp196
g3
VBased on the novel by ... and the familiar puppet lineup of Howdy and Heidi Doody, ... the Canadian Howdy Doody was emceed by a quasi-Mountie character named ...
p197
sg5
VAlfie Scopp Movies
p198
sa(dp199
g3
V... and to the Howdy Doody puppet like it was a real person. ... before offering any false assumptions about his character. ... Rocco Main Video by ...
p200
sg5
VThe Partnership - YouTube
p201
sa(dp202
g3
V... the title of a work overshadows the main character. ... The confusion might also be because the blog the show was based on was called ... submissive person.
p203
sg5
VIconic Character, Forgotten Title - Television Tropes & Idioms
p204
sa(dp205
g3
VQuite a few of the larger 5 inch plastic based puppets warp over ... around the neck of Howdy Doody. Push Puppet collecting can be a way of ... I show off my ...
p206
sg5
VeBay Canada Guides - Kohner Push Puppets, Thumb Puppets Collapsing ...
p207
sa(dp208
g3
VBOZO THE CLOWN Larry Harmon EEGEE Co Ventriloquist Doll Puppet Figure Character. ... HOWDY DOODY MARIONETTE VENTRILOQUIST PUPPET ... Canadian dollars based upon ...
p209
sg5
Vventriloquist puppets | eBay
p210
sa(dp211
g3
VThe title characters were a pair of puppet anthropomorphic pigs created by ... preceded the popular Howdy Doody Show, ... the main character in the cartoon ...
p212
sg5
VDictionary - Definition of pinky
p213
sa(dp214
g3
VRobert Keeshan (Photo/wiki) Related articles TV shows and pilots - Is your favorite series 'over' or renewed? Walter ... Skip to main content. Follow us
p215
sg5
VThe late Robert Keeshan remembered as Captain Kangaroo - video ...
p216
sa(dp217
g3
VDoes it matter which puppet they use? ... I sent howdy doody to a Xtian friend and he said "You'll get ... Is facing this fear the ultimate accomplishment a person ...
p218
sg5
VSmoking Mirrors | The Howdy Doody President.
p219
sa(dp220
g3
V... which had been called "the ugliest puppet imaginable" by some. Howdy Doody was a ... puppet show, based in ... of the puppet and another person ...
p221
sg5
VPuppets And Puppet Theatres Ppt Presentation
p222
sa(dp223
g3
VThe lessons taught on Sesame Street are based upon scientific research that determines the ... "Puppet Playhouse" (which was later renamed "The Howdy Doody Show") ...
p224
sg5
VSesame Street TV Show
p225
sa(dp226
g3
V... for such a beloved character as the Cowardly Lion ... was based on a \u2018Howdy Doody\u2019-ish TV show with all ... a poignant first-person essay ...
p227
sg5
V\u201cToy\u201d story man - Salon.com
p228
sa(dp229
g3
V... Robert A. Heinlein's 1951 novel The Puppet Masters comes ... nicely played by comedian and character actor Richard Beizer into an ... which is based on Robert ...
p230
sg5
VThe Puppet Masters (1994) - Rotten Tomatoes
p231
sa(dp232
g3
VThe Howdy Doody custody battle between the Detroit Institute of ... So this room and the puppet shows in it will be reason ... one-person shows ...
p233
sg5
VThe Puppetry Home Page Puppet News Archive - Sagecraft
p234
sa(dp235
g3
VHowdy Doody and the Princess, ... shows Indian John and Caddie and the "scalp belt" ... Howdy Doody's Indian princess puppet; Howdy Doody and the Princess
p236
sg5
VImages of Indians in Children's Books
p237
sa(dp238
g3
VIn the mid-80s he produced a short-lived TV show, The Puppet Parlor ... show--"sort of an updated version of Howdy Doody"--but never ... the main character, ...
p239
sg5
VHanging By A String | Feature | Chicago Reader
p240
sa(dp241
g3
VACC Shows; Subscribe to American Craft; ... Lovik has also converted toy character puppets, such as Charlie McCarthy (left) or Howdy Doody (back), ...
p242
sg5
VTalking Heads | American Craft Council
p243
sa(dp244
g3
V... then went national when it became a regular feature on The Howdy Doody Show. The Gumby character ... and puppet buddies Sam ... with himself as the costumed main ...
p245
sg5
V\u201cWelcome to the altered state of Druggachusettes!\u201d: 25 notably ...
p246
sa(dp247
g3
V... and solving a maze so a character can ... sincere interview with Howdy Doody (the original puppet and ... which is based on Davey and Goliath. The show Robot ...
p248
sg5
VSubverted Kids Show - Television Tropes & Idioms
p249
sa(dp250
g3
VMany of the early television stars were entering television with some variation of their radio shows. Her two main ... Howdy Doody. This character was ... based on ...
p251
sg5
VHiya, Kids!: A '50s Saturday Morning - Home Theater Info
p252
sa(dp253
g3
VThe show was conceived and the title character played by Bob Keeshan, who based the show on "the warm ... the Clown on The Howdy Doody Show when it ... Person Seasons ...
p254
sg5
VCaptain Kangaroo - Freebase
p255
sa(dp256
g3
V... Lilo and Stitch sort of share the "main character" job, ... he matures as a "person". ... correctly, Howdy Doody (upon whom Woody was vaguely based) ...
p257
sg5
VWoody from Toy Story - Has there ever been a main hero in a child ...
p258
sa(dp259
g3
VWhite\u2019s a character, for sure, but the film never makes a convincing case for him as a talent worthy of a 90-minute documentary. (89 min., unrated) ...
p260
sg5
VMovie review: \u2018Beauty Is Embarrassing\u2019 - Story of an artist ...
p261
sa(dp262
g3
VCharacter on the Howdy Doody show: ... and based on a real cop in the 6th street station. ... Name on the 3rd floor mailbox in 1985 at 127 Lower Main Street, ...
p263
sg5
VStephenKing.com - IT (Characters)
p264
sa(dp265
g3
V... Puppet Theater officially became The Howdy Doody Show and we ... on Howdy', never 'on the puppet'." As the show's ... the main character's sister who is ...
p266
sg5
VA Month in the Life of the Comics - Collectors Society Message Boards
p267
sa(dp268
g3
VHe voiced and performed all of the puppet characters on the show and is ... of Howdy Doody. For the show\u2019s ... character was loosely based, ...
p269
sg5
VClassicflix.com Blog: Hiya, Kids!! 50's Saturday Morning Fun in May
p270
sa(dp271
g3
VThe episode was so popular Smith launched The New Howdy Doody Show a ... James Yarnell based on the ... the series airing prior to the main character's ...
p272
sg5
VHappy Days - Wikipedia, the free encyclopedia
p273
sa(dp274
g3
V... who based the show on "the warm ... Hugh Brannum played the Captain's main sidekick ... Like the character of Clarabelle that he played on Howdy Doody, the ...
p275
sg5
VCaptain Kangaroo - Who or What is Captain Kangaroo? Find out more
p276
sa(dp277
g3
VSkip to main content. Follow us . Follow @examinercom; OnTopic custom content solutions . Learn more about how Examiner.com can help your site. Examiner.com.
p278
sg5
VA Treasure House filled with fun and love - National Historic ...
p279
sa(dp280
g3
VThe other main characters were the \u2018varmints\u2019 Muskie Muskrat, ... \u201cPuppet Playhouse\u201d (1947) TV series (voice) ... aka The Howdy Doody Show (USA: new title)
p281
sg5
VHomeland Security to Train Firefighters to Help Identify Terror ...
p282
sa(dp283
g3
VHold pointer over photo for person's ... of The Howdy Doody Show, the puppet-and-people program that ... she reacted to Meg Ryan's character, who ...
p284
sg5
VLife In Legacy - Week of October 25, 2008
p285
sa(dp286
g3
V... probably the most famous clown of the 1950s - Clarabell from the 'Howdy Doody Show' starring Buffalo Bob Smith. 'Howdy ...
p287
sg5
VCaptain Kangaroo
p288
sa(dp289
g3
VCowboy movies are the main thing I remember seeing ... Art decided to mount an exhibition based on the ... was then the most popular program, The Howdy Doody Show.
p290
sg5
VPart 3: Television | The Comics Journal
p291
sa(dp292
g3
VHe is a highly-collectible Wild West action figure who once was the star of his own TV show (loosely based upon Howdy Doody ... puppet character who ... MAIN PAGE ...
p293
sg5
VCGI characters - The encyclopedia Shortopedia - Main page
p294
sa(dp295
g3
VHe based it on the performance his own father ... "The Howdy Doody Show" (original title: "Puppet ... Late Show," Art Carney breaks character by laughing at ...
p296
sg5
VThe Honeymooners Trivia Facts - ShareTV - The Online Television ...
p297
sa(dp298
g3
VAnd one of the main ... I used to go around the neighborhood asking neighbors if I could show them my puppet ... How was "The New Howdy Doody Show" received by ...
p299
sg5
VHK AND CULT FILM NEWS: December 2009
p300
sa(dp301
g3
VThe movie is loosely based on the story ... Howdy Doody and Clarabell - Howdy was the puppet ... Little Orphan Annie - The main character in Harold Gray\u2019s ...
p302
sg5
V25 Famous Fictional Redheads - Tilted Forum Project Discussion ...
p303
sa.