(lp1
(dp2
S'description'
p3
VAt Grand Cayman we did a jet ski trip out to the ... as Norwegian Cruise Line (NCL) ... positive than my first NCL cruise. The ship was of course ...
p4
sS'title'
p5
VNorwegian Cruise Line - Miami, FL
p6
sa(dp7
g3
VDon't have as much free time as you like?Try an NCL 3 or 4 day cruise. ... just a few of the highlights of the Jewel class ship, Norwegian Pearl. ... Grand Cayman ...
p8
sg5
VEastern Caribbean, Western Caribbean & Southern Caribbean Cruise ...
p9
sa(dp10
g3
VCruise Lines "A - O" > Norwegian Cruise Line ... What is your favorite ship in the NCL fleet, and why you like it? My hubby and I are ... Quote: Originally Posted by ...
p11
sg5
VFavorite ship in the NCL fleet and why? - Cruise Critic Message ...
p12
sa(dp13
g3
VThe old NCL vs the new Norwegian Cruise Line ... NCL Norwegian Jewel 11/14-11/21/10 ... (Cozumel & Grand Cayman)
p14
sg5
VThe old NCL vs the new - Cruise Critic Message Board Forums
p15
sa(dp16
g3
VCruise Ship Turned Away: Norwegian Epic Not Allowed to Dock in Bahamas, ... \u2192 Cruise News \u2192 Norwegian Cruise Line ... Grand Cayman Grand Turk
p17
sg5
VCruise Ship Turned Away: Norwegian Epic Not Allowed to Dock in ...
p18
sa(dp19
g3
VGrand Cayman Cruise Ship Excursion Information. ... Weekly Cruise Lines are ... pay a visit to the Blue Iguana Souvenir Outlet a few steps away from the terminal ...
p20
sg5
VGrand Cayman cruise ship guide and info, Cayman Islands
p21
sa(dp22
g3
VThis was our first cruise with NCL on the Norwegian Pearl ... I liked the fact that the cruise ship was better taken ... It's not the Norwegian Cruise Line fault its ...
p23
sg5
VNorwegian Cruise Lines - Belltown - Seattle, WA
p24
sa(dp25
g3
VWhere most at-sea children's programs turn their backs on the under-threes, NCL welcomes even ... Grand Cayman, and ... this one with Norwegian Cruise Lines, ...
p26
sg5
VNorwegian Pearl Information | Norwegian Cruise Line | Cruisemates
p27
sa(dp28
g3
V... we found everything to be as expected from NCL. The ship ... more beach time,grand cayman pirates were cute ... cruise with Norwegian cruise line, ...
p29
sg5
VNCL Norwegian Pearl Customer Stories - Cruise Deals | Vacations ...
p30
sa(dp31
g3
VNorwegian Cruise Line's CEO ... we're here in New York City welcoming our newest ship, Norwegian ... But the grand slam on the Norwegian Epic was her design where ...
p32
sg5
VNorwegian Cruise Line's CEO Discusses Q1 2013 Results - Earnings ...
p33
sa(dp34
g3
VGreek Isles- NCL Jade 7/13/2012 review Norwegian Cruise Line ... the ship did a 180 turn so it could then pull ... Grand Mediterranean (Review w/ pics) NCL Epic ...
p35
sg5
VGreek Isles- NCL Jade 7/13/2012 review - Cruise Critic Message ...
p36
sa(dp37
g3
V... cruise reviews, cruise ship ... Norwegian Cruise Line Norwegian Sun by ... others from our "cruise critics group" to go see the stingrays in Grand Cayman.
p38
sg5
VNorwegian Cruise Line - Cruisemates Reader's Cruise Reviews
p39
sa(dp40
g3
VNorwegian Cruise Lines does NOT ... but NCL did fix it on the 4th day. Also, the ship supplied ... What I really want to know is what Norwegian Cruise line is ...
p41
sg5
V183 Complaints and Reviews about Norwegian Cruise Lines
p42
sa(dp43
g3
VNorwegian Cruise Line ripoff Hidden ... norwegian cruise lines ncl cruise line night mare cabin ... I sailed NCL not long after the storms damaged Grand Cayman.
p44
sg5
VRipoff Report | Norwegian Cruise Line | Complaint Review: 185276
p45
sa(dp46
g3
VNorwegian Cruise Line (NCL) Norwegian Dawn western Caribbean cruise review. ... Cruise Line: Norwegian Cruise Line Ship: ... Grand Cayman, Costa Maya, ...
p47
sg5
VNorwegian Dawn Western Caribbean Cruise Review
p48
sa(dp49
g3
VThe Freedoms were in turn overtaken by RCI's Oasis-class ... (which owns 50% of Norwegian Cruise Line, NCL in its own right ... and Star Cruises/Norwegian Cruise Lines.
p50
sg5
VCruise ship - Wikipedia, the free encyclopedia
p51
sa(dp52
g3
VNorwegian Cruise Line's Jewel ... job as a barmaid on Norwegian Cruise Lines' Norwegian ... near the shore line of Grand Cayman, dead. When NCL contacted ...
p53
sg5
VNorwegian Cruise Line's Jewel - February 7, 2006 - Cruise Ship Deaths
p54
sa(dp55
g3
VNorwegian Cruise Line ... (06,09,10) ~ Ruby(08) ~ Grand(12) Norwegian (Silver ... Helpful NCL documents http://www2.ncl.com/downloads/docs NCL ship Virtual ...
p56
sg5
VPrincess = A; NCL = F - Page 5 - Cruise Critic Message Board Forums
p57
sa(dp58
g3
VBeing spring break for kids, the ship was packed, yet never stood in line for ... a 7 day cruise to Mexico, Grand Cayman, ... on any other cruise line! Great job NCL!!
p59
sg5
VNCL Norwegian Sun Customer Stories - Cruise Deals | Vacations ...
p60
sa(dp61
g3
VWhat is the major differences between carnival and NCL Norwegian Cruise Line ... (Cozumel & Grand Cayman) ... M.V. Norwegian Sun 2010 (Norwegian Cruise Line)
p62
sg5
VWhat is the major differences between carnival and NCL - Cruise ...
p63
sa(dp64
g3
VI wanted to go on a Norwegian Cruise, the NCL ... Problems with a Norwegian Cruise Line ... that point I was told that the ship that we were sailing did ...
p65
sg5
VProblems with a Norwegian Cruise Line - The Spirit that... - New ...
p66
sa(dp67
g3
VCelebrity Grand Cayman ... Cruise Lines: Carnival Grand Cayman ... America Grand Cayman Cruises \u2022 Msc Cruises Grand Cayman Cruises \u2022 Norwegian NCL Grand ...
p68
sg5
VCelebrity Grand Cayman Cruises - Cruise Reviews, Cruise Deals and ...
p69
sa(dp70
g3
V... it's the big-ship, mass-market cruise lines that have embraced full-service ... Grand Cayman, for instance, can be ... Norwegian Cruise Line Why? NCL offers a ...
p71
sg5
VBest Cruises for Weddings - Cruises - Cruise Critic
p72
sa(dp73
g3
VHoliday Reviews Cruise Norwegian Cruise Line Norwegian ... by ncl because the ship had been ... Barbados,Cosoma,and Grand Cayman all nice islands and only ...
p74
sg5
VNorwegian Pearl Reviews | Norwegian Cruise Line | Cruise Reviews ...
p75
sa(dp76
g3
VGrand Bahama Island; Grand Cayman; Great Stirrup Cay; ... It may turn out to be cheaper than carrying ... the current wine prices on the ship (Norwegian Jewel ...
p77
sg5
VNCL Norwegian Jewel : Questions, Answers, How To, FAQs, Tips ...
p78
sa(dp79
g3
VGrand Bahama Island; Grand Cayman; Great ... I turn 18 two months before my cruise is ... you can pre-book all of your requirements through your on-line ncl account ...
p80
sg5
VNCL Norwegian Epic : Questions, Answers, How To, FAQs, Tips ...
p81
sa(dp82
g3
VEscape completely on a cruise vacation to destinations such as the Caribbean, ... Royal Princess Cruise Ship Atrium ... Princess Cruise Lines, ...
p83
sg5
VCruise Vacations & Deals from Princess Cruises | Cruise Line
p84
sa(dp85
g3
VNorwegian Kids Cruise from New York City ... After you book your NCL cruise, ... Stop in at Grand Central Terminal while you're nearby ...
p86
sg5
VNCL - Norwegian Kids Cruise From New York City
p87
sa(dp88
g3
VWe are considering booking a cruise on Norwegian to Alaska cause we ... on the front of the ship might turn into ... on Norwegian Cruise Line ...
p89
sg5
VCruises Forum: Penthouse suites on Norwegian Cruise Line ships ...
p90
sa(dp91
g3
VCruise Line: Norwegian Cruise Line Ship ... (after the turn down ... variety of choices unlike many other cruise lines. That impressed me. NCL offers a fairly ...
p92
sg5
VCruise Review - The Norway
p93
sa(dp94
g3
VNorwegian Cruise Line; Oceania ... asked how my meal was I told him the soup was cold and he walked away. > > GRAND ... 8 Why did pick a certain cruise line? by ...
p95
sg5
VNCL GEM 11/29/09-The Good Bad and the Ugly-Review | Cruises Forum ...
p96
sa(dp97
g3
VNCL's NORWEGIAN BREAKAWAY, the largest ship ever constructed in ... Norwegian Cruise Line\u2019s Chief Executive ... I\u2019ll let you know how things turn out, ...
p98
sg5
VNORWEGIAN BREAKAWAY Has Left The Building | MaritimeMatters ...
p99
sa(dp100
g3
VAs the SS Norway she was the flagship of the Norwegian Cruise Line from ... Grand Cayman, Cayman Islands; Roatan and NCL's ... been cut away, and the ship's ...
p101
sg5
VSS France (1961) - Wikipedia, the free encyclopedia
p102
sa(dp103
g3
VReview: NCL Dawn, Western Caribbean, Dec 9th. Norwegian Cruise Line Your ... O" > Norwegian Cruise Line: Review: NCL ... I might actually come away from this cruise ...
p104
sg5
VReview: NCL Dawn, Western Caribbean, Dec 9th. - Cruise Critic ...
p105
sa(dp106
g3
VExplore Jamaica and Grand Cayman ... If you can pull yourself away ... Half Moon Cay is a destination on most Holland America Line Caribbean and Panama Canal cruise ...
p107
sg5
VWestern Caribbean Cruise Vacations: Grand Cayman, Belize & Mexico ...
p108
sa(dp109
g3
VPage 2- NCL Bonus Rewards Program Norwegian Cruise Line ... Forums > Cruise Lines "A - O" > Norwegian Cruise Line: NCL Bonus ... the bottom of a cruise ship, ...
p110
sg5
VNCL Bonus Rewards Program - Page 2 - Cruise Critic Message Board ...
p111
sa(dp112
g3
VCruise Line: Norwegian. Ship: Norwegian Sky. ... While many cruise lines have gotten away from the gala midnight buffets, ... Golf at Grand Cayman Resort.
p113
sg5
VFind a Cruise - Norwegian Sky review - Western Caribbean by Tom Ogg
p114
sa(dp115
g3
VCruise Review of Norwegian Cruise Line-Norwegian Sun by jerry hoehn. ... Ship: Norwegian Sun Itinerary: \u201cExotic\u201d Western Caribbean. Miami, Grand Cayman, Roatan ...
p116
sg5
VCruise Review - Norwegian Sun - Norwegian Cruise Line ...
p117
sa(dp118
g3
VNCL's FOOD Norwegian Cruise Line ... Grand Bahama Norwegian ... LIFE IS NOT MEASURED BY THE BREATHS WE TAKE~~BUT BY THE MOMENTS THAT TAKE OUR BREATH AWAY NCL ...
p119
sg5
VNCL's FOOD - Cruise Critic Message Board Forums
p120
sa(dp121
g3
VCruise Line: Norwegian. Ship: Norwegian Star. ... The Norwegian Star was the first ship in NCL\u2019s fleet that was designed ... Tucked away in a corner this space was ...
p122
sg5
VFind a Cruise - Norwegian Star review - Alaska by Nancy Norris
p123
sa(dp124
g3
VClick here for Environmental Events and Fines by Norwegian Cruise Line ... swimming at Seven Mile Beach on Grand Cayman. ... the ship to turn away from ...
p125
sg5
VEvents by Norwegian Majesty - cruisejunkie.com Cruise Page
p126
sa(dp127
g3
V... turning around and walking away. Cruise ship security ... Seven Mile Beach on Grand Cayman. ... other ship" Norwegian Cruise Line pled guilty to on ...
p128
sg5
VEvents at Sea by Norwegian Cruise Line - cruisejunkie.com Cruise Page
p129
sa(dp130
g3
VNorwegian Epic Spa prices Norwegian Cruise Line ... NCL Norwegian Star April ... of the spas are now so I guess they figure they can get away with it, so why not ...
p131
sg5
VNorwegian Epic Spa prices - Cruise Critic Message Board Forums
p132
sa(dp133
g3
V... Cruise Line Information > Norwegian Cruise Lines > Feb 10, 2011 NCL ... the ship sailing away!!! The ship finally ... cruise, we missed Grand Cayman due ...
p134
sg5
VFeb 10, 2011 NCL Dawn Nightmare Cruise - Norwegian Cruise Lines ...
p135
sa(dp136
g3
V... We'll be cruising on NCL, ... 3 Getting to stingray city in Grand Cayman by jacketwatch ... 9 Why did pick a certain cruise line? by Eschew ...
p137
sg5
VElectronic reservation of a freestyle dining restaurant on NCL ...
p138
sa(dp139
g3
VWe just finished a delightful Panama Canal Cruise on the Norwegian ... below NCL is our favorite cruise line. ... papers from flying away. Another days I did.
p140
sg5
VNorwegian Star Aft Facing Penthouse - Cruise News, Cruise Reviews ...
p141
sa(dp142
g3
VI requested ship credit because my mother passed away exactly one ... to Amsterdam for a cruise aboard the Norwegian Gem on NCL. ... using Norwegian Cruise Line.
p143
sg5
V181 Complaints and Reviews about Norwegian Cruise Lines | Page 4
p144
sa(dp145
g3
V... Grand Cayman, for instance, can be ... Norwegian Cruise Line. Why? NCL offers a vast array of options, ... includes a shipboard ceremony performed by your ship's ...
p146
sg5
VThe 9 best cruise lines for weddings - travel - TODAY.com
p147
sa(dp148
g3
V... Questions about bringing wine onboard Norwegian Cruise Line ... O" > Norwegian Cruise Line: New to NCL ... We were told that they turn in the sticker for a ...
p149
sg5
VNew to NCL - Questions about bringing wine onboard - Cruise Critic ...
p150
sa(dp151
g3
VMs. Keating appealed to Norwegian Cruise Line (NCL) ... to cancel a scheduled stop in Grand Cayman in order to ... to demand that the cruise ship stay away from ...
p152
sg5
VMaritime Lawyer & Attorney : James M. Walker : Walker & O'Neill ...
p153
sa(dp154
g3
V... Grand Cayman Cozumel, ... 5:33 NCL's New Norwegian Pearl by Ralph Grizzle 16,798 views 14:29 Norwegian Pearl Cruise Ship ...
p155
sg5
VNCL Pearl 7 Day Cruise - YouTube
p156
sa(dp157
g3
Vshared parasailing pics grand cayman: Did you share a picture chip with ... the highly embattled cruise ship line, ... Norwegian Cruise Lines followed this ...
p158
sg5
VCarnival Funville Online Community | Cruise Blogs & Forums ...
p159
sa(dp160
g3
VHere's the best way to get away cheap ... Virtual Ship Tour Want to see examples of what a cruise ship has to ... Brand New Norwegian Breakaway Cruise. May ...
p161
sg5
VWhy Choose Cruise Deals?
p162
sa(dp163
g3
V... on a cruise ship? ... Germany which recently completed construction of Norwegian Breakaway for rival cruise line NCL. ... Turn them on and we'll update the ...
p164
sg5
VQuantum of the Seas: Royal Caribbean cruise ships to offer sky ...
p165
sa(dp166
g3
VGrand Cayman. Great Stirrup Cay. Haifa. ... There are lines for returning to the ship afterwards, ... or just relax and wait your turn in line like we did ...
p167
sg5
VNCL Ratings and Reviews - Cruise Deals | Vacations | Norwegian ...
p168
sa(dp169
g3
VSo it is very frustrating when we hear clients telling us that they were the only people to turn ... ship to be added to the Norwegian Cruise Line ... away \u201d for a ...
p170
sg5
VCruise With John
p171
sa(dp172
g3
VTo be a classied as one of the best cruise ship, the cruise line should not only look for ... till very late that evening at turn ... stayed away from NCL.
p173
sg5
VWhat\u2019s the Worst Cruise Line? \u2014 Cruise Talk Central
p174
sa(dp175
g3
Vthe ugliest cruise ship in the world, the Norwegian ... Norwegian Cruise Line, or a Disney ship ... of call in our two-week Caribbean cruise: Grand Cayman ...
p176
sg5
VCarnival Cruise Lines - Carnival Glory Cruise Review by Jim Zim
p177
sa(dp178
g3
VPassenger Missing From HAL's Eurodam Cruise Ship - Why Do All HAL ... the Norwegian Jewel for her family and grand kids at ... to Norwegian Cruise Line (NCL) ...
p179
sg5
VCruise Law News : Maritime Lawyer & Attorney : James M. Walker ...
p180
sa(dp181
g3
VAft of the pool area is situated the Norwegian Jewel's Garden Cafe, the ship's buffet venue, ... Ocho Rios, Grand Cayman and ... NCL - Norwegian Cruise Line ...
p182
sg5
VNorwegian Jewel - The Cruise site with news, articles, list of ...
p183
sa(dp184
g3
VCome Sail Away! Cruises and Vacations, ... Guess where Grand Princess is spending the day? ... Cruises and Vacations shared Norwegian Cruise Line's album.
p185
sg5
VCome Sail Away! Cruises and Vacations | Facebook
p186
sa(dp187
g3
VBut I think everyone should try the Le Bistro on any NCL ship. ... 7-night cruise on Norwegian Cruise Line's Norwegian ... We did miss a port (Grand Cayman) ...
p188
sg5
VFreestyle Cruising 2
p189
sa(dp190
g3
VCelebrity Cruises represents modern luxury in cruising, through beautiful cruise ships and top-of-the-line cruise travel amenities. ... Ship: Departs from: ...
p191
sg5
VCruise Vacations with Celebrity Cruise Line | Celebrity Cruises
p192
sa(dp193
g3
VGrand Bahama Island; Grand Cayman; Great ... bus back to the ship. However, those things did not change our ... so get in line for that right away so you won ...
p194
sg5
VNCL Ratings and Reviews - Cruise Deals | Vacations | Norwegian ...
p195
sa(dp196
g3
VBook a Cruise - CruiseServer - Search Caribbean - Search Alaska ... Book Online: Cruise: Air: Hotel: Car
p197
sg5
VLatest Cruise News
p198
sa(dp199
g3
VWe're just a phone call away - booking a cruise is not like a hotel and our accredited ... NORWEGIAN CRUISE LINE. Norwegian Pearl ... dining room, baby grand ...
p200
sg5
VNorwegian Pearl Cruises 2013 & 2014 | CRUISE SALE | $91/day twin
p201
sa(dp202
g3
V... Norwegian Cruise Line, ... Ever consider celebrating your big day aboard a cruise ship? Why not let a knowledgeable travel or ... From Grand Cayman and ...
p203
sg5
VGroup cruises - carnival princess norwegian ncl costa cunard ...
p204
sa(dp205
g3
V... gave away the bride. Tonight the ship hosts a \u201cRuby Red Tie\u201d gala and sets sail on a two-night ... Jamaica; Grand Cayman, ... Norwegian Cruise Line (NCL) ...
p206
sg5
VCruise News - Part 2
p207
sa(dp208
g3
VDisney Cruise Line has selected the most stunning destinations\u2014in the most exciting regions around the world ... Grenada, Barbados, Grand Cayman, St. Maarten and ...
p209
sg5
VDisney Cruise Destinations | Disney Cruise Line
p210
sa(dp211
g3
VCayman Islands Reinstates Ban On Cruise Ship Dockings ... Norwegian Cruise Line (NCL) ... Norwegian Cruise Line (NCL) announced that Norwegian Dawn will be entering a ...
p212
sg5
VWelcome to Ships and Cruises - Special Cruises - Cruise News
p213
sa(dp214
g3
V\u2022 Piloting a major cruise ship into a bow on collision ... , Norwegian Cruise Line ... and she carried away three ...
p215
sg5
V2008 Nightmare M/V NCL.Dream
p216
sa(dp217
g3
V... Net Reviews Cruise Line: Carnival Cruise Lines Age: -- Cruise Ship: Victory ... Carnival Victory Review sailing to Grand Cayman, Cozumel and ... Saw NCL Sun ...
p218
sg5
VReview: Carnival Cruise Lines - Victory - [December 07, 2003]
p219
sa(dp220
g3
VAlthough the ship\u2019s operator, Celebration Cruise Lines, ... to as an NCL Jewel class ship ... on the short Bahamas cruise circuit. End of Grand ...
p221
sg5
VGrand BAHAMAS CELEBRATION \u2014 Updated | MaritimeMatters | Cruise ...
p222
sa(dp223
g3
VBook a Cruise - CruiseServer - Search Caribbean - Search Alaska ... Book Online: Cruise: Air: Hotel: Car
p224
sg5
VCruise Ship Profiles Cruise Lines - Premier
p225
sa(dp226
g3
VNorwegian Cruise Line: ... try your luck on the slot machines in the casino and party the night away in ... Falmouth, Jamaica : George Town, Grand Cayman : Cozumel ...
p227
sg5
VRoyal Caribbean Cruises 2013 & 2014 - - Cruises, Cruise Deals and ...
p228
sa(dp229
g3
VGrand Cayman is a tender port, that ... Norwegian Cruise Line's Norwegian Sun will call Port Canaveral ... NCL ship positioning: Norwegian Star to Tampa on seven-day ...
p230
sg5
VCruise News - Aaron's Cruise Chatter
p231
sa(dp232
g3
Vand the rest of the ship are not the cruise lines PR photos , ... George Town,Grand Cayman; Montego Bay, ... Norwegian Cruise Line. Norwegian Dawn
p233
sg5
VFreedom Of The Seas Cruise Review - Cruise Traveler Magazine ...
p234
sa(dp235
g3
VNorwegian Cruise Line's Norwegian Pearl returned to the Port of Miami yesterday with one less ... representing the largest ship in NCL\u2019s ... GRAND CAYMAN, Cayman ...
p236
sg5
VCruise Diva: December 2008
p237
sa(dp238
g3
VHolland America Cruise Line; MSC Cruises; Norwegian Cruise Line; ... arrived at Grand Cayman. The ship ... Deals \u2022 Mexico Cruise Deals \u2022 Norwegian (NCL) ...
p239
sg5
VCruise Review - Carnival Conquest - Carnival Cruise Line ...
p240
sa(dp241
g3
V... on cruise ship that ... kitchen & wait staff - the grand majority of jobs on board - will turn away most ... Cruise lines cannot afford to ...
p242
sg5
VWhy are the vast majority of cruise ship employees foreign ...
p243
sa(dp244
g3
VThe launch of Holland America Line's newest ship Nieuw Amsterdam is only a week away and the ... Grand Cayman and ... for Norwegian Cruise Line\u2019s Norwegian ...
p245
sg5
VCruise Diva: June 2010
p246
sa(dp247
g3
VFreestyle Cruising Accommodations to suit every type of guest are revealed for Norwegian Cruise Line's Norwegian Epic. ... Cruise Line's largest \u201cFun Ship ... away ...
p248
sg5
VCruise Diva's Cruise Planner
p249
sa(dp250
g3
V\u2018Cake Boss\u2019 bakery sets up shop on the new Norwegian Breakaway cruise ship. ... and NCL's turn to TLC star ... weekend by Norwegian Cruise Line and celebrity ...
p251
sg5
VCruise Lines International Association - Fort Lauderdale, FL ...
p252
sa(dp253
g3
VDid you share a picture chip with three ladies in grand cayman. I: ... Star Ship Atlantic (Premier cruise lines ... on every ship. Norwegian wouldn't let me in the ...
p254
sg5
VCarnival Funville Online Community | Cruise Blogs & Forums ...
p255
sa(dp256
g3
V... Squarepants aboard Norwegian Cruise Line. ... NCL Cruise Deals. See all Norwegian ... the cruise line or cruise ship to better ...
p257
sg5
VHot family cruise travel ideas for 2013-2014|Family Cruises Deals ...
p258
sa(dp259
g3
V... it was maybe one or two options on a ship. Norwegian Cruise Line had \u201cLe ... lines like Carnival and Norwegian ... cruise lines have done away w ...
p260
sg5
VCruise lines getting worse than airlines \u2014 now Carnival charges ...
p261
sa(dp262
g3
VSeveral cruise lines operate ... in Grand Cayman amble along the beautiful ... The first cruise ship to sail out Galveston was Norwegian Cruise Line\u2019s Southward ...
p263
sg5
VProfessor Cruise Ship
p264
sa(dp265
g3
VThese are also the smallest and most affordable cabins on a cruise ship. Did I ... Hang up evrything you can right away and stow ... - Norwegian Cruise Line has ...
p266
sg5
VPicking the Best Cabin for Your Cruise - Squidoo : Welcome to Squidoo
p267
sa(dp268
g3
V... on an 11-day TransAtlantic cruise from Miami to Barcelona on NCL\u2019s Epic. ... Juliussen kept trying to move the ship away ... and muggy as Norwegian Cruise Lines ...
p269
sg5
VGarrett On The Road | Travel, Transportation and Anything Else ...
p270
sa(dp271
g3
VFCO 'concerned' after Argentina turns away cruise ... people invited on board Norwegian Cruise Line\u2019s new ship ... NCL's Norwegian Dawn undergoes multi ...
p272
sg5
VCruise
p273
sa(dp274
g3
V... and their art in turn lured ... and bejeweled with grand mansions and immaculate gardens. Cruise visitors ... Cruise travelers can why along the ...
p275
sg5
VCanada travel and New England cruises on Holland America Line
p276
sa(dp277
g3
VLegends In Concert To Headline On NCL\u2019s New \u2018Norwegian Epic\u2019 Norwegian Cruise Line has announced that ... Cruise or Grand Voyages ... ship is NCL \u2019s largest ...
p278
sg5
VWelcome to Ships and Cruises - Special Cruises - Cruise News
p279
sa(dp280
g3
VThere is a Caribbean cruise line called Norwegian Cruise Line. NCL is ... deluxe ship categories respectively, have Norwegian ... a cruise to turn over ...
p281
sg5
VFirst Time Cruisers : traveltruth.com
p282
sa(dp283
g3
VLots more fun activities planned on other lines... On the Norwegian web site at ... not a cruise ship ... escort unto the ship. You are soon whisked away to ...
p284
sg5
VNorwegian Gem - Midtown West - Manhattan, NY
p285
sa(dp286
g3
VYou can take a cruise to hell on many cruise ships that have Grand Cayman ... NCL's new ship, Norwegian ... During a shore excursion with Norwegian Cruise Lines, ...
p287
sg5
VDebbie Gavazzi's Contributor Profile - Yahoo! Contributor Network ...
p288
sa(dp289
g3
V... technologically advanced cruise ship to ... This, in turn, led to my discussion of why some people cannot admit they ... norwegian cruise line (4) Norwegian ...
p290
sg5
VGoldring Travel's This Is My Yacht - Cruise & Travel - (877) 2GO ...
p291
sa(dp292
g3
V... NCL Majesty 2007 - Celebrity Constellation ... So, why did the ship arrive so late in Costa Maya??? ... Norwegian Cruise Lines;
p293
sg5
VAllure of the Seas - Cruise News, Cruise Reviews, Ship Videos ...
p294
sa(dp295
g3
V... Grand Cayman; Puerto Limon, ... Cruise Ship Jobs with Cunard Line and P&O Cruises - Carnival UK\u2019s website, ... NCL - Norwegian Cruise Lines; Oceania Cruises;
p296
sg5
VGay Sail Away
p297
sa(dp298
g3
VAn interesting electrical connection to ship fires, and a potential line to India ... cruise ship disasters ... just before it was delivered to NCL.
p299
sg5
VFlaming Cruise Ships, Batman! | Musings from the Chiefio
p300
sa(dp301
g3
VAmerican Holidays offers Flights, Package Holidays, Hotels, Cruises & Fly Drives to the USA, Canada & more. Call us in Dublin (01) 673 3840 or Belfast on (028) 9051 1840
p302
sg5
VPackage Holidays, US Flights, Hotel Deals in USA & Canada ...
p303
sa.