(lp1
(dp2
S'description'
p3
VHe won the World Heavyweight title with a ... at age 45, he regained the Heavyweight Championship by ... After an even first round, Foreman staggered ...
p4
sS'title'
p5
VGeorge Foreman - Wikipedia, the free encyclopedia
p6
sa(dp7
g3
VGeorge won the Heavyweight Championship of the World ... chased his dream of becoming Heavyweight Champion again. He was too old, ... George Foreman, ...
p8
sg5
VGeorge Foreman's Record-Setting Heavyweight Championship Win ...
p9
sa(dp10
g3
VGeorge Foreman becomes oldest heavyweight champ ... after winning his first 37 professional ... When he won his second heavyweight title in his 1994 fight ...
p11
sg5
VGeorge Foreman becomes oldest heavyweight champ \u2014 History.com ...
p12
sa(dp13
g3
VOf great George Foreman record as the oldest man to win a championship. ... United States was the first fight between ... Boxing legend George Foreman won gold ...
p14
sg5
VGeorge Foreman - Fox Sports Search for
p15
sa(dp16
g3
VGeorge foreman was 45 years, 9 month and 25 day old, when he won his last heavyweight title against a guy called ... Be the first person to mark this ...
p17
sg5
VHow old was George Foreman when he last won the heavy weight title ...
p18
sa(dp19
g3
VMoorer had just won the championship ... year old George Foreman for his first title ... would actually decide the Heavyweight Championship of ...
p20
sg5
VQuestion about the Michael Moorer vs George Foreman heavyweight ...
p21
sa(dp22
g3
VGeorge Foreman is a retired American boxer who twice won boxing's heavyweight championship. ... George Foreman won ... He won his first 37 professional ...
p23
sg5
VGeorge Foreman Biography - Facts, Birthday, Life Story - Biography.com
p24
sa(dp25
g3
V... he first became heavyweight champion, Foreman does it again. Trailing badly on the cards and needing a knockout to win, Foreman ... George Foreman and ...
p26
sg5
VForeman vs Moorer 10th rd ko - YouTube
p27
sa(dp28
g3
V... defeating reigning champion Joe Frazier in four minutes and 35 seconds to win the heavyweight championship of ... old George Foreman pulls ... to win first WWF ...
p29
sg5
VForeman beats Frazier to win heavyweight title in Jamaica ...
p30
sa(dp31
g3
Vchampionship. 9:45 p.m., June 15 ... of the picture for the 64-year-old Foreman, ... owner Mark Cuban and former heavyweight champion George Foreman ...
p32
sg5
VGeorge Foreman hopes family promotion business carries a punch ...
p33
sa(dp34
g3
VAPJoe Frazier goes down in the first round against George Foreman ... Foreman had won the heavyweight title. But he ... win the heavyweight championship. ...
p35
sg5
VBoxing's Greatest Fighters: George Foreman - boxing - ESPN
p36
sa(dp37
g3
VWhen George Foreman threw a right ... Walcott who won the heavyweight championship at ... a 45-year-old man king of the heavyweights, George Foreman ...
p38
sg5
VGeorge Foreman's Record-Shattering Heavyweight Championship Win at ...
p39
sa(dp40
g3
V... Tyson reminded many people of the old George Foreman, ... won the heavyweight championship of ... first title defense. George was old - he ...
p41
sg5
VGeorge Foreman: The Architect of the Most Successful Comeback in ...
p42
sa(dp43
g3
V... to become the first southpaw to win a major Heavyweight championship. Meanwhile, 45-year old George Forman ... for the Heavyweight championship, Foreman's status ...
p44
sg5
VMichael Moorer vs. George Foreman - Wikipedia, the free encyclopedia
p45
sa(dp46
g3
VGeorge Edward Foreman ... George regained the world heavyweight title by knocking out Michael Moorer in the 10th round in 1994. ... Won his first 40 fights, ...
p47
sg5
VGeorge Foreman - Biography
p48
sa(dp49
g3
VBut that is precisely what happened when an old George Foreman ... when he regained the heavyweight championship ... Foreman demonstrated that he could win a ...
p50
sg5
VGeorge Foreman - King of the Super Heavweights | The Boxing ...
p51
sa(dp52
g3
VBut that is precisely what happened when an old George Foreman came back against the odds and won the world heavyweight championship, ... Foreman had 15 first round ...
p53
sg5
VGeorge Foreman - Cox's Corner
p54
sa(dp55
g3
VIt pitted then World Heavyweight Champion George Foreman against ... won the championship in grand ... Ali came out dancing in the first round and Foreman ...
p56
sg5
VGeorge Foreman vs. Muhammad Ali - Boxrec Boxing Encyclopaedia
p57
sa(dp58
g3
VThe George Foreman we see today represents ... won the heavyweight championship for the first time in 1973 and regained it a ... \u201cWhen he first came to me with ...
p59
sg5
VGolden: Foreman remains a force in boxing world | www.mystatesman.com
p60
sa(dp61
g3
VBut that is precisely what happened when an old George Foreman came back ... heavyweight championship ... first comeback fight George Foreman ...
p62
sg5
VGEORGE FOREMAN King of the Super-Heavyweights | Monte Cox
p63
sa(dp64
g3
V... George Foreman ... Started boxing in 1966 while he was in the Job Corps. First ... Became the oldest boxer ever to win the World Heavyweight Championship ...
p65
sg5
VGeorge Foreman - Boxrec Boxing Encyclopaedia
p66
sa(dp67
g3
V... Joe Frazier's 1973 heavyweight defense against George Foreman in ... seven times to win the championship in 1959. From the first thudding ...
p68
sg5
VJoe Frazier-George Foreman I opened the door to a heavyweight ...
p69
sa(dp70
g3
VGeorge Edward Foreman. ... Foreman went on to win the heavyweight ... Foreman's main comeback goal was to regain the World Heavyweight Championship. He ...
p71
sg5
VGeorge Edward Foreman - The Robinson Library
p72
sa(dp73
g3
VForeman got his shot at the world heavyweight championship when he was ... he founded the George Foreman ... the oldest fighter ever to win the heavyweight ...
p74
sg5
VGeorge Foreman . BigGeorge.com
p75
sa(dp76
g3
VForty years gone by as the anniversary of George Foreman winning the Heavyweight Championship of ... smoke Big George. He ... Frazier rarely won the first ...
p77
sg5
VTime in a Hurry\u2014Foreman Was Never Better - Boxing.com
p78
sa(dp79
g3
VVisit Amazon.com's George Foreman Page and shop ... He won the World Heavyweight title with a ... at age 45, he regained the Heavyweight Championship by ...
p80
sg5
VAmazon.com: George Foreman: Books, Biography, Blog, Audiobooks, Kindle
p81
sa(dp82
g3
VGeorge Edward Foreman ... Foreman was set to challenge for the world's Heavyweight championship, and so, in January 22, ... He won four more bouts in '87, ...
p83
sg5
VGeorge Foreman - Filmbug - Filmbug Movie Stars
p84
sa(dp85
g3
VWhen old, bald, fat George Foreman returned to the ring in 1987 after a 10-year hiatus, ... He won the heavyweight championship of the world on January 22, ...
p86
sg5
V"Big" George Foreman's Comeback to Boxing: the Early Years
p87
sa(dp88
g3
VLegendary boxer George Foreman won a sanctioned ... Foreman lost the championship to Muhammad ... After easy victories in his first two fights, Foreman met Bobby ...
p89
sg5
VGeorge Foreman - Springfield-Greene County Library District
p90
sa(dp91
g3
V... undefeated Heavyweight Champion, George Foreman who ... Foreman out and win the championship. ... old in 1974 and apparently past his prime. He had ...
p92
sg5
VBoxing Strategy in Ali-Foreman Fight by Ron Kurtus - Succeed in ...
p93
sa(dp94
g3
V... who is considered one of the greatest heavyweight championship boxers. ... he won his first professional fight, ... George Foreman vs Muhammad Ali video.
p95
sg5
VMuhammad Ali is a three-time World Heavyweight champion.
p96
sa(dp97
g3
V... with Foreman dominating the fight to win the ... one of the fastest knockouts in a Heavyweight Championship ... 2:09 George Foreman On Tyson ...
p98
sg5
VGeorge Foreman vs. Joe Frazier - 2 - YouTube
p99
sa(dp100
g3
VWhy is He famous. George Foreman won ... Foreman got his shot at the world heavyweight championship when he ... the fight was HBO Boxing's first-ever broadcast ...
p101
sg5
VGeorge Foreman - AskMen
p102
sa(dp103
g3
VGeorge Foreman passed most of his first ... He liked to say, "The old George Foreman ... When a guy close to 50 wins the heavyweight championship ...
p104
sg5
VGeorge Foreman : People.com
p105
sa(dp106
g3
VHe first won the heavyweight title in ... His name is George Foreman, and to me he is one ... something he wasn't able to do versus a 42 year old Foreman when he ...
p107
sg5
VGeorge Foreman: A Physical Freak Of Nature - TheSweetScience.com
p108
sa(dp109
g3
VForeman III, the son of former heavyweight world champion George Foreman, ... just like my first three,\u201d said Foreman ... The 26-year-old Foreman III made his ...
p110
sg5
VNews: George Foreman III; John Molina Jr; Finnish Boxing
p111
sa(dp112
g3
VHe learned to box at 16, won Olympic gold at 19 and at 24 defeated Joe ... He opened the George Foreman Youth and ... Ridiculed at first. Too old, they said. Too ...
p113
sg5
VGeorge Foreman + 5 Marriages - News 24 by 7
p114
sa(dp115
g3
VIt was on this day in 1994 that George Foreman took on Michael Moorer for Moorer\u2019s heavyweight championship belts. After getting dominated the first nine rounds ...
p116
sg5
VThis Day In Sports History (November 5th) - George Foreman | Total ...
p117
sa(dp118
g3
V... the heavyweight championship. BTG: George Foreman ... He won 24 consecutive ... Jim Lampley on Foreman \u2013 \u201cThe idea that a 35-year-old man could knock out a 26 ...
p119
sg5
VBEYOND THE GLORY PROFILES THE LIFE OF GEORGE FOREMAN
p120
sa(dp121
g3
VWho defeated George Foreman to win the heavyweight boxing championship of 1995? In: ... First answer by ... Who defeated George Foreman to win the heavyweight boxing ...
p122
sg5
VWho defeated George Foreman to win the heavyweight boxing ...
p123
sa(dp124
g3
VThis bout saw a young undefeated George Foreman lose the heavyweight championship of ... there is an old ... And who would of won? I just don\u2019t know. Jenna: George ...
p125
sg5
VGeorge Foreman: "If I had to do it all over again, I would of ...
p126
sa(dp127
g3
VGeorge Foreman Heavyweight World ... I don't know...for some reason touched me, an old ... Foreman won the WBC heavy weight championship in 1994 at the ...
p128
sg5
VThe religion of George Foreman, Heavyweight Boxing Champion
p129
sa(dp130
g3
VForeman got his shot at the world heavyweight championship when he was ... he founded the George Foreman ... the oldest fighter ever to win the heavyweight ...
p131
sg5
VGeorge Edward Foreman Author Profile | Biography And Bibliography ...
p132
sa(dp133
g3
VBorn George Edward Foreman ... Foreman's successful amateur career included the 1968 National AAU heavyweight championship and ... the 45-year old Foreman ...
p134
sg5
VGeorge Foreman - Boxing Hall of Fame-Home
p135
sa(dp136
g3
V... Foreman had fought his way back into the championship ring, this time with 26-year-old ... The George Foreman of ... and he won the gold medal in heavyweight ...
p137
sg5
VGeorge Foreman Facts, information, pictures | Encyclopedia.com ...
p138
sa(dp139
g3
V... TX.---George Foreman, the oldest world heavyweight boxing ... Foreman won the heavyweight title the first time in 1973 ... "At 38 or 39 years-old he had ...
p140
sg5
Vgeorge foreman thinks mike tyson can win again? a very good ...
p141
sa(dp142
g3
VGeorge Foreman Biography: ... Foreman was set to challenge for the world's Heavyweight championship, ... Foreman won't say how much he has made as a product ...
p143
sg5
VGeorge Foreman Biography - Rotten Tomatoes
p144
sa(dp145
g3
VBernard Hopkins takes WBC light-heavyweight title with win over Jean Pascal, eclipses George Foreman ... championship. This was the best I ... first couple ...
p146
sg5
VBernard Hopkins takes WBC light-heavyweight title with win over ...
p147
sa(dp148
g3
VForeman's successful amateur career included the 1968 National AAU heavyweight championship and the ... the 45-year old Foreman defeated ... He won three fights ...
p149
sg5
VGeorge Foreman Vs Tommy Morrison Wbo World Heavyweight Title ...
p150
sa(dp151
g3
VGeorge Foreman is 63 years old; Born: 10 ... lean and angry when he beat Joe Frazier for the world heavyweight boxing championship in ... Meet the NBA's First Openly ...
p152
sg5
VGeorge Foreman Biography - Birthday, Photos - Who2.com
p153
sa(dp154
g3
VGeorge Foreman, the 45-year-old ... The win makes Foreman the oldest man to hold the world heavyweight championship ... George Foreman Won His First World ...
p155
sg5
V45-year-old Foreman regains world heavyweight crown in stunning ...
p156
sa(dp157
g3
VHe retired a first time in ... You're reading How old was george foreman when he fought ... On the other hand I saw the relatively easy way Ali won George Foreman.
p158
sg5
VHow old was george foreman when he fought his last fight? | Answerbag
p159
sa(dp160
g3
VThe champion at the time was being criticized for fighting the forty-plus year old Foreman who was on ... the heavyweight championship ... George but he continued on ...
p161
sg5
VThis Month in Boxing History: April 1991- Evander Holyfield vs ...
p162
sa(dp163
g3
VFive years later he won his first world heavyweight championship. ... this is George Foreman, he ... "A little six-year-old kid will say, that's the cooking man." He ...
p164
sg5
VGeorge Foreman shares the secrets of his success | abc13.com
p165
sa(dp166
g3
VAli had lost his first ... Frazier himself had lost his championship title to George Foreman. ... Not only did Ali win back the heavyweight champion title, he ...
p167
sg5
VMuhammad Ali - Biography of Muhammad Ali - Page 2
p168
sa(dp169
g3
V... was fighting for the Heavyweight Championship. ... he lost the title to George Foreman and ... He was the first heavyweight to win the world title ...
p170
sg5
VBoxing: The 10 Greatest Heavyweights of All Time | Bleacher Report
p171
sa(dp172
g3
VGeorge Foreman. The 37-year-old, ... Moorer to win a heavyweight championship at age ... heavyweight champ George Foreman was when he used ...
p173
sg5
VArticles about George Foreman - Los Angeles Times
p174
sa(dp175
g3
VThe Official Site of George Foreman ... the menacing figure who destroyed Joe Frazier to win the heavyweight title back in ... Texas we have championship boxing!
p176
sg5
VThe Official Site of George Foreman
p177
sa(dp178
g3
VBernard Hopkins broke George Foreman ... to ever win a major title in boxing history. Foreman ... world heavyweight title at age 45. Hopkins first ...
p179
sg5
VGeorge Foreman Happy That Bernard Hopkins Topped His Record - Bad ...
p180
sa(dp181
g3
VIn 1977 George Foreman went to Puerto Rico to ... who was 36 or 39 when he won the light heavyweight championship, ... He said, 'First time anybody made me straighten ...
p182
sg5
VSeeking to Understand George Foreman - Page 3 - Los Angeles Times
p183
sa(dp184
g3
VThough he was just the promoter of the George Foreman Grill ... helped him get into championship ... after he'd won his second heavyweight ...
p185
sg5
VGeorge Foreman - Second Career Success - Photos - SI.com
p186
sa(dp187
g3
VForeman's successful amateur career included the 1968 National AAU heavyweight championship and the ... the 45-year old Foreman defeated ... He won three fights ...
p188
sg5
VGeorge Foreman And Tommy Morrison Dual Signed Ring Magazine ...
p189
sa(dp190
g3
VHe won the heavyweight gold medal at the 1968 ... this is George Foreman, former heavyweight champion of ... But is the old George still in there? Did he ...
p191
sg5
VBeauty in the Beast / George Foreman used to want to kill his ...
p192
sa(dp193
g3
V... he beat 29 year old Jean Pascal to become the oldest person to win a major boxing title. He beat George Foreman's ... he won the heavyweight championship he ...
p194
sg5
VGeorge Foreman - First thoughts about
p195
sa(dp196
g3
V... George Edward Foreman. Two-time heavyweight boxing ... He learned to box at 16, won Olympic gold at 19 and at 24 ... Ridiculed at first. Too old, they ...
p197
sg5
VGeorge Foreman's Rise To The Top - CBS News
p198
sa(dp199
g3
VBig George broke the record for the fighter with the longest interval between his first ... The George Foreman ... Foreman won a gold medal in the heavyweight ...
p200
sg5
VGeorge Foreman News, Profile, Stats, Facts & Video
p201
sa(dp202
g3
VGeorge Foreman was the oldest boxer to win the heavyweight championship when he knocked out Michael Moorer in ... First answer by ... At 45 years old, George Foreman.
p203
sg5
VWho become the oldest heavyweight champion in world history
p204
sa(dp205
g3
V"I think 1976 is going to be the year of George Foreman," the 27-year-old ex-champ intoned ... for the heavyweight championship. ... he had won 29, with 20 ...
p206
sg5
VGeorge Foreman's Greatest Fights: Foreman-Lyle - boxing - ESPN
p207
sa(dp208
g3
V... will begin the program with \u201cA Heavyweight for the Ages: George Foreman,\u201d a ... Foreman first entered the ... He won the heavyweight championship in 1973 ...
p209
sg5
VFormer boxing champ, entrepreneur George Foreman to meet with ...
p210
sa(dp211
g3
VBiography of George Foreman, Heavyweight ... boxing championship in 1973. The next year he lost the ... who won ... January 10 Birthdays: George Foreman ...
p212
sg5
VGeorge Foreman Biography (Boxer) | Infoplease.com
p213
sa(dp214
g3
VTo hire George Foreman for an athlete endorsement, ... The world heavyweight championship was held in ... He won a number of fights before his match against ...
p215
sg5
VHire George Foreman - Speakers Bureau - Contact the Booking Agent
p216
sa(dp217
g3
VIf you're old enough to have seen the fight live, ... Foreman-Frazier 1, ... you can say that he has witnessed boxing greatness first hand.
p218
sg5
VForeman-Frazier 1, forty years later - Kansas City Fight Sports ...
p219
sa(dp220
g3
VGeorge Foreman shocked the world when he regained the heavyweight boxing championship at ... i still remember 1994 when a 45 year old George shockingly took all ...
p221
sg5
VBy George: The Autobiography of George Foreman: George Foreman ...
p222
sa(dp223
g3
V... and intelligence of Old Foreman, he'd be ... George down. THAT is what won the ... to the heavyweight championship and made successful ...
p224
sg5
VPRIME George Foreman with COMEBACK Foreman Training & Mentality ...
p225
sa(dp226
g3
V... captured the WBC light heavyweight championship dethroning ... first fight last ... George Foreman, who was 45 when he regained the ...
p227
sg5
VHopkins becomes oldest boxer to win title
p228
sa(dp229
g3
VIf George Foreman\u2019s retirement after being defeated by ... Ali won the heavyweight title after defeating ... He made his first comeback in a one ...
p230
sg5
VGeorge Foreman and the 10 Greatest Boxing Comebacks of All Time ...
p231
sa(dp232
g3
VBut there was also George Foreman, the other heavyweight among the era's ... Jamaica, Foreman won the heavyweight championship from ... the first time we ...
p233
sg5
VGeorge Foreman remembers Joe Frazier - Dan Rafael Blog - ESPN
p234
sa(dp235
g3
V... George Foreman, ... he got a second win in the 10th, ... Holyfield is a heavyweight and all he has to do is to just believe in the power that Lewis thinks he has ...
p236
sg5
VGeorge Foreman . BigGeorge.com
p237
sa(dp238
g3
VView the latest George Foreman pictures. ... Foreman won the World Heavyweight title with a second round ... at age 45, he regained the Heavyweight Championship by ...
p239
sg5
VGeorge Foreman Pics - George Foreman Photo Gallery - 2013 ...
p240
sa(dp241
g3
VGeorge Foreman. Foreman won heavyweight gold at the Mexico City games in 1968 and went on to rip the heavyweight championship ... George Foreman was the first ...
p242
sg5
VInside HBO Boxing - HBO.com's Boxing News Blog
p243
sa(dp244
g3
VYou Are Here > SR/Olympics > Athletes > George Foreman. ... In 1973 he fought Joe Frazier for the heavyweight ... Foreman was never a championship factor again. He ...
p245
sg5
VGeorge Foreman Bio, Stats, and Results | Olympics at Sports ...
p246
sa(dp247
g3
VThis was Evander Holyfield\u2019s first world title defense as a heavyweight. He ... George Foreman was 42 years old at ... George Foreman would go on to win a ...
p248
sg5
VInside Classic Fights: Evander Holyfield vs. George Foreman
p249
sa(dp250
g3
VFor the first time, George Foreman tells the whole story of his ... an upset knockout to win the heavyweight championship in ... The old George lived prior to ...
p251
sg5
VGod in My Corner: A Spiritual Memoir (Book 2007) - Barnes & Noble
p252
sa(dp253
g3
V... George Edward Foreman. Two-time heavyweight boxing ... He learned to box at 16, won Olympic gold at 19 and at 24 defeated ... Ridiculed at first. Too old, they ...
p254
sg5
VGeorge Foreman Five Sons All Named George - News 24 by 7
p255
sa(dp256
g3
VBernard Hopkins became the oldest fighter to win a world championship as he ... six months older than George Foreman when he took the heavyweight ... the first of ...
p257
sg5
VBernard Hopkins beats George Foreman's record and wins major title ...
p258
sa(dp259
g3
V... rounds to win the championship thirty ... an old fellow in calmer heavyweight waters that ... fight with George Foreman. He laid against the ...
p260
sg5
VRunaway Train: The Prime George Foreman - Boxing.com
p261
sa(dp262
g3
VI consider George Foreman to be the best heavyweight of the ... First of all,George Foreman WAS big! He was 6'4" and ... He didn't even win the championship in ...
p263
sg5
VGeorge Foreman vs Wladimir Klitschko \u2013 Who is the hardest hitter ...
p264
sa(dp265
g3
VGeorge Edward Foreman ... one of the fastest knockouts in a heavyweight championship bout. Foreman\u2019s next defense was against a much ... He won four more bouts ...
p266
sg5
VGeorge Foreman | CWH Promotions Ltd
p267
sa(dp268
g3
VForeman thought if he won he would get a chance to regain the heavyweight championship. ... George Foreman when he's ... first title defense and his 26th win ...
p269
sg5
VGeorge Foreman - Stories from the Archive - HighBeam News - Home
p270
sa(dp271
g3
VHome > George Foreman ... Foreman was set to challenge for the world's Heavyweight championship, and so, ... He won four more bouts in '87, ...
p272
sg5
VGeorge Foreman World Round Boxing Knockout Heavyweight Champion
p273
sa(dp274
g3
VThe fighter I'm speaking about is former two time heavyweight champion George Foreman. ... for the first time, Foreman won the ... 45 year-old Foreman, ...
p275
sg5
VForeman--What Was, What Could've Been: Nothing Short Of Mind ...
p276
sa(dp277
g3
VHis name is George Foreman, and to me he is one ... something he wasn't able to do versus a 42 year old Foreman when he ... He first won the heavyweight title in ...
p278
sg5
VGeorge Foreman a physical freak of nature [Archive] - Boxing Forum
p279
sa(dp280
g3
VIt was on this day in 1995 that George Foreman was stripped of his WBA Championship belt. Foreman\u2019s title was taken away ... Foreman would win the fight ...
p281
sg5
VThis Day In Sports History (March 4th) - George Foreman | Total ...
p282
sa(dp283
g3
V... Briggs won the Linear heavyweight Championship of the world, ... George Foreman an overweight 48 year old fighter beating ... In the seventies when he first ...
p284
sg5
VGeorge Foreman L12 Shannon Briggs Report - The Cyber Boxing Zone
p285
sa(dp286
g3
V... oldest man to ever win a heavyweight championship. ... looked like he won to me, although he won the first one ... of his career with old George Foreman.
p287
sg5
VGeorge Foreman Interview: Reflections on a legendary career - w ...
p288
sa(dp289
g3
VFormer heavyweight champ George Foreman says Bernard Hopkins ... when he first faced Pascal ... who defeated Joe Frazier in 1972 to win the championship and ...
p290
sg5
VForeman's advice to Hopkins: Go for the knockout | RingTV
p291
sa(dp292
g3
VThe 62-year-old George Foreman, ... The 69-year-old Ali, who would go on to become the first and only three-time Lineal ... he won the fight by knocking out ...
p293
sg5
VRecalling a classic: George Foreman vs. Muhammad Ali \u2018The Rumble ...
p294
sa(dp295
g3
V"Muhammad Ali stops George Foreman," he muttered with ... for the brooding Texan who threw the heavyweight championship into disarray ... Foreman, at first ...
p296
sg5
VGreat Sporting Moments: Muhammad Ali v George Foreman, World ...
p297
sa(dp298
g3
VForeman, the 57-year-old ... the 1968 Olympic heavyweight champ, won the ... someone who is going to tell you where it is," Foreman said. "George is like that. He ...
p299
sg5
VOdds On Racing - Harness Racing
p300
sa(dp301
g3
VTheir teacher explained to the children that Foreman had won the gold medal in heavyweight ... old Foreman grills, and Salton ... George Foreman Foods ...
p302
sg5
VGeorge Foreman: Marketing Champ Of The World - Businessweek
p303
sa.