(lp1
(dp2
S'description'
p3
V... or formerly Nissan zaibatsu, ... as well as what Nissan is now known for--its automobile industry. ... Japan Victor Corporation or JVC, ...
p4
sS'title'
p5
VNissan Group - Wikipedia, the free encyclopedia
p6
sa(dp7
g3
VOfficial U.S. Site for Nissan Cars, Trucks, Crossovers, & SUVs
p8
sg5
VNissan Cars, Trucks, Crossovers, & SUVs | Nissan USA
p9
sa(dp10
g3
VNissan Motors, formerly known as Datsun Motors, is a successful Japanese automotive manufacturer. Nissan is the third largest Japanese motor company, ...
p11
sg5
VNew Nissan Models - InternetAutoGuide.com
p12
sa(dp13
g3
VNissan Computer Corporation, Sales and Service of personal Computers, Servers, Back Links, computer parts, and internet hosting and development
p14
sg5
VNissan Computer Corporation
p15
sa(dp16
g3
VIt formerly marketed vehicles under the "Datsun" brand name. As of 2011, the company's global headquarters is located in Nishi-ku, ... Nissan Computer Corporation ...
p17
sg5
VNissan Motor Company - Wikipedia, the free encyclopedia
p18
sa(dp19
g3
VAlso, in 1959, the company started a U.S. subsidiary named Nissan Motor Corporation. In the early 1960s, ... formally known as the Nissan Skyline GT-R. ...
p20
sg5
VNissan Cars - New & Used Nissan Reviews, Pricing & Specs ...
p21
sa(dp22
g3
VIt is a well-known story that the name Dat represents the first letters of the family names of Hashimoto ... Nissan Motor Manufacturing Corp., U.S.A.in ...
p23
sg5
VThe Short History of Nissan Moter Company
p24
sa(dp25
g3
VNissan corporate office listing. ... Nissan, popularly known as Nissan Motor Company Ltd is a multinational Japanese Automaker Company.
p26
sg5
VNissan Corporate Office & Headquarters | Franklin, TN
p27
sa(dp28
g3
VNissan Motor Corp. Nissan 370Z Roadster sports car, right, known as the Fairlady Z Roadster in Japan, stands on display at the company's showroom in Yokohama ...
p29
sg5
VNissan Motor Corp Nissan 370Z Roadster Sports Car Right\u2026 News ...
p30
sa(dp31
g3
VNissan Motor Co., Ltd., which formerly marketed vehicles ... who was popularly known as ... (1947 to 1948) the company was briefly called Nissan Heavy Industries Corp.
p32
sg5
VNissan - Wikicars
p33
sa(dp34
g3
VNissan Forklift Corporation, ... Josh was formerly Modern\u2019s lift truck columnist and contributing editor, ... Urban Outfitters Inc is a well-known, ...
p35
sg5
VNissan Forklift Corporation joins forces with TCM America to form ...
p36
sa(dp37
g3
V* Also known as the "3R Campaign" ... Adding CO2 reduction to Nissan's management directives as a corporate target, promoting targets and supervision.
p38
sg5
VNISSAN | NISSAN GREEN PROGRAM
p39
sa(dp40
g3
VAddress: Buena Park Nissan 6501 Auto Center Drive (formerly known as Manchester Blvd.) Buena Park, CA 90621
p41
sg5
VNissan in Orange County | Nissan in Los Angeles | Nissan in ...
p42
sa(dp43
g3
VNissan Frontier / Navara Forum > Mods and Technical Discussions > Suspension: ADF Suspension Products (formerly known as ebay lift) ... (formerly known as ebay lift)
p44
sg5
VADF Suspension Products (formerly known as ebay lift) - Nissan ...
p45
sa(dp46
g3
VNissan is known for building edgy-looking vehicles that offer a respectable amount of performance. ... and two years later Nissan Motor Corp. U.S.A. was established.
p47
sg5
VNissan - Research All Models and Prices - MSN Autos
p48
sa(dp49
g3
VIf I had known this, I would have never bought a Nissan. Now, I am told I am SOL by both the dealer and NMAC. ... (Nissan Motor Acceptance Corporation).
p50
sg5
VNissan Motor Acceptance Corp. - ConsumerAffairs.com: Knowledge is ...
p51
sa(dp52
g3
VIt was formerly a core member ... (also known as the Japanese ... the company launched a joint venture with NEC Corporation and its subsidiary ...
p53
sg5
Vnissan : nissan, nissan sDrive35i Full Test, nissan motor, nissan ...
p54
sa(dp55
g3
VNissan was born in Japan, and like other marques from its homeland, the brand is known for crafting vehicles that place an emphasis on quality and reliability.
p56
sg5
VNissan Reviews - Nissan Cars | Edmunds
p57
sa(dp58
g3
VNissan GT-R supercar, formerly known as Skyline, is a car unlike any other. This Super sports car is produced by Nissan Japan. In this high-performance car, a ...
p59
sg5
VNissan GTR New 2013 Model for Sale in Japan, import Japanese new ...
p60
sa(dp61
g3
VNissan wants to ensure that Nissan vehicles are safe for our customers. When a safety defect is determined, Nissan will launch a Recall Campaign by ...
p62
sg5
VNissan Vehicle Recall Form - Nissan Cars, Trucks, Crossovers ...
p63
sa(dp64
g3
VTicker. Welcome to Brampton North Nissan, formerly known as Dermac Nissan. We have been Brampton's premier Nissan dealer for 35 years and our new location in the ...
p65
sg5
VBrampton North Nissan - Brampton, ON
p66
sa(dp67
g3
VBBB's Business Review for Nissan Motor Acceptance Corporation, ... There is no known industry standard for the number of complaints a business can expect.
p68
sg5
VNissan Motor Acceptance Corporation Business Review in Dallas, TX ...
p69
sa(dp70
g3
V... Nissan Computer Corp. BACKGROUND My name is Uzi Nissan. ... I started an import/export business known as "Nissan International" At that time, ...
p71
sg5
VNissan Motor vs. Nissan Computer - Digest.com
p72
sa(dp73
g3
VThe Tama EV came to be made entirely by engineers at Nissan Motor, Prince Motor, formerly known as Tachikawa Airplane. The Tama EV's alligator-type bonnet .
p74
sg5
VTama EV\u2019s Aerodynamic Heritage
p75
sa(dp76
g3
VUniCarriers Americas Awarded Top Dealer Sales Professionals with Trip to St. Thomas Read more; Nissan Forklift Corporation and TCM America Join to Form UniCarriers ...
p77
sg5
VNissan Forklift Corp, North America
p78
sa(dp79
g3
VStay informed with free information about the most common Nissan problems & owner complaints, as well as up-to-date recall information and NHTSA defect investigations.
p80
sg5
VNissan Complaints, Recall Information and Pending Investigations
p81
sa(dp82
g3
VThis company is known for their terrible billing practices. ... NISSAN MOTOR ACCEPTANCE CORPORATION. WARNING ALERT: NEVER BUY A NISSAN VECHICLE, ...
p83
sg5
VNissan Motor Acceptance Corp in Irving, TX - Reviews, Photos, and ...
p84
sa(dp85
g3
VBBB's Business Review for Nissan Motor Acceptance Corporation, ... There is no known industry standard for the number of complaints a business can expect.
p86
sg5
VNissan Motor Acceptance Corporation Business Review in Baltimore ...
p87
sa(dp88
g3
VG. & S. MANAGEMENT CORPORATION - Nissan: Altima, Altima Coupe, ... G. & S. Management Corporation (formerly Tilton Ford) G. & S. Management Corporation ...
p89
sg5
VCash for Clunkers program by dealers: G & S MANAGEMENT CORP, G ...
p90
sa(dp91
g3
VSearch online Nissan classifieds at InternetAutoGuide.com to find and buy used Nissan cars for sale; browse and compare used Nissans for sale by dealers and private ...
p92
sg5
VNissan Cars For Sale - Used Nissan Classified Listings at ...
p93
sa(dp94
g3
VWelcome To e-NISMOCLUB The NISSAN MOTORING CLUB / nismoclub (Formerly known as NMC) are car ...
p95
sg5
V|Oo\u005c nissan motoring club /oO|
p96
sa(dp97
g3
V... the formerly compact Frontier struggled to gain a foothold in the U.S. market. ... One of these was known as the Nismo line. ... Nissan Corporation Recalls.
p98
sg5
VNissan Performance - How To Information | eHow.com
p99
sa(dp100
g3
VGet free Nissan price quotes from Nissan dealers. Compare prices for a Nissan in your area and find the lowest prices from local Car dealers.
p101
sg5
VFree Nissan Price Quotes from Car Dealers | New Car Quotes
p102
sa(dp103
g3
VMore new NISSAN in stock than any ... The company formerly marketed vehicles under the \u2018Datsun\u2019 brand and is the third largest producers of well-known ...
p104
sg5
VNew NISSAN UK - NISSAN for sale - Cheap NISSAN - Buy NISSAN ...
p105
sa(dp106
g3
V... nissan automobiles of marlborough, inc., nissan motor corp. in guam, nissan north, inc., nissan of brandon, inc., nissan ... (formerly dba don george ford inc.)
p107
sg5
VCash for Clunkers program by dealers: NICK CHEVROLET, INC., NIELLO ...
p108
sa(dp109
g3
VJapan Wants Nissan Motor Co Ltd-NEC Corp JV To Buy Sony Corp's Battery Operations-Reuters Thursday, 24 Jan 2013 10:45pm EST .
p110
sg5
VNissan Motor Co Ltd (7201.T) Key Developments | Reuters.com
p111
sa(dp112
g3
V... four-cylinder engine produced by the Nissan Motor Corp. Installed in several small and mid-sized cars, ... The 600Si model is formally known as the 623 Si engine.
p113
sg5
VChange Oil on Nissan - How To Information | eHow
p114
sa(dp115
g3
VNissan Problems.com provides free information about Nissan car problems & complaints, official recalls and defects, and investigations.
p116
sg5
VNissan Problems & Complaints | NissanProblems.com
p117
sa(dp118
g3
VWe would like to show you a description here, but the site you\u2019re looking at won't allow us.
p119
sg5
VNissan Pavilion
p120
sa(dp121
g3
V, Inc., formerly known as Lumiere International Corp., ... Ford, Volkswagen and Nissan. Air Temp owns its manufacturing facilities in Merida, Mexico.
p122
sg5
VAir Temp North America, Formerly Known as Lumiere International ...
p123
sa(dp124
g3
VReceive a FREE quote on a 2013 Nissan Frontier 4WD from a trusted Nissan ... (formerly red ). SV Premium ... Feedback | Corporate Information | Become a Member Dealer ...
p125
sg5
V2013 Nissan Frontier 4WD | Free Nissan Price Quotes | Invoice Dealers
p126
sa(dp127
g3
VCorporate; Auto Shows & Events; ZEV; Facilities; Racing; NISMO; Nissan Heritage; Media Contacts; Nissan Photos 10592 Total ... The World is a Race Track for Nissan's ...
p128
sg5
VNissan - Photos - Nissan Online Newsroom
p129
sa(dp130
g3
VEvery Nissan job on the web. 690 jobs available. Recent Jobs: ... Would you like to sell automobiles that are known for their quality, reliability and beauty?
p131
sg5
VNissan Jobs | Simply Hired
p132
sa(dp133
g3
VWelcome to the North American Nissan Convention! After twelve consecutive years of successful events (formerly known as the National SE-R Convention and the National ...
p134
sg5
VNissan National Convention
p135
sa(dp136
g3
VNissan is a widely known and respected brand of automobiles. ... In 1960 Nissan Motor Corporation officially opened its first USA branch located in California.
p137
sg5
VNissan History
p138
sa(dp139
g3
VDM RESEARCH, INC., formerly known as NEW ENGLAND REAGENT LABORATORIES, INC. v. C.A. No. 96-617 ... Nissan Motor Corp., 905 F.2d 769, 772 (4th Cir. 1990)
p140
sg5
VUNITED STATES DISTRICT COURT DM RESEARCH, INC., formerly known as ...
p141
sa(dp142
g3
VWe offer latest model new Nissan car for Sale. Here you can buy High Specs Nissan cars, ... and X-Trail is well known all over the world.
p143
sg5
VNissan New Cars 2013 Models in Japan -- Import New Nissan Car for ...
p144
sa(dp145
g3
VSpent $2k in repairs, then @ 95k miles the tranny failed due to the now well-known radiator leak into the transmission. ... Contacted Nissan corp., ...
p146
sg5
V2005 Nissan Xterra SUV Consumer Reviews - New Cars, Used Cars, Car ...
p147
sa(dp148
g3
V... number of Nissan Versa vehicles have had various known ... Nissan Motor Corporation ...
p149
sg5
VNissan Versa problems, complaints, defects, recalls
p150
sa(dp151
g3
VNissan has wisely chosen to avoid the Volkswagen School of Tongue-Twisting Names and taken what will be known in ... With a bold Nissan corporate snout and a ...
p152
sg5
V2008 Nissan Rogue - Auto Shows - Car and Driver
p153
sa(dp154
g3
VThe company was formerly a core member of the Nissan Group, ... each with its own distinct corporate culture and brand identity. The same year, ...
p155
sg5
VNissan Cars in India - Prices, Reviews, Photos & More - CarWale
p156
sa(dp157
g3
VSpecial coverage of all Nissan models and ... Vehicles of this brand have been known to be reasonably ... Ducati, Harley Davidson, Hero Moto Corp, Honda, Hyosung ...
p158
sg5
VNissan Cars India, Nissan Price, Models and Photos at ZigWheels.com
p159
sa(dp160
g3
VHow do I get corporate America Nissan to wake up and take care of this problem? This is my life! add company response; Helpful? Yes No. Sachin of Austin, TX on Feb ...
p161
sg5
V26 Complaints and Reviews about Nissan Altima - Engine Problems
p162
sa(dp163
g3
VPan Pacific Nissan, formerly Richmond Nissan, ... We are known for bringing our customers the finest automobiles and providing the Highest Quality Service.
p164
sg5
VRichmond Nissan has a new name - Pan Pacific Nissan Richmond
p165
sa(dp166
g3
V... formerly GMAC LLC AmeriCredit Corporation American Honda Finance Corp Audi 100 - Volkswagen Credit Audi 200 ... Nissan Motor Acceptance Corp. / Lease Infiniti ...
p167
sg5
VAuto Loan/Lease - Bill Payment - Online Billpay | Utility-Auto ...
p168
sa(dp169
g3
VWelcome To e-NISMOCLUB The NISSAN MOTORING CLUB / nismoclub (Formerly known as NMC) are car enthusiasts loyal owners of NISSAN regardless model, condition and from ...
p170
sg5
Vnismoclub : Nissan Motoring Club (NISMOCLUB)
p171
sa(dp172
g3
V\u043e\u043f\u0438\u0441\u0430\u043d\u0438\u0435 Nissan Almera \u043d\u0430 Club-Nissan.ru. \u0418\u0441\u0442\u043e\u0440\u0438\u044f Nissan Almera, \u043c\u043e\u0434\u0438\u0444\u0438\u043a\u0430\u0446\u0438\u0438, \u043f\u0443\u0431\u043b\u0438\u043a\u0430\u0446\u0438\u0438, \u043e\u0442\u0437\u044b\u0432\u044b \u043e Nissan Almera
p173
sg5
VNissan Almera / \u041d\u0438\u0441\u0441\u0430\u043d \u0410\u043b\u044c\u043c\u0435\u0440\u0430 : Club-Nissan.ru
p174
sa(dp175
g3
V... known mechanical and/or ... to stress that Nissan Motor Corporation manufacturer\u2019s ...
p176
sg5
VNissan problems, recalls, complaints, defects
p177
sa(dp178
g3
VCorporate Outreach; Speaker ... The World is a Race Track for Nissan's Expanding ... largest digital content platform hosting a brand new channel to be known as ...
p179
sg5
VNISMO - Releases - Nissan Online Newsroom
p180
sa(dp181
g3
VNissan is among the top three Asian (also known as the Japanese Big 3 Automakers) ... It was formerly a core member of the Nissan Group, ...
p182
sg5
V2005 Nissan Tiida Latio Pictures - CAR DIRECTORY - Car Pictures ...
p183
sa(dp184
g3
VSome of his best costumers include General Motors, FordMotor Company, Nissan Corporation, Zakspeed ... Formerly known as Digital-Guru Multimedia.
p185
sg5
VThe Process of Camshaft Grinding
p186
sa(dp187
g3
VTrish: Infiniti cars are made by the Nissan corporation and are their high end luxury vehicles. They are well known for their design and performance, and are sold all ...
p188
sg5
VWho Makes Infiniti Cars? - Answers.Ask.com
p189
sa(dp190
g3
VTHANKS! FORMERLY KNOWN AS comercialesaloguey & DBCaravan (I'm here since 2006), ... 0:31 Nissan X-Trail 2013 1,438 views | 7 months ago; 0:33 ...
p191
sg5
VCar TV Ads from the U.S. & Mexico - YouTube
p192
sa(dp193
g3
VAlly Financial Inc. (formerly GMAC Inc.) is one of the world's largest automotive financial services companies. ... Nissan Motor Acceptance Corporation ...
p194
sg5
VPartner Car Finance Companies at CarMax
p195
sa(dp196
g3
VAuto warranty - compare extended auto warranty plans from multiple providers. Get your quick quote online or call our friendly consultants toll-free today!
p197
sg5
VFormerly Known As - AA Auto Warranty
p198
sa(dp199
g3
VThrough the years, Nissan has been known to produce a wide range of vehicles that are valued mainly for their efficiency and dependability. One of the things that set ...
p200
sg5
VNissan Parts - Nissan Accessories - Nissan Auto Parts | Auto Parts ...
p201
sa(dp202
g3
VGunn Nissan of San Antonio honors all Nissan Corporation service specials and oil change coupons for all ... Gunn Nissan has long been known in San Antonio for its ...
p203
sg5
VOil Change | Nissan Altima Oil Change | Nissan Maxima Oil Change |
p204
sa(dp205
g3
VProviding a complete listing of the recalls on all Nissan vehicles in current and previous production years.
p206
sg5
VNissan Recalls -
p207
sa(dp208
g3
V2008 Nissan Dualis review. It turns in ... (Formerly Known as ... Nissan Australia are in talks with Nissan corp about having them released here in Australia as a 1.6 ...
p209
sg5
V2008 Nissan Dualis review | CarAdvice
p210
sa(dp211
g3
VNissan Forklift Corporation North America (USA) - Manufacturer of forklifts, industrial lift trucks, internal combustion (IC) ... Formally NFCDirect.com, ...
p212
sg5
VDealer Resources and Important Links | Nissan Forklift by UniCarriers
p213
sa(dp214
g3
VHi, according to Nissan, the first time they used the By Nissan subscript was on the first 280zx sold in the U.S. ... Nissan corp. has always been very helpful!
p215
sg5
VWhen did the name change fron Datsun to Nissan - The Q&A wiki
p216
sa(dp217
g3
VKnown in the past as Fireside Nissan of North Attleborough, Nissan Village proudly serves drivers near North Attleboro, ... Corporate Social Responsibility;
p218
sg5
VNew & Used Nissan Car Dealership - North Attleboro & Norton MA ...
p219
sa(dp220
g3
VFormerly the Nissan Skyline GTR, ... The Nissan 300ZX also known as the Nissan Fairlady Z was part of the third and fourth generation of Nissan's Z-car with chassis ...
p221
sg5
VNissan Pictures, Photos, Information, Prices, Specifications
p222
sa(dp223
g3
VNissan is among the top three Asian (also known as the Japanese Big 3 Automakers) ... It was formerly a core member of the Nissan Group, ...
p224
sg5
VNissan AD Wagon Pictures - Car Pictures Gallery
p225
sa(dp226
g3
VNissan Motor Co., with U.S. sales ... formerly president and chief executive officer of Auburn Hills, ... US Corporate Bonds. US Consumer Rates. ETFs.
p227
sg5
VNissan Hires Ram CEO for Brand in U.S.; Castignetti Exits - Bloomberg
p228
sa(dp229
g3
VCORPORATE GOVERNANCE. Documents & Charters. Management. Board of Directors. Committee Composition. ... MB Sprinter MINI Nissan Porsche RAM Range Rover Rolls-Royce ...
p230
sg5
VPenske Automotive Group
p231
sa(dp232
g3
VNissan formed Nissan Motor Corporation U.S.A and exhibit the ... Nissan signed an alliance with the Renault known as Renault-Nissan Alliance which was the first ...
p233
sg5
VNissan Used Cars For Sale | Japanese Exporter, Dealer & Trader ...
p234
sa(dp235
g3
V
sg5
Vwww.marketing.nbgwebsolutions.com
p236
sa(dp237
g3
VIf you are in purchasing a used Nissan Pathfinder, then it is important that you review the official NHTSA auto recall reports to find problems and defects in the ...
p238
sg5
VNissan Pathfinder Recalls, Notices, & Used Car Problems - Motor ...
p239
sa(dp240
g3
VNissan fans have long regarded the Maxima as the company's "four-door sports car." ... (formerly unavailable in the Altima) ... Corporate Information; Site Map;
p241
sg5
V2005 Nissan Altima SE-R - AutoTrader.com - New Cars, Used Cars ...
p242
sa(dp243
g3
V2013 Nissan Maxima overview with photos and ... and one with roots that date to when these vehicles were still known as Datsuns. ... Corporate Information; Industry ...
p244
sg5
V2013 Nissan Maxima - Kelley Blue Book
p245
sa(dp246
g3
VFor Nissan Leaf reservation click here. ... We will also operate under our well-known trade slogan and value proposition, \u2018Shop Us Last ...
p247
sg5
VCommonwealth Nissan | Nissan Dealer in Lawrence, MA
p248
sa(dp249
g3
VThe Nissan 350Z will forever be known as the high-end sports car that satisfied the global market\u2019s demand for a modern Japanese hero. Before its reintroduction, ...
p250
sg5
VNissan 350Z - Research New & Used Nissan 350Z Hatchbacks ...
p251
sa(dp252
g3
VNissan Motorsport has taken the wraps off its four factory-backed Altima V8 Supercars set to contest this year ... Formerly known as the Kelly Racing Holden ...
p253
sg5
V2013 Nissan Altima V8 Supercars Revealed: Jack Daniel's And Norton ...
p254
sa(dp255
g3
V... and it's safe to say that Nissan's not going to keep making GT-Rs like that too much longer, ... as the United States of China (formerly known as America) ...
p256
sg5
VOne Of The Stars Of Elysium Is A 140-Year-Old Nissan GT-R
p257
sa(dp258
g3
VJiffy Lube Live Formerly Nissan Pavilion... Bristow, VA ... For many years the amphitheater was known as the Nissan Pavilion at Stone Ridge before changing in 2010.
p259
sg5
VJiffy Lube Live Bristow - Jiffy Lube Live Tickets Formerly The ...
p260
sa(dp261
g3
V... 2.9 % APR and vehicle must be financed through Nissan Motor Acceptance Corporation. ... Makes not linked are not known to be offering incentives at this time.
p262
sg5
VNissan incentives & rebates - Dealsea.com: Coupon Codes | Deals
p263
sa(dp264
g3
V... Recently I Sent an Email to the Jewish Lobby & Accused Them of HYPOCRISY Because They Know NISSAN Does ... The Company Formally Known as ...
p265
sg5
VSenator Dianne Feinstein Remember Me?: James Clapper, Michael ...
p266
sa(dp267
g3
V2012 Nissan Versa Sv ... the local company that formerly owned EcoQuest International, ... which is also known as EcoQuest Holding Corporation, ...
p268
sg5
VHolding Co. That Formerly Owned EcoQuest Files Chap. 11 - The ...
p269
sa(dp270
g3
V2006 Nissan Maxima transmission problems with 147 complaints from Maxima owners. The worst complaints are transmisson slipping, transmission slips and jerks, and ...
p271
sg5
V2006 Nissan Maxima transmission problems & complaints ...
p272
sa(dp273
g3
VNissan is facing a rash of complaints about automatic transmission failures in the company's trucks and SUVs, according to The New York Times. Certain 2005-2010 ...
p274
sg5
VNissan SUV and pickup owners experiencing transmission failures
p275
sa(dp276
g3
VAffects 2011 and 2012 Nissan Juke and Infiniti QX and M models; ... The company says no known fires have resulted from the defect. ... Corporate Information; Site Map;
p277
sg5
VNissan Recalls Juke and Infiniti QX and M Models - AutoTrader.com
p278
sa(dp279
g3
VCNA National Warranty Corporation was formerly known as Western National Warranty Corporation and changed its name to CNA National Warranty Corporation in ...
p280
sg5
VCNA National Warranty Corporation: Private Company Information ...
p281
sa(dp282
g3
V(Pauline SL - Corp Comm) Media (Azlina Hj Ramli - Corp Comm) +603 - 6286 7799. enquiry@encorp.com.my. Feedback form. ... (formerly known as Enfari Properties Sdn Bhd)
p283
sg5
VEncorp Berhad :: Contact Us
p284
sa(dp285
g3
VEstablished in 1981, LYF Forklift Parts Sdn. Bhd. (formerly known as Lian Yiap Forklift Parts Sdn. Bhd.) is the premier supplier, ... Nissan Forklifts Parts ...
p286
sg5
VForklifts Parts Supplier | Forklifts Parts Exporter | Spare Parts ...
p287
sa(dp288
g3
VEven in the many countries where Nissan is launching the Infiniti brand from a completely blank slate, ...
p289
sg5
VInfiniti Unexpectedly Changing All Model Names to Q, QX for 2014 ...
p290
sa(dp291
g3
V2011 Nissan Leaf Baseline Performance Testing ... [formally known as Electric Transportation Engineering Corporation ...
p292
sg5
VAdvanced Vehicle Testing Activity
p293
sa(dp294
g3
VBuy a new Nissan Car in India. Get price quote of new Nissan Cars in your city. Compare Nissan Cars with other Cars side by side.
p295
sg5
VNissan Cars, New Nissan Car Price in India, Buy Nissan Cars
p296
sa(dp297
g3
VCorporate Hospitality; Paddock Club; V8 Supercar Test Day; ... Though the Nissan Motorsport Altima was formally unveiled to the public late last year, ...
p298
sg5
VCaruso, Moffat Confirmed As Nissans Unveiled
p299
sa(dp300
g3
Vhere is the problem I have with my 2005 nissan altima
p301
sg5
V2005 nissan altima problem - YouTube
p302
sa.