(lp1
(dp2
S'description'
p3
VWhat You Should Know About Avian Flu; Key Facts; Infections in Humans; ... members were infected was not ... an H7N2 poultry outbreak in Wales. H9N2, Hong Kong, ...
p4
sS'title'
p5
VCDC - Avian Influenza (Flu) | Avian Influenza A Virus Infections ...
p6
sa(dp7
g3
VHong Kong Avian Flu Outbreak in 1997. ... However, there were still many questions that ... But with every new case reported of humans infected with Avian flu, ...
p8
sg5
VHong Kong Avian Flu Outbreak in 1997 - RingSurf- Join our create ...
p9
sa(dp10
g3
VThe Hong Kong flu was the first known outbreak of the ... of avian viruses to humans is ... virus isolated from humans were compared with a strain isolated ...
p11
sg5
VHong Kong flu - Wikipedia, the free encyclopedia
p12
sa(dp13
g3
V... than Avian flu is in humans. The symptoms of Hong Kong flu were those of most ... the Avian flu, but Hong Kong flu spread ... infected with "bird flu ...
p14
sg5
VWhat were the symptoms of Hong Kong flu - The Q&A wiki
p15
sa(dp16
g3
VChronology of Events Related to the Hong Kong Avian Influenza Outbreak. ... 1997, a 2-year-old boy developed flu ... were being exposed and infected with avian ...
p17
sg5
VVM138/VM103: Avian Influenza: Hong Kong Outbreak
p18
sa(dp19
g3
VAvian viruses generally don\u2019t affect humans, but in 1997, an outbreak of bird flu in Hong Kong ... Most were traced to contact with infected poultry or ...
p20
sg5
VThe Effects of Avian Flu(bird flu) on Poultry Sales/humans/birds ...
p21
sa(dp22
g3
VWhat You Should Know About Avian Flu; Key Facts; Infections in Humans; ... eight people in one family were infected. ... (worldwide outbreak of disease) ...
p23
sg5
VCDC - Avian Influenza (Flu) | Key Facts About Avian Influenza
p24
sa(dp25
g3
VA/duck/Hong Kong/147/77: H9: N6: ... Until H5N1 infected humans in the 1990s, ... The Thailand outbreak of avian flu caused massive economic losses, ...
p26
sg5
VAvian influenza - Wikipedia, the free encyclopedia
p27
sa(dp28
g3
V... commonly called bird flu, ... infected humans in 1997 during a poultry outbreak in Hong Kong ... management of humans infected with avian ...
p29
sg5
VWHO | Avian influenza
p30
sa(dp31
g3
VLearn how Fort Dix soldiers were affected by the 1976 swine flu outbreak in this CDC report. ... 1997 and 1999. ... (avian flu) in Hong Kong.
p32
sg5
VPandemic Flu History | Flu.gov
p33
sa(dp34
g3
VWill there be confirmed human infection cases of H7N9 avian flu in Hong Kong in the next week? Yes: 67 % No: 33 % ... Prevention key to containing new avian flu outbreak.
p35
sg5
VHong Kong on standby for H7N9 outbreak as China confirms three new ...
p36
sa(dp37
g3
VThe Hong Kong flu has infected millions of people around ... The human case of bird flu infection occurs in Hong Kong in 1997. ... How Does the Avian Flu Kill Humans?
p38
sg5
VHong Kong Flu Virus Symptoms | eHow.com
p39
sa(dp40
g3
VAvian (or bird) flu is caused by ... was first detected in humans in 1997 in Hong Kong, ... to jump directly from birds to humans. During this outbreak 18 people were ...
p41
sg5
VAvian Flu | Communicable Disease Control & Surveillance | New ...
p42
sa(dp43
g3
VThe symptoms of avian flu in humans are similar to other strains of ... What happened in the Hong Kong outbreak? The 1997 outbreak of ... were found, also in Hong Kong.
p44
sg5
VCBC News Indepth: Avian Flu
p45
sa(dp46
g3
VAvian flu is also known as bird flu. ... Restrictions were put in place on the movement of poultry, ... , and was first seen in Hong Kong in 1997.
p47
sg5
VBird flu (Avian flu) - NetDoctor.co.uk - The UK's leading ...
p48
sa(dp49
g3
VFind more information about economic impact of avian flu ... humans in Hong Kong where it infected 18 persons in 1997, six of whom died. Hong Kong had to ...
p50
sg5
VEconomic Impact of Avian Flu \u2013 Avian Bird Flu | Avian Flu Virus ...
p51
sa(dp52
g3
VThe disease can also affect humans but only after eating ... The human health implications of avian flu were revealed in 1997 during ... in Hong Kong and in ...
p53
sg5
VAvian Flu - Background
p54
sa(dp55
g3
VHong Kong health authorities on Tuesday stepped up checks on travellers and hospital patients after it was reported that the new H7N9 bird flu virus had infected four ...
p56
sg5
VHong Kong steps up checks as new bird flu cases reported | South ...
p57
sa(dp58
g3
V... 1957 Asian Flu | 1968 Hong Kong Flu | Avian ... were infected became very sick, many dying ... 1997, the Government Virus Unit in Hong Kong isolated ...
p59
sg5
VHistory | MBay Flu Watch - Keeping Monterey Bay communities ...
p60
sa(dp61
g3
VAvian Influenza (Bird Flu) ... typically infect humans. In 1997, ... of H5N1 was documented during an outbreak of avian influenza among poultry in Hong Kong; ...
p62
sg5
VHealth & Human Services System: Avian Influenza (Bird Flu)
p63
sa(dp64
g3
V... birds to humans was H5N1 in 1997 in Hong Kong. 16 people were infected, of whom 4 died. The outbreak was ... In humans, it has been found that avian flu causes ...
p65
sg5
VBird flu - Medical and health information from Armenian Medical ...
p66
sa(dp67
g3
VHuman cases of avian flu 1997. ... H5N1 sparks alarm with reappearance in Hong Kong. H7N7 virus causes outbreak in ... (see 'Bird flu may have passed between humans').
p68
sg5
VTimelines : Avian Flu - Nature Publishing Group : science journals ...
p69
sa(dp70
g3
VThe first avian influenza in humans was reported in Hong Kong in 1997. ... were infected with this flu can give ... area with a known avian flu outbreak.
p71
sg5
VAvian influenza - National Library of Medicine - PubMed Health
p72
sa(dp73
g3
V... and information about one type of bird flu, called avian ... The H5N1 strain was first identified in 1997 in Hong Kong, ... the outbreak was halted in Hong Kong ...
p74
sg5
VPandemic Influenza - Avian influenza (Bird Flu) - key facts
p75
sa(dp76
g3
VSymptoms of bird flu (avian flu) in humans ... *1997 Hong Kong - 18 people were infected and 6 ... *As many as 10 deaths have been linked to an outbreak in a number ...
p77
sg5
VHealth Info 4 You - Bird Flu
p78
sa(dp79
g3
V... of caged birds were on display after detecting the deadly H5N1 avian flu virus ... was not infected, according to AFP. The Hong Kong Center for Health ...
p80
sg5
VHong Kong Shuts Down Popular Bird Market After Detecting Deadly ...
p81
sa(dp82
g3
V... that is infecting birds in Asia and has infected some humans. What is avian ... infect humans. In 1997. ... outbreak of bird flu in poultry in Hong Kong, ...
p83
sg5
VKey Facts About Avian Influenza (Bird Flu) and Avian Influenza A ...
p84
sa(dp85
g3
VBird flu in Hong Kong: ... The last outbreak in the region was in 1997 and infected 18 people, ... Avian flu is generally limited to just birds and ...
p86
sg5
VBird flu in Hong Kong: First case of deadly virus reported there ...
p87
sa(dp88
g3
V... sick from this bird flu outbreak. Avian flu, ... recognized in 1997 in Hong Kong, when it infected eighteen people ... H5N1 were reported in Hong Kong, ...
p89
sg5
VBird Flu Outbreak in China: H5N1 Influenza Pandemic Fears Surge
p90
sa(dp91
g3
VThe first avian influenza virus to infect humans occurred in Hong Kong in 1997. ... were infected with this flu can continue to ... with an avian flu outbreak.
p92
sg5
VAvian Influenza - Symptoms, Diagnosis, Treatment of Avian ...
p93
sa(dp94
g3
V... sufficiently transmissible among humans. Avian (bird) flu is contracted by ... 1997 outbreak in Hong Kong was ... were children hospitalised in Hong Kong.
p95
sg5
VAvian (bird) flu - irishhealth.com
p96
sa(dp97
g3
V... and has infected some humans. What is avian ... with bird flu viruses have occurred since 1997. ... an outbreak of bird flu in poultry in Hong Kong.
p98
sg5
VInformation about Avian Influenza (Bird Flu) and Avian Influenza A ...
p99
sa(dp100
g3
VIt took about six months for the province to be declared free of avian flu. The outbreak was ... 1997 and they were ... be infected with bird flu in Hong Kong ...
p101
sg5
VCBC News In Depth: Avian Flu - CBC.ca - Canadian News Sports ...
p102
sa(dp103
g3
VA 1983-84 outbreak of avian flu in Pennsylvania ... occurred in 1997 in Hong Kong, when the H5N1 virus infected 18 ... In humans, the avian flu is ...
p104
sg5
VFast Facts on Avian Flu - ABC News - ABCNews.com - Breaking News ...
p105
sa(dp106
g3
VThe virus first jumped the species barrio in 1997 when a human was infected ... the Hong Kong epidemic the results were ... humans many times the Avian ...
p107
sg5
VWhat Has Lead Avian Influenza to Affect Humans :: Bird Flu ...
p108
sa(dp109
g3
V... first recorded in humans in the city in 1997 and ... were tested, with all samples free of avian ... flu scare, Hong Kong quarantined ...
p110
sg5
VHong Kong Live Poultry Ban, Cull Hurts Solstice Banquet Plans ...
p111
sa(dp112
g3
V... make the avian flu virus highly pathogenic to humans ... of the flu. The first bird flu outbreak in humans occurred in 1997 in Hong Kong, when 18 people were ...
p113
sg5
VHealth News \u2013 Bird Flu\u2019s Ominous Mutation | Pajamadeen.com
p114
sa(dp115
g3
VAvian influenza, or bird flu as it is more commonly ... In 1997, when an outbreak of bird flu occurred in Hong Kong, 18 people were infected and six were ...
p116
sg5
VBird Flu: What are the Real Chances of a Pandemic
p117
sa(dp118
g3
V... more than 100 confirmed cases of bird flu in humans have been reported since 1997. ... Hong Kong, Special ... During this outbreak, 18 people were hospitalized ...
p119
sg5
VBird Flu in Humans - Virus Home Page
p120
sa(dp121
g3
VWhen the virus first infected humans the ... associated with avian flu. ... humans was in 1997 in Hong Kong - 18 people were infected and 6 died In January ...
p122
sg5
VAvian Flu - Computing Services for Faculty & Staff
p123
sa(dp124
g3
VThe avian flu has also infected ... Have humans come down with bird flu? \u2022 Avian ... \u2022 When humans came down with H5N1 bird flu in Hong Kong in 1997, ...
p125
sg5
VKiller Asian Bird Flu - Essenes, Essene Teachings and Essene Theology
p126
sa(dp127
g3
VAvian Flu Yurij Kobasa ... from birds to humans was in 1997 in Hong Kong ... birds to humans was in 1997 in Hong Kong - 18 people were infected and 6 ...
p128
sg5
VAvian Flu-69e8f4cd_ppt2txt - Convert PowerPoint to Txt Online ...
p129
sa(dp130
g3
V... of flu swept out of Asia in 1580, then infected ... Hong Kong were slaughtered. The avian flu did not ... 1997 H5N1 avian influenza outbreak in Hong ...
p131
sg5
VFlu Pandemics in History - GlobalSecurity.org - Reliable Security ...
p132
sa(dp133
g3
V... is long overdue for a flu outbreak. ... avian influenza, also known as bird flu, ... first human cases were seen in Hong Kong. Humans contract the ...
p134
sg5
VBird Flu: Cause for Alarm? - ABC News - ABCNews.com - Breaking ...
p135
sa(dp136
g3
V... humans was H5N1 in 1997 in Hong Kong. 16 people were infected, ... An outbreak of avian influenza in January ... In humans, it has been found that avian flu ...
p137
sg5
VArmageddon Online - Bird Flu and Avian Influenza
p138
sa(dp139
g3
V... instances of transmission of bird flu to humans have been reported since 1997, and over 100 people were infected in an outbreak ... officials in Hong Kong ...
p140
sg5
VWhat Is Bird Flu? Should We Be Concerned? - MedicineNet
p141
sa(dp142
g3
V... Flu, or Avian Flu. It's ... Flu Harmful To Humans? Human fatalities from avian influenza are very rare and were unknown before 1997, when six people in Hong Kong ...
p143
sg5
VWW3 - The Truth About Bird Flu
p144
sa(dp145
g3
VThe first avian influenza virus to infect humans occurred in Hong Kong in 1997. ... were infected with this flu can continue to ... with an avian flu outbreak.
p146
sg5
VAvian influenza - Drexel University College of Medicine
p147
sa(dp148
g3
VAvian influenza and pandemic flu ... Many experts believe that the outbreak of highly pathogenic avian influenza A/H5N1 in Hong Kong in 1997 in which 18 people were ...
p149
sg5
VHPA - Avian influenza and pandemic flu
p150
sa(dp151
g3
Vhumans. During the outbreak, 18 people were hospitalized and six died. ... China & Hong Kong Avian influenza A ... Infected birds spread flu virus in their feces, ...
p152
sg5
VAvian Influenza (Bird Flu) Frequently Asked Questions
p153
sa(dp154
g3
VKey Facts About Avian Influenza (Bird Flu) ... usually infect humans. In 1997. ... was seen during an outbreak of bird flu in poultry in Hong Kong, ...
p155
sg5
VKey Facts About Avian Influenza (Bird Flu) and Avian Influenza A ...
p156
sa(dp157
g3
V... was in Hong Kong in 1997, ... were dying from Avian Influenza ... gearing up for any chance of a possible bird flu outbreak/epidemic in the United States ...
p158
sg5
VHuman Health
p159
sa(dp160
g3
VThe first avian influenza virus to infect humans occurred in Hong Kong in 1997. ... were infected with this flu can continue to ... with an avian flu outbreak.
p161
sg5
VAvian Influenza - Symptoms, Diagnosis, Treatment of Avian ...
p162
sa(dp163
g3
V... anywhere were found in Hong Kong. That outbreak ... that infected 300 head and closed the Hong Kong ... awaited outbreak of H5N1 avian flu in humans.
p164
sg5
VAvian Flu Information - National AIDS Treatment Advocacy Project ...
p165
sa(dp166
g3
VDetection of outbreaks in Hong Kong and ... The Emergence of H5N1\u2014Avian Flu In 1997, an outbreak of avian ... flu virus was known to have infected humans.
p167
sg5
VAvian Flu: Preparing for a Pandemic
p168
sa(dp169
g3
V... and can pass on the flu to humans. In 1997, researchers ... as in A/Chicken/Hong Kong ... If a pig is infected with avian and human flu ...
p170
sg5
VThe Flu Types\u2014Seasonal, Pandemic, Avian (Bird), Swine
p171
sa(dp172
g3
V... and then in Hong Kong in 1997. Hong Kong's avian flu outbreak ... flu were to reach North America, how many ... humans? How many will die? A. It infected ...
p173
sg5
Vbird flu - definition of bird flu in the Medical dictionary - by ...
p174
sa(dp175
g3
V... Health Risk to Humans. Avian Flu: ... old boy in 1997 in Hong Kong. Seventeen other infections were recorded during that first outbreak, 6 of which were ...
p176
sg5
VAvian Flu: Why Bird Flu is Seen as a Potential Health Risk to ...
p177
sa(dp178
g3
VThose humans infected with H5N1 flu ... 1997: In Hong Kong, avian influenza A ... During this outbreak, 18 people were hospitalized and 6 of them died.
p179
sg5
VBird Flu | Avian Influenza Information - Transfer Factor | Boost ...
p180
sa(dp181
g3
V... humans since 1997 include: 1997: In Hong Kong, avian ... directly from birds to humans. During this outbreak, 18 people were ... members were infected was ...
p182
sg5
VHistory of Bird Flu/Avian Influenza | Medindia
p183
sa(dp184
g3
VThe first avian influenza virus to infect humans occurred in Hong Kong in 1997. ... were infected with this flu can continue to ... with an avian flu outbreak.
p185
sg5
VAvian influenza: MedlinePlus Medical Encyclopedia
p186
sa(dp187
g3
VAvian Influenza, or "bird flu", ... Where and how many human cases have occurred? Hong Kong experienced the first H5N1 virus outbreak in humans in 1997 with 18 cases ...
p188
sg5
VAvian Flu | Embassy of the United States Beijing, China
p189
sa(dp190
g3
VWhat is avian influenza (bird \u2018flu or poultry flu)? ... Wild birds can also be infected with, ... This strain of the virus first appeared in Hong Kong in 1997.
p191
sg5
VQ&A: Avian Influenza - BirdLife International - conserving the ...
p192
sa(dp193
g3
V1997: H5N1 Infects Humans ... strains in humans) H5N1: Caused two Hong Kong family members to ... strains in humans) H5N1: So-called Avian Flu causes illness in ...
p194
sg5
VLessons Found in History of Flu Pandemics | LiveScience
p195
sa(dp196
g3
VOfficials in Hong Kong test poultry at the ... found in humans until a series of cases were ... H5N1 avian flu virus has infected more ...
p197
sg5
VChinese authorities kill 20,000 birds as avian flu toll rises to 6 ...
p198
sa(dp199
g3
VH5N1 Avian influenza (\u201cbird flu\u201d) ... Subsequent pandemics were much milder, ... The H5N1 strain first infected humans in Hong Kong in 1997, ...
p200
sg5
VH5N1 Avian Influenza | Illinois Pandemic Flu.org | Northern ...
p201
sa(dp202
g3
VIn 1997, the avian flu ... two more ***** were *****fected in Hong Kong ... marking the first time that the disease was ***** to humans (History). This outbreak ...
p203
sg5
VTerm Paper about Avian Bird Flu the Avian Flu Was First Recorded ...
p204
sa(dp205
g3
VHONG KONG (CNN) \u2014 Chinese ... The virus had not previously been found in humans until a series of cases were ... The better known H5N1 avian flu virus has infected ...
p206
sg5
VChinese authorities kill 20,000 birds as avian flu toll rises to 6 ...
p207
sa(dp208
g3
VBest Answer: How humans get bird flu Avian viruses generally don't affect humans, but in 1997, an outbreak of bird flu in Hong Kong infected 18 people, six ...
p209
sg5
VHow does Bird Flu virus spread from birds to animals, especially ...
p210
sa(dp211
g3
VDo bird flu viruses infect humans? Bird flu ... infected birds. The current outbreak of avian ... outbreak of bird flu in poultry in Hong Kong, ...
p212
sg5
VDJ Feathers Aviary - Avian Flu Facts
p213
sa(dp214
g3
V... virus occurred in Hong Kong in 1997, ... avian flu since 1997. Most cases of avian flu in humans are thought to ... that has a known avian flu outbreak.
p215
sg5
VCenter for Health and Health Care in Schools - Avian Flu Fact Sheet
p216
sa(dp217
g3
VDuring a H5N1 outbreak in poultry in 1997 in Hong Kong, ... humans and other mammals are also at ... indicating that they were infected with the virus or had been ...
p218
sg5
VAvian Flu: Other animals
p219
sa(dp220
g3
VOn the 11th of May 1997 a three year old boy in Hong Kong ... avian flu progressed since the first outbreak? ... were affected too. It is not clear if humans ...
p221
sg5
VAvian flu, (chicken flu), swine flu, viruses and influenza.
p222
sa(dp223
g3
V... from chickens to humans; the first documented cases were in Hong Kong in 1997, when a variant of H5N1 infected 18 ... have the risk of avian flu in Hong Kong. "
p224
sg5
VDead Ducks Don't Fly: Wild Birds not Major H5N1 Flu Vectors ...
p225
sa(dp226
g3
VAvian Influenza A (H5N1) Infection in Humans ... Preparation for Pandemic Avian Flu Timeline May 1997: H5N1 isolated from a human patient in Hong Kong. 18 are ...
p227
sg5
VAvian Influenza A (H5N1) Infection in Humans
p228
sa(dp229
g3
VAvian influenza, or bird flu, ... The first cases of bird flu in humans were reported in 1997 in Hong Kong. ... The most recent outbreak was in New South Wales in 1997.
p230
sg5
VBird flu (avian influenza) - myDr.com.au
p231
sa(dp232
g3
VDo bird flu viruses infect humans? Bird flu ... from infected birds. The current outbreak of avian ... an outbreak of bird flu in poultry in Hong Kong.
p233
sg5
VKey Facts About Avian Influenza (Bird Flu) and
p234
sa(dp235
g3
VIf a new strain of avian flu was to mutate, humans would have ... and of this number 92.6% were collected from infected ... (designated H5N1 of Hong Kong ...
p236
sg5
VPigeons and Avian Influenza (Bird Flu) - PCRC
p237
sa(dp238
g3
VScientists first foresaw that there may be cause for concern when wild birds in Hong Kong were ... infected with the avian flu ... avian flu outbreak ...
p239
sg5
VThe Avian Influenza: Dying to Kill - Yahoo! Voices - voices.yahoo.com
p240
sa(dp241
g3
V... and \u201c Hong Kong influenza ... Subsequent pandemics were much ... virus may mutate and become transmissible between humans. Avian flu virus has not been ...
p242
sg5
VHealth News and Information: Pandemic Flu Information
p243
sa(dp244
g3
VWhere and how many human cases have occurred? Hong Kong experienced the first H5N1 virus outbreak in humans in 1997 with ... Asian flu" global death rates were in the ...
p245
sg5
VAvian Flu Information | Embassy of the United States
p246
sa(dp247
g3
V... and the \u201cHong Kong\u201d flu ... infected with avian flu. This is why news of humans contracting avian influenza during an outbreak of bird flu in poultry in 1997 ...
p248
sg5
VInfluenza Virus (Flu) - Department of Molecular Virology and ...
p249
sa(dp250
g3
V... been reported since 1997, and over 100 people were infected in an outbreak ... in Hong Kong announced that ... avian flu (H5N1) symptoms in humans ...
p251
sg5
VBird Flu (Avian Influenza) Symptoms, Vaccine, Transmission ...
p252
sa(dp253
g3
VHong Kong Case-patients were linked to an ... and healthcare workers in the 1997 outbreak in Hong Kong, ... management of humans infected with avian ...
p254
sg5
VCIDRAP >> Avian Influenza (Bird Flu): Implications for Human Disease
p255
sa(dp256
g3
V... Fitri and Putra were infected with the bird flu ... were only recently sent to Hong Kong for ... the H5N1 avian influenza virus is so lethal to humans ...
p257
sg5
VAvian Flu - What we need to know
p258
sa(dp259
g3
V... danger of a deadly worldwide outbreak, or pandemic, of avian flu. ... about flu, which had seemed so remote, were ... 1918 and in Hong Kong in 1997, ...
p260
sg5
VAvian Flu: How Scared Should We Be? - TIME
p261
sa(dp262
g3
VThe first of these appeared in China in 1996 in birds and in Hong Kong in 1997 in Humans. ... Infected birds pass on H5N1 ... an outbreak of avian flu may be ...
p263
sg5
VAvian Influenza Mutation, H5N1 - Bird flu - Bird flu Symptoms ...
p264
sa(dp265
g3
Ving a 1997 outbreak among poultry in Hong Kong that subsequently ... infected humans through direct ... that humans infect-ed with severe avian flu might require ...
p266
sg5
VPandemic Influenza - Trust for America's Health - Preventing ...
p267
sa(dp268
g3
VAvian flu can mutate into a strain that is capable of infecting humans. ... in Hong Kong in 1997. It rapidly infected ... a known outbreak of avian flu. ...
p269
sg5
VAvian Flu History and Origins | Flu SuperTips
p270
sa(dp271
g3
VWhat is the Government doing now to prepare for a pandemic flu outbreak? How many ... humans was first recognized in 1997 ... were identified in Hong Kong; ...
p272
sg5
VFrequently Asked Questions About Pandemic Influenza
p273
sa(dp274
g3
V... so humans are only infected when directly exposed to ... To play a guessing game whether the next outbreak will be the bird flu or ... The Hong Kong Flu; Avian ...
p275
sg5
VMaking the Bird Flu More Pathogenic - About.com Biotech and ...
p276
sa(dp277
g3
VMost cases of H5N1 infection in humans are thought to have occurred from direct contact with infected ... humans in Hong Kong in 1997. ... avian flu allow ...
p278
sg5
VAvian Influenza Outbreaks in Humans - California Department of ...
p279
sa(dp280
g3
VThe HPAI H5N1 strain of avian influenza was first identified in Hong Kong in 1997, ... then infected humans may ... The current outbreak of avian flu ...
p281
sg5
VAvian influenza
p282
sa(dp283
g3
VConfirmed instances of avian influenza viruses infecting humans since 1997 include: H5N1, Hong Kong ... were infected was ... With New Avian Flu Outbreak;
p284
sg5
VIs a Global Flu Pandemic Imminent?:Avian Influenza Infection in Humans
p285
sa(dp286
g3
VDroppings from infected wild birds can introduce avian flu into ... humans since 1997 include: 1997: In Hong Kong, ... Hong Kong, cases of avian flu A H9N2 were ...
p287
sg5
VBird Flu (Avian Influenza) - Health and Medical Information For ...
p288
sa(dp289
g3
VSince 1997, when the current avian flu outbreak ... The initial human cases were in Hong Kong but ... A history of avian flu outbreaks where humans have been infected.
p290
sg5
VCommon questions about avian flu - King County, Washington
p291
sa(dp292
g3
V... the spread of avian flu. China, Hong Kong, Vietnam and ... who can be infected by the flu ... take if there were an outbreak of rabies among ...
p293
sg5
Vavian flu, vaccinating poultry, bird flu - THE GOOSE'S MOTHER & FATHER
p294
sa(dp295
g3
VBefore the outbreaks in Hong Kong (1997) ... pigeons were found infected with H5N1 avian ... manage human sewage in outbreak areas where humans may ...
p296
sg5
VWHO | Avian influenza: food safety issues
p297
sa(dp298
g3
V... virus occurred in Hong Kong in 1997, ... avian flu since 1997. Most cases of avian flu in humans are thought to ... that has a known avian flu outbreak.
p299
sg5
VHoward University Newsroom
p300
sa(dp301
g3
VBird flu Avian influenza ... the outbreak was halted in Hong Kong by strict control measures in the poultry industry. ... there were 37,636 cases of pandemic ...
p302
sg5
VPandemic Influenza - Types of influenza
p303
sa.