(lp1
(dp2
S'description'
p3
VThe American Legion is a social and mutual-aid veterans' organization including members of the United States armed forces. The organization was founded in 1919 by ...
p4
sS'title'
p5
VAmerican Legion - Wikipedia, the free encyclopedia
p6
sa(dp7
g3
VJOIN TODAY AND RECEIVE Free gift: Pewter Branch of Service Pin; 12 Issues of The American Legion Magazine; Official Membership Card; Exclusive Member Discounts and ...
p8
sg5
VJoin the Legion | The American Legion
p9
sa(dp10
g3
VMembers. Quick Links; Join the Legion; Renew Membership; Member Discount Programs; Manage Your Membership; ... How to join The American Legion \u2018The least we can do\u2019
p11
sg5
VFAQs | The American Legion
p12
sa(dp13
g3
VFairfax American Legion Post 554 members Don Creamer, left, Dan Timmers and Jason Hill are hoping declining membership at the Post can somehow be resolved.
p14
sg5
VFairfax Legion Post faces declining membership | The Leaf ...
p15
sa(dp16
g3
VA - To be legal, if the Auxiliary and Sons of the American Legion members have bar privileges, each must have one (1) vote, as a collective group, ...
p17
sg5
VOfficial American Legion Opinions and Answers For Common Questions ...
p18
sa(dp19
g3
VThe United States Congress created the American Legion in 1919. Since then, the American Legion has amassed about 3 million members. This organization, which includes ...
p20
sg5
VHow to Join an American Legion Post | eHow.com
p21
sa(dp22
g3
VLegion is a North American guild that has its roots back in the ancient days of Ultima Online. ... Members . Leadership ...
p23
sg5
VLEGION - For we are many.
p24
sa(dp25
g3
VPatriotism is a personal commitment for American Legion Auxiliary members. We place great importance on community involvement and responsible citizenship.
p26
sg5
VAmerican Legion Auxiliary Department of Wisconsin
p27
sa(dp28
g3
V1 The American Legion Membership Card Each year membership cards are pre-printed at National Headquarters \u2013 with the names and addresses of your previous year\u2019s ...
p29
sg5
VThe American Legion Membership Card
p30
sa(dp31
g3
VPhoto by: Dwight Collins American Legion War Memorial Post No. 30 in Camden is one of the seven posts in District 6 looking for new members. District 6 also includes ...
p32
sg5
VThe American Legion looks to increase numbers through community ...
p33
sa(dp34
g3
VThe Legion of Super-Heroes is a team of comic book superheroes in the future, as published by DC Comics. It has gone through various iterations, as well as two ...
p35
sg5
VList of Legion of Super-Heroes members - Wikipedia, the free ...
p36
sa(dp37
g3
VThe American Legion, founded in 1919, is a charitable organization of veterans. The Legion operates a number of different types of voluntary program. Some are ...
p38
sg5
VHow to Become a Member of the American Legion | eHow.com
p39
sa(dp40
g3
VJoseph J. Duncan, Jr. American Legion Post 119 Visit: 850 N. St. Vrain Ave. Mail: P.O. Box 127 Estes Park, Colorado 80517 Phone: 970-586-6118 Fax: 970-586-2838
p41
sg5
VWhy Join the American Legion?
p42
sa(dp43
g3
VThe American Legion post locator. Search by country, city, state, zip and distance.
p44
sg5
VPost Locator - Veterans Organizations | The American Legion
p45
sa(dp46
g3
VBest Answer: Yes, the service organizations have been very kind. In 1988 we decorated graves for Veteran's Day, and a tall, handsome WWl vet got up to ...
p47
sg5
VHave you ever been a member of AmVets, VFW, American Legion, or ...
p48
sa(dp49
g3
VQ: How do I join The American Legion? A: Select the Becoming A Member section from the Table of Contents for an application. Or contact someone at an American Legion ...
p50
sg5
VThe American Legion, Minnesota, Frequently Asked Questions
p51
sa(dp52
g3
VHow does an american join the french foreign legion? do i have to speak french as well? ... Remember that many members of the FL are from Africa, ...
p53
sg5
VHow does an american join the french foreign legion? - Yahoo! Answers
p54
sa(dp55
g3
VLegion does not view the Old Machines as deities, ... As with all squad members, Legion has unique dialogue that can be heard at various locations, ...
p56
sg5
VLegion - Mass Effect Wiki - Mass Effect, Mass Effect 2, Mass ...
p57
sa(dp58
g3
VWhat do Auxiliary members have in common? ... Many women veterans are members of both The American Legion and . the Auxiliary. Where will new members come from?
p59
sg5
VFrequently Asked Question's
p60
sa(dp61
g3
VThat was two decades ago. Now, the members of the American Legion and VFW aren\u2019t extinct, but they\u2019re well on their way. Many of them have died out, ...
p62
sg5
VSadness on Veterans Day as American Legion, VFW Struggle
p63
sa(dp64
g3
VThe second is that many former members do not correctly complete their applications, ... THE AMERICAN LEGION has full time professional service officers located ...
p65
sg5
VTHE AMERICAN LEGION - Tybee Time, Tybee Island Georgia, GA Tourist ...
p66
sa(dp67
g3
VMembers always receive unlimited free admission to the permanent collections at the de Young and the Legion of Honor. Members also receive ... and North American ...
p68
sg5
VFrequently Asked Questions - Membership | Legion of Honor
p69
sa(dp70
g3
VThe American Legion accepts both peacetime and wartime vets. To be in the Legion, you don't ever have to leave the US...but MOST members have.
p71
sg5
VWhat is the difference between the American Legion and the VFW ...
p72
sa(dp73
g3
VPaid up for Life (PUFL) What is a Paid-Up-For-Life Membership? A PUFL membership is purchased with a lump sum or 36 equal monthly payments that makes you a Paid-Up ...
p74
sg5
VThe American Legion Department of Maine - Paid-Up-For-Life Membership
p75
sa(dp76
g3
VI am a "Cold War Vet" and a member of The American Legion, ... neither the United States Navy or the Department of Defense has approved, endorsed, ...
p77
sg5
VAmerican Legion, Veterans of Foreign Wars should admit Cold War ...
p78
sa(dp79
g3
Vthe American Legion does by virtue thereof, have federal income tax exempt status ... percent of the members that do not have to be veterans, ninety ...
p80
sg5
VHOME ASSOCIATIONS, - American Legion Department of Pennsylvania
p81
sa(dp82
g3
VHow many Posts are actively retaining their members much less recruiting new members? 16. How many Posts have grown ... have sustained The American Legion from ...
p83
sg5
VThe American Legion Department of South Carolina: Department Adjutant
p84
sa(dp85
g3
VAmerican Legion, many young service members will want to sign up. Remember, there are two message points for anyone serving in uniform today: 1. You are a veteran NOW.
p86
sg5
VThe American Legion
p87
sa(dp88
g3
VVFW and American Legion posts struggle to survive as older members die and younger veterans decide not to join.
p89
sg5
VAmerican Legion, Veterans of Foreign Wars posts struggle ...
p90
sa(dp91
g3
VEngaging the next generation to become members in the American Legion Auxiliary. ... mentoring and other hiring initiatives the Department of Defense provides or ...
p92
sg5
VHome | American Legion Auxiliary
p93
sa(dp94
g3
VWe do this through lobbying on "The Hill". The American Legion Members have strength in numbers. Numbers that are upwards of 3,000,000. That ...
p95
sg5
VFlorida, Department of - American Legion
p96
sa(dp97
g3
VMembers . Costuming . Events . Just For Fun . Propaganda . Contact . ... How can I join the 501st Legion? Do you have a passion for Star Wars and helping others?
p98
sg5
VFrequently Asked Questions - 501st Legion: Vader's Fist
p99
sa(dp100
g3
VWith over 340,000 members, Legion is one of Canada's largest community based ... The Royal Canadian Legion has also assumed a major responsibility for ...
p101
sg5
VThe Royal Canadian Legion
p102
sa(dp103
g3
VOn a Friday evening these days, just a handful of members belonging to the Alphonse Yelle Post No. 9 of the American Legion get together at the Post Home at 20 ...
p104
sg5
VAmerican Legion about helping fellow veterans | The Woonsocket Call
p105
sa(dp106
g3
VThe American Legion National Headquarters has no forms to ... American Legion regardless of how long he or she has been a member or how many meeting they have ...
p107
sg5
VFAQ | PA American Legion
p108
sa(dp109
g3
VPOST HISTORY. OMAHA POST #1 1919-1948 DedicationTo those brave young souls who walked the streets of Omaha getting members for a veterans' organization which "they ...
p110
sg5
VAmerican Legion Omaha Post 1 American Legion: POST HISTORY
p111
sa(dp112
g3
VFREE Accidental Death and Dismemberment Policy. The American Legion of Iowa offers a FREE $1000.00 AD&D policy to all our members through the Legionnaire Insurance ...
p113
sg5
VMember Benefits - The American Legion of Iowa
p114
sa(dp115
g3
VHow many press outlets have received two American Legion Fourth Estate Awards? SEE THE ANSWER. ... we invite you to become a member of The American Legion. ...
p116
sg5
VThe American Legion
p117
sa(dp118
g3
VAmerican Legion members can receive a discount on many products, including Apple computers. They also have a private selection consultation program with Sears, ...
p119
sg5
VAmerican Legion Fundraising - LoveToKnow: Advice women can trust
p120
sa(dp121
g3
VThis program is available to American Legion and Sons of The American Legion members ... PA 19034 1-800-523-5758 HEALTH CARE The American Legion has ...
p122
sg5
VThe American Legion Life Insurance Program
p123
sa(dp124
g3
VThe Royal Canadian Legion was formed in 1926 with a membership of 50,000. ... categories of membership have evolved to include other members of the community.
p125
sg5
VThe Royal Canadian Legion
p126
sa(dp127
g3
VSo, it is obvious that many Legion Members are combat Veterans, ... But the American Legion has some inconsistencies in their eligibility dates.
p128
sg5
VVFW/AMERICAN LEGION Questions - Error Template
p129
sa(dp130
g3
Vare tearing at the AIMS AND PURPOSES of the AMERICAN LEGION, we have a bigger fight ... important part of our mission as members of the American Legion is to RIGHT ...
p131
sg5
VDepartment of Illinois
p132
sa(dp133
g3
VWhat comes to mind when you think of a VFW post or American Legion hall? Many of us imagine an old-fashioned ... Capt. Tom Clark is a member of the American Legion, ...
p134
sg5
VVeterans Groups Struggle To Attract Young Soldiers | WBUR
p135
sa(dp136
g3
VThe American Legion Auxiliary. Mission Statement. ... with nearly 1 million members. Affiliated with The American Legion, ...
p137
sg5
VThe American Legion - Buford GA - Post 127:Legion Auxiliary
p138
sa(dp139
g3
VMembers of the American Legion post #1346 of Grand Island have grave flags available to anyone who would like to put one on a friend or relative's grave.
p140
sg5
VAmerican Legion
p141
sa(dp142
g3
VThe American Foreign Legion . ... All United States soldiers in Iraq are members of an all-volunteer force that is doing a superb job ... Department of Defense.
p143
sg5
VThe American Foreign Legion - Home - Welcome to Charter.net
p144
sa(dp145
g3
VThe Department of Defense announced today the ... American Legion Auxiliary members have lived and breathed the motto of Service ...
p146
sg5
VSons Of The American Legion (SAL) NATIONAL
p147
sa(dp148
g3
Vyou must sign up 4 NEW members in The American Legion Family! Legion = 2 Legion + 1 Auxiliary + 1 S.A.L. AUXILIARY = 1 Legion + 1 Auxiliary + 1 S.A.L + 1 ANY OF 3.
p149
sg5
VPost 21 News
p150
sa(dp151
g3
VLet me address each of those comments in turn: 1) "The American Legion does the same thing." ... The American Legion has around 2.5 million members.
p152
sg5
VStaying non-partisan in a political world. | The American Legion's ...
p153
sa(dp154
g3
VThe American Legion presents $10,000 combined whole life and accidental death insurance. This program helps provide quality financial protection ...
p155
sg5
VWelcome to the American Legion - Department of New Jersey
p156
sa(dp157
g3
VPlease click on the links below for further information regarding: Membership Application ... The American Legion Department of New York is
p158
sg5
VMembership Information - Welcome to the American Legion ...
p159
sa(dp160
g3
VSons of The American Legion members include males of all ages whose parents or grandparents served in the U.S. military and were eligible for American Legion membership.
p161
sg5
VSons of The American Legion | The American Legion
p162
sa(dp163
g3
V(Photo contributed) From left: Wayne Thieman, Larry Baer and Bud Vander Well, members of the American Legion Wasmer Post 241, in Le Mars, fold an American flag during ...
p164
sg5
VLe Mars Daily Sentinel: Local News: Local Legion preserves honor ...
p165
sa(dp166
g3
VWhat is the French Foreign Legion? A military group where you will march until you drop and then you will crawl until you die or are ordered to stop! Do we have any ...
p167
sg5
VWhat is the French Foreign Legion? | Answerbag
p168
sa(dp169
g3
VSince January of 2000 the website has been maintained by Randy Thompson, a member of the American Legion for 42 years having joined Post 1 back in 1969. In addition ...
p170
sg5
VAmerican Legion LCW Post No. 1 - Welcome Page
p171
sa(dp172
g3
VGuest is anyone who is not a member of Post 162, American Legion Auxiliary, and Sons of the American Legion or a member of any other Post, Unit or ...
p173
sg5
VHouse Rules - American Legion Post 162
p174
sa(dp175
g3
V... and American Samoa. ... How many members of the US House of Representatives does New Jersey have? They have 13 in the 111 th Congress. Sign in using:
p176
sg5
VHow many members are there in the US House of Representatives
p177
sa(dp178
g3
VRank does not exist in The American Legion; no member shall be addressed by his military or naval title in any convention or meeting of The American Legion.
p179
sg5
VConstitution and By-Laws : Arizona Dept. || American Legion
p180
sa(dp181
g3
V... where member has given his or her oral permission to be transferred. ... Many an American Legion Post has been a pacesetter in community involvement.
p182
sg5
VLegion Announcements
p183
sa(dp184
g3
Vwho was a member of the Army,Navy,Marine Corps, Coast Guard or Air Force of the United States and assigned to active duty at
p185
sg5
VMembership In The American Legion
p186
sa(dp187
g3
VQuery a member about the legendary secret selection process ... Picagre d' Phillipe is the current Commandant General of the Legion, and a living legend to many.
p188
sg5
VFrench Foreign Legion - $TIM: I Want Money, Yeah, That's What I Want.
p189
sa(dp190
g3
VFrank Abel has been a member of the Wheaton American Legion Post 268 Color Guard ... "Unfortunately many of our members are Legion members or ...
p191
sg5
VAmerican Legion Wheaton Post 268 Color Guard
p192
sa(dp193
g3
VLegion members are fastidious about classical Latin pronunciations, such as pronouncing the traditional Roman greeting "ave" (hail) [\u02c8awe\u02d0].
p194
sg5
VCaesar's Legion - The Fallout wiki - Fallout: New Vegas and more
p195
sa(dp196
g3
VThe American Legion has achieved recognition as a National leader in behalf ... state and nation be ever a main objective of The American Legion and its members.
p197
sg5
VAmerican Legion - Phoenixmasonry, Inc.
p198
sa(dp199
g3
VRank does not exist in The American Legion; no member shall be addressed by his military or naval title in any meeting of the Post. Section 2.
p200
sg5
VCONSTITUTION AND BY-LAWS OF - The American Legion Department of ...
p201
sa(dp202
g3
VAs National Commander of the 2.4 million member American Legion and as a Vietnam War veteran, ... The American Legion takes this obligation very seriously.
p203
sg5
VCBS\u2019 \u201cThe Amazing Race" accused of dishonoring and insulting ...
p204
sa(dp205
g3
V"Why do I have to join the French Foreign Legion under an assumed name?" ... Flintlock guns were extremely important weapons in the American Revolution; ...
p206
sg5
VHowStuffWorks "Why do I have to join the French Foreign Legion ...
p207
sa(dp208
g3
VWelcome to myLegion . An interactive web tool for Member, Post, District and Department. ... Exclusively for members of the 48 participating American Legion Departments .
p209
sg5
VAmerican Legion The American Legion Department of Tennessee: Home
p210
sa(dp211
g3
Vget one started or revitalized. As you know, the support provided by The American Legion does not ... How many members has your post lost due to a lack of a plan?
p212
sg5
VPost Membership Training Guide
p213
sa(dp214
g3
VAn alphabetical directory of American Legion Posts in all 50 States. ... An alphabetical directory of the location of American Legion Posts in all 50 States.
p215
sg5
VAn American Legion Post Location Directory
p216
sa(dp217
g3
VAmerican Legion VSO Representative told me although that being a member of the American Legion is not required for services, I decided I should join.
p218
sg5
VAmerican Legion Vso Representative - (VA Claims Research) Veterans ...
p219
sa(dp220
g3
VSelect a State for viewing or printing the locations of American Legion Posts in all 50 States.
p221
sg5
VAn American Post Location Legion Directory - State Select
p222
sa(dp223
g3
VAmerican Legion China Post 1, Expatriate Post, worldwide members, Memorial Div, Korea, Saudi, VA, TX, Phillipines with watering holes.
p224
sg5
VAmerican Legion China Post 1 - Soldiers of Fortune Worldwide
p225
sa(dp226
g3
VMany of the Legion's members are older veterans who served in Vietnam and Korea and have mobility or health problems, ... and a member of the American Legion.
p227
sg5
VAmerican Legion bar closes due to lack of funds | Garden City Telegram
p228
sa(dp229
g3
VLife Member; Medals; Officer Ribbons; ... American Legion Uniform Cap Help ... Note: Many states require caps have a state insignia.
p230
sg5
VAmerican Legion Flag & Emblem > Help > American Legion Uniform Caps
p231
sa(dp232
g3
VTravel baseball teams have taken players away from the American Legion baseball program. How do the two types of programs stack up ... Members Login ...
p233
sg5
VAmerican Legion Baseball Versus Travel Baseball
p234
sa(dp235
g3
VYour American Legion Benefits Good Reasons To Join: Membership in The American Legion and Sons of The American Legion brings with it special benefits that not only ...
p236
sg5
VMember Benefits, The Minnesota American Legion
p237
sa(dp238
g3
VFounding Legion members Rokk Krinn, Garth Ranzz and Imra Ardeen traveled through time back to the 21st century to stop the Persuader from killing Superman, aka Clark Kent
p239
sg5
VLegion of Super-Heroes - Smallville Wiki
p240
sa(dp241
g3
V... no American citizen can serve in the French Foreign Legon or any ... France has overseas interests as do many countries. The Legion is a part of the French Army ...
p242
sg5
VHas anybody here served in French Foreign Legion? | Answerbag
p243
sa(dp244
g3
VLife Member; Medals; Plaques; PUFL (Paid Up For Life) Books, Pamphlets, CDs. Americanism; Flag Education; History; ... American Legion. Site Navigation: Patriotic ...
p245
sg5
VAmerican Legion Flag & Emblem
p246
sa(dp247
g3
VWhat does the American Legion offer you? ... or are still serving and desire to become a member of the American Legion please contact Post 4.
p248
sg5
V- American Legion Post 4 Pocatello Still Serving
p249
sa(dp250
g3
Vone member representing the parent service of the deceased. ... The American Legion has performed thousands of burial ceremonies annually for the families of
p251
sg5
V\u201cHonoring Those Who Serve\u201d The American Legion assisting as an ...
p252
sa(dp253
g3
VNational Commander James E. "Jim" Koutz Homecoming May 10-11, 2013. The American Legion Department of Indiana is providing bus transportation from National ...
p254
sg5
VHoosier Legionnaire :: Home
p255
sa(dp256
g3
VTo foster a higher spiritual level among its members, the Legion established the ... Does the Legion have a ... Legion of Mary Handbook, 6th American New ...
p257
sg5
VLegion of Mary - EWTN Global Catholic Television Network
p258
sa(dp259
g3
VAmerican Republic, who came specially over ... Their names will be known. But it is our men of the Legion who have paved the way with their untiring labour.
p260
sg5
VThe Hard Truth About the Foreign Legion by Max Hastings | The New ...
p261
sa(dp262
g3
VAmerican Legion baseball home. Register, sign in, or reset password.
p263
sg5
VAmerican Legion Baseball Registration | American Legion \u2026
p264
sa(dp265
g3
VYes, members of The American Legion may use the facilities of and participate in the social and recreational activities of any American Legion Post. No Post will
p266
sg5
VFOREWARD GENERAL - The American Legion Department of New York
p267
sa(dp268
g3
VTRICARE for Life is the Department of Defense-administered medical insurance plan for retired career service members ... \u2014 The leader of The American Legion has ...
p269
sg5
VArizona Dept. || American Legion
p270
sa(dp271
g3
VAMERICAN LEGION AUXILIARY . FEDERAL AND STATE REQUIREMENTS . ... of the individual members but the act of incorporating does not automatically confer tax exempt
p272
sg5
VAMERICAN LEGION AUXILIARY FEDERAL AND STATE REQUIREMENTS Federal ...
p273
sa(dp274
g3
VUncle Pierre Needs You Join the legion? Does the La ... that there are too few Americans in their ranks. 20 People in ... paid member of the Legion, ...
p275
sg5
VJoin The French Foreign Legion - Everything2.com
p276
sa(dp277
g3
VResources about the Roman Legion - A full strength legion was officially made up of 6,000 men, but typically all legions were organized at under strength and ...
p278
sg5
VRoman Legion
p279
sa(dp280
g3
V2 Notable members; 3 Joining the Legion; 4 Oath; 5 Ranks; 6 Armor; 7 Tactics; 8 Imperial camps; 9 Post-Civil War; 10 Subtypes; ... if the Imperial Legion has ...
p281
sg5
VImperial Legion (Skyrim) - The Elder Scrolls Wiki
p282
sa(dp283
g3
VFree fund raising ideas for American Legion Posts of all sizes and types. ... and continued devotion to our fellow service members and veterans. But in a ...
p284
sg5
VAmerican Legion Fundraising Ideas - American Legion Fundraiser!
p285
sa(dp286
g3
VSo, American Legion, I thank you for your partnership. ... he served as a proud member of the American Legion. (Applause.) The day he was laid to rest, ...
p287
sg5
VRealClearPolitics - Obama's Speech to the American Legion
p288
sa(dp289
g3
VAmerican Legion Riders. Do Not Lead, ... not from current legion members, but many joined the American Legion to become members of the American Legion Riders.
p290
sg5
VAmerican Legion Riders
p291
sa(dp292
g3
VEach crew member has a story to tell and starting in January, Sea ... The American Legion, since its founding, has endeavored to assist veterans, ...
p293
sg5
VThe American Legion Dept. of NC: Home page
p294
sa(dp295
g3
VDo I have to register my ... Many of our student participants choose to interview friends or family members that have served ... (such as the American Legion, ...
p296
sg5
VFrequently Asked Questions About the Veterans History Project ...
p297
sa(dp298
g3
VFailure to do so could endanger an American Legion Post non-profit status. ... the first American Legion caucus, held by members of the American Expeditionary Force, ...
p299
sg5
VAmerican Legion Post 463
p300
sa(dp301
g3
V... the first American Communists sought to build support among American workers to overthrow capitalism, ... "How many members does askville have?" (3 answers)
p302
sg5
VHow many active members does the CPUSA have ?
p303
sa.