(lp1
(dp2
S'description'
p3
VBarry Manilow (born Barry Alan Pincus in ... announced age when he was really 32--in 1975--and made him 29 years old so he would appeal to ...
p4
sS'title'
p5
VBarry Manilow - Jewish Virtual Library - Homepage
p6
sa(dp7
g3
VBarry Alan was born to Edna and Harold Pincus, of Russian-Jewish descent. Harold left the family when Barry was only two-years-old, prompting him to adopt his mother ...
p8
sg5
VBarry Manilow - Biography on Bio.
p9
sa(dp10
g3
VBarry Manilow. AKA Barry Alan Pincus. Born: 17-Jun-1943 Birthplace: Brooklyn, NY. ... That same year he received an Emmy award for his first television special ...
p11
sg5
VBarry Manilow - NNDB: Tracking the entire world
p12
sa(dp13
g3
VBarry Manilow, performing in ... And that's just a small part of what Manilow has done in his 40 years in show ... the Brooklyn-born Manilow went on to a spectacular ...
p14
sg5
VBarry Manilow comes to bergenPAC : page all - NorthJersey.com
p15
sa(dp16
g3
V... Barry Manilow was one of the most successful recording artists of the '70s and ... He was born Barry Allen ... Throughout his years at Brooklyn's Eastern ...
p17
sg5
VBARRY MANILOW
p18
sa(dp19
g3
VManilow was born Barry Pincus; ... But I see these pictures and it does look strange,\u201d he concedes. Last year, Manilow couldn\u2019t take the pain any longer.
p20
sg5
VBarry Manilow: 'If it wasn\u2019t for therapy, I wouldn\u2019t be ...
p21
sa(dp22
g3
VBy the year of his barmitzvah he was. Logins; RSS; Twitter; Facebook; Archives; Subscribe; S & P; ... Barry Manilow is born. June 17 1943: The man behind Mandy. By ...
p23
sg5
VOn this day: Barry Manilow is born | The Jewish Chronicle
p24
sa(dp25
g3
VIn Harris County, Deputy Abraham Alanis is working the homicide of a 69-year-old Navy veteran. ... Manilow's Style. Born Barry Alan Pincus in Brooklyn, New York, ...
p26
sg5
VBarry Manilow Biography - Facts, Birthday, Life Story - Biography.com
p27
sa(dp28
g3
VBarry Manilow (born June 17, 1943) is an American singer-songwriter and producer. He is best known for such recordings as "Could It Be Magic", "Mandy", "Can't Smile ...
p29
sg5
VBarry Manilow - Wikipedia, the free encyclopedia
p30
sa(dp31
g3
VBarry Manilow TIXS AVAILABLE ... 2008.ContentsEarly lifeChesney was born on ... while Chesney was honored as the Entertainer of the Year. He was also ...
p32
sg5
VBarry Manilow TIXS AVAILABLE
p33
sa(dp34
g3
VHe was born Barry Alan Pincus on June 17, 1943. ... a stage production written by himself and Bruce Sussman. That same year, he recorded "Manilow Sings Sinatra", ...
p35
sg5
VBarry Manilow - - Classic Rock Bands - classicbands.com
p36
sa(dp37
g3
VBarry Manilow is 69 years old; Born: 17 June 1943; Birthplace: ... Barry Manilow has claimed a birth year of 1946, but most sources indicate he was born in 1943.
p38
sg5
VBarry Manilow Biography - Birthday, Photos - Who2.com
p39
sa(dp40
g3
VBarry Manilow (born June 17, 1943 in Brooklyn, New York) is an American singer. He is best known for songs such as "Could It Be Magic", "Mandy", "Can't Smile Without ...
p41
sg5
VBarry Manilow - Simple English Wikipedia, the free encyclopedia
p42
sa(dp43
g3
VBarry Manilow was born Barry Alan Pincus on June 17, 1943, in Brooklyn, ... The same year, he won an Emmy for his first prime-time special on ABC ...
p44
sg5
ViTunes - Music - Barry Manilow - Apple
p45
sa(dp46
g3
VBarry Manilow was born Barry Alan Pincus on June 17, 1943, in Brooklyn, ... The same year, he won an Emmy for his first prime-time special on ABC ...
p47
sg5
VBarry Manilow - Music Biography, Credits and Discography : AllMusic
p48
sa(dp49
g3
Vbarry manilow concert ... i cannot find any infomation on his exact age..all that i know is that his birthday is june 17th but i can't find the year he was born. ...
p50
sg5
VManilow, Barry: age, love life, barry manilow concert, high school ...
p51
sa(dp52
g3
VBorn: Barry Alan Pincus - June 17, 1943, ... Following his years as a student, Barry Manilow began writing theme music for television shows and commercials.
p53
sg5
VBarry Manilow - Top 40, Latest Songs, New Music, Charts, and the ...
p54
sa(dp55
g3
VBarry Manilow was born Barry Alan Pincus on June 17, 1943, in Brooklyn, ... The same year, he won an Emmy for his first prime-time special on ABC ...
p56
sg5
VBarry Manilow - Listen to Free Music by Barry Manilow on Pandora ...
p57
sa(dp58
g3
VHow old is Barry Manilow and is he married? ChaCha Answer: Barry Manilow was born June 17, 1943. He is 66 years old. He was married t...
p59
sg5
VHow old is Barry Manilow and is he married? | ChaCha
p60
sa(dp61
g3
V10 Years 100 Monkeys ... Barry Manilow Tickets. He really does write the ... Born in Brooklyn, New York, Barry Manilow attended the famous Juilliard School ...
p62
sg5
VBarry Manilow Tickets - Barry Manilow Tour Dates on StubHub!
p63
sa(dp64
g3
Vdana robbins, barry manilow, linda allen: Hi Karen! Thanks for your questions. Barry was born, June 17 1943. His official biogs state, 1946, but it is, 1943.
p65
sg5
VManilow, Barry: Barry Manilow birth year, dana robbins, barry manilow
p66
sa(dp67
g3
VManilow was born Barry Alan Pincus to Harold Pincus ... Also that year, he worked with Monica Mancini on her Concord album The Dreams of Johnny Mercer which included ...
p68
sg5
VBarry Manilow - Halloween Poetry
p69
sa(dp70
g3
VManilow was born Barry Alan Pincus to Harold Pincus and Edna Manilow. ... In the same year, he enrolled in the Juilliard performing arts school, ...
p71
sg5
VBarry Manilow - Can't Smile Without You On This Morning with Phil ...
p72
sa(dp73
g3
VBarry was born as 'Barry Alan Pincus ... to promote 'Barry Manilow II' (where he sang "Mandy ... was released the following year as 'Barry Manilow Live On ...
p74
sg5
VBarry Manilow - Artists - Slow Radio
p75
sa(dp76
g3
VBarry Manilow was born Barry Alan Pincus on June 17, 1946, in Brooklyn, ... The same year, he won an Emmy for his first prime-time special on ABC ...
p77
sg5
Vthe biography of Barry Manilow - singer life story
p78
sa(dp79
g3
VOur list shows the name of the song and the year it was first released. Song Title Year Released * Song Rank; Mandy: ... Barry Manilow (born June 17, 1943) ...
p80
sg5
VBarry Manilow - WDW - WDW = Who's Dating Whom? - Famous Couples ...
p81
sa(dp82
g3
VOfficial Barry Manilow website including tickets, store, information, and fan club.
p83
sg5
VManilowSite2012
p84
sa(dp85
g3
VBarry was born at 9:00am-EWT at Beth Moses ... tie my 2 year-old son he adores him. qaundo is selling tv he ... I love Barry Manilow and he sempre the better ...
p86
sg5
VBarry Manilow - TV.com
p87
sa(dp88
g3
VBorn in Brooklyn as Barry Alan Pincus. He attended New York's Julliard School ... Barry won his first Emmy for his "Barry Manilow ... After 27 years in the ...
p89
sg5
VMatt & Andrej Koymasky - Famous GLTB - Barry Manilow
p90
sa(dp91
g3
VManilow was born Barry Alan Pincus to Harold Pincus and Edna Manilow. ... In the same year, he enrolled in the Juilliard performing arts school, ...
p92
sg5
VBarry Manilow - Bring On Tomorrow On This Morning with Phil ...
p93
sa(dp94
g3
VBarry Manilow is an American ... Eastern District High School in 1961- meaning he was born in ... of shows before he called time on his 5-year ...
p95
sg5
VBarry Manilow | Hollywood Walk of Fame
p96
sa(dp97
g3
V1943 - Manilow was born on June 17th in Brooklyn, ... it was the first time in 29 years (since Barry Manilow Live in 1977) that Barry topped the U.S. pop chart.
p98
sg5
VBarry Manilow Biography - S9.com
p99
sa(dp100
g3
V"Barry Manilow" (born June 17, 1943) is an American singer ... After his parents' divorce when he was two years old, he was raised by his mother and maternal ...
p101
sg5
VBarry Manilow Biography - Entertainment and World News on Monsters ...
p102
sa(dp103
g3
V... Eagle Bay and Barry Manilow. ... the idea of Cacao Cabana was born. ... Nick last year to see if he was interested in brewing a beer using ...
p104
sg5
VThe Monk, Eagle Bay and Barry Manilow | Australian Brews News
p105
sa(dp106
g3
VBorn: 17 June 1943. Birthplace: Brooklyn, New York. Best known as: ... Barry Manilow has claimed a birth year of 1946, but most sources indicate he was born in 1943.
p107
sg5
VBarry Manilow Biography (Singer/Composer) | Infoplease.com
p108
sa(dp109
g3
VBorn June 17, 1946, in Brooklyn, N.Y.; son of Harold Pincus and Edna (a secretary) Manilow; ... over 5 years ago I have always loved Barry Manilow's voice.
p110
sg5
VBarry Manilow Biography - Musician Biographies
p111
sa(dp112
g3
VBarry Manilow was born Barry Alan Pincus on June 17, 1943, in Brooklyn, ... The same year, he won an Emmy for his first prime-time special on ABC ...
p113
sg5
VBarry Manilow: Can't Smile Without You - Welcome to Shazam
p114
sa(dp115
g3
VBarry Manilow (66 years old) is a famous musician. Find out his latest pics, videos, news, family, dating history, and more on Spokeo ... Born Jun 17, 1946. Age 66.
p116
sg5
VBarry Manilow (Musician) - Pics, Videos, Dating, & News
p117
sa(dp118
g3
VDiscover several Barry Manilow facts including before he was famous, ... 69 years old: Birth Sign: ... Born on June 17 # 3: Born in 1943
p119
sg5
VBarry Manilow Facts - Celebrity Birthdays - People Born On My ...
p120
sa(dp121
g3
VManilow was born Barry Alan Pincus to Harold Pincus and Edna Manilow. ... Barry Manilow concluded his 2 year residency at the Paris Hotel in Las Vegas on December 11.
p122
sg5
VBarry Manilow - Morethan40
p123
sa(dp124
g3
VBarry Manilow (born Barry Alan Pincus in Brooklyn, New York on June 17, 1943) ... (in 1975) and made him 29 years old so he would appeal to teens; ...
p125
sg5
VBarry Manilow Biography, Bio, Profile, pictures, photos from ...
p126
sa(dp127
g3
VBarry Manilow was born Barry Alan Pincus on June 17, 1943, in Brooklyn, ... The same year, he won an Emmy for his first prime-time special on ABC ...
p128
sg5
VBarry Manilow Bio | Barry Manilow Career | MTV
p129
sa(dp130
g3
VManilow was born Barry Alan Pincus on June 17, 1943 in Brooklyn, ... "Manilow". Over the next few years, he started to perform locally for small businesses and parties.
p131
sg5
VAstrology: Barry Manilow, date of birth: 1943/06/17, Horoscope ...
p132
sa(dp133
g3
VBarry Manilow: He's made it through the rain, one marriage and a quixotic bathhouse past. ... Wendy Miller Co Spgs 2 years ago reply; Report; sandt k ...
p134
sg5
VBarry Manilow: He's made it through the rain, one marriage and a ...
p135
sa(dp136
g3
VBarry Manilow (born June 17, ... who was quoted in the 1970s regarding Manilow, "He's next." ... Joy to the World/It's the Most Wonderful Time of the Year. lyrics.
p137
sg5
VBarry Manilow Lyrics - Lyrics.com - your music community with the ...
p138
sa(dp139
g3
VIf you're a fan of Barry Manilow, ... Manilow started his life as "Barry Alan Pincus". He was born on ... When Barry turned thirteen years old, and he had ...
p140
sg5
VBarry Manilow Biography - Yahoo! Voices - voices.yahoo.com
p141
sa(dp142
g3
VBarry Manilow: Schedule of performances and events; photos, biographies, and reviews about Barry Manilow on Zvents.
p143
sg5
VBarry Manilow - Upcoming Shows & Performances - Zvents
p144
sa(dp145
g3
VBarry Manilow Arista 0157 ... born in Peoria, Illinois, on June 27, 1944, ... he fell into the music business at 16 years old, ...
p146
sg5
V"I Write The Songs" - Barry Manilow - Super Seventies RockSite
p147
sa(dp148
g3
VBarry Manilow, born Barry Alan Pincus, was born and raised in Brooklyn, New York. ... What is ironic is that I have been turned off from Judaism for years, ...
p149
sg5
VBarry Manilow's Religion and Political Views | The Hollowverse
p150
sa(dp151
g3
VBarry Manilow\u2019s recent illness has forced the ... first East Coast appearance in several years. Although he was born in NYC, Manilow has recently spent ...
p152
sg5
VBarry Manilow Ill: Singer Reschedules Broadway Performances
p153
sa(dp154
g3
VBarry Manilow fans, known as \u201cFanilows,\u201d made Thursday night a night of giving. ... 4 years after Mother's Day death of Stacey Burns, son hopes for justice.
p155
sg5
VBarry Manilow concert brings instruments to Manchester schools ...
p156
sa(dp157
g3
VFind the latest Barry Manilow tour ... After nearly two years headlining the Paris ... performer, conductor producer and arranger, was born in Brooklyn, New York ...
p158
sg5
VBarry Manilow Tour | 2013 Barry Manilow Concert Tour Dates
p159
sa(dp160
g3
VBarry Manilow was born on June 17, ... There have been many rumors circling around Barry Manilow's sexuality over the years. He keeps his private life private, ...
p161
sg5
VBarry Manilow Wife? - Ask Jeeves
p162
sa(dp163
g3
VManilow was born Barry Alan Pincus on June 17, 1943 in Brooklyn, ... "Manilow". Over the next few years, he started to perform locally for small businesses and parties.
p164
sg5
VAstrology: Barry Manilow, date of birth: 1943/06/17, Horoscope ...
p165
sa(dp166
g3
VBarry Manilow Arista 0157 ... born in Peoria, Illinois, on June 27, 1944, ... he fell into the music business at 16 years old, ...
p167
sg5
V"I Write The Songs" - Barry Manilow - Super Seventies RockSite
p168
sa(dp169
g3
VBarry Manilow, these days, looks ... only his eyeballs are the things he was born with, ... God bless him for being 68 years young and still going like he was 30.
p170
sg5
VBarry Manilow Now Two Eyes Away From Being Entirely Man-Made After ...
p171
sa(dp172
g3
VBarry Manilow was born June 17, 1943. He is 66 years old. ChaCha for now!
p173
sg5
VHow old is Barry Manilow? | ChaCha
p174
sa(dp175
g3
VBarry Manilow was born Barry Alan Pincus on June 17, 1943, in Brooklyn, ... The same year, he won an Emmy for his first prime-time special on ABC ...
p176
sg5
VBarry Manilow: Can't Smile Without You - Welcome to Shazam
p177
sa(dp178
g3
VConcert review: Barry Manilow turns out the hits at Mohegan Sun Casino ... As I grow into my hundreds \u2014 I'm a hundred years old already and I'm still working.
p179
sg5
VConcert review: Barry Manilow turns out the hits at Mohegan Sun Casino
p180
sa(dp181
g3
VBarry was born at 9:00am-EWT at Beth Moses ... tie my 2 year-old son he adores him. qaundo is selling tv he ... I love Barry Manilow and he sempre the better ...
p182
sg5
VBarry Manilow - TV.com
p183
sa(dp184
g3
VBarry Manilow (born June 17, ... who was quoted in the 1970s regarding Manilow, "He's next." ... Joy to the World/It's the Most Wonderful Time of the Year. lyrics.
p185
sg5
VBarry Manilow Lyrics - Lyrics.com - your music community with the ...
p186
sa(dp187
g3
VBarry Manilow (born June 17, 1943) is an American singer ... Also that year, he worked with Monica Mancini on her Concord album The Dreams of Johnny Mercer which ...
p188
sg5
VBarry Manilow | Biography - Lyrics, Song Lyrics \u2013 LyricsFreak.com
p189
sa(dp190
g3
V... Barry Manilow born on 17 June 1943 Brooklyn ... he returned to his Bel-Air home and retired from the music industry for two years. In that time, he started ...
p191
sg5
VAstrology: Barry Manilow, birth date 17 June 1943, born in ...
p192
sa(dp193
g3
VManilow was born Barry Alan Pincus to Harold Pincus and Edna Manilow. ... In the same year, he enrolled in the Juilliard performing arts school, ...
p194
sg5
VBarry Manilow - Bring On Tomorrow On This Morning with Phil ...
p195
sa(dp196
g3
VBarry Manilow was born Barry Alan Pincus on June 17, 1943, in Brooklyn, ... The same year, he won an Emmy for his first prime-time special on ABC ...
p197
sg5
VBarry Manilow - Biography on MSN Music
p198
sa(dp199
g3
VThe official website of the Barry Manilow International Fan Club. The Man, His Music, The Shows, His Fans, Feedback, and More.
p200
sg5
VBarry Manilow - The BarryNet
p201
sa(dp202
g3
VBarry Manilow was born in Brooklyn, ... At twenty-one years old he was asked by a director who found him in his mailroom job at CBS to find some public domain songs ...
p203
sg5
VBarry Manilow Bio (Biography) / Celebrity Gossip
p204
sa(dp205
g3
VIt looks like he's made it: Barry Manilow ... first return to Broadway in nearly 25 years. ... City-born icon has had a street corner \u2014 at Seventh Ave ...
p206
sg5
VBarry Manilow enjoys 'intimate' Broadway return - MSN Music News
p207
sa(dp208
g3
VDespite more than 30 years in showbusiness, Barry has managed to keep his private life exactly that, ... Barry Manilow Questionnaire Born Barry Alan Pincus, ...
p209
sg5
VBarry Manilow Homepage
p210
sa(dp211
g3
VBarry Manilow (Barry Alan Pincus) singer, songwriter Born: 6/17/1946 Birthplace: New York City. ... Year by Year; Fact Monster; 24 X 7 Private Tutor.
p212
sg5
VBarry Manilow | Infoplease.com
p213
sa(dp214
g3
VBarry Manilow was born Barry Alan Pincus on June 17, 1943, in Brooklyn, ... The same year, he won an Emmy for his first prime-time special on ABC ...
p215
sg5
VBarry Manilow: The Christmas Song: Chestnuts Roasting On An Open Fire
p216
sa(dp217
g3
V... the 66 year-old native New Yorker Barry Manilow, ... it was Barry Manilow he chose to record a song originally titled ... Born Barry Alan ...
p218
sg5
VBarry Manilow: From Jingle Singer to Superstardom - Yahoo! Voices ...
p219
sa(dp220
g3
VAward-winning singer/songwriter Barry Manilow talks to Dr. Manny about how he keeps ... born of her experience riding ... Barry Manilow .For more than 15 years, ...
p221
sg5
VBarry Manilow News and Video - FOX News Topics - FOXNews.com
p222
sa(dp223
g3
VBarry Manilow (born Barry Alan Pincus in Brooklyn, New York on June 17, ... This year's Growth Tarot Card Based on this year's birthday. Strength. Birthday: June 17 ...
p224
sg5
VBarry Manilow - Celebrity information - Free tarot readings ...
p225
sa(dp226
g3
VBarry Manilow was born in Brooklyn, New York on June 17, ... In his early years he was a commercial songwriter and is credited with the State Farm, ...
p227
sg5
VBarry Manilow Band Bio Song Lyrics Watch Barry Manilow Videos ...
p228
sa(dp229
g3
VBarry Manilow basks in lovefest at the Palace: By Selena Frye. ... With the ease born of many years of performing, he gave the audience what it wanted ...
p230
sg5
VBarry Manilow - The Official Website for Australia
p231
sa(dp232
g3
VBarry Manilow (born June 17, 1943) is an American singer-songwriter and producer. ... Looks like Barry Manilow has made it.Here's the 30-year-old back in 1973 ...
p233
sg5
VBarry Manilow News, Pictures, and Videos | TMZ.com
p234
sa(dp235
g3
VBorn June 17: Barry Manilow. ... of Barry Manilow? He was her ... WITH PROOF TO THE MAINSTREAM PRESS YEARS AGO.SINCE BARRY MANILOW HAD COSMETIC SURGERY HE HAS A ...
p236
sg5
VBorn June 17: Barry Manilow - Band of Thebes
p237
sa(dp238
g3
VBarry Manilow (born June 17, 1943) is an American singer\u2013songwriter, musician, ... Over the years Manilow has performed with Sarah Vaughn, Mel Torme, ...
p239
sg5
VBarry Manilow - Allvoices - Breaking News, Current Events, Latest ...
p240
sa(dp241
g3
VWatch videos & listen free to Barry Manilow: Mandy, Can't Smile Without You & more, plus 32 pictures. Barry Manilow (born June 17, 1943 in Brooklyn, New York ...
p242
sg5
VBarry Manilow \u2013 Free listening, concerts, stats, & pictures at ...
p243
sa(dp244
g3
VShown is the Barry Manilow calendar for 2013 from our legendary songwriter category. Born as Barry Alan Pincus, this 64-year old is known for dozens of chart ...
p245
sg5
VBarry Manilow Calendars
p246
sa(dp247
g3
VBarry Manilow, born Barry Alan Pincus, was born and raised in Brooklyn, New York. ... What is ironic is that I have been turned off from Judaism for years, ...
p248
sg5
VBarry Manilow's Religion and Political Views | The Hollowverse
p249
sa(dp250
g3
VBarry Manilow: He's made it through the rain, one marriage and a quixotic bathhouse past. ... Wendy Miller Co Spgs 2 years ago reply; Report; sandt k ...
p251
sg5
VBarry Manilow: He's made it through the rain, one marriage and a ...
p252
sa(dp253
g3
VAs Barry Manilow approaches 70, ... but I resisted it for the first couple of years. I guess I just didn't understand it. I didn't know how to do it.
p254
sg5
VBarry Manilow's Greatest Hits Show - Page 2 - Hartford Courant
p255
sa(dp256
g3
VBARRY Manilow has long been a favourite target of critics for his syrupy songs, ... 10-Year News Archive; smartjob.com. smartjob.com; Find a job; Resource Station;
p257
sg5
VManilow mellows | South China Morning Post
p258
sa(dp259
g3
VDid Barry Manilow Have Plastic Surgery? ... Born June 17, 1943, Barry Alan ... Despite being into his advanced retiring years, Barry doesn\u2019t seem to show the ...
p260
sg5
VBarry Manilow Plastic Surgery - Before & After Pictures 2013
p261
sa(dp262
g3
VBarry Manilow married Susan Deixler in 1964, but the wedding lasted for only one year and was annulled in 1965. ... He was born on 17th June 1943 and is 68 years old.
p263
sg5
VHas Barry Manilow Ever Been Married? - Ask.com
p264
sa(dp265
g3
VBarry Manilow (born June 17, 1943) is a Jewish-American ... Also that year, he worked with Monica Mancini on her Concord album The Dreams of Johnny Mercer which ...
p266
sg5
VBarry Manilow - Religion-wiki
p267
sa(dp268
g3
VBarry Manilow on His Recent Tour . ... The Brooklyn-born singer will return to his hometown to play a 17-date ... 'All These Years I Thought You Were Mad At Me,' Says ...
p269
sg5
VBarry Manilow on His Recent Tour - Hollywood Reporter
p270
sa(dp271
g3
VBarry Manilow was born Barry Alan Pincus on June 17, 1946, in Brooklyn, ... Earlier this year, Barry Manilow had a homecoming of sorts. For more than a month, ...
p272
sg5
VBook Barry Manilow Booking Agent Corporate Private Event | Barry ...
p273
sa(dp274
g3
VFollowing a sold out five year run, Manilow was lured to ... \u201cNo one can reinvent the great classics better than Barry Manilow,\u201d comments Davis. \u201cHe breathes ...
p275
sg5
VThe Barry Manilow Official Website
p276
sa(dp277
g3
V\u2014 Barry Manilow. About; Contact Us; ... Heck he was born and raised there, ... The music of Manilow changed my life nearly six years ago, ...
p278
sg5
VBarry Manilow\u2019s Music and Concerts Are More Than Entertainment ...
p279
sa(dp280
g3
VBarry was born June ... After 30 years on the road Barry decided he was ready to put an end ... Barry Manilow has always opened every show he has ever done with ...
p281
sg5
VBarry Manilow Mania! - Fun Facts, Questions, Answers, Information
p282
sa(dp283
g3
VBarry Manilow (born June 17, 1943)[1] is an ... Also that year, he worked with Monica Mancini on her Concord album The Dreams of Johnny Mercer which ...
p284
sg5
VBarry Manilow Biography, Information, Pictures, News, Discography ...
p285
sa(dp286
g3
VBarry Manilow (born Barry Alan Pincus in Brooklyn, New York on June 17, 1943) is an American singer and songwriter. ... It's Just Another New Year's Eve "By Barry ...
p287
sg5
VBarry Manilow biography - 8notes.com
p288
sa(dp289
g3
V... but Barry Manilow ... Singer will headline at St. James Theater in first appearance on B'way in nearly 25 years ... Born Barry Alan Pincus, he ...
p290
sg5
VBarry Manilow returns to Broadway with solo show and even a street ...
p291
sa(dp292
g3
VBarry Manilow new music, concerts, photos, and official news updates directly from Barry Manilow's Twitter and Facebook.
p293
sg5
VBarry Manilow | New Music And Songs | MTV
p294
sa(dp295
g3
VBorn Barry Alan Pincus 69 years ago this June, ... Highest-lights from the life and times of Barry Manilow: First big arena-type show he remembers: ...
p296
sg5
VBloomington-Normal has been good to Manilow, who's going strong at 68
p297
sa(dp298
g3
VRead latest Barry Manilow Breaking News Stories and Gossip | Contactmusic.com
p299
sg5
VBarry Manilow News | Breaking News and Gossip | Contactmusic.com
p300
sa(dp301
g3
VBarry Manilow is one of many to be treated by Dr. Maloney, a Lasik guru who has treated many famous celebrities. After his procedure, Barry was happy to give a ...
p302
sg5
VBarry Manilow swears by Lasik surgery - Celebrities - Celebrities ...
p303
sa.