(lp1
(dp2
S'description'
p3
VWith its attacks against what they consider "enemies of the Basque people", ETA has killed over 820 people since 1968 to date, including more than 340 civilians.
p4
sS'title'
p5
VETA - Wikipedia, the free encyclopedia
p6
sa(dp7
g3
VThis page is a list of attacks undertaken by the Euskadi Ta Askatasuna ... people have been killed in ETA ... ETA would continue to fight for Basque self ...
p8
sg5
VList of ETA attacks - Wikipedia, the free encyclopedia
p9
sa(dp10
g3
VETA stands for Euskadi ta Askatasuna, ... About eight hundred people have been killed as a result of ETA ... Basque support for ETA? \u2014 No. Many Basques ...
p11
sg5
VFast Facts: Look at Spain's ETA | Fox News
p12
sa(dp13
g3
VEuskadi Ta Azkatasuna, Eta, whose name stands for Basque Homeland and Freedom, ... At least eight people have been killed by the group since then.
p14
sg5
VBBC News - What is Eta?
p15
sa(dp16
g3
V... some of the fiercest nationalists founded ETA, or Euskadi Ta Askatasuna, Basque ... have been killed by ... approximately 18 million people of Basque ...
p17
sg5
VBasque Country - An Overview of Basque Country
p18
sa(dp19
g3
VETA stands for Euskadi Ta Askatasuna, ... but dozens of civilians have also been killed. ... The Basque people are considered one of the oldest ...
p20
sg5
VCNN.com - ETA violence has gripped Spain since 1968 - Mar 12, 2004
p21
sa(dp22
g3
VETA stands for Euskadi ta Askatasuna, which means \u201cBasque Fatherland and ... The Spanish government estimates that ETA has killed over 800 people and carried out ...
p23
sg5
VBasque Fatherland and Liberty (ETA) (Spain, separatists, Euskadi ...
p24
sa(dp25
g3
VThe Euskadi Ta Askatasuna was founded in 1959 and has been ... del Interior shows how many people have been killed by the ... Eta and Basque separatism ...
p26
sg5
VEta and Basque separatism: data over the years | News | guardian.co.uk
p27
sa(dp28
g3
VSo many people obviously abhor the violence, ... the Basque region, even as ETA imagines it, ... you can be killed, really. Mann: So, ...
p29
sg5
VCNN.com - Q&A on the Basque conflict - May 21, 2002
p30
sa(dp31
g3
VAbout 30% of the 2.5 million Basque people speak it and more than 90% of Basque children are now enrolled in ... 118 people are killed in ETA's bloodiest year so ...
p32
sg5
VETA is born - RACEANDHISTORY.COM : Understanding how Race and ...
p33
sa(dp34
g3
VThe Basque militant group ETA, which has fought ... announced that it was laying down its arms after a lengthy campaign that has killed nearly 900 people. ...
p35
sg5
VBasque militant group ETA ends four decades of separatist violence ...
p36
sa(dp37
g3
VSome 829 people have been killed by ETA since its creation fifty two years ago ... (which stands for Euskadi Ta Askatasuna \u2013 and means Basque Homeland and Freedom) ...
p38
sg5
VETA and an end to political violence in Spain? - Culture Spain ...
p39
sa(dp40
g3
VIn 1959 the Euskadi Ta Askatasuna (ETA) ... when one hundred and eighteen people were killed. In 1987 the ETA ... In Basque country, many people are still ...
p41
sg5
VTHE BASQUE SEPARATIST MOVEMENT - University of North Carolina at ...
p42
sa(dp43
g3
VThe Basque terrorist group ETA detonated a car bomb on Wednesday ... The approximately 100 ... has killed more than 850 people since taking up arms in 1968 to ...
p44
sg5
VBasque terrorists attack regional TV station in Bilbao ...
p45
sa(dp46
g3
VThe armed Basque separatist group Eta has unilaterally called off the ... in which 191 people were killed, many analysts believed that Eta would soon ...
p47
sg5
VQ&A: Eta and Basque separatism in Spain | World news | guardian.co.uk
p48
sa(dp49
g3
VAn unidentified man walks past graffiti showing the symbol of the Basque separatist group ETA, a snake ... for attacks that have killed more than 800 people since ...
p50
sg5
VCBC News Indepth: ETA
p51
sa(dp52
g3
VWe may be seeing a new dawn as ETA has not killed or attempted to kill since ... armed group Euskadi Ta Askatasuna - or ETA ... Basque people constitute a ...
p53
sg5
VHopes for continued peace in Basque Country after ETA ceasefire ...
p54
sa(dp55
g3
VMADRID \u2014 Basque militant group ETA called an end to a 43-year armed ... in Spanish and French jails and ETA weapons. ETA has killed 829 people in bombings and ...
p56
sg5
VBasque ETA ends armed independence campaign - World news - Europe ...
p57
sa(dp58
g3
VETA, which stands for Euskadi Ta Askatasuna ... and has killed an estimated 800 people since the 1960s. ... ETA is part of the Basque National Liberation Movement.
p59
sg5
VETA
p60
sa(dp61
g3
VETA has traditionally had ... two bomb attacks that killed 29 civilians ... as Spanish and French make a second language and hence the Basque people ...
p62
sg5
VBasque Country Conflict Briefing - Flashpoints
p63
sa(dp64
g3
VFor a more detailed breakdown of people killed by ETA please view the following ... approximately 343 have been killed to date. ... Euskadi Ta Askatasuna (ETA), ...
p65
sg5
VSpanish Nationalism and Terrorism - ETA and the Basque Question
p66
sa(dp67
g3
VTHE death of the late suspected leader of Basque separatist group ETA in a Paris hospital last ... car bombing at Madrid airport that killed two people, ...
p68
sg5
VETA man's death 'assassination': family | The Australian
p69
sa(dp70
g3
VETA grew out of the Basque ... ETA, abbreviation of Basque Euskadi Ta Askatasuna (\u201cBasque Homeland and ... Madrid\u2019s international airport that killed two people, ...
p71
sg5
VETA (Basque organization) -- Encyclopedia Britannica
p72
sa(dp73
g3
VThe new pledge from ETA, which has been fighting for an independent ... many people in the Basque region had been ... has killed more than 825 people since the ...
p74
sg5
VBasque separatists ETA announce cease fire - World news - Europe ...
p75
sa(dp76
g3
VThe Basque militant group ETA called an end to a 43-year violent campaign for ... ETA, which has killed 829 people in bombings and shootings ...
p77
sg5
VBasque Terrorist Group ETA Ends Armed European Independence ...
p78
sa(dp79
g3
VETA is pronounced "etta" and stands for Euskadi ta Askatasuna which means "Basque ... ETA has killed over 800 people since ... and wounded approximately 90 ...
p80
sg5
VBasque Fatherland and Liberty (ETA) - WolfWikis
p81
sa(dp82
g3
V... (Euskadi Ta Askatasuna--ETA) ... it had failed to offer real autonomy to the Basque people. The ETA-M was considered to be ... innocent people were killed.
p83
sg5
VSpain Basque Terrorists 1968-Present - OnWar.com - Wars, Military ...
p84
sa(dp85
g3
VBASQUE COUNTRY: ETA AND BILDU. PLEASE, CALL A SPADE A SPADE HIPERCOR . ... ETA has killed more than 850 people. This is a fact. The rest, ...
p86
sg5
VDESDE MI EMBARRADA TRINCHERA EN EMPEL: BASQUE COUNTRY: ETA AND ...
p87
sa(dp88
g3
VEuskadi Ta Askatasuna or ETA (Basque for "Basque ... Such threats have forced many people into hiding or into exile ... both killed by ETA. The Basque ...
p89
sg5
VETA - Wikipedia, the free encyclopedia
p90
sa(dp91
g3
VPeople. Academia & Culture; ... From 1983 to 1987 a secret government-sponsored death squad killed 27 and wounded about 30, most members of the ETA. Basque ...
p92
sg5
VBasques: History | Infoplease.com
p93
sa(dp94
g3
VBasque terrorist wanted for harbouring Eta members and storing explosives is ... ETA has killed more than 800 people since it launched its campaign for ...
p95
sg5
VBasque terrorist wanted for harbouring Eta members and storing ...
p96
sa(dp97
g3
VEx-leader of Basque group ETA dies in France. ... ETA has killed more than 825 people since the late 1960s in its violent campaign for an independent ...
p98
sg5
VEx-leader of Basque group ETA dies in France - Salon.com
p99
sa(dp100
g3
VIts name is an acronym for Euskadi Ta Askatasuna, or Basque Homeland and Freedom. More than 800 people have died in the group's ... ETA killer freed from ...
p101
sg5
VBasque separatists declare permanent cease-fire with Spain - Los ...
p102
sa(dp103
g3
VBut the Basque radicals have killed 829 people in a half-century of ... international cooperation against terrorism has increased. For decades ETA killed in ...
p104
sg5
VWhat Now After the Apparent Demise of Basque Terrorist Group ETA ...
p105
sa(dp106
g3
VIt took longer than expected, but at noon on Monday, ETA, the organization that has killed more than 800 people in its 40-year struggle for a Basque ...
p107
sg5
VETA Cease-Fire: Is Spain's Basque Terrorism Finally Over? - TIME
p108
sa(dp109
g3
VI understand them too, ETA has killed more Basques than anybody else. ... of a Basque state. How does people call those who reject the idea of a Jewish state?
p110
sg5
VSpaniards Protest Basque Separatist ETA\u2019s Bullet-Riddled ...
p111
sa(dp112
g3
VThe Basque region in Spain has long been an area of ... In 1980 alone they killed 118 people in what was ETA\u2019s ... (10 May 2004), ETA, (Euskadi Ta Askatasuna), ...
p113
sg5
VETA (Euskadi Ta Askatasuna) - Military History Encyclopedia on the Web
p114
sa(dp115
g3
VIn a statement published by Basque newspaper Naiz, ETA said the government stance was a ... More than 800 people have been killed since ETA started its ...
p116
sg5
VSpain's rejection of talks will delay political resolution: ETA ...
p117
sa(dp118
g3
V... the political party linked with ETA has been banned which riled many Basque ... having planted a bomb that killed 2 people in a Spanish airport have ...
p119
sg5
VWhat is the current situation of the Basque National Party (and ...
p120
sa(dp121
g3
VPeople; Philosophy and Religion; Places ... which has killed...arm of ETA - the Basque party ... ...FIONA CUMMINS Q: What is Eta? A: Euskadi Ta Askatasuna or Basque ...
p122
sg5
VBasque Fatherland and Liberty (ETA) \u2013 FREE Basque Fatherland and ...
p123
sa(dp124
g3
VSeveral world leaders and human rights organizations have called on ETA, ... dynamic image is precisely the image the Basque people ... people killed by ...
p125
sg5
VCNN.com - Basque question: Spain's pressing problem - May 21, 2002
p126
sa(dp127
g3
VThe group killed nearly 100 people. Over the last decade ETA has been squeezed by the arrests of many of its ... 1:06 Basque group ETA declares end to ...
p128
sg5
VETA ANNOUNCES CESSATION OF ARMED ACTIVITY - YouTube
p129
sa(dp130
g3
VKey events in Eta's four-decade campaign for a sovereign Basque state, which has cost more than 800 ... 118 people are killed in Eta's bloodiest year so ...
p131
sg5
VBBC News - Timeline: Eta campaign
p132
sa(dp133
g3
VETA Euskadi Ta Askatasuna, ... The name Euskadi Ta Askatasuna is in the Basque ... As of the end of 2003, ETA had killed 817 people in the name of their ...
p134
sg5
VETA - Welcome back to The Frost blog
p135
sa(dp136
g3
VBut there are plenty of other developments that are important to the Basque people, ... ETA car bomb in Palmanova, Mallorca, killed ... Euskadi Ta Askatasuna (Basque ...
p137
sg5
VETA and the Basque labyrinth | openDemocracy
p138
sa(dp139
g3
VA glance at Basque militant group ETA, its goals. January 10, 2011 E-mail this article. To: ... 88-year-old man hit and killed by bus in Mass.
p140
sg5
VA glance at Basque militant group ETA, its goals - Boston.com
p141
sa(dp142
g3
VLONDON \u2014 After more than 40 years of violent struggle for independence in the traditional Basque ... recalling the 829 people killed by ETA over ...
p143
sg5
VBasque Separatist Group ETA Declares Halt to Violence - NYTimes.com
p144
sa(dp145
g3
VETA brought nothing other than injury and death to Basque, they killed over 800 people since 1968 to ... an issue with many Spaniards. ETA would have never ...
p146
sg5
VTerrorism in Spain: The end of ETA? | The Economist
p147
sa(dp148
g3
VETA has killed over 800 persons since it began lethal ... and wounded approximately 90 ... ethnic Basque are the original people of that land much like ...
p149
sg5
VCan someone explain the Spain/ETA conflict for me?
p150
sa(dp151
g3
V... and its guerrillas have killed more than 800 people since 1968, ... the initials stand for Euskadi Ta Askatasuna, Basque ... No one has been killed by ETA ...
p152
sg5
VBasque separatists call 'permanent' cease-fire - SFGate
p153
sa(dp154
g3
VETA has killed over 800 persons since it began lethal ... and wounded approximately 90 ... ethnic Basque are the original people of that land much like ...
p155
sg5
VCan someone explain the Spain/ETA conflict for me?
p156
sa(dp157
g3
V... and its guerrillas have killed more than 800 people since 1968, ... the initials stand for Euskadi Ta Askatasuna, Basque ... No one has been killed by ETA ...
p158
sg5
VBasque separatists call 'permanent' cease-fire - SFGate
p159
sa(dp160
g3
VJustin Webb tries to find out more about the Basque separatist group, ETA. ... In a week when the group killed and maimed a number of people both here and in ...
p161
sg5
VBBC News | FROM OUR OWN CORRESPONDENT | On the trail of ETA
p162
sa(dp163
g3
VBasque nationalist activity has a violent form in Euskadi Ta Askatasuna (ETA), ... ETA has killed over 900 people ... * Many other organizations and people have ...
p164
sg5
Vwhy the basque country in Spain want to be independent?
p165
sa(dp166
g3
V... Basque separatists ETA on Tuesday said the Spanish government's rejection of ... More than 800 people have been killed since ETA started its armed ...
p167
sg5
VSpain's rejection of talks will delay political resolution: ETA ...
p168
sa(dp169
g3
VETA (Basque Homeland and Liberty), the radical Basque separatist group, has killed 13 people and wounded many more since it called off a 14-month truce in December ...
p170
sg5
VIISS Basque separatist terrorism
p171
sa(dp172
g3
VThe suspected leader of the Basque separatist group ETA, who has been in ... at Madrid airport that killed two and ended ... by approximately 5.4 ...
p173
sg5
VSuspected ETA chief dies in Paris hospital - Yahoo! News Singapore
p174
sa(dp175
g3
VThe ETA, a Basque separatist group, ... ETA is a terrorist group who has killed more than a thousand people. Post your comments. Post Anonymously
p176
sg5
VWho are the Basques? - wiseGEEK: clear answers for common questions
p177
sa(dp178
g3
VBasque grievances nourish Eta By Paul Moss ... members of a movement that has killed more than 800 people in the past three decades. Basque pride.
p179
sg5
VBBC NEWS | Europe | Basque grievances nourish Eta
p180
sa(dp181
g3
VBasque Fatherland and Freedom is a nationalist organization dedicated to a separate nation-state for the Basque people, ... have been some ETA ... killed by a car ...
p182
sg5
VProphet of Doom - Islamic Clubs - Basque Fatherland and Freedom - ETA
p183
sa(dp184
g3
VEuskadi Ta Askatasuna or ETA (Basque ... did not deter the radical separatists that comprised ETA. ETA has committed approximately ... which killed nearly 200 people.
p185
sg5
VEuskadi Ta Askatasuna - Simple English Wikipedia, the free ...
p186
sa(dp187
g3
VThe latest bomb exploded by Basque separatists killed three people killed in Madrid on October 30. This brought the number of killings attributed to ETA (Euzkadi Ta ...
p188
sg5
VSpanish government clamps down on Basque separatist ETA - World ...
p189
sa(dp190
g3
VThe attack is being blamed on the Basque separatist group, ETA. ... ETA has killed more than 800 people in four decades of armed struggle for traditional Basque ...
p191
sg5
VETA blamed for car bomb in Spain - SINA English
p192
sa(dp193
g3
VThe Basque separatist group ETA, ... The group has killed 829 people since the late 1960s and is considered a terrorist organization by Spain, ...
p194
sg5
VBasque separatist group ETA talks of disarmament - Yahoo! News
p195
sa(dp196
g3
V... the homeland of Euskadi Ta Askatasuna, or ETA (Basque for "Basque Homeland and Freedom"), ... which has killed some 800 people and maimed hundreds more, ...
p197
sg5
VPeace at Last? | People & Places | Smithsonian Magazine
p198
sa(dp199
g3
V... often involving unrest and violence by and against the ETA, has continued, but Basque ... Approximately 250,000 Basque ... of the Basque people, ...
p200
sg5
VBasque people definition of Basque people in the Free Online ...
p201
sa(dp202
g3
VMillions have marched across the country to condemn ETA guerrillas, who have killed 821 people over ... say ETA or "Euskadi Ta Askatasuna" -- Basque ...
p203
sg5
VSpain hurts ETA but crackdown angers Basques | Reuters
p204
sa(dp205
g3
VIn the Basque language, Euskara, Euskadi Ta Askatasuna translates to "Basque Fatherland and Liberty" ... As of the end of 2003, ETA have killed 817 people, ...
p206
sg5
VETA Basque Eta Country People Spain Police Car Bomb Support
p207
sa(dp208
g3
V... an ETA bomb killed two people at Madrid's Barajas airport. ... I think the Basqueland and the Basque people have it pretty good from the Spanish government.
p209
sg5
VETA's ceasefire: A permanent ceasefire, at least for now | The ...
p210
sa(dp211
g3
VETA has not killed or attempted to ... of weapons and the situation of the approximately 600 ETA members that ... that Basque people constitute a very ...
p212
sg5
VBasque Country: Looking into the future with the \u201crights ...
p213
sa(dp214
g3
VAs ETA has increasingly been transformed ... About 500 people had been killed by the time ... the strategy has shifted to one of intimidating the Basque people as a ...
p215
sg5
VETA: the 'mother' of separatist terrorism
p216
sa(dp217
g3
VIn 2000, ETA killed five town councilmen across Spain. ... It adds to the climate of fear, making people nervous to talk about Basque politics.
p218
sg5
VCNN.com - Living in constant fear - May 21, 2002
p219
sa(dp220
g3
V... the Basque separatist group ETA (Euskadi Ta Askatasuna) ... the Basque separatist group ETA ... which has killed approximately 850 people since 1968, ...
p221
sg5
VThe Paradoxes of Basque Politics | GeoCurrents
p222
sa(dp223
g3
V173 people killed in Madrid explosions (Agencies) Updated: 2004-03-11 21:45. ... who insisted ETA does not represent the Basque people. "When ETA attacks, ...
p224
sg5
V173 people killed in Madrid explosions - Chinadaily US Edition
p225
sa(dp226
g3
VA top leader of the Basque separatist group ETA has been arrested in an ... ETA has killed allegedly 825 people but the Spanish police and Spanish ...
p227
sg5
VETA: Basque terrorist leader Izaskun Lesaka arrested | Mail Online
p228
sa(dp229
g3
VThe Basques have many ... and it has led to substantial success in finding and arresting many Basque militants, including key ETA ... who make up approximately ...
p230
sg5
VMAR | Data | Assessment for Basques in Spain
p231
sa(dp232
g3
VThe Basque separatist group Euskadi Ta Askatasuna ... in which two people were killed. ... is not sure how many people are currently active in ETA, ...
p233
sg5
VSpain\u2019s Counter-Terrorism Policy Under Challenge by Al-Qaeda and ETA
p234
sa(dp235
g3
VThe Euskadi Ta Askatasuna, or ETA, ... seeks to create an autonomous socialist state for the Basque people, ... who was killed the preceding day.
p236
sg5
VETA - dKosopedia
p237
sa(dp238
g3
VThe deadly car bomb set off by the Basque separatist group Euskadi Ta Askatasuna ... after three people were killed in 2003, ETA has not carried out any other deadly ...
p239
sg5
VETA: The Beginning of the End?
p240
sa(dp241
g3
VFirst I am curious whats the general spirit of the Basque People?By general spirit to ... group who killed many innocent people, ... ETA was an aberration ...
p242
sg5
VWhat is the general spirit of the Basque People? - Yahoo! Answers
p243
sa(dp244
g3
V... , wants the Basque country to have independence, but ETA uses terrorism ... over 100 people. 13 people were injured ... Calle was killed in ...
p245
sg5
VETA TODAY - etatoday
p246
sa(dp247
g3
V... attacks that killed nearly 200 people and wounded approximately ... ETA, which stands for Euskadi Ta Askatasuna, ... have killed about 800 people in ...
p248
sg5
VTerrorists Hit Madrid - Orlando Sentinel - Featured Articles From ...
p249
sa(dp250
g3
VEuskadi Ta Askatasuna (ETA, Basque Fatherland and Liberty) ... bombs left on commuter trains in Madrid killed 192 people. The attacks were widely blamed on
p251
sg5
VBasque Fatherland and Liberty (ETA) - Gale - Home
p252
sa(dp253
g3
VETA (Euskadi Ta Askatasuna -the Basque terrorist organization) ... ('only' 10 people have been killed by ETA in the past 4 years, 4 of them in the Basque Country), ...
p254
sg5
VBasque Country travel guide - Wikitravel
p255
sa(dp256
g3
VETA (Euskadi ta Askatasuna, or Basque Country and Freedom) ... It has killed more than 800 people since 1968, typically with car bombs or shootings.
p257
sg5
VETA strikes: 4 bombings, no-one hurt - FRANCE 24
p258
sa(dp259
g3
VIn November 2009 police arrested 34 people ... have weakened ETA by arresting many of its ... independent Basque homeland, in which it has killed some ...
p260
sg5
VSpanish police arrest 13 ETA youth members - MSN News UK
p261
sa(dp262
g3
V... a telephoned warning in the name of the Basque separatist group ETA. ... ETA has killed more than 800 people since 1968 in its drive for an ...
p263
sg5
VCNN.com - Spain soccer fans defy ETA bombers - May 22, 2002
p264
sa(dp265
g3
V... 2011 On October 20th the Basque group ETA (Euskadi ta Askatasuna - Basque ... (with approximately 850 attributable to ETA and ... the minds of many people.
p266
sg5
VETA says it will kill no more but the Basque conflict isn\u2019t over ...
p267
sa(dp268
g3
V... which stands for Euskadi Ta Askatasuna or "Basque ... people associated with the group have been ... were killed in Palma de Mallorca. ETA announced ...
p269
sg5
VBasque Nationalists Gain In Spanish Elections
p270
sa(dp271
g3
VThe recent announcement by the Basque separatist group Euskadi Ta Askatasuna ... ETA has killed more than 800 people in a terrorist campaign that dates back to ...
p272
sg5
VETA Gives Up Terrorism | The National Interest Blog
p273
sa(dp274
g3
VThe Basque separatist group ETA's declaration Wednesday of a permanent cease-fire offers the prospect of an ... which has killed more than 800 people, ...
p275
sg5
VBasque separatists call cease-fire - CSMonitor.com
p276
sa(dp277
g3
VFive women have become leaders in the rejuvenated Basque ... than the middle-aged men who killed for Eta ... "Eta is recruiting young people, ...
p278
sg5
VEta resurgent on 50th anniversary as women come to the fore ...
p279
sa(dp280
g3
VBasque: '''Euskadi Ta Askatasuna''' or ETA ... ETA has killed hundreds of people, including approximately 340 civilians, ... ETA has killed 823 people as of 08/19/08;
p281
sg5
VETA explained
p282
sa(dp283
g3
VThe group has killed 828 people since it commenced its armed struggle for a separate Basque state ... While ETA or Euskadi ta Askatusauna (Basque Homeland and ...
p284
sg5
VETA Refuses to Go Away: Young Radicals Carry On Basque Terror ...
p285
sa(dp286
g3
VBasque separatists ETA has said the Spanish government\u2019s rejection of talks with the ... More than 800 people have been killed since ETA started its armed ...
p287
sg5
VETA: Spain\u2019s rejection of talks will delay political resolution
p288
sa(dp289
g3
VETA, which has killed more than 830 people in its campaign for Basque ... So what I am saying is that the majority of the people who \u2018feel\u2019 Basque will condemn ...
p290
sg5
VEta Massacre in Madrid | A Fistful Of Euros
p291
sa(dp292
g3
V... wounding at least two dozen people. On June 10, ETA launched grenades at ... The group has killed more than 850 persons and ... Basque Fatherland (ETA) ...
p293
sg5
VTerrorism101 : Terrorist Organizations : Basque Fatherland (ETA)
p294
sa(dp295
g3
VEuskadi Ta Askatasuna: Aliases: Basque Fatherland and Liberty, ... ETA has been responsible for hundreds of attacks in Spain, ... which killed nearly 200 people.
p296
sg5
VTerrorist Organization Profile - START - National Consortium for ...
p297
sa(dp298
g3
VAs news arrives that the Basque independence movement, ETA, has appointed a ... the car bomb that killed two Civil ... people who vote ...
p299
sg5
VIratxe Sorzabal Diaz: why do women become ETA terrorists? - Telegraph
p300
sa(dp301
g3
V... The former head of Basque separatist group ETA believed to have ordered the Madrid airport ... which killed two Ecuadorean ... Euskadi Ta Askatasuna (ETA), ...
p302
sg5
VFormer ETA head, blamed for airport bomb, dies in hospital - Yahoo ...
p303
sa.