(lp1
(dp2
S'description'
p3
VDid Arnold palmer win a masters? yes. How many Masters golf titles did Fred Couples win? He won it in 1992, his only Masters title. How many Majors did Arnold Palmer win
p4
sS'title'
p5
VHow many Masters golf titles did Arnold Palmer win - The Q&A wiki
p6
sa(dp7
g3
VHow many major championships did he win in that time? Arnold Palmer - Golf's 'King' 7. ... Palmer had already won the Masters and the U.S. Open, ...
p8
sg5
VArnold Palmer - Fun Facts and Information
p9
sa(dp10
g3
VPalmer won the first World Match Play Championship in England, ... he competed in The Masters for the last time, marking his 50th consecutive appearance in that event.
p11
sg5
VArnold Palmer - Wikipedia, the free encyclopedia
p12
sa(dp13
g3
VARNOLD PALMER Signed Masters Golf Ball JSA. ... He appeared in court many times as a handwriting expert witness. ... Hope you win it!, ...
p14
sg5
VArnold Palmer Signed Masters Golf Ball JSA | eBay
p15
sa(dp16
g3
VHow did Arnold Palmer fare in the the Masters Tournament over the years? ... Palmer won The Masters four times, including wire-to-wire in 1960.
p17
sg5
VArnold Palmer Masters - What Was Arnold Palmer's Record in the ...
p18
sa(dp19
g3
VArnold Palmer is a former professional ... four Masters wins from ... to ever win that major championship four times. 1965 brought one ...
p20
sg5
VArnold Palmer - Golf Topics - ESPN
p21
sa(dp22
g3
VChaCha Answer: Arnold Palmer has won 7 majors. The Masters (4), The Open Championship (1), The ... Viewed 151571 times. Do You Know the Rules of Golf? ...
p23
sg5
VHow many majors did Arnold Palmer win? | ChaCha
p24
sa(dp25
g3
V\u2014 Arnold Palmer "I don't know ... "I can think of the four times I won the Masters. I can think of a couple of times I didn't win and should have ...
p26
sg5
VPlenty of love for Palmer at final Masters - Golf - ESPN
p27
sa(dp28
g3
VHow much did tiger woods win today PGA Arnold Palmer? In: ... he became the youngest winner of The Masters when he won it in ... How many times did Tiger Woods win ...
p29
sg5
VHow much did tiger woods win today PGA Arnold Palmer - The Q&A wiki
p30
sa(dp31
g3
V... Texas \u2013 Arnold Palmer, ... "It's coming close to when I won't be playing," Palmer said. ... How many more times will we play?
p32
sg5
VArnold Palmer, Jack Nicklaus and Gary Player team up in Texas ...
p33
sa(dp34
g3
VWoods won for the third time this year, ... Tiger Woods won the Arnold Palmer Invitational for the eighth time on Monday; ... (to the Masters) ...
p35
sg5
VNext stop for new No. 1 Tiger Woods: the Masters
p36
sa(dp37
g3
V\u201cThis is his 19th time there, right? And he\u2019s won ... \u201cI\u2019m one of the people who is genuinely surprised Tiger hasn\u2019t won the Masters ... ARNOLD PALMER ...
p38
sg5
VMasters 2013: Tiger Woods is the man to beat, says Arnold Palmer ...
p39
sa(dp40
g3
VMasters: Arnold Palmer has ... do most of the time.\u201d And for decades Palmer did it ... felt I should have won it at least four more times.\u201d Palmer remains as ...
p41
sg5
VMasters: Arnold Palmer has grip on Augusta history - Golf ...
p42
sa(dp43
g3
VWoods silenced the disbelievers with a five-shot victory in the Arnold Palmer ... won this tournament that many times ... Do a repeat of 97 at the Masters ...
p44
sg5
VTiger Woods wins Arnold Palmer Invitational | Mail Online
p45
sa(dp46
g3
VMasters champions like Arnold Palmer, ... He\u2019s won so many times there. He\u2019s really playing well. It looks like Rory is starting to come into his own.
p47
sg5
VGreen Jacket Confidential: Masters champions Arnold Palmer ...
p48
sa(dp49
g3
VTiger Woods wins Arnold Palmer Invitational, is favored to win the Masters After his first PGA tour win in two and a half ... and is already a 4-time Masters champion.
p50
sg5
VTiger Woods wins Arnold Palmer Invitational, is favored to win the ...
p51
sa(dp52
g3
VWhere did he hear this advice? "Arnold Palmer," he said. ... Tiger Woods won the Masters four times in his first nine years on the PGA Tour. Since then, ...
p53
sg5
VMasters preview: Arnold Palmer set the standard for legible ...
p54
sa(dp55
g3
VWhy Win at Arnold Palmer ... For the first time since failing to knock ... there is no question Woods has what it takes to win a Masters and get ...
p56
sg5
VWhy Win at Arnold Palmer Invitational Would Make Tiger Woods ...
p57
sa(dp58
g3
VTranscript of an interview conduced with Arnold Palmer following his final appearance at The ... I can think of the four times that I won the Masters.
p59
sg5
VQ&A: Arnold Palmer Says Farewell to The Masters
p60
sa(dp61
g3
VJack Nicklaus and Arnold Palmer, who played with Gary Player, didn't win on Saturday, but they had a few laughs. ... How many more times will we play?
p62
sg5
VArnold Palmer Jack Nicklaus Gary Player team up for scramble event ...
p63
sa(dp64
g3
V... Masters Tournament ended at 50 when he competed for a final time in the 2004 championship, but Arnold Palmer flew ... Palmer and Nicklaus won the Masters: ...
p65
sg5
VPALMER AT THE 2012 MASTERS - Arnold Palmer News
p66
sa(dp67
g3
VTiger Woods wins Arnold Palmer Invitational for first PGA Tour win since 2009. ... Arnold did a hell of a job of getting these greens fast, ... this time to Robert Rock.
p68
sg5
VTiger Woods wins Arnold Palmer Invitational for first PGA Tour win ...
p69
sa(dp70
g3
VHe's 83 years old and won't be playing this week, but Arnold Palmer is ... Masters 2013; Masters 2013: Arnold Palmer is ... some time with Palmer at an ...
p71
sg5
VMasters 2013: Arnold Palmer is still cooler than you - SBNation.com
p72
sa(dp73
g3
V... Bobby Jones and Arnold Palmer. ... At that time, the world\u2019s ... In 1960, Palmer won his second Masters along with the U.S. Open at Cherry Hills.
p74
sg5
VArnold Palmer - The Majors of Golf
p75
sa(dp76
g3
VArnold Palmer is many things to many people...world famous golf immortal and sportsman, highly ... He won the Masters Tournament four times, in ...
p77
sg5
VARNOLD PALMER...A BIOGRAPHY - Search Sandhills Southern Pines ...
p78
sa(dp79
g3
V... Jack Nicklaus and Arnold Palmer ... It\u2019s the ninth time the Woods-Mickelson tandem has won ... green jacket at the Masters. Random musings \u2022 Do I ...
p80
sg5
VArnold Palmer's last PGA Tour win was 40 years ago - News | FOX ...
p81
sa(dp82
g3
VHis memory razor-sharp.When Arnold Palmer reaches ... could win every time he ... four more times." While Palmer's role at the Masters is now ...
p83
sg5
VPalmer maintains tight grip on Masters legacy | Reuters
p84
sa(dp85
g3
VWoods won the Arnold Palmer Invitational for a record seventh time ... Tournament host Arnold Palmer didn\u2019t attend ... He went on to win Masters ...
p86
sg5
VWoods Heads to Masters After Ending PGA Tour Win Drought - Bloomberg
p87
sa(dp88
g3
VWhen Arnold Palmer reaches ... to win it four times but always felt I should have won it at least four more times." While Palmer's role at the Masters is now ...
p89
sg5
VPalmer maintains tight grip on Masters legacy - Yahoo! News Maktoob
p90
sa(dp91
g3
VWhen Arnold Palmer reaches ... to win it four times but always felt I should have won it at least four more times." While Palmer's role at the Masters is now ...
p92
sg5
VPalmer maintains tight grip on Masters legacy - Yahoo! News UK
p93
sa(dp94
g3
VJust maybe not the best dude to kick off live coverage of The Masters, considering how well he did on the first ... Time, They Did; ... ragging on Arnold Palmer, ...
p95
sg5
VArnold Palmer Tees Off Into Crowd To Start Par 3 | VIDEO | SportsGrid
p96
sa(dp97
g3
VGrowing up, Jack Nicklaus admired Arnold Palmer. The charismatic Palmer had a flair for the dramatic, ... He would go on to win five more times at the Masters.
p98
sg5
VNicklaus wins first Masters, challenges Palmer as king of golf ...
p99
sa(dp100
g3
VNumber of times the golfer ... These players do not finish the event and win no money ... \u203a What country is Arnold Palmer from? \u203a How many PGA tournaments has ...
p101
sg5
VArnold Palmer - PGA Golfers and Champions, Australia
p102
sa(dp103
g3
VMasters 2012: Arnold Palmer, ... would you like to see Tiger Woods win? ... the four-time Masters winner who has a 10:35 a.m. tee time and is coming off ...
p104
sg5
VMasters 2012: Arnold Palmer, Jack Nicklaus, Gary Player get it ...
p105
sa(dp106
g3
VHis eighth win in the Arnold Palmer Invitational ... Woods heads home to south Florida for two weeks before the Masters. Asked the last time he felt ...
p107
sg5
VTiger Woods back as world No. 1 in golf, wins Arnold Palmer ...
p108
sa(dp109
g3
VArnold Palmer is many things to many people...world famous golf immortal and sportsman, highly-successful business executive, prominent adertising spokesman, skilled ...
p110
sg5
VArnold Palmer - Official Site - Invitational, Design Company ...
p111
sa(dp112
g3
V... Video Tiger Woods wins Arnold Palmer Invitational for 3rd win in 2013, regains No. 1 ranking, and prohibitive favorite to win Masters. ... it did at any time ...
p113
sg5
VThe Golf Blog: Video Tiger Woods wins Arnold Palmer Invitational ...
p114
sa(dp115
g3
VArnold Palmer is on the cover of the ... chances at this year\u2019s Masters: \u2022 \u2022 \u2022 How did this ... game for some time and of course we were very aware ...
p116
sg5
VArnold Palmer Talks Tiger Woods Chances At The Masters, New PGA ...
p117
sa(dp118
g3
VTiger Woods won the Arnold Palmer Invitational ... Woods heads home to south Florida for two weeks before the Masters. Asked the last time he felt this good going ...
p119
sg5
VTiger Woods wins his eighth Arnold Palmer Invitational, returns to ...
p120
sa(dp121
g3
VSo let\u2019s watch Tiger Woods and Arnold Palmer do some kung-fu ... Every time he\u2019s won three ... The year Charl won is the gold standard of recent Masters IMO but ...
p122
sg5
VTiger Woods Won the Arnold Palmer Invitational, Now Watch Those ...
p123
sa(dp124
g3
VHis memory razor-sharp.When Arnold Palmer reaches ... could win every time he ... four more times." While Palmer's role at the Masters is now ...
p125
sg5
VPalmer maintains tight grip on Masters legacy | Reuters
p126
sa(dp127
g3
VAUGUSTA, Ga. - Arnold Palmer, ... last time a member of the Big Three would win the ... early as Masters underway. Masters 2012: Arnold Palmer, ...
p128
sg5
VArnold Palmer, Jack Nicklaus And Gary Player Kickstart 2012 ...
p129
sa(dp130
g3
VHis memory razor-sharp.When Arnold Palmer reaches ... could win every time he ... four more times." While Palmer's role at the Masters is now ...
p131
sg5
VFEATURE-Golf-Palmer maintains tight grip on Masters legacy | Reuters
p132
sa(dp133
g3
VThe 2012 Masters began as all these events do, ... Arnold Palmer, ... Even though his tee time wasn't scheduled for six hours, ...
p134
sg5
VThe 2012 Masters begins with Arnold Palmer, Jack Nicklaus, Gary ...
p135
sa(dp136
g3
VTiger Woods Masters: Win at Arnold Palmer Will Do Wonders for PGA at Augusta. ... Why Has 2013 Produced So Many 1st-Time Winners? from Bleacher Report;
p137
sg5
VTiger Woods Masters: Win at Arnold Palmer Will Do Wonders for PGA ...
p138
sa(dp139
g3
VTiger Woods has won the Arnold Palmer Invitational a ... Woods heads home to south Florida for two weeks before the Masters. Asked the last time he felt this ...
p140
sg5
VTiger back on top with record win
p141
sa(dp142
g3
VMany believe that Arnold Palmer single-handedly helped resurrect the game from the ... Palmer was the first player to win the US Masters four times (1958, 1960, 1962 ...
p143
sg5
VArnold Palmer Facts, information, pictures | Encyclopedia.com ...
p144
sa(dp145
g3
VHe won the Masters four times, the British Open twice and the U.S. Open once. Source: ... You're reading How many golf tournaments did Arnold Palmer win?
p146
sg5
VHow many golf tournaments did Arnold Palmer win? | Answerbag
p147
sa(dp148
g3
VWhen Arnold Palmer reaches out to take ... to win it four times but always felt I should have won it at least four more times." While Palmer's role at the Masters is ...
p149
sg5
VPalmer maintains tight grip on Masters legacy Golf - News - Yahoo ...
p150
sa(dp151
g3
VWhen Arnold Palmer reaches ... to win it four times but always felt I should have won it at least four more times." While Palmer's role at the Masters is now ...
p152
sg5
VPalmer maintains tight grip on Masters legacy - SuperSport - Golf
p153
sa(dp154
g3
VHe won the Masters four times, the British Open twice and the U.S. Open once. Source: ... You're reading How many golf tournaments did Arnold Palmer win?
p155
sg5
VHow many golf tournaments did Arnold Palmer win? | Answerbag
p156
sa(dp157
g3
VWhen Arnold Palmer reaches out to take ... to win it four times but always felt I should have won it at least four more times." While Palmer's role at the Masters is ...
p158
sg5
VPalmer maintains tight grip on Masters legacy Golf - News - Yahoo ...
p159
sa(dp160
g3
VWhen Arnold Palmer reaches ... to win it four times but always felt I should have won it at least four more times." While Palmer's role at the Masters is now ...
p161
sg5
VPalmer maintains tight grip on Masters legacy - SuperSport - Golf
p162
sa(dp163
g3
VWhen Arnold Palmer reaches out to take ... and right up until signing off with a final-round 84 believed he could win every time he ... While Palmer's role at the ...
p164
sg5
VPalmer maintains tight grip on Masters legacy - Golf - Eurosport ...
p165
sa(dp166
g3
V... For the first time since ... and he delivered on Monday afternoon to win his eighth career Arnold Palmer ... Tiger Woods should go win the Masters ...
p167
sg5
VTiger Woods wins Arnold Palmer Invitational to reclaim world No. 1 ...
p168
sa(dp169
g3
V... to win it four times but always felt I should have won it at least four more times." While Palmer's role at the Masters is now ... many, the Arnold Palmer ...
p170
sg5
VGolf - Palmer maintains tight grip on Masters legacy - Yahoo ...
p171
sa(dp172
g3
VHe won the Masters Tournament four times, in 1958, 1960, 1962 and 1964; ... The saga of Arnold Palmer began when he was four years old, ...
p173
sg5
VArnold Palmer biography famous golfer - Search Sandhills Southern ...
p174
sa(dp175
g3
VI enjoy going out and hitting golf balls and that\u2019s what I do most of the time.\u201d And for decades Palmer did ... win it four times ... many, the Arnold Palmer ...
p176
sg5
VPalmer maintains tight grip on Masters legacy - Latest sport news
p177
sa(dp178
g3
VArnold Palmer transcended his sport and became a national folk hero. ... Three times Palmer had tried to drive the 1st green, ... Palmer had won his second Masters.
p179
sg5
VHowStuffWorks "Arnold Palmer"
p180
sa(dp181
g3
VWhen Arnold Palmer reaches out ... he could win every time he teed ... at least four more times." While Palmer's role at the Masters is now purely ...
p182
sg5
VGolf-Palmer maintains tight grip on Masters legacy - Yahoo! Sports
p183
sa(dp184
g3
VTiger Woods has been Master's Champion 4 times. He won first in 1997, won again in 2001, 2002, and most recently in 2005. He is tied with Arnold Palmer, but trails ...
p185
sg5
VHow Many Masters has Tiger Woods Won - Ask Community
p186
sa(dp187
g3
VFour golfers have won the Masters wire-to-wire; Craig Wood in 1941, Arnold Palmer in 1960, ... Arnold Palmer, four-time Masters Champion 1958, 1960, 1962, and 1964.
p188
sg5
VList of Masters Tournament champions - Wikipedia, the free ...
p189
sa(dp190
g3
VPlayer was the first foreign golfer to win the Masters in 1961, on a playoff round against Arnold Palmer. Skip ... Many a time I took a Greyhound bus ...
p191
sg5
VA Masters Legend Remembers Beating Arnold Palmer : NPR
p192
sa(dp193
g3
VArnold Palmer joined the Callaway Golf family in 2000; ... He won four Masters (1958, 1960, ... In addition, he finished second in the PGA Championship three times.
p194
sg5
VArnold Palmer | Callaway Golf Staff Professional
p195
sa(dp196
g3
VScott's Masters win gives long putters a grand slam. ... Palmer maintains tight grip on Masters legacy. 11/04. ... 1864 times. 2.
p197
sg5
Vasia.eurosport.com
p198
sa(dp199
g3
V... Honorary starter Arnold Palmer punches the air after ... first time in a couple of years, he said, and did so in ... who might win this Masters.
p200
sg5
VJack Nicklaus, Arnold Palmer and Gary Player kick off 2013 Masters
p201
sa(dp202
g3
VArnold Palmer has won numerous events on both the PGA Tour and Champions Tour, ... This is an Arnold Palmer 4 Time Master Champion unsigned 3 Photo Leather Framed Piece.
p203
sg5
VARNOLD PALMER THE MASTERS Sports and Outdoors - Shopping.com
p204
sa(dp205
g3
VHe won the Arnold Palmer Invitational for the eighth time ... Woods heads home to south Florida for two weeks before the Masters. Asked the last time he felt this ...
p206
sg5
VTiger Woods captures Arnold Palmer Invitational for eighth time ...
p207
sa(dp208
g3
VArnold Palmer talks about Tiger Woods, Bubba Watson and his Masters memories. USA ... who has won at Bay Hill seven times as a pro. Palmer thinks ...
p209
sg5
VArnold Palmer wants one set of rules, and no anchoring
p210
sa(dp211
g3
VCongratulations to Australian Adam Scott on his win at the Masters. ... Tournament host Arnold Palmer is a four-time Masters champion.
p212
sg5
VArnold Palmer Invitational Presented By MasterCard - Orlando ...
p213
sa(dp214
g3
VTom Watson and Lee Trevino beat him four times each. Arnold Palmer beat him once, ... We\u2019ll hear that Tom Watson got Arnold Palmer to autograph a Masters flag.
p215
sg5
VArnold Palmer - Golf News, Tournaments, Tours & Leaderboards ...
p216
sa(dp217
g3
V... which is only 5 behind the all time leader, his 8th win at the Arnold Palmer Invitational, ... this could be his chance. His last Masters win came in 2005.
p218
sg5
VTiger is Back - Arnold Palmer Invitational - 2013 Masters Tickets ...
p219
sa(dp220
g3
VArnold Palmer teaches you how to hit the long ball with the ... when I first won the Masters, ... Many times I have been accused of swinging so hard that my eyes ...
p221
sg5
VArnold Palmer teaches how to hit the driver | Break 80 Golf
p222
sa(dp223
g3
VHe won the Arnold Palmer Invitational for the eighth time ... Woods heads home to south Florida for two weeks before the Masters. Asked the last time he felt this ...
p224
sg5
VTiger Woods claims win and World No.1 - Arnold Palmer Invitational ...
p225
sa(dp226
g3
VThis was Arnold Palmer last year after ... day before the competition begins in earnest at The Masters. Palmer won The Masters four times every other year ...
p227
sg5
VArnold Palmer Still Whacking It at Augusta | KentSterling.com
p228
sa(dp229
g3
VTiger Woods Masters 2013; Golf; Masters 2013; Arnold Palmer Invitational 2013: ... Knowing how difficult it was to win the same tourney five times, ...
p230
sg5
VArnold Palmer Invitational 2013: Tiger Woods reclaims No. 1 ...
p231
sa(dp232
g3
VHe won the Arnold Palmer Invitational presented by ... Woods heads home to south Florida for two weeks before the Masters. Asked the last time he felt this ...
p233
sg5
VPGATOUR.com \u2013 Daily Wrap-up: Arnold Palmer Invitational, Monday
p234
sa(dp235
g3
VPalmer won the first World Match Play ... he competed in The Masters for the last time, ... which was renamed Arnold Palmer Design Company when the company moved ...
p236
sg5
VHow tall is the famous golfer, Arnold Palmer?
p237
sa(dp238
g3
VAs he has done so many times before, Palmer walks among ... Arnold Palmer and Gary Player - won 13 of 24 majors in the early 1960s, including seven straight Masters. ...
p239
sg5
VWorld Golf: Arnold Palmer - WorldGolf.com: golf course reviews ...
p240
sa(dp241
g3
VArnold Palmer Invitational came two weeks before the Masters. ... And it almost makes it more sweet to win it the way I did.
p242
sg5
VArnold Palmer Invitational goes to Martin Laird, who outlasts ...
p243
sa(dp244
g3
VSigned BOLDLY by 4 time Masters Champion golf legend ARNOLD ... hand signed by ARNOLD PALMER. Very rare since not very many fans take these ... you win!, you're ...
p245
sg5
VArnold Palmer Signed Invitation to Play 1959 Masters Very RARE 4 ...
p246
sa(dp247
g3
V"It all started there," Woods said Wednesday on the eve of the Arnold Palmer ... won eight times at Bay ... the Masters, and even if Woods doesn't win this ...
p248
sg5
VTiger Woods has history at Bay Hill; track Arnold Palmer ...
p249
sa(dp250
g3
VTrivia Quiz - Arnold Palmer ... 32 times Taken by Registered Users: 2 ... How many Masters did Arnold win during his PGA Career?
p251
sg5
VPeopleQuiz - Trivia Quiz - Arnold Palmer - Golfing Pioneer
p252
sa(dp253
g3
VThe Masters of Golf: Arnold Palmer, Jack ... led him in to doing it as a full time ... American to win the Masters Tournament, but did you know he was ...
p254
sg5
VThe Masters of Golf: Arnold Palmer, Jack Nicklaus, and Tiger Woods ...
p255
sa(dp256
g3
V... ace golfer Tiger Woods won the Arnold Palmer Invitational ... Woods heads home to south Florida for two weeks before the Masters. Asked the last time he felt ...
p257
sg5
VTiger Woods reclaims world No. 1 ranking after Bay Hill win : Golf ...
p258
sa(dp259
g3
VWhich of my three favorite golfers \u2014 Arnold Palmer, ... Long-time Palmer assistant Doc Giffin calculates that Palmer has had about ... the 1959 Masters ...
p260
sg5
VWhich golfer, Arnold Palmer, Jack Nicklaus or Tom Watson, has the ...
p261
sa(dp262
g3
VThe Arnold Palmer Invitational Tee Times And Betting ... big events prior to the Masters in the beginning of April. For many, ... has won on that many times.
p263
sg5
VArnold Palmer Invitational Tee Times And Betting Odds For Round ...
p264
sa(dp265
g3
VArnold Palmer was the first person to make one million ... (honored) Masters, a tournament held every year ... Palmer won only a few minor Professional ...
p266
sg5
VArnold Palmer Biography - life, children, wife, school, book, old ...
p267
sa(dp268
g3
VWoods won the Arnold Palmer Invitational on Monday ... won for the third time this season and rediscovered his dominance two weeks before the Masters. ...
p269
sg5
VTiger Woods is back at No. 1 after winning Arnold Palmer ...
p270
sa(dp271
g3
VDid Jack Nicklaus and Arnold Palmer graduate from college? ... How many Masters has Jack Nicklaus won? ... Viewed 973161 times.
p272
sg5
VDid Jack Nicklaus and Arnold Palmer graduate from college? | ChaCha
p273
sa(dp274
g3
VHe was one of the greatest players of all time Arnold Palmer on Byron Nelson. ... H won the Masters by five shots and was six clear in the U.S. Open at ...
p275
sg5
VMasters of the course: The greatest golfers' greatest years - CNN.com
p276
sa(dp277
g3
VArnold Palmer Invitational ... focused on the Masters a few weeks ahead. Palmer, ... in Tour history to win the same tournament four times in a row in ...
p278
sg5
VTournament History - Arnold Palmer Invitational Presented by ...
p279
sa(dp280
g3
VBy the time the Surgeon General's ... For the next two years the golf world saw a different Arnold Palmer. So did I. ... This was when he won the 1964 Masters very ...
p281
sg5
VHidden Battles, Subtle Foes - Breaking news, real-time scores and ...
p282
sa(dp283
g3
VNow 8-time champion ... presented by MasterCard for the eighth time. The win returned him to the ... Arnold Palmer periodically shares his opinions ...
p284
sg5
VArnold Palmer Invitational Presented by MasterCard PGA TOUR ...
p285
sa(dp286
g3
VYou have to think he is going to try to get as much competition as possible before the 2013 Masters. ... this week to win for an eighth time at the Arnold Palmer ...
p287
sg5
V2013 Arnold Palmer Invitational Odds + Info, Tee Times, TV Coverage
p288
sa(dp289
g3
VBecause it would break the current tie between Woods and the great Arnold Palmer for second on the all-time ... I know that Phil Mickelson has won two Masters ...
p290
sg5
VMasters History: List of Masters Champions-Most Green Jackets ...
p291
sa(dp292
g3
VArnold Palmer is one of the most ... Opens than I did and I have said at times that had I not won the Open at Cherry Hills I ... won the Masters ...
p293
sg5
VNational Club Golfer: An interview with Arnold Palmer
p294
sa(dp295
g3
VHe\u2019s back! Tiger Woods wins on PGA tour for first time in two and a half years after sex scandal destroyed his game. He beat his partner Graeme McDowell ...
p296
sg5
VHe's back! Tiger Woods wins on PGA tour for first time in 30 ...
p297
sa(dp298
g3
VThe content of this field is kept private and will not be shown publicly.
p299
sg5
VPalmer, Arnold | NCpedia
p300
sa(dp301
g3
VORLANDO, Fla. \u2013 Arnold Palmer bought Bay Hill Club & Lodge because he loved the golf course and wanted it for his own, not having any idea where it all ...
p302
sg5
VArnold Palmer: A golf course, hospital and dinner with Kate Upton ...
p303
sa.