(lp1
(dp2
S'description'
p3
VJanet Reno has three younger siblings: ... she accepted a position with the Dade County State's Attorney's Office. ... Janet Reno (1993\u20132001)
p4
sS'title'
p5
VJanet Reno - Wikipedia, the free encyclopedia
p6
sa(dp7
g3
VJanet Reno biography ... Janet Reno was an attorney who held various states attorney positions in the state of Florida prior to her federal appointment. ... 1993 ...
p8
sg5
VJanet Reno - Women's History - Comprehensive Research and ...
p9
sa(dp10
g3
VJanet Reno is an impelling attorney. She was the first woman to serve as a state ... 1993. She served until ... Prior to her terms as State's ...
p11
sg5
VWhat did Janet Reno accomplish? - Yahoo! Answers
p12
sa(dp13
g3
VIt has been said that Janet Reno was deeply ... 1993. In this position she saw to ... Reno entered the public spotlight almost immediately. On February 28, 1993, ...
p14
sg5
VJanet Reno Facts, information, pictures | Encyclopedia.com ...
p15
sa(dp16
g3
VJanet Reno Attorney General ... is the first woman to hold that position. She was Florida's first female state attorney. ... NRA Fires Lobbyist Over Reno Rumor March ...
p17
sg5
VWashingtonpost.com: Politics -- The Administration, Janet Reno
p18
sa(dp19
g3
VThe first thing you notice about Janet Reno is her distinctive ... Her easy-going manner immediately ... nobody had any idea the position would reach the ...
p20
sg5
VWhere Are They Now: Janet Reno - LewRockwell.com
p21
sa(dp22
g3
VPresident bill clinton appointed Janet Reno to be U ... In that position, she oversaw ... Reno entered the public spotlight almost immediately. On February 28, 1993, ...
p23
sg5
VJanet Reno legal definition of Janet Reno. Janet Reno synonyms by ...
p24
sa(dp25
g3
V... we think we know of Janet Reno--and she has fallen back ... a lot since 1993. What she says about fighting ... immediately turned to music. "Did you see ...
p26
sg5
VJanet Reno Is Innocent - Esquire
p27
sa(dp28
g3
V... a 1993 letter from FBI Director William Sessions to Janet Reno, ... interest to China since 1993. She has also supported a view to ... Immediately after each ...
p29
sg5
VSIGHTINGS - rense.com
p30
sa(dp31
g3
VAttorney General Janet Reno's Opening Statement ... surrender immediately after a tape he had made ... and will be in a position to tap both their ...
p32
sg5
VJanet Reno Statement - PBS: Public Broadcasting Service
p33
sa(dp34
g3
V... including challenging the constitutionality of the Florida Bar itself in 1993 ... Janet Reno, after she had ... had resigned from the position ...
p35
sg5
VJack Thompson (activist) - Wikipedia, the free encyclopedia
p36
sa(dp37
g3
V... National Rifle Association of America, Inc. et al.,Appellantsv.Janet Reno, ... The word "immediately," which had ... We think the Attorney General's position ...
p38
sg5
V216 F3d 122 National Rifle Association of America, Inc. et al. v ...
p39
sa(dp40
g3
VJANET RENO, ATTORNEY GENERAL, ... in the same position he did before he applied: ... if the individual had been in unlawful status prior to January 1, ...
p41
sg5
VReno v. Catholic Social Servs., 509 U.S. 43 (1993).
p42
sa(dp43
g3
VWhen Jamie Gorelick left her position as Vice ... Janet Reno herself likely did ... The Philippine police had given this information to the FBI eighteen months prior.
p44
sg5
VWhat Jamie Gorelick knew - WND - A Free Press for a Free People
p45
sa(dp46
g3
VShe warmed immediately; ... for the civil rights position. Early in January 1993, I had had a ... that you had won." Janet Reno said nothing as she escorted ...
p47
sg5
VLife Every Voice - The New York Times - Breaking News, World News ...
p48
sa(dp49
g3
VIf Davidians had run out of water they would have had to exit immediately ... Did the FBI tell Janet Reno this? Did she ... positions. On April 28, 1993 Janet Reno ...
p50
sg5
VDavid Koresh | The Davidian massacre | Chapter 9 | Murderpedia ...
p51
sa(dp52
g3
VPositions that William S. Sessions has held: ... Attorney General Janet Reno discusses ... (see March 22, 1993); Reno will acknowledge that she has been appraised of ...
p53
sg5
VWilliam S. Sessions - History Commons
p54
sa(dp55
g3
VFor the Government of this country to consciously use CS gas in the way it did on April 19, 1993 in Waco ... Janet Reno with a ... General immediately signed ...
p56
sg5
VWACO - WHAT REALLY HAPPENED | The History The US Government HOPES ...
p57
sa(dp58
g3
VRENO, 509 U.S. 630 (1993) ... ET AL., APPELLANTS v. JANET RENO, ATTORNEY GENERAL ET AL. ... The most compelling evidence of the Court's position prior to this day, ...
p59
sg5
VFindLaw | Cases and Codes
p60
sa(dp61
g3
V... a position he held immediately prior to coming aboard ... In 1993 he was hired by the ... a \u201cmodel for the nation\u201d by then Attorney General Janet Reno.
p62
sg5
VJudicial Officers & Administrative Staff - Juvenile Court ...
p63
sa(dp64
g3
VThe Feminist Majority and Ms. Magazine immediately ordered buttons declaring, ... and Janet Reno, Attorney General ... the only states to have races in 1993.
p65
sg5
VThe Feminist Chronicles, 1953-1993 - Epilogue, 1993 - Feminist ...
p66
sa(dp67
g3
VJanet Reno, U.S. Attorney ... Janet Reno, U.S. Attorney General. 10 Dec 1993. Remove ... Now I'd like to see the charts and position of where this is. Has anyone seen ...
p68
sg5
VUS Navy minesweeper runs aground in The United States Navy Forum
p69
sa(dp70
g3
VIn April 1993, Attorney General Reno had repeatedly rejected the FBI's ... (and who were consulted with by the FBI prior to the ... Janet Reno had prosecuted ...
p71
sg5
VChild Abuse at Waco - Dave Kopel Website
p72
sa(dp73
g3
VAn angry Sparks immediately called FBI ... 1993 Attorney General Janet Reno told the House ... (Reno did confess that, while she had claimed on television the ...
p74
sg5
VThe Davidian Massacre -- Chpt. 10 - CarolMoore.Net
p75
sa(dp76
g3
VRBG was appointed to the U. S. Supreme Court by President Bill Clinton in 1993. Like Janet Reno whom Clinton ... lucrative positions, she could not ... PRIOR | | WHM ...
p77
sg5
VWOMEN OF ACHIEVEMENT - Women's History Month Episode 6
p78
sa(dp79
g3
VLynch points out that the involvement of those officials in supervisory positions at Waco ... who have expressed a prior ... Janet Reno dated May 21, 1993
p80
sg5
VREMEMBER WACO! - APFN
p81
sa(dp82
g3
VJANET RENO, ATTORNEY GENERAL, et ... 1993, p. A4. The district even has inspired poetry: "Ask not for whom the line is drawn; ... [or prior to] January 1, ...
p83
sg5
VRUTH O. SHAW, et al., APPELLANTS v. JANET RENO, ATTORNEY GENERAL ...
p84
sa(dp85
g3
Vimmediately required choices about whether to divert ... under Attorney General Janet Reno. ... Prior to 9/11 the FBI did not have a process in place to ...
p86
sg5
Vstaff statement 9 - UNT Libraries: CyberCemetery Home
p87
sa(dp88
g3
V... Plaintiff-Appellant,v.Janet RENO, ... she immediately sought redress ... in adjudicatory process because alien relied on prior rule, did not have ...
p89
sg5
V114 F3d 879 Young v. Reno | OpenJurist - OpenJurist, the home of ...
p90
sa(dp91
g3
VFebruary 11 \u2013 Janet Reno is selected ... Demirel immediately gobbles up the position's ... 1993 presidential election, Ghengis Khan did not return ...
p92
sg5
V1993 - Uncyclopedia, the content-free encyclopedia
p93
sa(dp94
g3
V... tear gas will immediately be inserted into ... 1993). Had Reno seen those memos, she would have read ... Attorney General Janet Reno says she knows of no ...
p95
sg5
VThe 1993 Branch Davidian Crisis - History Commons
p96
sa(dp97
g3
VAlmost immediately upon her arrival at the DOJ, ... Prior to his arrival at the DOJ, ... "Janet Reno has very much delegated antitrust ...
p98
sg5
V2.04: "Oh No, Mr. Bill!" - wired.com
p99
sa(dp100
g3
VAttorney General Janet Reno has said she made it clear ... information we have and immediately turn it ... 1993, the attorney general said she had continuing ...
p101
sg5
VTHE WACO FIRE INVESTIGATION - DREAMS OF THE GREAT EARTH CHANGES
p102
sa(dp103
g3
V... Associate Attorney General Hubbell told him the attorneys would have to resign immediately. ... March 1993 was 2 months ... from their positions by Janet Reno.
p104
sg5
VThrough the Magnifying Glass: Firing all 93 US Attorneys? It has ...
p105
sa(dp106
g3
VPrior to her election, all ... Her term ended in 1999 when she lost her re-election bid. 1993: Janet Reno became ... to hold a cabinet-level position when she was ...
p107
sg5
VFacts - Elections - Resources - Useful Links | Center for American ...
p108
sa(dp109
g3
VJANET RENO Attorney General ... 183 (3d Cir. 1993). ... they have to give the owner some notice prior to pursuing a legal remedy? MR.
p110
sg5
VJANET RENO PAUL M. GAGNON DAVID BRODERICK BILL LANN LEE Civil ...
p111
sa(dp112
g3
V... 1993, Attorney General Janet Reno gave the ... The adults are immediately ... FBI officials have always maintained that they had no prior knowledge of ...
p113
sg5
VAn Unofficial Account of the Waco Incident - APFN
p114
sa(dp115
g3
VWashington suggesting steps she should immediately take the following ... tied in a fetal position, and ... ATTORNEY GENERAL JANET RENO - Friday, May 21st, 1993
p116
sg5
V[Waco] Paul D. Wilcher (RIP) Letter to Janet Reno...
p117
sa(dp118
g3
VBut Vincent's position at the White House did not sit ... addressed to Janet Reno and to ... office did not even have a safe, a claim immediately shot down by ...
p119
sg5
VThe Death of Vincent Foster | WHAT REALLY HAPPENED
p120
sa(dp121
g3
VHe told Janet Reno, "you did the right thing by ... he did so immediately. ... one Branch Davidian had a "prior conviction for possession of amphetamines and a ...
p122
sg5
VThe Massacre of the Branch Davidians - JEFFHEAD.COM
p123
sa(dp124
g3
Vcritical hours immediately ... two justice position.-- Janet Reno has been ... up prior to publication. Q Where did you ...
p125
sg5
VWhitewater and Clinton Scandal Clips
p126
sa(dp127
g3
VAbout Janet Reno's confirmation as the first ... Reno, attorney general from 1993 to 2001, did not immediately return a ... Prior to the release of President ...
p128
sg5
VBarbour aide leaves over 'dark humor' e-mail - politics - Decision ...
p129
sa(dp130
g3
VFBI headquarters immediately sent a detailed request to Texas seeking "specific documentation to support our position ... According to the 1993 Justice review, Ms ...
p131
sg5
VFBI misled Reno to get tear-gas OK, ex-agent alleged
p132
sa(dp133
g3
V... to inspect his weapons immediately ... did not rule on the motion. "Our position remains as it has ... with Janet Reno in August 1993 says they told ...
p134
sg5
VApocalypse Forever
p135
sa(dp136
g3
VThe chief prosecutor was Janet Reno. Since the mid-1970s, she had been an ... and immediately thereafter she ... She is in a very difficult position because ...
p137
sg5
VTranscript | Did Daddy Do It | FRONTLINE | PBS
p138
sa(dp139
g3
V... she immediately became determined ... she and Noonan believed they had reached Howland's charted position, ... of another veteran in 1993, ...
p140
sg5
VAmelia Earhart - Wikipedia, the free encyclopedia
p141
sa(dp142
g3
VFederal Judges Rule That CDA is Unconstitutional. In this federal court case, the ACLU convinced a three judge panel that the indecency policy in the Communications ...
p143
sg5
VACLU vs. Janet Reno - Computer Repair Services | IT Support ...
p144
sa(dp145
g3
V... sending messages to U.S. Attorney General Janet Reno to ... Tigar argued that all prior U.S ... Reno could have supported the legal position that Mr ...
p146
sg5
V1993: THE YEAR IN REVIEW: A year of victories for John Demjanjuk ...
p147
sa(dp148
g3
VWhy not focus on the Clinton administration's having "fired all 93 U.S. attorneys" when Janet Reno ... served prior to ... had new U.S. attorneys. In 1993, ...
p149
sg5
VReplacing U.S. attorneys stretches back to Reagan - Los Angeles Times
p150
sa(dp151
g3
VDemocrats find this kind of person appropriate for a law enforcement leadership position, much the way Janet Reno was ... prior to becoming governor ... immediately ...
p152
sg5
VThe American Spectator : Changing of the Guard
p153
sa(dp154
g3
V... the position taken by Attorney General Janet Reno is that the producers ... 23 Sep 1993]. 6 Reno has argued for what ... prior to the mid ...
p155
sg5
VConspiracy - Skews.Me
p156
sa(dp157
g3
V... the other to Attorney General Janet Reno. She also testified that ... were whited out prior to the ... House position is that they did not find ...
p158
sg5
VMann Foster Inconsistencies - mega.nu - Daniel Pouzzner - douzzer@ ...
p159
sa(dp160
g3
VIn May 1993, seven long-time ... President Clinton reluctantly asked Attorney General Janet Reno to appoint a special counsel. ... prior perjurious, ...
p161
sg5
VThe History Place - Impeachment: Bill Clinton
p162
sa(dp163
g3
VHolder told her that his position was ... After Janet Reno's ... An AP story noted that in the prior week, members of Obama's team had polled the incoming ...
p164
sg5
VArticles: The Ethics of Eric Holder - American Thinker
p165
sa(dp166
g3
V>/span> Attorney General Janet Reno ... immediately announce that you will ... can be applied in cases where the INS had not instituted proceedings prior to the ...
p167
sg5
VAILA - AILA Letter on AEDPA Section 440(d)
p168
sa(dp169
g3
VLimbaugh called Chelsea "ugly" on the air in 1993 when she was ... leaving him in a position never to have to defend his ... Clinton was so ugly because Janet Reno ...
p170
sg5
VDid Limbaugh really call Chelsea Clinton a dog? - Page 2
p171
sa(dp172
g3
VThe FBI decided that the tower would be immediately placed ... When Reno inquired further, she had the ... wire prior to sunrise. One CEV would have its boom ...
p173
sg5
VReport to the Deputy Attorney General on the Events at Waco, Texas ...
p174
sa(dp175
g3
V\u201cWe\u2019ll ask Janet Reno for all of ... Especially when we hear that the FBI has taken a clear position that they ... which shows flashes of gunfire prior to and ...
p176
sg5
VWaco children lawsuit accelerates - WND - A Free Press for a Free ...
p177
sa(dp178
g3
V... cannot seek healing because she was incinerated at Waco in 1993 as a result of the direction ... home prior to a fire erupting ... Janet Reno, furious ...
p179
sg5
VThe 'Heroic' Louis Freeh and His Legacies by William L. Anderson
p180
sa(dp181
g3
VAnd is this Secretary of Defense position ... We can stop this if we ACT IMMEDIATELY. ... You want to hear about vote fraud interview Janet Reno ,, she had two ...
p182
sg5
VDid Obama Steal The Election With Hagel\u2019s Help?
p183
sa(dp184
g3
V"The only position where one guy is ... and F Janet Reno." F Janet Reno? Bro', she has ... is the certainity that it would immediately. My bottom line is you have to ...
p185
sg5
VRedskins Insider - Fred Davis, Chris Cooley are focus of ...
p186
sa(dp187
g3
VPrior to the raid, ... President Clinton said Janet Reno had acted "because of the children" who were ... 1993. First i have to say that i did not see this ...
p188
sg5
VSubject: Initial Waco Chronology (Part 1/2) Date: Thu, 7 Oct 1993 ...
p189
sa(dp190
g3
VIn May of 1993 the employees were ... Clinton instructed the President's senior aides to wait until a "coherent position ... writes that Attorney General Janet Reno ...
p191
sg5
VTHE REAL HILLARY CLINTON: Episode #30 - Billy Dale, Get the H*ll ...
p192
sa(dp193
g3
VThis means he has to go. Immediately. ... During Janet RENO\u2019S reign of terror as the ... If you have proof that an administration prior to this one has allowed ...
p194
sg5
VJanet Napolitano Perjured Herself to Congress: Fast & Furious ...
p195
sa(dp196
g3
VPrior to Waco, Foster was ... to do and actually done at Waco had deeply disturbed them. On May 21st, 1993, ... mistake in presuming the innocence of Janet Reno and ...
p197
sg5
VDid Hillary Clinton Order Waco Assault? - David Icke Website
p198
sa(dp199
g3
V... 1993 during a press ... -Janet Reno Well, there you have it ... I suppose you could write the NRA's position off as simple paranoia if it weren't ...
p200
sg5
VGun Control, The Big Lie
p201
sa(dp202
g3
V... of the Justice Department's position. Poston had at least 22 contacts ... Janet Reno, served as a partner at the ... However, immediately after ...
p203
sg5
VFelonies and Favors: A Friend of the Attorney General Gathers ...
p204
sa(dp205
g3
VWashington suggesting steps she should immediately take the following ... tied in a fetal position, and ... Letter to Attorney General Janet Reno dated May 21, 1993
p206
sg5
VPaul Wilcher, Washington attorney, investigating government
p207
sa(dp208
g3
VBut the decision by Attorney General Janet Reno to seek the ... positions have come ... House in January of 1993. Previously, she was among the ...
p209
sg5
VMary C - DOWNSIDE LEGACY at two degrees of Bill Clinton
p210
sa(dp211
g3
V(In seeking permission from Reno, the OIC neglected to mention its prior contacts ... came from Janet Reno. ... asked Currie she was in no position to ...
p212
sg5
VThe Impeachment Trial of President William Jefferson Clinton
p213
sa(dp214
g3
VDefendant Janet Reno, ... takes the position that the challenged ... the plaintiff must allege that he "has sustained or is immediately in danger of sustaining ...
p215
sg5
VApolloMedia v. Reno - Federal Court Ruling
p216
sa(dp217
g3
VFlorida state prosecutor Janet Reno, ... Given the most influential position a U.S. president's wife has ever had, ... (she has also ridden in a Kentucky Derby); ...
p218
sg5
V1993 Study Guide & Homework Help - eNotes.com
p219
sa(dp220
g3
V... [In 1993, the FBI had identified three charities ... described the official White House position toward these attacks ... Janet Reno and other ...
p221
sg5
VBill Clinton - Discover the Networks
p222
sa(dp223
g3
V... 1993, killing some ... Caddell uses this Complaint to assure the world Janet Reno is a nice person. She meant well--she was just ... let's look at his prior ...
p224
sg5
VWaco Suits For Waco Suckers, Part 3 - Public Action, Inc.
p225
sa(dp226
g3
Vreinstatement to his position as a physician's assistant ... by the end of 1993, petitioner had recovered to the point at which his ... Janet Reno, Attorney ...
p227
sg5
Vwww.eeoc.gov
p228
sa(dp229
g3
V... who eventually lost his position as ... a statistic mirrored in a 1993 National ... Before Janet Reno became U.S. Attorney General, she was Dade County ...
p230
sg5
VBrainwashed at the Mouse House - Skews.Me
p231
sa(dp232
g3
VThe courts immediately below the Supreme Court in the ... each party must share information he or she has about the case ... U.S. attorney general Janet Reno, ...
p233
sg5
VKey Positions in the Judicial Branch (Checks and Balances: Three ...
p234
sa(dp235
g3
VThe DFG team had no idea that Janet Reno knew about the ... Rayelan realized immediately what she had. ... Gun positions were mounted around the entire perimeter ...
p236
sg5
VMIND CONTROL IN AMERIKA Five Easy Steps To Create A Manchurian ...
p237
sa(dp238
g3
VAttorney General Janet Reno and others had told Congress no such ... Clarence broke down immediately. ... 1993, and thereafter, have resulted in sometimes ...
p239
sg5
VThe Militarization of America: Part 2
p240
sa(dp241
g3
VThe first time I heard "Rhythm Nation," I immediately recognized the Sly & the Family ... first hit from the 1993 album, JANET. The song had a ... years prior ...
p242
sg5
VJanet's Pop, R&B, and Dance Escapade - Janet Jackson - Design of a ...
p243
sa(dp244
g3
VOPERATION CLYDESDALE was published in the Contact Newspaper around April or May of 1993. Since that time, it has not been ... TO JANET RENO AND ... PRIOR TO ...
p245
sg5
VRumor Mill News
p246
sa(dp247
g3
V... John Ashcroft culpable over any attention to the roles of Jamie Gorelick or Janet Reno, ... got off nearly immediately, ... but she had her doubts." Reno: ...
p248
sg5
VNetwork Reporters Fret About Bush Not Admitting Mistakes --4/14 ...
p249
sa(dp250
g3
Vof Attorney General Janet Reno and ... Prior to the decision ... Tapes A through M in 1993 and 1994, since he did not then have a tape drive on ...
p251
sg5
VStatement of AG Janet Reno and FBI Director Louis Freeh on ...
p252
sa(dp253
g3
VShe has served as Commissioner since October 1993, ... Attorney General Janet Reno said, ... Prior to coming to the INS, she had been Chief of Operations for the
p254
sg5
VShaping the Future - ILW.COM visas, greencard and citizenship
p255
sa(dp256
g3
V... immediately after WWII had direct ties to American ... that the government had \u2018detailed prior knowledge\u2019 of the ... to the doorsteps of Janet Reno, ...
p257
sg5
VSubmissions - WING TV
p258
sa(dp259
g3
V... Attorney General Janet Reno came under ... An aide claimed she had found them in August 1995 but did not realize ... who had met with the first lady prior to ...
p260
sg5
VWhitewater legal definition of Whitewater. Whitewater synonyms by ...
p261
sa(dp262
g3
VThe FBI immediately took over the ... It is my firm belief that Bill Clinton and Janet Reno should be ... Officials had prior warnings from domestic and ...
p263
sg5
VThe Oklahoma City Bombing - A K Dart dot com
p264
sa(dp265
g3
VAttorney General Janet Reno ... Clinton's lawyers immediately ... In 1997 Starr subpoenaed the notes of government attorneys who had met with the first lady prior ...
p266
sg5
VWhitewater Facts, information, pictures | Encyclopedia.com ...
p267
sa(dp268
g3
VWhen President Bill Clinton tapped Eric Holder to be U.S. Attorney for D.C. in 1993, he immediately became ... since the position has never ... Janet Reno last summer ...
p269
sg5
VEric Holder was the perfect choice to clean up D.C.'s corruption ...
p270
sa(dp271
g3
V... marched toward an Israeli army position." "The battle for Jerusalem has ... in 1993, asking them if the House of Esau had a ... Janet Reno's Justice ...
p272
sg5
V"THE BATTLE OVER JERUSALEM HAS BEGUN" -- ARAB ACTIVIST
p273
sa(dp274
g3
VJeb's Corruption Began Immediately On Arrival in Florida ... So did the Janet Reno campaign. ... a position to which she was also appointed by Little Brother."
p275
sg5
VDemocrats.com Archive: Jeb Bush
p276
sa(dp277
g3
VOnly those citizens who were currently armed with both guns and ammunition were in a position to ... in 1993 did not know ... by Janet Reno against the ...
p278
sg5
VThe Jefferson State Militia - BLANK BLANK BLANK BLANK
p279
sa(dp280
g3
VReno, we held that former Attorney General Janet Reno, ... they \u201cimmediately began ... a reasonable officer in Reno's position would know that the law ...
p281
sg5
VDALRYMPLE v. RENO, No. 01-15990., June 19, 2003 - US 11th Circuit ...
p282
sa(dp283
g3
VIt was Merletti's opposition that Janet Reno called upon to ... In that position, she supervised ... Clinton in 1993. Willey resisted testifying, saying she had ...
p284
sg5
VCast of Characters In The Clinton-Lewinsky Saga
p285
sa(dp286
g3
V... of rape in a hotel room why she did not report the matter immediately ... former positions such as ... to have to go with Janet Reno who served ...
p287
sg5
VPAID... | Facebook
p288
sa(dp289
g3
VJANET RENO, in her capacity as ... cert. denied, 113 S.Ct. 2442 (1993). Here, the government did both. ... victim was "in no worse a position than that in which he ...
p290
sg5
VFindLaw | Cases and Codes
p291
sa(dp292
g3
VSo he had prior involvement ... In 1993, Brock said, Smith ... Starr has been criticized for not disclosing the phone conversations to Attorney General Janet Reno ...
p293
sg5
VWashingtonpost.com Special Report: Clinton Accused
p294
sa(dp295
g3
VIn 1993, she was surprised when the ... But Tripp later claimed to be in position to see Kathleen ... Attorney General Janet Reno, who had been criticized by ...
p296
sg5
VThe Consortium - Consortiumnews | Independent Investigative ...
p297
sa(dp298
g3
VSame-sex Marriage Deep Dive. On March 26 and 27, the Supreme Court heard two landmark same-sex marriage cases. Check out our deep dive on the topic to find out more ...
p299
sg5
VReno, Attorney General v. Koray | The Oyez Project at IIT Chicago ...
p300
sa(dp301
g3
VJanet Reno Attorney General ... immediately prior to development of the composite. 4. ... information regarding the individual he/she has selected prior to obtaining
p302
sg5
Vwww.ncjrs.gov
p303
sa.