(lp1
(dp2
S'description'
p3
VGreece joined 1 January 2001, one year before the ... suggested that Hungary would be unable to adopt the common European ... (euro adoption day coincides ...
p4
sS'title'
p5
VEnlargement of the eurozone - Wikipedia, the free encyclopedia
p6
sa(dp7
g3
VThe European Union grows as candidate ... conditions for entry and adopt the euro. ... is sufficiently prepared for adoption of the single currency and ...
p8
sg5
VAdopting the euro - European Commission
p9
sa(dp10
g3
V... national interest rates converged in the wake of the adoption of the euro. ... Greece cannot adopt a ... Greece in the euro has managed to end up 12 year down ...
p11
sg5
VGreece and the euro: Was it worth it? | The Economist
p12
sa(dp13
g3
VMain About the Euro Adoption in ... December 1995 \u2013 The European Council decided to adopt the euro as the ... of 2001, Greece. 1 January 2002 \u2013 Twelve European ...
p14
sg5
VLithuania in the European Union - History of the Euro
p15
sa(dp16
g3
VAll nations that have joined the EU since 1993 have pledged to adopt the euro in ... the adoption of a common currency ... of the euro are Greece ...
p17
sg5
VEuro - Wikipedia, the free encyclopedia
p18
sa(dp19
g3
VRomania has dropped setting a target date for adopting the euro, ... towards adoption of the euro without a target date. ... to adopt the single European ...
p20
sg5
VRomania drops target date for euro adoption: report \u2014 European ...
p21
sa(dp22
g3
VGreece began using the Euro notes and coins the same day as everyone else, on 1/1/02 (See Wikipedia entry "Enlargement of the Euro Zone". However, the Euro was born ...
p23
sg5
VWhen did Greece start using the Euro - The Q&A wiki
p24
sa(dp25
g3
VSome have expressed their wish to adopt the euro immediately after the two-year ... EU before the adoption of the euro. ... remains allowed within ...
p26
sg5
VThe Euro - Currency System, by Cloanto - Server Software, Web ...
p27
sa(dp28
g3
V... Denmark and Sweden, have no immediate plans to adopt the euro. ... European Union and adoption of the euro ... euro. The following year the European ...
p29
sg5
VEconomic and Monetary Union and the Euro - 1. History \u2013 Adopting ...
p30
sa(dp31
g3
VSome investors have said they are worried the decision to allow Greece to join the euro ... weaker economies may be allowed ... For the first year, joining the euro ...
p32
sg5
VBBC News | BUSINESS | Greece joins eurozone
p33
sa(dp34
g3
VPoland joined the European Union in 2004 and is currently preparing to adopt the ... Adoption of the euro: Poland does not have a target date to adopt the euro, ...
p35
sg5
VPoland and the euro - EUROPA - European Commission - <wcm:content ...
p36
sa(dp37
g3
V2 are participants in ERMII and have a targeted date for Euro adoption: ... to adopt the Euro and have ... to Euro coins are allowed to be suspended ...
p38
sg5
VThe Euro- FAQ - ibiblio - The Public's Library and Digital Archive
p39
sa(dp40
g3
VThere are hopes that the economy might recover next year if Greece's place in the euro is confirmed. ... The euro and the European Union: ...
p41
sg5
VGreece and the euro: An economy crumbles | The Economist
p42
sa(dp43
g3
VWhat is the planned euro adoption date in ... Is it possible for Lithuania not to adopt the euro? When acceding to the European ... It will not be allowed to change ...
p44
sg5
VLithuania in the European Union - F.A.Q. - Lietuva Europos ...
p45
sa(dp46
g3
V... "A day will come when all nations on our continent will form a European brotherhood... A day will come ... Greece became country number 12 to adopt the euro.
p47
sg5
VWhen did the Euro begin? - ThinkQuest
p48
sa(dp49
g3
V... and so allowed less solvent EU nations to adopt the ... and eventually Greece, and they entered the euro ... in the years following its adoption of the euro.
p50
sg5
VThe Eurozone in Crisis - Council on Foreign Relations
p51
sa(dp52
g3
VGreece became the 12th Member state to adopt the Euro on ... day for changing old currency to Euro at any bank ... introduction of Euro ; European Central Bank ...
p53
sg5
VEuro Currency | OANDA
p54
sa(dp55
g3
V... and Sweden\u2014that did not adopt the euro when it was introduced ... adoption of the euro in a ... designed to assist Greece and support the euro.
p56
sg5
VEuropean Monetary System | Infoplease.com
p57
sa(dp58
g3
VEighty-four percent of the CEOs of Lithuania's largest companies believe that the country should adopt the euro and ... of euro adoption, ... was allowed by Vilnius ...
p59
sg5
VLithuanian companies support euro adoption | 15min.lt
p60
sa(dp61
g3
VOn that day, the exchange rates of all EMU (European ... Greece became the 12th country to adopt the common currency after ... which it said euro adoption would ...
p62
sg5
VEnlargement and the euro | EurActiv
p63
sa(dp64
g3
VThis Council Decision repeals the derogation to the Treaty covering Greece, so as to enable it to adopt the ... adoption by Greece of ... the euro and the ...
p65
sg5
VGreece's membership in the single currency
p66
sa(dp67
g3
VBRUSSELS (MarketWatch) \u2014 The European Union\u2019s poorest members, who once eagerly looked forward to shedding their own currencies to adopt the euro, are now ...
p68
sg5
VEU\u2019s poorest countries shun euro membership - MarketWatch
p69
sa(dp70
g3
VAdoption of the euro: Romania has set 2014 as its target year to adopt the euro. ... including a section on European integration and the euro ;
p71
sg5
VRomania and the euro \u2014 European business, finance and EU ...
p72
sa(dp73
g3
VNot all countries that are part of the European Union use the euro, ... has to meet to be allowed to adopt the euro. ... do not have a target date for adoption.
p74
sg5
VWhich Countries Use the Euro Currency? | eHow
p75
sa(dp76
g3
VWhen Greece rudely invented the debt crisis in 2009, ... to adopt the euro is a mystery, ... About a year ago, the euro zone decided to pay attention, ...
p77
sg5
VCyprus bank mess makes all the other euro dominoes teeter ...
p78
sa(dp79
g3
VAdopt a cat; Adopteer een kat; ... Adoption; Support; what's new; Contact It's well known that greece. ... About 35,- euro a year will feed 1 cat.
p80
sg5
VAdopt a cat - Website of adoptacat!
p81
sa(dp82
g3
VNew members euro adoption ... to Greece). The greater ... full coverage of earliest possible year in which non member countries may adopt the euro. All ...
p83
sg5
VPortal to the Economy of the Euro
p84
sa(dp85
g3
VEstonia joined last year, ... devaluation allowed Poland largely to avoid the deep slump ... Mr Tusk expects Poland to become not Greece, Cyprus ...
p86
sg5
VEven now, after all that's happened to Cyprus, they\u2019re queuing ...
p87
sa(dp88
g3
V... the official adoption of the euro ... the newly formed European Union agreed to adopt the euro. ... Greece\u2019s downfall, because it allowed the substitution ...
p89
sg5
VEuro: Requiem or Renewal?
p90
sa(dp91
g3
Vwhat is the best European country to adopt a ... so why should you with adoption? ... Back in December they issued a quota which allowed only 32 ...
p92
sg5
VAdopting from Europe? - Yahoo! Answers
p93
sa(dp94
g3
VWhatever you may think of the euro, there is no doubt that its adoption by a country represents a dramatic shift in its political order and, ... Occupy May Day .
p95
sg5
VGood News (Possibly) from Poland | National Review Online
p96
sa(dp97
g3
VThe euro was introduced as a unit of accounting a year ... prior to the adoption of the euro.) ... state may adopt the euro. European Commission \u2014 it ...
p98
sg5
VEuro: the common currency explained - World - CBC News
p99
sa(dp100
g3
V... the official adoption of the euro ... the newly formed European Union agreed to adopt the euro. ... Greece\u2019s downfall, because it allowed the substitution ...
p101
sg5
VEuro: Requiem or Renewal? | David Kotok | FINANCIAL SENSE
p102
sa(dp103
g3
V... including Greece, say the euro has not ... European Central Bank warns of a tough year ahead as the sovereign ... leaders agree to adopt strict fiscal rules ...
p104
sg5
VEuro News - The New York Times
p105
sa(dp106
g3
VThe parliament supported the euro adoption bill in the final reading on Jan. 31. In order for Latvia join the European ... allowed to adopt the euro if its ...
p107
sg5
VFrench support for Latvia euro entry
p108
sa(dp109
g3
V... decided to give up their own currencies and adopt the Euro (EUR ... Former European Currency Unit (ECU) The Euro is not just the same ... Greece to wind down ...
p110
sg5
VEUR - Euro rates, news, and tools
p111
sa(dp112
g3
VEleven countries of the original fifteen in the newly formed European Union agreed to adopt the euro. ... Greece\u2019s downfall, because it allowed the ... year of the ...
p113
sg5
VEuro: Requiem or Renewal? | The Big Picture
p114
sa(dp115
g3
VCan you answer these European History questions? Why did the ... When did Greece adopt the euro currency? 2001 What is Italy's currency before the euro?
p116
sg5
VWhen did Italy adopt the euro as its currency - The Q&A wiki
p117
sa(dp118
g3
V... island's adoption of the euro that they ... euro, the Central Bank of Cyprus only allowed banks to use up ... Greece, where many ...
p119
sg5
VEuro zone clamor drowned out Cypriot bank warnings | Reuters
p120
sa(dp121
g3
VThis list may be extended when further Member States adopt ... in which case the euro adoption date ... No 2596/2000 on the introduction of the euro in Greece ...
p122
sg5
VMonetary law of the participating Member States (transitional period)
p123
sa(dp124
g3
V... which wants to adopt the euro by next year, ... policy had allowed the central bank ... the European Union and the euro were now vastly ...
p125
sg5
VCzechs Split Deeply Over Joining the Euro - NYTimes.com
p126
sa(dp127
g3
Vthe Euro currency. Government debt has seen eurozone nations Greece, Ireland, Portugal, ... While unemployment in the country recently reached a 14-year
p128
sg5
VSlovenia to adopt austerity plan in bid to avoid bailout
p129
sa(dp130
g3
VOur day's top images, in-depth ... of turmoil that has crushed economies in Greece, ... expect the European Union's largest eastern economy to adopt the ...
p131
sg5
VPolish referendum could crush euro bid after PM gives way | Reuters
p132
sa(dp133
g3
V... it allowed the Baltics to benefit from positive ... As regards euro adoption, ... The decision to adopt the euro is a very fundamental one and should not be ...
p134
sg5
VECB: Introductory remarks to panel \u2018Lessons from Latvia and the ...
p135
sa(dp136
g3
VAdoption of the euro ... Greece was allowed entry into the euro ... and the European Commission for a 3-year \u20ac 110 billion adjustment program.
p137
sg5
VThe road to Ithaca: the Gold Standard, the Euro and the origins of ...
p138
sa(dp139
g3
VAdoption of the euro by countries like Greece ... is insisting that Greece adopt ... will occur before the end of this year. The fallout, sharply lower European ...
p140
sg5
VThe Eurozone crisis and the US economy: What has gone wrong ...
p141
sa(dp142
g3
V... Estonia is set to adopt the common European currency ... the adoption of the euro. ... from the Euro, while smaller countries, like Greece, ...
p143
sg5
VEstonia Introduces the Euro | Made in Germany - YouTube
p144
sa(dp145
g3
VNew eastern European states are supposed to adopt ... Greece will leave the euro and adopt ... come from the European Central Bank. The proposed date for ...
p146
sg5
VThe Common Currency (Euro) - European Currency page
p147
sa(dp148
g3
V... the Euro will remain as the anchor of European economic ... Neither Will Greece Exit the Euro ... adopt a broad agenda for the European ...
p149
sg5
VGeorges Ugeux: The Euro Will Not Collapse, Neither Will Greece ...
p150
sa(dp151
g3
V... island's adoption of the euro that they ... euro, the Central Bank of Cyprus only allowed banks to use up ... Greece, where many ...
p152
sg5
VEuro zone clamor drowned out Cypriot bank warnings - Yahoo! News
p153
sa(dp154
g3
VGermans felt that Greece had been allowed to borrow too much money ... Estonia is due to adopt the Euro in ... L., Business Cycles in the Euro Area, European ...
p155
sg5
VThe Eurozone Crisis - CIVITAS: the Institute for the Study of ...
p156
sa(dp157
g3
V... the Single European Currency is a ... Of the nominal convergence criteria which are necessary to adopt the Euro or ... a lighthouse. And the adoption of ...
p158
sg5
VRomania: 70% of the loans in the banking system are given in Euros
p159
sa(dp160
g3
Vwindow within which \ufb01rms are allowed to adopt. ... In the run up to the introduction of the Euro, the European ... after the adoption date. As soon as they adopt ...
p161
sg5
VFederal Reserve Bank of New York Staff Reports
p162
sa(dp163
g3
V... just a year later, Greece is asking again for the common European ... about euro adoption in ... and fiscal free riding allowed by the ...
p164
sg5
VThe Euro: Its Inevitable End - Juraj Karpis - Mises Daily
p165
sa(dp166
g3
V... an obstacle to euro adoption ... should adopt the euro was revived this year amid a ... in the euro area, according to the European ...
p167
sg5
VPoland Needs \u2018Chutzpah\u2019 to Demand Euro Without ERM, Belka Says ...
p168
sa(dp169
g3
VThe euro is administered by the European System of ... conditions to adoption of the euro they will join ... can be expected to one day adopt the euro, ...
p170
sg5
VEuro
p171
sa(dp172
g3
V... next year, citing the tumult in the 17-nation euro ... ignited in Greece in late ... European Union, it would have to adopt the ...
p173
sg5
VU.K. Rules Out Pound for Independent Scotland Amid Euro Woes ...
p174
sa(dp175
g3
VThe 1992 Maastricht Treaty obliges most EU Member States to adopt the euro upon ... euro. The European Currency ... as a result of the euro are Greece, ...
p176
sg5
VExchangeRate.com - Currency Information European Euro
p177
sa(dp178
g3
VThe trouble is that the day after a ... we do not expect the Greek to learn German and adopt their habits. But Greece might ... if Greece wants to leave the euro, ...
p179
sg5
VGreece: High Flying Drachma - America's Money News Page - Home
p180
sa(dp181
g3
V... established the mechanisms and timetable for the adoption of the Euro as ... of that year. The Euro ... unite European interests. Adoption of the ...
p182
sg5
VEuropean Union Facts, information, pictures | Encyclopedia.com ...
p183
sa(dp184
g3
VEleven countries of the original fifteen in the newly formed European Union agreed to adopt the euro. ... Greece\u2019s downfall, because it allowed the ... year, please ...
p185
sg5
VCumberland Advisors - Market Commentary
p186
sa(dp187
g3
VBail-out plan for Greece: ... To adopt the euro: The Maastricht Treaty Convergence requirements to adopt With the euro: Monetary policy: The European Central ...
p188
sg5
VTHE EURO: PAST, PRESENT & FUTURE - College of Arts & Sciences
p189
sa(dp190
g3
V... more stringent criteria than European treaties require for gauging the country\u2019s readiness to adopt the euro. ... up internal euro-adoption ...
p191
sg5
VPoland\u2019s Finance Chief Suggests Higher Bar for Joining Euro ...
p192
sa(dp193
g3
VAnother day in the long-running European debt crisis: ... such as Greece, Ireland, ... If the E.U. hadn\u2019t allowed Cyprus to adopt the euro in 2008, ...
p194
sg5
VCyprus's Rejected Bailout: What's Wrong with Europe? : The New Yorker
p195
sa(dp196
g3
VWhy are other countries allowed to adopt the US ... that you couldn't predict the buying power of it from day to day, ... introduction of the Euro.
p197
sg5
VWhy are other countries allowed to adopt the US dollar?? - Yahoo ...
p198
sa(dp199
g3
VCentral Banks of Northern and Southern Euro will need to adopt the ... Similarly as the ECB euro purchases in the year ... (not only Greece\u2026). Both euro exit ...
p200
sg5
VWays to the Northern Euro -SNBCHF.COM - SNB CHF Blog The Swiss ...
p201
sa(dp202
g3
VThe Old New European. Michael Zantovsky. Spotlight on Russia. Vladimir Kara-Murza. About Us. Staff Bios; Press; Contact Us; ... Greece: A Vote for the Euro!\u2014or ...
p203
sg5
VGermany and the Euro Crisis: Is the Powerhouse Really So Pure ...
p204
sa(dp205
g3
VEuropean Puppies and Dogs for Sale by Euro Puppy! ... Adopt one of our European puppies & dogs for sale in ... Set a date for the arrival of your puppy with your ...
p206
sg5
VAdopt a healthy, purebred puppy in Kuwait, Kuwait city
p207
sa(dp208
g3
VNewsnight reveals how Greece concealed debts to join the Euro. ... Greece crumbles Yesterday European finance ... ready to adopt the euro, was that ...
p209
sg5
VHow Goldman Sachs helped mask Greece\u2019s debt: The Bureau of ...
p210
sa(dp211
g3
V... put off by four years of turmoil that has crushed economies in Greece, ... oppose the euro adoption ... eastern economy to adopt the euro in ...
p212
sg5
VPolish referendum could crush euro bid after PM gives way - Yahoo ...
p213
sa(dp214
g3
V... isolated nation about to shun the European Union and the euro and adopt ... the Canadian media has been having a field day ... but a unilateral adoption ...
p215
sg5
VIceland adopting the Canadian dollar? - MarketWatch
p216
sa(dp217
g3
VThe ECB has allowed the advance distribution of euro notes to ... be to adopt the euro unilaterally ... considering unilateral adoption of the euro.
p218
sg5
VEuro - Africa, South America, eastern Europe
p219
sa(dp220
g3
V... How the Euro Will End Greece will ... Or will Spain be allowed to descend into a catastrophic ... When 17 states decided to adopt the euro first ...
p221
sg5
VGerald O'Driscoll: How the Euro Will End - WSJ.com
p222
sa(dp223
g3
VThe Swedish parliament has overwhelmingly voted to allow gay couples to adopt, becoming just the fourth European state ... next year. TALKING ... be allowed to adopt ...
p224
sg5
VBBC NEWS | Europe | Sweden legalises gay adoption
p225
sa(dp226
g3
VOver the last year, ... the 750 billion euro European Financial Stability Facility ... States in the eurozone should not be allowed to run moderate budget ...
p227
sg5
VHow to Save the Euro -- and the EU | Foreign Affairs
p228
sa(dp229
g3
V... pricing in euros was impractical before this date, ... in the three European Union countries that did not adopt ... pace of euro adoption for SMEs ...
p230
sg5
VMenu Costs at Work: Restaurant Prices and the Introduction of the Euro
p231
sa(dp232
g3
VThe adoption of the single European currency in late 1999 had a mixed ... euro adoption was a factor to strengthen European ... is not allowed to ...
p233
sg5
VHow the European Single Currency Affects Currency Transfer Operations
p234
sa(dp235
g3
V... for this purpose, Greece represents all European countries ... The adoption of the euro was predicated in part on the ... it allowed the Greek state to ...
p236
sg5
VEuropean Economic Crisis: Germany\u2019s Economy is Badly Exposed
p237
sa(dp238
g3
VAdoption of IFRSs for Use in the European Union ... one and entails providing an opinion on Commission proposals to adopt ... When allowed to do so by their ...
p239
sg5
VIFRS in Europe \u2013 Background information \u2014 IAS Plus
p240
sa(dp241
g3
V... including not adopting the euro as ... been rejected by the Danish people in a referendum earlier that year. ... Greece; Netherlands; Other
p242
sg5
VWhy denmark did not get the euro? why they said no? - Yahoo! UK ...
p243
sa(dp244
g3
VA PROJECT ON EUROPEAN DEBT CRISI AND RELIANCE YEAR : ... Greece allowed deficits from Central ... the adoption of the euro and lax enforcement of EU rules ...
p245
sg5
VEuro Crisis Final Ppt Presentation - PowerPoint Presentations ...
p246
sa(dp247
g3
VWe want Greece to stay in the euro. 2. Greece ... Greece may be too far gone and be allowed ... The European recession is entering its fifth year and ...
p248
sg5
VA Greece euro exit could make Lehman's collapse 'look like a tea ...
p249
sa(dp250
g3
VThe European debt -relief plan, agreed ... has been thrown into doubt as Greece now says it will hold a ... European and world leaders have praised the adoption of ...
p251
sg5
VGreece Says It Will Hold Vote on European Debt Relief Plan
p252
sa(dp253
g3
VWith the adoption of the euro in ... countries like Greece, ... Prior to the European sovereign debt crisis, the euro had been gaining momentum as an alternative ...
p254
sg5
VThe Euro: What Every Forex Trader Needs To Know
p255
sa(dp256
g3
VIt grew by 2.11% over the previous year. ... Where is the Euro Used? The countries in the European Union that use the euro are: Belgium, Germany, Greece, Spain ...
p257
sg5
VWhat is the Euro (EUR)? | GoCurrency.com - Currency Converter ...
p258
sa(dp259
g3
VBrazil should become a member of the European Union and immediately adopt the euro as ... The adoption of the euro by ... of this year. As European ...
p260
sg5
VShould Brazil Adopt a New Currency? - Brazzil Magazine
p261
sa(dp262
g3
V... (BoP) mechanism for non EURO countries. To date, ... The adoption of ... Commission upon request of the Member States concerned should adopt ad hoc
p263
sg5
VEUROPEAN COMMISSION
p264
sa(dp265
g3
V... Mediterranean island's adoption of the euro that they ... the euro, the Central Bank of Cyprus only allowed banks to use up to ... Greece was the destination of ...
p266
sg5
VThe warnings were there for all to see - Cyprus Mail
p267
sa(dp268
g3
VGreece is already on its fifth year of recession, ... it was able to adopt the euro as its official ... Euro adoption led to a cycle of debt-financed growth and ...
p269
sg5
VProperty in Greece | Greek Real Estate Investment
p270
sa(dp271
g3
VWord of the day; Random word; Log in or Sign up. ... The primary unit of currency in Greece before the adoption of the euro. n. ... Other financial words are allowed ...
p272
sg5
Vdrachma - definition and meaning - Wordnik
p273
sa(dp274
g3
V... and Sweden\u2014that did not adopt the euro when it was introduced ... adoption of the euro in a ... designed to assist Greece and support the euro.
p275
sg5
VEuropean Monetary System definition of European Monetary System in ...
p276
sa(dp277
g3
V... as well as other countries in the euro area; ? 3) The European Union can not help but ... This practice allowed Greece to enter the Euro ... euros per year for ...
p278
sg5
VThe meaning of the Greek crisis - International Viewpoint - online ...
p279
sa(dp280
g3
VThe European currency (euro) ... and recommends that the Ministers Deputies adopt it. ... the European Commission believed that adoption date of the flag and the ...
p281
sg5
VEuropean Union - CRW Flags Inc. Store in Glen Burnie, Maryland
p282
sa(dp283
g3
V... and the adoption of the euro in ... to adopt to do this job effectively. As the euro crisis ... Greece had to leave the euro will ...
p284
sg5
VThe European Council on Foreign Relations | Reinventing Europe ...
p285
sa(dp286
g3
V... an interfaith adoption is allowed when it does ... being married may not adopt. 6 months; 1 year for ... European neighbors took their adoption ...
p287
sg5
Vadoption Facts, information, pictures | Encyclopedia.com articles ...
p288
sa(dp289
g3
VThe Euro is a single currency arrangement that came into theoretical operation between 11 members of the European ... Germany had a symbolic 'no-shop day' by ...
p290
sg5
VWhat are the arguments for and against joining the Euro
p291
sa(dp292
g3
VGreece; Ireland; Leaning Tower, Pisa, ... Happy National Adoption Day; ... Four Media Myths About Adoption; Hoping to Adopt spotlight: Isaac, ...
p293
sg5
VSunny Side Up in an Upside Down World: Adoption Symbol
p294
sa(dp295
g3
V... the Cypriot banking system was allowed to grow ... Cyprus is required to adopt budget ... or a full-blown bank run, Greece\u2019s exit from the euro is now ...
p296
sg5
VCyprus\u2019s Imminent Collapse \u2014 The American Magazine
p297
sa(dp298
g3
V... obligation to join the euro, and he has allowed that legal obligation ... to get Greece and Spain at least out of the euro. ... year one after the other ...
p299
sg5
VOpen Europe blog: George Soros: The euro is "bound to break up the ...
p300
sa(dp301
g3
VAdopt-A-Child, Inc is a 501(c)(3) Non-Profit Licensed Adoption Agency. We are a full service, non-profit licensed adoption agency ...
p302
sg5
VAdopt - A - Child, Inc. - Russian Adoption - International Adoption
p303
sa.