(lp1
(dp2
S'description'
p3
VThe Virginia Wine website is your first step in planning your visit to Virginia's Wine Country - includes a directory of wineries and information about award-winning ...
p4
sS'title'
p5
VVirginiaWine.org - Your Guide to Everything Virginia Wine
p6
sa(dp7
g3
VBelow is a sampling of some of Virginia\u2019s most popular annual wine ... first class Virginia Wines and spending time with ... meet wine-maker Gabriele Rausse ...
p8
sg5
VVirginia Wine Festivals - Virginia Is For Lovers
p9
sa(dp10
g3
VThe wineries listed below are the ones whose wines we buy most ... Franc is the first wine we loved ... People's Choice Virginia's Favorite ...
p11
sg5
V5 Best Wineries in Virginia - Yahoo! Voices - voices.yahoo.com
p12
sa(dp13
g3
VEastern Virginia. Virginia's scenic Eastern ... Yorktown, and the first battle ... family owned businesses who encourage you to Explore Nelson Wine. http ...
p14
sg5
VVirginia Wine Regions - VirginiaWine.org - Your Guide to ...
p15
sa(dp16
g3
VMeet Virginia\u2019s most famous wine-maker Gabriele Rausse, ... Virginia Wineworks Gabriele Rausse Winery. ... "Those Who Labor for My Happiness"
p17
sg5
VWine Festival at Monticello 2013  Thomas Jefferson\u2019s Monticello
p18
sa(dp19
g3
VVirginia Tech's viticulture and enology programs strengthen Virginia\u2019s grape and wine ... to Virginia. When he first ... the industry\u2019s popular ...
p20
sg5
VVirginia's emerging grape and wine industry benefits from ...
p21
sa(dp22
g3
VUR students involved with Virginia\u2019s expanding wine industry. ... thousand bottles of wine to China, the first Virginia export to ... members who were in the ...
p23
sg5
VUR students involved with Virginia's expanding wine industry ...
p24
sa(dp25
g3
VBelow is a sampling of some of Virginia's most popular annual wine ... first class Virginia Wines and spending time with ... meet wine-maker Gabriele Rausse ...
p26
sg5
VPress Room - Virginia Wine Festivals to Experience in 2012 ...
p27
sa(dp28
g3
VThe very popular Sweet Michelle ... Our first wine was the 2012 ... Virginia Wine Time is a wine blog written by two wine enthusiasts who enjoy Virginia ...
p29
sg5
VVirginia Wine Time | A Blog Written By Two Wine Enthusiasts Who ...
p30
sa(dp31
g3
V... check out Virginia wine country. ... Virginia's first attempt at winemaking began with Thomas Jefferson. ... who wanted to start a winemaking operation in Virginia.
p32
sg5
VTour Virginia Wine Trail On The Cheap | Bankrate.com
p33
sa(dp34
g3
Vthe bottling of premium wines ... In the southern reaches, Virginia\u2019s most famous ... What is the size of the average farm in Virginia? 5. How would Virginia\u2019s ...
p35
sg5
VVirginia's Agricultural Resources - Virginia DEQ - The Virginia ...
p36
sa(dp37
g3
V... called by Robert Parker "the first lady of wine". ... Wine writer who promoted labeling wines by grape variety. ... Virginia; Washington; Other. Argentina; Austria;
p38
sg5
VList of wine personalities - Wikipedia, the free encyclopedia
p39
sa(dp40
g3
V... - Virginia's farm wineries experienced a devastating setback yesterday when a ... Loudoun County and the Virginia-Wine-of-the ... MOST POPULAR DAILY NEWS ...
p41
sg5
VVirginia Farm Wineries Lose Right to Self Distribute
p42
sa(dp43
g3
VWith the assistance of two of Virginia's most ... bottled wine volume and acreage of planted now-famous ... the Virginia wine region. Most wineries ...
p44
sg5
VVirginia Vineyards for Sale - Virginia Winery for Sale - VA Wine Tours
p45
sa(dp46
g3
V... making it Virginia\u2019s most ... who met in Richmond last month to taste wines that advanced ... Case\u201d and used to promote Virginia wines ...
p47
sg5
VBarboursville earns its fourth Va. Governor\u2019s Cup - Washington Post
p48
sa(dp49
g3
VSelected famous natives and residents: ... Virginia's First Lady to Host Tea Event to Celebrate International Literacy ... Virginia wine industry showing rapid growth.
p50
sg5
VVirginia: Map, History, Population, Facts, Capitol, Flag, Tree ...
p51
sa(dp52
g3
V... this is the next great winery/vineyard in VA. First ... the 2009 Wine Guide as Virginia's fastest ... maker, seems like a smart, talented guy who has a lot ...
p53
sg5
VBest Wineries in Virginia - Culpeper
p54
sa(dp55
g3
VExactly where wine was first made is still unclear. ... the most popular modern Greek wine, ... wine production, and those whose livelihoods depended on them; ...
p56
sg5
VHistory of wine - Wikipedia, the free encyclopedia
p57
sa(dp58
g3
VLike many Virginia vineyard owners, he first sold his Chardonnay ... to produce some of Virginia\u2019s finest wines. ... is a self-made wineaker who prefers old oak ...
p59
sg5
VWhat are the best wineries in northern Virginia?
p60
sa(dp61
g3
V... savouring the local produce and sipping award-winning wines. ... Virginia provided four of the first five presidents of the ... the most popular option is a ...
p62
sg5
VVisit Virginia | Discover America - DiscoverAmerica l USA Travel ...
p63
sa(dp64
g3
VThe heart of Virginia horse and wine country located on the fringe of ... set up residency at the Warren Green Hotel to get her first ... most popular of the ...
p65
sg5
VFauquier County, Virginia - Virginia's Horse and Wine Country
p66
sa(dp67
g3
VWine Weekend in Charlottesville. Thomas Jefferson instituted Virginia\u2019s first dog ... This popular canine bakery makes the seagull-shaped doggie treats handed out ...
p68
sg5
VPuppy Love: Romantic Getaways for You, Your Sweetheart and Your ...
p69
sa(dp70
g3
V... Virginia. Virginia\u2019s official gateway to ... of many famous names in American history who have ... light and most folks are known by their first name at ...
p71
sg5
VMiddletown, VA
p72
sa(dp73
g3
VWhen the country was first settled, most people ... Virginia 's most famous ... What is the size of the average farm in Virginia? How would Virginia's crops and ...
p74
sg5
VVirginia's Agricultural Resources - Department of Conservation and ...
p75
sa(dp76
g3
VHe made headlines in 2009 when he made his first foray into Virginia ... for the Virginia wine industry.\u201d Kluge, whose divorce from ... hired a famous wine ...
p77
sg5
VDonald Trump buys Kluge winery - Washington Post
p78
sa(dp79
g3
V... who were attending for the first ... Virginia\u2019s wine industry is adding about 20 ... \u201cVirginia wines are becoming more popular and I think that is being ...
p80
sg5
VVirginia Wine Expo draws close to 9,000 - Richmond Times Dispatch ...
p81
sa(dp82
g3
VWho's Online We have 2 guests ... June 8th - Wine Tasting featuring first time guest ... VA. It has become one of Virginia's most popular winery destinations thanks ...
p83
sg5
VOlde Virginia Gourmet and Gifts, Inc. - Welcome!
p84
sa(dp85
g3
V... Virginia Wine and Craft in ... Today as part of the state of Virginia\u2019s wine ... Information about the most popular cabins and bed and breakfasts in this ...
p86
sg5
VExplore the Best of Virginia Wineries with a Road Trip to Three ...
p87
sa(dp88
g3
VFrom a Dutch man-of-war were obtained in 1619 the first Negroes landed in Virginia, who were received as ... Virginia's first popular revolution ... wines, or British ...
p89
sg5
VVirginia's History - American Studies @ The University of Virginia
p90
sa(dp91
g3
VVirginia Fruit Web Page ... First Colony Winery, ... Most of this acreage is planted to wine grape varieties, though ...
p92
sg5
VVirginia Vineyard Page - Virginia Tech's site for Grape IPM and ...
p93
sa(dp94
g3
VPopular Wine Types & Varietals. Red Wine; White Wine; Chardonnay; Merlot; Pinot Noir; Shiraz; Cabernet Sauvignon; Zinfandel; Malbec; Sparkling Wine; Featured Regions ...
p95
sg5
VRed Wine, Order and Buy Red Wines Online | Wine.com
p96
sa(dp97
g3
VIf this is your first time to the Napa Valley, this wine trail is the very best place to start. ... The winery has long been famous for fine reserve wines, ...
p98
sg5
VNapa Valley Wine Trail of Famous and Historic Wineries
p99
sa(dp100
g3
V... Wine tasting and tours on Virginia's ... We offer fine Virginia wines made from our vineyards ... Merlot and Cab Franc are our most popular fine wines.
p101
sg5
VBelle Mount Vineyards - A Virginia Farm Winery with Wine Tasting ...
p102
sa(dp103
g3
V... Virginia's booming ... more like the English food that the first wave of ... of weeks ago but the Virginia Wine Festival will be ...
p104
sg5
VWhat kind of foods (prepared or fresh) is Virginia known for ...
p105
sa(dp106
g3
VCentral Virginia Most Wanted Fugitive of the Week. SEARCH the Virginia Sex Offender and Crimes Against Minors Registry (Public Notification Database) Richmond City
p107
sg5
VVirginia State Police - Wanted Persons
p108
sa(dp109
g3
VFirst answer by USCitizen. Last edit ... What are some popular beverages in West Virginia? Milk remains popular particularly for the young. . ... The Wine Enthusiast ...
p110
sg5
VWhat are some popular drinks in Virginia - The Q&A wiki
p111
sa(dp112
g3
VPopular Wine Types & Varietals. Red Wine; White Wine; Chardonnay; Merlot; Pinot Noir; Shiraz; Cabernet Sauvignon; Zinfandel; Malbec; Sparkling Wine; Featured Regions ...
p113
sg5
VWine.com \u2013 Wine, Wine Gifts and Wine Clubs from the #1 Online ...
p114
sa(dp115
g3
VVirginia Food Events, Food Festivals, Wine Festivals, Food Shows, Food Contests, Wine Events, Wine Tastings, ... Recipes | Who's Who | Food Quotes | Videos ...
p116
sg5
VVirginia Food Festivals, Food Shows, Wine Festivals, Food Events ...
p117
sa(dp118
g3
Vways of thinking about one of Virginia\u2019s most ... Join us for this event and be among those who select this year\u2019s wines for the U.Va ... In her ever-popular ...
p119
sg5
VSchedule of Events | U.Va. Class Reunions | U.Va. Alumni
p120
sa(dp121
g3
VBut first, what do people mean ... wines,\u201d referring to the late televangelist famous for her ... place is a motivating force behind Virginia\u2019s still-nascent wine ...
p122
sg5
VBest of American Chardonnay Wine - Reviews, Brands & History
p123
sa(dp124
g3
VMost Popular. Carolyn Hax: Taming ... been cataloging their explorations of Virginia wine; Frank Morgan, who blogs at ... wines will showcase Virginia\u2019s ...
p125
sg5
VA wine tasting live from your own couch - All We Can Eat - The ...
p126
sa(dp127
g3
VRent a bike or take a hike on the famous Virginia Creeper Trail, a ... tour of Virginia\u2019s wine country with its Main Street ... First Fridays Arts Walk ...
p128
sg5
Vhistoric, authentic, alive - Welcome to Virginia DHCD
p129
sa(dp130
g3
V... and entertainments of the time make for unforgettable experiences at this popular Virginia ... Virginia Wine Country There are ... 225 years of Virginia's ...
p131
sg5
VVirginia Attractions for Honeymoon Couples and Other Romantics
p132
sa(dp133
g3
V... and residents who commute into Washington, DC. Virginia Beach serves as a ... Virginia is also a popular destination for ... Virginia\u2019s many wine trails across ...
p134
sg5
VVirginia travel guide - Wikitravel
p135
sa(dp136
g3
V... While Virginia isn\u2019t well known for its wines, ... From journal Relive History in Virginia's Historic ... "The first warm weather of the year can bring out the ...
p137
sg5
VWilliamsburg Winery Reviews (Williamsburg, Virginia) - IgoUgo
p138
sa(dp139
g3
VThe heart of Virginia horse and wine country located on the fringe of bustling Northern Virginia and Washington, D.C.'s metropolitan area.
p140
sg5
VFauquier County, Virginia - Virginia's Horse and Wine Country
p141
sa(dp142
g3
VOngoing -- Heart of Virginia Wine Trail ... to make this one of the Peninsula's most popular ... souvenir wine glass. Rain or shine. First & North ...
p143
sg5
VVirginia June Events
p144
sa(dp145
g3
VEconomy grew at 2.5 percent in 1st quarter, ... a year can dramatically change the terrior in Virginia\u2019s wine country. ... See Virginia wine country revisited: ...
p146
sg5
VVirginia wine country: Nine reasons to visit now - Going Out Guide ...
p147
sa(dp148
g3
VYou won't want to miss this...who will prevail? ... produces Virginia red wine in three styles in the Bordeaux ... as well as Virginia\u2019s First Lady Maureen ...
p149
sg5
VBoxwood Winery - Middleburg, VA - Winery & Vineyard | Facebook
p150
sa(dp151
g3
VVirginia's on King, ... Who went to the Wine & Food Fest this weekend? ... Who's tried our famous Shrimp & Grits? 6 26 Like  Comment  Share.
p152
sg5
VVirginia's on King - Charleston, SC - Restaurant, Shopping ...
p153
sa(dp154
g3
VVirginia's on King, ... Who went to the Wine & Food Fest this weekend? ... Who's tried our famous Shrimp & Grits? 6 26 Like  Comment  Share.
p155
sg5
VVirginia's on King - Charleston, SC - Restaurant, Shopping ...
p156
sa(dp157
g3
VWineMaker is a magazine for people who enjoy making wine at home. ... Concord is most famous for being the "grape juice" grape. ... First Name: Last Name: Address ...
p158
sg5
VWineMaker Magazine - Common Grapes Guide
p159
sa(dp160
g3
V... Indoor wine festival put on by the folks who ... VA. Wine tastings from Virginia\u2019s ... In its 16th year as one of the Shenandoah Valley's most popular ...
p161
sg5
VWelcome to Horton Vineyards
p162
sa(dp163
g3
V... located in Virginia's ... The Steven F Udvar-Hazy Center is the most popular museum site in Virginia and ... Information about the picturesque Virginia wine ...
p164
sg5
VVirginia Attractions, Sightseeing and Things to Do
p165
sa(dp166
g3
VWineMaker is a magazine for people who enjoy making wine ... only to popular "you-vint" outlets ... that you first sample the bottled wine no sooner ...
p167
sg5
VWineMaker Magazine - Your First Wine from a Kit
p168
sa(dp169
g3
V... Virginia's wine industry was ranked 8th in the nation in ... by the 1800s Virginia wines were winning gold medals from ... For men who are wine ...
p170
sg5
VWine Gifts - How To Information | eHow.com
p171
sa(dp172
g3
VRemember: NAPA makes auto parts, Virginia makes wine! ... Due to popular demand, ... Virginia's fame for great wine combined with the hassle-free fun of riding the ...
p173
sg5
VVirginia Wine Tasting & Vineyard Tour - VA Wine Country ...
p174
sa(dp175
g3
VThe eatery also does oyster pairings with Virginia wines and local craft beers. ... A sojourn along Virginia's oyster trail may be ... Most popular right ...
p176
sg5
VLife on the half-shell: Savoring Virginia's oysters - USATODAY.com
p177
sa(dp178
g3
VFirst, \u201cwhat type of wine do you ... A Case for Virginia Wines. Virginia\u2019s wine industry is getting a ... One of the most popular sections on Wine.com is our 90 ...
p179
sg5
VFood and Wine in Virginia, Maryland and Washington DC | Washington ...
p180
sa(dp181
g3
VFirst-floor Tour of the House ... Meet Virginia\u2019s most famous wine-maker ... and selling horses in Jefferson's Virginia, how it joined families who saw credit and ...
p182
sg5
VSpecial Events  Thomas Jefferson\u2019s Monticello
p183
sa(dp184
g3
VBy the first century AD, wine was being exported in ... The most famous and popular brand of American wine prior to Prohibition was "Virginia Dare." For ...
p185
sg5
VWINE 101: Wine History
p186
sa(dp187
g3
VRudy was very popular with our ... in Tuscany, but he is best known in Virginia as the man who in ... two of Central Virginia's most prominent wine ...
p188
sg5
VBed and Breakfast in Charlottesville Virginia, Bed and Breakfast ...
p189
sa(dp190
g3
VWest Virginia Food Events, Food Festivals, Wine Festivals, Food Shows, ... Recipes | Who's Who | Food Quotes ... The first Earth Day on April 22, ...
p191
sg5
VWest Virginia Food Festivals, Food Shows, Wine Festivals, Food ...
p192
sa(dp193
g3
VJoin us and be the first to know when new Meetups are scheduled ... Taste over 60 wines from 12 of Virginia's most popular wineries. ... VA 24018 Ph. [masked] ...
p194
sg5
VThe Five O'Clock Club (Roanoke, VA) - Meetup
p195
sa(dp196
g3
VZinfandel is often described as America\u2019s first and most ... Norton in his popular book as an epoch-maker, ... the Virginia wine has less herbal ...
p197
sg5
VNorton, America's True Grape | Norton Grape, Norton Wine ...
p198
sa(dp199
g3
VVirginia's Most Endangered Sites; ... The men ate Allen's cattle and depleted his stock of wine. ... later sued the men who had occupied the house for the damages ...
p200
sg5
VBacon's Rebellion
p201
sa(dp202
g3
V... sworn in Friday as Virginia's first black Federal ... Republican of Virginia, who placed Mr. Spencer's name in nomination with ... Dining & Wine ...
p203
sg5
VAROUND THE NATION - First Black Federal Judge In Virginia Takes ...
p204
sa(dp205
g3
VOne of the most balanced and savory of all Virginia oysters, ... the Lynnhaven oysters from this region are the most exciting part of Virginia's ... MOST POPULAR ...
p206
sg5
VOysters in Virginia - Saveur.com
p207
sa(dp208
g3
VBaked Ham, Lovers, Wine, ... First answer by Contributor . Last edit by Jjw234. Contributor ... Who is famous in Virginia?
p209
sg5
VHistorically what is Virginia famous for - The Q&A wiki
p210
sa(dp211
g3
V... with Virginia\u2019s official state grape. Virginia Rhone ... some of the most notable wines in Virginia ... wine set, this is sure to be a popular ...
p212
sg5
VDrink What YOU Like
p213
sa(dp214
g3
VThe first successful light beer produced in the US, ... Five Most Popular Beers in the US; ... Crush Wine Shop on Knox Henderson is Closing;
p215
sg5
VThe Five Most Popular Domestic Beers in the United States (US ...
p216
sa(dp217
g3
V11 Famous Women Who Are Happy Without Kids 69 ... Virginia's Blue Laws Still ... Virginia law is riddled with antiquated provisions meant to govern the ...
p218
sg5
VVirginia's Blue Laws Still Prohibit Cohabitation, Oral Sex And Sex ...
p219
sa(dp220
g3
VVirginia Virtual Academy, whose contractor is K12 Inc., ... Virginia's First Statewide Virtual School May Be Closing ... Most Popular on HuffPost;
p221
sg5
VVirginia's First Statewide Virtual School May Be Closing
p222
sa(dp223
g3
VThe purpose of the shindig is to put the focus on Virginia\u2019s growing wine ... \u201cThese are three of the most popular ... The first settlers in Virginia tried ...
p224
sg5
VLynchburg Living : Lynchburg Virginia's Premiere Lifestyle ...
p225
sa(dp226
g3
VGleason will die Wednesday night in Virginia\u2019s electric ... adds a deterrent to people who are ... simply because he is the nation\u2019s first ...
p227
sg5
VGleason will die Wednesday night in Virginia\u2019s electric chair ...
p228
sa(dp229
g3
V... VA, us about Wine. ... It's hard for someone who is in their late 20s, ... Taste over 60 wines from 12 of Virginia's most popular wineries. ...
p230
sg5
VWine Meetups near Roanoke, Virginia - Wine Meetups - Roanoke
p231
sa(dp232
g3
VPopular Virginia Travel Guides. Virginia City Guides. ... Virginia's alter egos. Old ... a well-traveled and well-educated group who are not only experts in their ...
p233
sg5
VVirginia Vacation and Travel Guide by 10Best
p234
sa(dp235
g3
VNorth Carolina is the home to our nation's first cultivated wine ... most famous and prosperous wine maker. ... to sell wine. Virginia Dare red and white ...
p236
sg5
VNC Wine > About Us > NC Wine History
p237
sa(dp238
g3
VOne of West Virginia's most famous foods is the ramp, ... West Virginia ramp and red currant wines and ... and the first three\u2014either 304 or 681\u2014are the ...
p239
sg5
VWest Virginia travel guide - Wikitravel
p240
sa(dp241
g3
VTop off a day of tasting along Virginia's Chesapeake Bay Wine Trail with a stay ... homes of some of America's most famous ... Wine Trail, Virginia.
p242
sg5
VChoose your own romantic adventure - CNN.com
p243
sa(dp244
g3
V... earning the title of Virginia\u2019s Wine Country. ... Who are you: | Search for: E ... Above Ground Winery is the first urban farm winery in Virginia. Started as a ...
p245
sg5
VWashington DC Wineries- Northern Virginia Winery- Loudoun County ...
p246
sa(dp247
g3
V... Mountain Rose Vineyards is the first wine grape operation in Wise Virginia. ... who presided over Virginia from ... their most popular wines ...
p248
sg5
Vvirginiawineclub | Shipping the best of Virginia Wine \u2014 every month
p249
sa(dp250
g3
V... Virginia's General Assembly postponed its passage. ... Jefferson not only served his guests the best European wines, ... Most Popular. Thomas Edison - The ...
p251
sg5
VThomas Jefferson - His Life as an Inventor - Inventors
p252
sa(dp253
g3
VWest Virginia - It's You is the ... form walnuts to wine--- it seems there's a festival to commemorate everything good. ... America's first oil boom, ...
p254
sg5
VWest Virginia: Mid Ohio Valley: Articles - West Virginia - Wild ...
p255
sa(dp256
g3
VThis special wine is our first taste of ... Our most popular sweet wine, ... St. James Winery has a similar mission as Virginia\u2019s Horton Winery in that they ...
p257
sg5
VSt. James Winery - The Wine Compass Wine-Beer-Spirits Directory
p258
sa(dp259
g3
V03 Kazimierz World Wine Bar. Owner Peter Kasperski, who also runs ... The famous catsuit-clad "wine angels" and ... At this Virginia-centric wine ...
p260
sg5
VAmerica's 50 Most Amazing Wine Experiences | Food & Wine
p261
sa(dp262
g3
V... This ride will allow you to explore two of Northern Virginia's most famous areas: ... Virginia Wine Country Luray, VA ... First Landing State Park in Virginia;
p263
sg5
VLuray Virginia Virginia Hotels, Motels & Lodging | Trails.com
p264
sa(dp265
g3
VExperience the 25th Annual AT&T Town Point Virginia Wine Festival, Hampton Roads' most ... Who doesn\u2019t want to take a Virginia ... Virginia Beach, one of the first ...
p266
sg5
VVirginia Beach Attractions Provide a Myriad of Things to do in ...
p267
sa(dp268
g3
VVirginia Beach is a popular ... Roanoke offers some of Virginia\u2019s most ... And Charlottesville sits in an award-winning wine region, a fact Thomas Jefferson, who ...
p269
sg5
VRetire Here, Not There: Virginia - Retire Here, Not There ...
p270
sa(dp271
g3
VVirginia Beach is a popular vacation spot, ... Who's online. There are currently 0 users and 94 guests online. View mobile site. About Us; Advertising;
p272
sg5
VVirginia Beach
p273
sa(dp274
g3
VBreaking news about West Virginia. Find the ... Commission without stated support from the lawmaker who can most sway the ... Most Popular on ...
p275
sg5
VWest Virginia News - Bloomberg
p276
sa(dp277
g3
VFor West Virginia's sesquicentennial year, ... served as the first commissioner. ... It reflects West Virginia as it was then and, for the most part, ...
p278
sg5
VWest Virginia's seal of approval - Life - The Charleston Gazette ...
p279
sa(dp280
g3
VActress: Born Free (1966)  Sliding Doors (1998)  A Town Like Alice (1956)  Big Time Operators (1957). Talented flaxen-blonde British star combined her deep ...
p281
sg5
VVirginia McKenna - IMDb
p282
sa(dp283
g3
VMost of those who lived in the town at the outbreak of the War moved out. ... First Regiment, Virginia Volunteers, ... is one of West Virginia's most famous historic ...
p284
sg5
VWest Virginia County Histories
p285
sa(dp286
g3
VWine & Beer; Virginia\u2019s Finest ... Virginia Backyard; Factory Direct. ... First Name. Last Name * = required field Preferred Format. HTML; Text;
p287
sg5
VWilliamsburg Pottery
p288
sa(dp289
g3
V... a Civil War Zouave unit soldier who fought and died in Virginia during the war. This is the first time ... from central Virginia's ... food, wine, music, and ...
p290
sg5
VNews and Events - Virginia Historical Society
p291
sa(dp292
g3
VMost Popular Most Popular Stories. Richmond Jazz Festival Announces 2013 ... Central Virginia Wine Festival Sat, May 11, 12:00 pm EDT Innsbrook ...
p293
sg5
VRichmond.com: Richmond, Virginia entertainment, restaurants ...
p294
sa(dp295
g3
VMore than 240,000 expert wine ratings, with full reviews, including tasting notes, score and recommendations on when to drink. Learn more, drink better: The ...
p296
sg5
VWine Spectator Home | Wine Spectator
p297
sa(dp298
g3
VNorthern Virginia's first and most experienced physician to utilize Fraxel technology.
p299
sg5
VFraxel VA Laser Treatment | Gerrish & Associates MedSpa Virginia
p300
sa.