(lp1
(dp2
S'description'
p3
VA great many more have since been discovered. ... The structure is also the third largest pyramid in Egypt \u2013 after the pyramids of Khufu and Khafre at Giza.
p4
sS'title'
p5
VEgyptian pyramids - Wikipedia, the free encyclopedia
p6
sa(dp7
g3
VAll of Egypt's pyramids are sited on the west bank of the Nile and most are grouped together in a number of pyramid fields. The German Egyptologist Karl Richard ...
p8
sg5
VHow many Egyptian pyramids have been discovered - The Q&A wiki
p9
sa(dp10
g3
VEgyptian pyramids found by ... pyramids. The work has been pioneered at ... so many sites all over Egypt. "To excavate a pyramid is the ...
p11
sg5
VBBC News - Egyptian pyramids found by infra-red satellite images
p12
sa(dp13
g3
VWhat were the Egyptian ... mummies,etc. found in any pyramid in egypt. They have been found. ... in November 2008 118 pyramids had been. How many mummies have been ...
p14
sg5
VHow many pyramids have found - The Q&A wiki
p15
sa(dp16
g3
VWhile more than 100 pyramids in Egypt have been discovered, ... Many of the Egyptian pyramids were built as tombs for the ... The great Pyramid at Giza is called ...
p17
sg5
VEgyptian Pyramids - Pyramids of Ancient Egypt
p18
sa(dp19
g3
VThe number of pyramid structures in Egypt today is reported ... but more have been identified and discovered ... that egypt just have 3 pyramids ...
p20
sg5
VHow many total pyramids are there in egypt???? - Yahoo! Answers
p21
sa(dp22
g3
VWhile the most famous of these pyramids are found in Egypt, ... a number of pyramids have been built for burial ... The Egyptian pyramids are famous as a ...
p23
sg5
VHow Many Pyramids Are There? | eHow.com
p24
sa(dp25
g3
V... Egypt \u2014 Archaeologists have discovered a new ... pyramid of Teti himself. The Egyptian team is ... a pyramid believed to have been ...
p26
sg5
VNew pyramid discovered in Egypt - USATODAY.com
p27
sa(dp28
g3
V... the icon most associated with the Egypt. They have been both the main ... a pyramid shaped stone found in the ... As the Egyptian pyramids ...
p29
sg5
VEgyptian Pyramids: The Great Pyramids and More
p30
sa(dp31
g3
VAncient Egyptian pyramids were in most cases placed western of the river Nile because the divine pharaoh ... some 135 pyramids have been discovered in Egypt. ...
p32
sg5
VPyramid - Wikipedia, the free encyclopedia
p33
sa(dp34
g3
VTo know where are they found you have ... There are still around 200,recognised ,investigated and documented pyramids in Egypt. Many of ... and have been ...
p35
sg5
VHow many pyramids are there in egypt? - Yahoo! Answers
p36
sa(dp37
g3
VSeventeen lost pyramids are believed to have been found in Egypt by a team of space archaeologists from Alabama, according to a report. Sarah Parcak and her team at a ...
p38
sg5
V17 lost pyramids discovered in Egypt by space scientists
p39
sa(dp40
g3
VHow many pharaohs (or mummies) have been found inside pyramids in Egypt? ChaCha Answer: Before the pyramids, people were put in pits ...
p41
sg5
VHow many pharaohs (or mummies) have been found inside pyramids in ...
p42
sa(dp43
g3
VSeventeen lost pyramids and more than 1,000 tombs have been found in a new satellite survey of Egypt.
p44
sg5
V17 lost pyramids found by satellite - Telegraph
p45
sa(dp46
g3
VLots of folks have tried to claim throughout the years that the famous pyramids of Egypt were built by aliens. I have a feeling this news will only strengthen those ...
p47
sg5
VNew Egyptian Pyramids May Have Been Discovered Thanks To Google ...
p48
sa(dp49
g3
VTwo possible pyramid complexes might have been found in Egypt, according to a Google Earth satellite imagery survey. Located about 90 miles apart, the sites contain ...
p50
sg5
VLost Egyptian Pyramids Found? : Discovery News
p51
sa(dp52
g3
VThe pyramids of Egypt are amazing structures and fascinate ... His body and tomb have never been found. ... in her book The Pyramid Builders of Ancient Egypt, ...
p53
sg5
VThe Pyramids of Ancient Egypt - Answers in Genesis
p54
sa(dp55
g3
VThe Egyptian rulers ordered the pyramids to be built ... pyramids have been found in Egypt, ... to build the Great Pyramid alone. The pyramids were built ...
p56
sg5
VEgypt Ancient, PYRAMIDS - World History International: World ...
p57
sa(dp58
g3
V... in ancient Egypt, the idea that the Great Pyramid was ... which have been discovered near the pyramids? ... been discovered. Nor have ancient Egyptian ...
p59
sg5
V"Pyramids and Temples in Egypt" by Coen Vonk
p60
sa(dp61
g3
VMost of the pyramids can be found on the ... we have been able to ... Journey back four and a half thousand years to Egypt's Old Kingdom, to the Pyramid ...
p62
sg5
VPyramids in Egypt - Homework for kids - Woodlands Junior School ...
p63
sa(dp64
g3
V... this page will help you locate the most famous pyramids in Egypt, ... name have been found on ... of the Egyptian 25th dynasty, built a pyramid at El ...
p65
sg5
VWhere Are The Pyramids Of Egypt?
p66
sa(dp67
g3
VEgyptian History; All Pyramids Of Egypt; ... that he thought might have been kept inside the Pyramid. He sent ... exterior openings have been found, ...
p68
sg5
VPyramids of Giza, Pyramids facts, Egypt pyramids, The Sphinx ...
p69
sa(dp70
g3
VHow many mummies were found in the pyramids at Giza? - How many bodies have been ... many bodies have been found inside pyramids? ... the Pyramids at Giza in Egypt, ...
p71
sg5
VHow many mummies were found in the pyramids at Giza? - WebAnswers.com
p72
sa(dp73
g3
VSome of the theories of who built the Pyramids suggest that the builders may not have been from Egypt. ... the Pyramid. We found ... 104 Pyramids in Egypt ...
p74
sg5
VNOVA | Who Built the Pyramids? - PBS: Public Broadcasting Service
p75
sa(dp76
g3
VMore than twenty pyramids and pyramidal hills have been found ... dynasty Egyptian Pharaoh ... the pyramids in Egypt. The article makes the first pyramid ...
p77
sg5
VHow Many Pyramids are in the World?
p78
sa(dp79
g3
VSurely there must have been an easier way? ... 10:00 Pharaohs-The Great Pyramid of Egypt ... 10:02 The hidden secrets of Egypt Pyramids ...
p80
sg5
VHow were the pyramids of egypt really built - Part 1 - YouTube
p81
sa(dp82
g3
VThis suggests the pyramid may have been designed to serve as a ... but more have been identified and discovered ... There are many pyramids in Egypt.
p83
sg5
VYahoo! Answers - Pyramids of egypt?
p84
sa(dp85
g3
V(Before It's News) The world has always been asking, \u201cwho built the great pyramids of Egypt.\u201d Most people believe it was the Egyptians, however, there is some ...
p86
sg5
VGiants Build the Ancient Pyramids of Egypt, Evidence Found ...
p87
sa(dp88
g3
VAbout 100 pyramids have been discovered in Egypt but ... body would have been placed. One of the Great Pyramid ... Pyramids Wordsearch : Ancient Egyptian ...
p89
sg5
VPyramids - Ancient Egypt - History on the Net Main Page
p90
sa(dp91
g3
V... the largest of the many pyramids of Egypt. ... that though many people have wandered and found many artifacts ... and since then there have been many ...
p92
sg5
VGiant Mysteries - The Ancient Pyramids of Egypt
p93
sa(dp94
g3
VThe Pyramids of Egypt. Many of the pyramids ... The tombs of the pyramid builders have also been found, ... EGYPTIAN PYRAMID INDEX PYRAMIDS INDEX ANCIENT EGYPT ...
p95
sg5
VThe Pyramids of Egypt - Crystalinks Home Page
p96
sa(dp97
g3
VGetting on top of the great pyramids in Egypt is illegal. ... "Many thanks to good friends who have been there and supported the ... pyramid that they found almost ...
p98
sg5
VHow to climb the ancient pyramids of Egypt | canada.com
p99
sa(dp100
g3
VEgypt Pyramids What Ancient history ... statues of the Pharaoh found by archeologists inside the pyramid. ... been repaired many times to provide its ...
p101
sg5
Vgreat sphinx | Egypt Pyramids
p102
sa(dp103
g3
VThe Egyptian rulers ordered the pyramids to be ... At least 80 royal pyramids have been found in Egypt, ... As with the Great Pyramid, both of these pyramids have ...
p104
sg5
VPyramids - Egypt Hotel Reservation Centre
p105
sa(dp106
g3
VFind out the results of radiocarbon dating of material from the pyramids of Egypt ... pyramid age, the Egyptians had been ... many other dates obtained from Egyptian ...
p107
sg5
VHow Old Are the Pyramids | Mark Lehner's Team Finds Out |
p108
sa(dp109
g3
V'Missing Pyramid' Found by Egyptian ... Hawass said he expected to unearth "subsidiary" pyramids around ... have been exploring Egypt for some ...
p110
sg5
V'Missing Pyramid' Found by Egyptian Archaeologists | Fox News
p111
sa(dp112
g3
V... in ancient Egypt. Some of the ancient Egyptian pyramids are only ... Many depictions have stated that the pyramid ... built pyramids have been found.
p113
sg5
VThe Great Pyramid Of Giza Facts - Pyramids in Ancient Egypt
p114
sa(dp115
g3
V... seems in line with Egyptian practices. For many centuries ... The other two large pyramids at Giza, the Pyramid ... Regulations have been found covering ...
p116
sg5
VSeven Wonder of the Ancient World: Khufu's Great Pyramid
p117
sa(dp118
g3
V... Secret Chambers of the Great Pyramid of Khufu in Egypt. Home; Ancient Egypt; ... they have been working in the pyramids ... I have found a great deal of ...
p119
sg5
VSecret Chambers of the Great Pyramid of Khufu in Egypt
p120
sa(dp121
g3
VThe Pyramids of Giza in Egypt ... Ancient Egyptian Anecdotes Papyri translations, which have been edited to make
p122
sg5
VThe Pyramids of Giza in Egypt - Egypt Pyramids Pharaohs ...
p123
sa(dp124
g3
VThey have been preserved, along with the pyramid complex at Giza, ... and is frequently found in ancient Egyptian texts. ... the oldest known of Egypt's 97 pyramids.
p125
sg5
VThe Great Pyramids in Egypt - Egypt Tours | Information | Egypt ...
p126
sa(dp127
g3
VA look at how the Egyptian pyramids ... Building in Egypt, p. 278. The pyramid blocks were hewn ... Extant ramps have been found at the pyramids of Amenemhat ...
p128
sg5
VHow were the Pyramids built? - Catchpenny Mysteries of Ancient Egypt
p129
sa(dp130
g3
VThere are about eighty pyramids known today from ancient Egypt. ... It is known as the 'Great Pyramid ... The pharaohs were buried in pyramids of many different ...
p131
sg5
VPyramids
p132
sa(dp133
g3
VA look at the function of the Egyptian pyramids. ... all the pyramids of Egypt that have ever been ... mummy been found in any pyramid, nor have any parts of a ...
p134
sg5
VWhy were the Pyramids built? - Catchpenny Mysteries of Ancient Egypt
p135
sa(dp136
g3
VJust how many Egyptian Pyramids are ... But the best-known are the great pyramids found at ... Huge limestone blocks would have been floated down the River ...
p137
sg5
VEgyptian Pyramids - Which is the Most Famous?
p138
sa(dp139
g3
VAt least 35 small pyramids, along with graves, have been discovered ... influenced by Egyptian ... table found by the remains of a pyramid ...
p140
sg5
V35 Ancient Pyramids Discovered in Sudan Necropolis | LiveScience
p141
sa(dp142
g3
VSix tombs near the Saqarra pyramids in Egypt ... At least two of the pyramids have so far been ... There they found two buried pyramids, and the Egyptian ...
p143
sg5
VAmerican archaeologists discover 17 buried pyramids in Egypt ...
p144
sa(dp145
g3
VThe Egyptian pyramids are ancient pyramid-shaped buildings ... In 2008 only 118 pyramids had been discovered in Egypt. Many pyramids had been buried under sand ...
p146
sg5
VOur World of Wonders, The Pyramids of Egypt, Thematic Unit Study
p147
sa(dp148
g3
VMysteries Of The World: Have Two Lost Egyptian Pyramids Been Found?
p149
sg5
VMysteries Of The World: Have Two Lost Egyptian Pyramids Been Found?
p150
sa(dp151
g3
V... the pyramids have drawn every ... any dig anywhere in Egypt. They have found not ... along the frontier could have been feeding the pyramid builders ...
p152
sg5
VWho Built the Pyramids? | Harvard Magazine Jul-Aug 2003
p153
sa(dp154
g3
VA university researcher has found new pyramids in Egypt through Google Earth. ... Egypt; Google; Pyramids; Egyptian; Pyramid; ... Some pyramids may have been wireless ...
p155
sg5
VGoogle Earth might have found new Egyptian pyramids - Neowin
p156
sa(dp157
g3
VI cannot wait until we finally make it to Egypt. Like you, the pyramids have been on my ... the Pyramids but I found them so ... have I been to the pyramid.
p158
sg5
VThe Pyramids of Giza in Egypt - Adventure Travel Blog for ...
p159
sa(dp160
g3
V... the pyramids have drawn every ... any dig anywhere in Egypt. They have found not ... along the frontier could have been feeding the pyramid builders ...
p161
sg5
VWho Built the Pyramids? | Harvard Magazine Jul-Aug 2003
p162
sa(dp163
g3
VAn American scientist has discovered two new possible pyramid sites in Egypt, ... Egyptian pyramids are those found ... have not been renewed ...
p164
sg5
VTwo previously unknown sets of heavily worn down pyramids ...
p165
sa(dp166
g3
VThe Egyptian Pyramids Step Pyramid at ... to the temporary mud ramp found at Sekhemket\u2019s Pyramid, ... the material needed for the pyramid would have been used ...
p167
sg5
VRediscover Ancient Egypt - The Egyptian Pyramids at Giza, Sakkara ...
p168
sa(dp169
g3
VThroughout history there have been many theories ... a true pyramid shape. The ancient Egyptian pyramids ... ever discovered on the inside of the Egyptian ...
p170
sg5
VAncient Egyptian Pyramids
p171
sa(dp172
g3
VWriter Carl Hoffman traveled to Egypt in February 2011, ... The Great Pyramid at Giza, ... All I could think of is how hard it must have been to make them, ...
p173
sg5
VPyramids at Giza -- National Geographic
p174
sa(dp175
g3
VDiscover the Egyptian pyramids. ... to have been chosen by the gods to ... which were precursors to the pyramids. The oldest known pyramid in Egypt was built ...
p176
sg5
VEgyptian Pyramids \u2014 History.com Articles, Video, Pictures and Facts
p177
sa(dp178
g3
VAncient egyptian history, the pharoahs, pyramids, ... The Great Pyramid (Khufu's) at Giza . Egypt's ... Attached to this temple would have been a ...
p179
sg5
VPYRAMIDS ANCIENT EGYPT SPHINX RA SUN GOD - SOLAR NAVIGATOR ...
p180
sa(dp181
g3
VNo archaeological examples of iron tools are found in early dynastic Egypt, ... Great Pyramid may be found in ... pyramids, whoever they may have been, ...
p182
sg5
VThe Great Pyramid of Egypt
p183
sa(dp184
g3
VEgypt /The Pyramids. Advertisement. ... The pyramid seems to have evolved out of the mastaba. ... though a few primitive examples have been found.
p185
sg5
VEgypt: The Pyramids, king djoser, true pyramid
p186
sa(dp187
g3
VEgyptian Pyramids. The Egyptian ... have most likely been constructed during the Fourth Dynasty. Located in the same proximity as King Khufu's Great pyramid, many ...
p188
sg5
VEgyptian Pyramids - ThinkQuest
p189
sa(dp190
g3
VAncient Egypt Pyramid facts top10 ... with Top 10 Pyramid Facts Pyramids continue to fascinate ... rough masonry have been stripped off many years ago ...
p191
sg5
VAncient Egypt Pyramid facts top10 blog by Explore Travel and Cruises
p192
sa(dp193
g3
VFirst Ever Etruscan Pyramids Found in ... the oldest pyramid in Egypt. ... work at the pyramid. The vault would have initially been decorated with ...
p194
sg5
VStep Pyramid of Djoser: Egypt's First Pyramid | LiveScience
p195
sa(dp196
g3
V... experiment with building pyramids. The very first pyramid in Egypt was ... to the Pyramid. The King\u2019s body would have been ... found in Tutankhamun ...
p197
sg5
VThe Pyramids of Egypt - Astarte Resources
p198
sa(dp199
g3
VHow many pyramids are there in Egypt? ... Who Built The Egyptian Pyramids. ... no pieces of ramps have ever been found at pyramid sites.
p200
sg5
VHow Were The Pyramids Built - Egyptian Pyramids
p201
sa(dp202
g3
VLost Pyramids Egypt ... of some two hundred Egyptian rulers have yet to be discovered. ... to this which in Ancient Egypt would have been 100 Cubits ...
p203
sg5
VLost Pyramids - Egypt - Space Archaeology
p204
sa(dp205
g3
VEgyptian Pyramids and Temples of Egypt with Maps and The Eye of Horus. The Pyramids & Temples of Egypt. ... There are also many interactive ground plan maps, ...
p206
sg5
VEgyptian Pyramids and Temples of Egypt with Maps
p207
sa(dp208
g3
VExplore the mysteries surrounding how the great egyptian pyramids ... to work in Egypt, ... one face of the pyramid, traces of which have been found at ...
p209
sg5
VBBC - History - Ancient History in depth: Building the Great Pyramid
p210
sa(dp211
g3
VThe Pyramids of Egypt have always been regarded as one of ... also at Saqqara and one found at Zawyet ... the Great Pyramid is a masterpiece of the Egyptian ...
p212
sg5
VThe Pyramids of Egypt - EgyptPast.com - Facts and Information ...
p213
sa(dp214
g3
VPyramids, Egypt, Hermes, ... As an "all Egyptian" archaeological team moves in to find answers we hope they will reveal what's really ... "This has never been found.
p215
sg5
VCaves discovered under the pyramids raise excitement, questions.
p216
sa(dp217
g3
V17 Lost Egyptian Pyramids Discovered By ... at least two of the suspected pyramids have been ... "Lost" Pyramid Found Buried in Egypt. Lost pyramids ...
p218
sg5
V17 Lost Egyptian Pyramids Discovered By Space Archaeologists
p219
sa(dp220
g3
VIn the history of pyramid building construction has been used ... In Egypt, there are so many pyramids variety ... and are found above the statue of the Sphinx is ...
p221
sg5
VPyramids in Egypt | To Travelling
p222
sa(dp223
g3
VThere were three different pyramids in egypt. Pyramid for Menkaure, ... and they have been famous since ancient times. ... Who found this interesting?
p224
sg5
VWho made the famous pyramid in egypt? - Yahoo! Answers India
p225
sa(dp226
g3
VA new pyramid has been discovered deep beneath Egyptian sands, archaeologists announced today.
p227
sg5
VNew Pyramid Found in Egypt: 4,300-Year-Old Queen's Tomb
p228
sa(dp229
g3
VPyramids of Egypt - Ancient Egypt for ... so that the greatest remains of Ancient Egypt are also some of the earliest to have been built! ... Building an Egyptian pyramid
p230
sg5
VPyramids of Egypt - Ancient Egypt for Kids!
p231
sa(dp232
g3
VI am giving you a secret that has been long kept. To build Egyptian type ... In fact we have found them ... There are actually over 100 pyramids in Egypt, many of ...
p233
sg5
Vhow did they make egyptian pyramids - Ask.com
p234
sa(dp235
g3
VEgyptian ones are ideal. ... a survey recorded 67 numbers but that was years back and many more have been later found, ... giza egypt pyramid, giza ...
p236
sg5
VThe Kerala Articles: The Pyramids of Giza
p237
sa(dp238
g3
VSlaves there may have been. But the pyramids were built ... and higher on the slope. 300 tombs have been found, many, ... EGYPT DYNASTIES INDEX. EGYPTIAN PYRAMID ...
p239
sg5
VThe Pyramids of Egypt - Crystalinks - Crystalinks Home Page
p240
sa(dp241
g3
VThe pyramid was found in Saqqara, ... have been found earlier ... I wonder how many other pyramids there are in Egypt that we haven't found.
p242
sg5
V4,300 Year-Old Pyramid Discovered In Egypt - Kids News Article
p243
sa(dp244
g3
VA great many more Pyramids have since been discovered. ... pyramid in Egypt \u2014 after the pyramids of ... among Egyptian pyramids. The hill that the pyramid sits ...
p245
sg5
VEgyptian pyramids - 2008/9 Wikipedia Selection for schools
p246
sa(dp247
g3
VIn the past the date of the ancient Egyptian pyramids has been a ... Archaeologists have found ... WERE THE THREE GIZA PYRAMIDS MODELS FOR EGYPT\u2019S "PYRAMID ...
p248
sg5
VWorld Mysteries - Mystic Places - The Great Pyramid of Giza in Egypt
p249
sa(dp250
g3
VPyramid is a unique shape that has been used in ... but pyramids have always and still are ... though the shape seems to be very like what can be found in Egypt.
p251
sg5
VPyramids around the World - HotelClub.com: Cheap Hotel Deals ...
p252
sa(dp253
g3
VNewly found pyramids reveal aspects ... pyramids in Egypt's southern neighbour ... of the main Egyptian god Amun. It had originally been part of a ...
p254
sg5
V.:Middle East Online::Newly found pyramids reveal aspects of ...
p255
sa(dp256
g3
VGiza Pyramids after sunset, Egypt ... marks found within the pyramid, ... of the pyramid contain many seashells and fossils that have been radiocarbon-dated ...
p257
sg5
VThe Great Pyramid of Giza, Egypt - Sacred Sites: Places of Peace ...
p258
sa(dp259
g3
V... the pyramids. The pyramid is generally what Egypt ... they have discovered around 138 pyramids. Many of ... has been known. Every Pharaoh had his pyramid ...
p260
sg5
VPyramids | Ancient Egypt
p261
sa(dp262
g3
VThough the pyramids had been looted and ... ever discovered. Today the pyramids are empty ... Pyramids. There are so many pyramids in Egypt yet we only ...
p263
sg5
VWhy Were the Pyramids Built? - KingTutOne.com | Ancient Egypt Online
p264
sa(dp265
g3
VEgyptian Pyramids History & Humanities ... I'm working on the theories for how the pyramids in Egypt were built and I just wanted to know ... quaries have been found
p266
sg5
VEgyptian Pyramids - Physics Help and Math Help - Physics Forums
p267
sa(dp268
g3
VPeople have been excavating in Egypt for ... the chief inspector of the pyramids, the wife of the pyramid, ... with at least 30 titles that have been found on them to ...
p269
sg5
VNOVA Online/Pyramids/How Old Are the Pyramids?
p270
sa(dp271
g3
VThe Egyptian pyramids are ancient pyramid-shaped masonry structures located in Egypt.There are 138 pyramids discovered ... A great many more have since been discovered.
p272
sg5
VEgypt (Pyramid) | Facebook
p273
sa(dp274
g3
VNow the Great Pyramid is not the only pyramid in Egypt. There are many in Egypt and ... of the Egyptian ... pyramids in the area have been found to be ...
p275
sg5
VGreat Pyramid - Home Page New
p276
sa(dp277
g3
VScholars have found evidence that copper chisels were using ... Egyptian pyramids; Ancient Egypt; Chichen Itza; ... 'Magical' Makeup May Have Been Medicine for ...
p278
sg5
VHow Were The Egyptian Pyramids Built? - Science Daily: News ...
p279
sa(dp280
g3
VDespite a Pharaoh never having ever been found buried in an Egyptian pyramid, ... The techniques used to construct Egypt's pyramids may have initially been ...
p281
sg5
VEgyptian pyramids - Academic Kids
p282
sa(dp283
g3
VWe have now found that pyramids had ... the study of Egyptian History. The first pyramid was ... to Egypt alone. Pyramids have been found in ...
p284
sg5
VHISTORIC BUILDINGS I \u2013 The Pyramids of Egypt: 3rd to the 1st ...
p285
sa(dp286
g3
VSurely there must have been an easier way? ... 2:38 How the Pyramids of Egypt were really built Addendum ... 14:02 2 The Great Pyramid of Egypt, ...
p287
sg5
VHow were the pyramids of egypt really built - Part 2 - YouTube
p288
sa(dp289
g3
VAll the other pyramids of Egyptian ... No mummy has ever been found in a pyramid in Egypt. Mummies have always come ... Many, many other equations have been ...
p290
sg5
VMiddle East & Africa Pyramids - Survive 2012: Ancient Mayan ...
p291
sa(dp292
g3
VThe Red Pyramid at Dashur has the second largest base of any pyramid in Egypt ... are not certain to have been ... pyramids in Egypt to have this ...
p293
sg5
VWorld Mysteries - Mystic Places, The Red Pyramid of Snofru ...
p294
sa(dp295
g3
VArcheologist finds 17 Egyptian pyramids, ... she said she found that very little work had been done. ... Missing Pyramid Unveiled in Egypt;
p296
sg5
VLost Pyramids of Egypt Discovered With Satellite Images - ABC News
p297
sa(dp298
g3
VBut the intriguing Egyptian pyramids were ... The Great Pyramid of Giza is the largest in Egypt and one of ... some 138 pyramids have been discovered in Egypt ...
p299
sg5
VThe Pyramids of egypt in Al Jizah, Egypt - Localyte.com - Travel ...
p300
sa(dp301
g3
VThe Egyptian pyramids were not discovered, ... the architect Imhotep built Egypt's first step pyramid, ... They were never discovered, they've always been ...
p302
sg5
VWho discovered the pyramids and when? - Yahoo! Answers India
p303
sa.