(lp1
(dp2
S'description'
p3
VVisit this site dedicated to William Shakespeare including information about When & Where was he was born.Fast and accurate details about When & Where was William ...
p4
sS'title'
p5
VWhen & Where was William Shakespeare born
p6
sa(dp7
g3
VMaybe many people ask Where Was Shakespeare Born? here the answer. William Shakespeare was a playwright and actor who has appeared in England in the latter part of ...
p8
sg5
VWhere Was Shakespeare Born
p9
sa(dp10
g3
VWilliam Shakespeare was born on 23rd of April 1564 in Stratford-upon-Avon, Warwickshire, England. It is a market town and civil parish in south Warwickshire, England ...
p11
sg5
VWhen and where was William Shakespeare born and when did he die
p12
sa(dp13
g3
VWhen was Shakespeare born? ... What religion was William Shakespeare? Read More Read Less What is Shakespeare famous for? Read More Read Less. How did ...
p14
sg5
VShakespeare FAQs - Shakespeare Birthplace Trust
p15
sa(dp16
g3
VAlso on This Day Lead Story William Shakespeare born, 1564 American Revolution John Paul Jones burns Whitehaven, England, 1778
p17
sg5
VWilliam Shakespeare born \u2014 History.com This Day in History \u2014 4 ...
p18
sa(dp19
g3
VWhere was Shakespeare Born? William\u2019s father, John Shakespeare, owned a large family house in the town center which is presumed to be the birthplace of the Bard.
p20
sg5
VWhere was Shakespeare Born?
p21
sa(dp22
g3
VWilliam Shakespeare (26 April 1564 (baptised) \u2013 23 April 1616) [nb 1] was an English poet and playwright, widely regarded as the greatest writer in the English ...
p23
sg5
VWilliam Shakespeare - Wikipedia, the free encyclopedia
p24
sa(dp25
g3
V"Some are born great, some achieve greatness, and some have greatness thrust upon them." ... William Shakespeare married Anne Hathaway on November 28, 1582, ...
p26
sg5
VWilliam Shakespeare Biography - Facts, Birthday, Life Story ...
p27
sa(dp28
g3
VWilliam Shakespeare is a great poet and playwrite. He has written many famous poems in English. He is often referred to as national poet of England because of the ...
p29
sg5
VWhen Was William Shakespeare Born
p30
sa(dp31
g3
VWilliam Shakespeare, the greatest English poet and playwright, was born at Stratford-upon-Avon on April 23, 1564. The poet\u2019s birthplace is getting ready to ...
p32
sg5
VRecalling William Shakespeare | The Daily Star
p33
sa(dp34
g3
V1564 - William Shakespeare is born in April (probably the 23rd) in Stratford-On-Avon (94 miles from London.) 1582 - Marries Anne Hathaway on November 27.
p35
sg5
VWilliam Shakespeare - Complete Works of Shakespeare, Biography ...
p36
sa(dp37
g3
VWilliam Shakespeare Biography describes the life of William Shakespeare. From birth to death, Shakespeare ... William was born in 1564.
p38
sg5
VShakespeare Biography at AbsoluteShakespeare.com
p39
sa(dp40
g3
VWhen Was William Shakespeare Born And When Did He Die - This article is based on When Was William Shakespeare Born And When Did He Die. An English playwright and poet ...
p41
sg5
VWhen Was William Shakespeare Born
p42
sa(dp43
g3
VWilliam Shakespeare was born in Stratford-upon-Avon on April 23, 1564. It is believed that Shakespeare obtained his primary education from Stratford Grammar School ...
p44
sg5
VWilliam Shakespeare | Biography, Books and Facts
p45
sa(dp46
g3
VBest Answer: William Shakespeare (baptised 26 April 1564; died 23 April 1616)[nb 1] was an English poet and playwright, widely regarded as the greatest ...
p47
sg5
V(a) When was William Shakespeare born ? (b) Where was he buried ...
p48
sa(dp49
g3
VWilliam Shakespeare was born on April 23, 1564, in Stratford-on-Avon. The son of John Shakespeare and Mary Arden, he was probably educated at the King Edward IV ...
p50
sg5
VWilliam Shakespeare- Poets.org - Poetry, Poems, Bios & More
p51
sa(dp52
g3
VWilliam Shakespeare (1564-1616), ... the first of the four sons born to John Shakespeare (c1530-1601) and Mary Arden (c1540-1608), who also had four daughters.
p53
sg5
VWilliam Shakespeare - Biography and Works. Search Texts, Read ...
p54
sa(dp55
g3
VWilliam Shakespeare was born in the town of Stratford-upon-Avon in Warwickshire, England.
p56
sg5
VWhere was William Shakespeare born - The Q&A wiki
p57
sa(dp58
g3
VWilliam Shakespeare William Shakespeare was born, lived and lies buried in Stratford-upon-Avon. William Shakespeare, 1564-1616 William Shakespeare ...
p59
sg5
VWilliam Shakespeare
p60
sa(dp61
g3
VWilliam, the eldest son, was born in 1564, probably on April 23, several days before his baptism on April 26, 1564. ... William Shakespeare died on April 23, ...
p62
sg5
VWilliam Shakespeare Shakespeare Biography
p63
sa(dp64
g3
VWilliam Shakespeare\u2019s purse must have made a considerable difference. The prosecutions for debt ceased, ... of Sir William D~venant, who was born in February 1606.
p65
sg5
VBiography of William Shakespeare
p66
sa(dp67
g3
VWithin the class system of Elizabethan England, William Shakespeare did not seem destined for greatness. He was not born into a family of nobility or significant wealth.
p68
sg5
VThe Life of William Shakespeare (1564\u20131616) | Shakespeare in ...
p69
sa(dp70
g3
VYoung William was born of John Shakespeare, a glover and leather merchant, and Mary Arden, a landed local heiress. William, according to the church register, was the ...
p71
sg5
VShakespeare Resource Center - Shakespeare's Biography
p72
sa(dp73
g3
VWilliam Shakespeare was born in Stratford-upon-Avon, a bustling market town 100 miles northwest of London, and baptized there on April 26, 1564.
p74
sg5
VWilliam Shakespeare \u2014 History.com Articles, Video, Pictures and ...
p75
sa(dp76
g3
VWilliam Shakespeare was born on April 23, 1564 to John Shakespeare and Mary Arden in Stratford-upon-Avon who by today's standards would be considered middle-class.
p77
sg5
VWelcome To the William Shakespeare Home Page!
p78
sa(dp79
g3
VThis is where the Shakespeare story began. Shakespeare's Birthplace has been welcoming visitors for over 250 years. William Shakespeare was born, grew up and he ...
p80
sg5
VShakespeare's Birthplace - Shakespeare Birthplace Trust
p81
sa(dp82
g3
Vshakespeare.com - also known as The Shakespeare Web - has returned to its original home, after an absence of several years. It is undergoing a sea change, into ...
p83
sg5
VShakespeare
p84
sa(dp85
g3
VA biography of William Shakespeare and analysis of his poetic ... John and Mary Arden Shakespeare were his parents. He was born in the little town of Stratford ...
p86
sg5
VWilliam Shakespeare
p87
sa(dp88
g3
VWhen & Where was William Shakespeare born? Where was he baptised? Why is there confusion regarding his date of birth? 1558 - 1580:
p89
sg5
VWilliam Shakespeare Biography
p90
sa(dp91
g3
VAs Dennis Kay proposes in his book Shakespeare: If Shakespeare was indeed born on Sunday, April 23, ... William Shakespeare of Stratford: Shakespeare's Birth.
p92
sg5
VShakespeare's Birth
p93
sa(dp94
g3
VWilliam Shakespeare Biography - The Parents of William Shakespeare JOHN SHAKESPEARE ( FATHER ) - THE EARLY YEARS John Shakespeare was born in 1531.
p95
sg5
VThe Parents of William Shakespeare
p96
sa(dp97
g3
VWilliam Shakespeare was born in Stratford-upon-Avon in April 1564, and his birth is traditionally celebrated on April 23. The facts of his life, known from surviving ...
p98
sg5
VAmazon.com: William Shakespeare: Books, Biography, Blog ...
p99
sa(dp100
g3
VThe most well known of Stratford-upon-Avon citizens is William Shakespeare, born in 1564 exact date unknown but he was baptised on 26th April 1564.
p101
sg5
VStratford-upon-Avon's William Shakespeare
p102
sa(dp103
g3
VWould you like to learn about William Shakespeare? ... Where Was Shakespeare Born? Where better to start than with the birth of William Shakespeare back in 1564.
p104
sg5
VAbout William Shakespeare - Shakespeare \u2013 Free Shakespeare ...
p105
sa(dp106
g3
VShakespeare was born and raised in Stratford-upon-Avon. ... \u2015 William Shakespeare, A Midsummer Night's Dream. tags: love. 15,020 people liked it.
p107
sg5
VWilliam Shakespeare (Author of Romeo and Juliet)
p108
sa(dp109
g3
VAn in-depth and accurate biography of William Shakespeare, from your trusted Shakespeare source
p110
sg5
VShakespeare's Biography: Information on Shakespeare's Parents ...
p111
sa(dp112
g3
VVisit this site dedicated to the playwright William Shakespeare and his famous works. William Shakespeare plays like Hamlet, Othello, King Lear, Macbeth and the Tempest.
p113
sg5
VWILLIAM SHAKESPEARE
p114
sa(dp115
g3
VWhere was William Shakespeare born? Stratford-upon-Avon, Warwickshire was birthplace of William Shakespeare. Now known as Shakespeare Counrty, come and v isit the ...
p116
sg5
VBirthplace of William Shakespeare
p117
sa(dp118
g3
VWilliam Shakespeare is born in Stratford-upon-Avon (the third child born to John and Mary and then their only child, following the infant deaths of Joan and ...
p119
sg5
VShakespeare Timeline | William Shakespeare Facts
p120
sa(dp121
g3
VWilliam Shakespeare, - sometimes, called the "BARD OF AVON", was born, ... William Shakespeare was born in Stratford-upon-Avon, a small country town.
p122
sg5
VWhere was Shakespeare born? - Yahoo! Answers
p123
sa(dp124
g3
VWilliam Shakespeare was born in Stratford-upon-Avon in Warwickshire and was baptised a few days later on 26 April 1564. His father, John Shakespeare, was a glove ...
p125
sg5
VBBC History - William Shakespeare
p126
sa(dp127
g3
VWilliam Shakespeare was born in Stratford-upon-Avon, a small country town. Stratford was famous for its malting. The black plague killed in 1564 one out of seven ...
p128
sg5
VWilliam Shakespeare - www.kirjasto.sci.fi
p129
sa(dp130
g3
VThe English playwright, actor and poet William Shakespeare is thought to have been born as the son of the shop owner John Shakespeare and his wife Mary, nee Arden, on ...
p131
sg5
VWilliam Shakespeare Biography - Infos - Art Market
p132
sa(dp133
g3
VWilliam Shakespeare: The Complete Works, The Complete Pelican Shakespeare, general editor Alfred Harbage ... Whether Shakespeare was born on 23 April, ...
p134
sg5
VWilliam Shakespeare Biography - Brandeis Users' Home Pages
p135
sa(dp136
g3
VWatch videos & listen free to William Shakespeare: 2 - Act 2, Sonnet 18 & more, plus 7 pictures. There are ... (born 1950), also known as John Cabe or Billy Shake.
p137
sg5
VWilliam Shakespeare \u2013 Free listening, concerts, stats ...
p138
sa(dp139
g3
VWilliam Shakespeare, Stratford on Avon, ... and under that was I born."-- Spoken by Beatrice in an exchange with Don Pedro: Act II. Scene I, "Much Ado About Nothing"
p140
sg5
VWilliam Shakespeare | Facebook
p141
sa(dp142
g3
VWILLIAM SHAKESPEARE. A story by Jonathan Henshaw - E-mail ... was William, was born, and grew up in a place called Stratford-upon-Avon in England.
p143
sg5
VWILLIAM SHAKESPEARE - Explorations...
p144
sa(dp145
g3
VWilliam Shakespeare, the best-known figure in Renaissance literature, if not all of literature, was born April 23, 1564 in Stratford-upon-Avon ...
p146
sg5
VWilliam Shakespeare - Yahoo! Voices - voices.yahoo.com
p147
sa(dp148
g3
VThe house remained in the family until it was handed down for the final time to William Shakespeare\u2019s daughter and, given that he was born in 1564, ...
p149
sg5
VShakespeare's Birthplace - Wikipedia, the free encyclopedia
p150
sa(dp151
g3
VIt wasn't where he was born: Stratford is still a pretty small town even today. ... What is the intended audience of the play Macbeth by William Shakespeare?
p152
sg5
VWilliam Shakespeare Study Guide & Homework Help - eNotes.com
p153
sa(dp154
g3
VIt wasn't where he was born: Stratford is still a pretty small town even today. ... What is the intended audience of the play Macbeth by William Shakespeare?
p155
sg5
VWilliam Shakespeare Study Guide & Homework Help - eNotes.com
p156
sa(dp157
g3
VWilliam Shakespeare is regarded as the greatest writer and poet ever known in the English language who authored world's ... son Hamnet and daughter Judith were born.
p158
sg5
VWilliam Shakespeare Biography - William Shakespeare Childhood ...
p159
sa(dp160
g3
VWilliam Shakespeare, Shakespeare also spelled Shakspere, ... born to William Shakespeare, was baptized on May 26, 1583. On February 2, 1585, twins were baptized, ...
p161
sg5
VWilliam Shakespeare (English author) -- Encyclopedia Britannica
p162
sa(dp163
g3
VWilliam Shakespeare. Born: 23-Apr-1564 Birthplace: Stratford-upon-Avon, England Died: 23-Apr-1616 Location of death: Stratford-upon-Avon, England Cause of death ...
p164
sg5
VWilliam Shakespeare
p165
sa(dp166
g3
VThe English playwright, poet, and actor William Shakespeare was a popular dramatist. He was born six years after Queen Elizabeth I (1533\u20131603) ascended the ...
p167
sg5
VWilliam Shakespeare Biography - life, family, children, story ...
p168
sa(dp169
g3
VShakespeare was born in Stratford-upon-Avon in England on April 23 1564. ... William Shakespeare was an English poet and playwright,widely regarded as ...
p170
sg5
VWilliam Shakespeare Biography - Essay - Bbnomuzzle15
p171
sa(dp172
g3
VBlog posts mentioning William Shakespeare. Dick Francis, Reliable 'Jeopardy!' Answer, Dead at 89; ... Their daughter Susannah was born in 1583, ...
p173
sg5
VWilliam Shakespeare Biography - Birthday, Photos - Who2.com
p174
sa(dp175
g3
Villiam Shakespeare was born in April of 1564. There is no specific date of birth because at that time the only date of importance was the date of baptism, though ...
p176
sg5
VWilliam Shakespeare Biography - William Shakespeare Biography for Kids
p177
sa(dp178
g3
VWilliam Shakespeare quotes such as "To be, or not to be" and "O Romeo, Romeo! wherefore art thou ... "Be not afraid of greatness: some are born great, ...
p179
sg5
VWilliam Shakespeare Quotes at AbsoluteShakespeare.com
p180
sa(dp181
g3
V1564 April 23 William Shakespeare was born; 1582 November 28, A Marriage Bond on the episcopal register records issue to William Shagspeare and Anne Hathwey of ...
p182
sg5
VWilliam Shakespeare - ELIZABETHAN ERA
p183
sa(dp184
g3
VWelcome to the latest edition of Mr. William Shakespeare and the Internet. ... William Warburton (1698 - 1779) was born the son of a Newark attorney.
p185
sg5
VMr. William Shakespeare and the Internet
p186
sa(dp187
g3
VWilliam Shakespeare (April 1564 \u2013 23 April 1616) was an English author who wrote 38 plays and also many poems in his lifetime. He lived in Stratford-upon-Avon, in ...
p188
sg5
VWilliam Shakespeare - Simple English Wikipedia, the free encyclopedia
p189
sa(dp190
g3
VWilliam Shakespeare was born in April, 1564 in Stratford-upon-Avon, Warwickshire, about 100 miles northwest of London. According to the records of Stratford's Holy ...
p191
sg5
VWilliam Shakespeare Biography - Books & Literature Classics
p192
sa(dp193
g3
VAnswer (1 of 6): William Shakespeare was an English writer acclaimed as the greatest of all English writers. He is also one of the greatest writers in western literature.
p194
sg5
VWhere Was William Shakespeare Born? - Blurtit
p195
sa(dp196
g3
VWilliam Shakespeare born, Stratford-upon-Avon. The traditional "April 23" part is a guess. 27 Nov 1582: William Shakespeare and Anne Hathaway marry. 1585: The Hidden ...
p197
sg5
VWilliam Shakespeare - rotten.com: This is rotten dot com
p198
sa(dp199
g3
VBiography of Williams Shakespeare William Shakespeare was an English poet and playwright, ... Shakespeare was born and raised in Stratford-upon-Avon; ...
p200
sg5
VBiography of William Shakespeare
p201
sa(dp202
g3
VWilliam Shakespeare (1564 - 1616) has a reputation reveled, ... After Shakespeare\u2019s children were born, the historical record becomes sketchy from 1585 through 1592.
p203
sg5
VWilliam Shakespeare - English Author - Biography
p204
sa(dp205
g3
VShakespeare was born and raised in Stratford-upon-Avon. At the age of 18 he married Anne Hathaway, ... The Plays of William Shakespeare. By Sir John Gilbert, 1849.
p206
sg5
VWilliam Shakespeare - 2008/9 Wikipedia Selection for schools
p207
sa(dp208
g3
VSmart, fresh history of William Shakespeare Biography by PhDs and Masters from Stanford, Harvard, Berkeley. ... Shakespeare was born during the Renaissance, ...
p209
sg5
VWilliam Shakespeare: Biography - Shmoop: Homework Help, Teacher ...
p210
sa(dp211
g3
VWilliam Shakespeare, - sometimes, called the "BARD OF AVON", was born, ... William Shakespeare was born in Stratford-upon-Avon, a small country town.
p212
sg5
VWhere was Shakespeare born? - Yahoo! UK & Ireland Answers
p213
sa(dp214
g3
VWilliam Shakespeare (bapteesed 26 Aprile 1564 \u2013 23 Aprile 1616) wis an Inglis makar an playwricht , nou cried the brawest writer in the Inglis leid an the warld's ...
p215
sg5
VWilliam Shakespeare - Wikipedia
p216
sa(dp217
g3
VThe life and works of William Shakespeare. WILLIAM SHAKESPEARE @ WILLIAMSHAKESPEARES.COM ... That ever I was born to set it right! -Hamlet I,v (William Shakespeare)
p218
sg5
VWilliamShakespeares.com WILLIAM SHAKESPEARE: Hamlet & Shakespeare ...
p219
sa(dp220
g3
VShakespeare, William, 1564\u20131616, English dramatist and poet, b. ... They had three children: Susanna, born in 1583, and twins, Hamnet and Judith, born in 1585.
p221
sg5
VShakespeare, William definition of Shakespeare, William in the ...
p222
sa(dp223
g3
VWilliam Shakespeare is the most widely taught playwright in the English language. By 1588, Shakespeare had left his wife and children to live in London as an actor.
p224
sg5
VIn 1564, William Shakespeare was born on this day. - ReadWriteThink
p225
sa(dp226
g3
VWilliam Shakespeare was born on April 23, 1564 to an affluent family in Stratford-on-Avon, England. His father, John Shakespeare was a public official and his ...
p227
sg5
VWilliam Shakespeare - Welcome to Whyville!
p228
sa(dp229
g3
VIn his will Shakespeare left his wife the 'second-best bed'. Pencils were invented about the time Shakespeare was born. In winter rich people watched plays indoors by ...
p230
sg5
VBBC - Primary History - Famous People - William Shakespeare
p231
sa(dp232
g3
VThey had three children: Susanna, born in 1583, and twins, Hamnet and Judith, born in 1585. ... More on William Shakespeare Life from Infoplease:
p233
sg5
VWilliam Shakespeare: Life | Infoplease.com
p234
sa(dp235
g3
VBelow is a range of 30 little known facts about William Shakespeare. ... Their first child was born six months after the wedding. William Shakespeare Facts: 4.
p236
sg5
VShakespeare Facts: 30 Interesting Facts About William Shakespeare
p237
sa(dp238
g3
VWelcome to the Web's first edition of the Complete Works of William Shakespeare. This site has offered Shakespeare's plays and poetry to the Internet community since ...
p239
sg5
VThe Complete Works of William Shakespeare
p240
sa(dp241
g3
VWilliam Shakespeare, by universal consent the greatest author of England, if not of the world, ... Two girls and a boy were born from it.
p242
sg5
VWilliam Shakespeare - A History of English Literature
p243
sa(dp244
g3
VWilliam Shakespeare was born in Stratford-upon-Avon, baptized on 26 April 1564, according to the parish register of the Holy Trinity Church. His birthday is popularly ...
p245
sg5
VShakespeare - www.watson.org
p246
sa(dp247
g3
VA biography of English dramatist William Shakespeare; includes a list of related links. ... Two girls were born and died in infancy. William, the third child, ...
p248
sg5
VWilliam Shakespeare - Theatre Database
p249
sa(dp250
g3
V1000 William Shakespeare - Known during his lifetime as a gifted actor, ... and under that was I born." \u2014 William Shakespeare Add Category or Author. Add Category.
p251
sg5
VWilliam Shakespeare - 1000 quotes - Famous Quotes - Over 2.5 ...
p252
sa(dp253
g3
VWilliam Shakespeare's Romeo and Juliet (1996) Like. 3. Yahoo! users: star3plus3.68. ... If you like your Shakespeare with a modern twist and rather over-the-top, ...
p254
sg5
VWilliam Shakespeare's Romeo and Juliet | Trailer and Cast - Yahoo ...
p255
sa(dp256
g3
V1000 William Shakespeare quotes - Little is known of William Shakespeare's early years, except that he was born in Stratford-upon-Avon in 1564 and married Anne ...
p257
sg5
VWilliam Shakespeare Quotes 1000 quotes by William Shakespeare
p258
sa(dp259
g3
VWilliam Shakespeare. 1564-1616. ... It is thought that Shakespeare was born in Henley Street in Stratford in 1564 \u2013 the son of John Shakespeare ...
p260
sg5
VWilliam Shakespeare - Poets Graves
p261
sa(dp262
g3
VART OF EUROPE. poetry | prints | cine | home. William Shakespeare - poetry, poems. so, the leonardo o' lit, christopher marlowe, was born in crewe alexandra (which is ...
p263
sg5
VWilliam Shakespeare - poetry, poems
p264
sa(dp265
g3
VBorn, Stratford-on-Avon, 1564 Died, Stratford, 1616. This document was originally published in Minute History of the Drama. ... "William Shakespeare, Gent."
p266
sg5
VWilliam Shakespeare - TheatreHistory.com
p267
sa(dp268
g3
VWilliam Shakespeare's works are celebrated on Shakespeare Day. ... where Shakespeare was born and where thousands of tourists go each year to see his plays performed.
p269
sg5
VShakespeare Day in United Kingdom
p270
sa(dp271
g3
VWilliam Shakespeare scarcely needs an introduction. Born in 1564, he was an English playwright, poet, actor, favorite dramatist of queens and kings, inventor of words ...
p272
sg5
VWilliam Shakespeare - Shmoop: Homework Help, Teacher Resources ...
p273
sa(dp274
g3
VShakespeare was born and raised in Stratford-upon-Avon. At the age of 18, ... William Shakespeare's Works: List of Works Classification of The Plays
p275
sg5
VThe biography of William Shakespeare
p276
sa(dp277
g3
VWhere was William Shakespeare born& raised? William Shakespeare, the famous English poet and playwright was born on April 23, 1564, in Stratford-upon-Avon in England.
p278
sg5
VWhere was William Shakespeare born& raised? | Answerbag
p279
sa(dp280
g3
VSusanna was born in May of 1583, twins Hamnet and Judith in January of 1585. ... William Beeston, son of Shakespeare's friend actor Charles Beeston, ...
p281
sg5
VWilliam Shakespeare (I) - Biography
p282
sa(dp283
g3
VWhen was William Shakespeare born - trivia question /questions answer / answers
p284
sg5
VWhen was William Shakespeare born? - Fun Trivia Quizzes - World's ...
p285
sa(dp286
g3
VEnglish playwright and poet William Shakespeare was born on this date in 1564.
p287
sg5
VEnglish playwright and poet William Shakespeare was born on this ...
p288
sa(dp289
g3
VWilliam Shakespeare was born to John Shakespeare, who was a successful alderman from Snitterfield, and Mary Arden, who was the daughter of a rich farmer.
p290
sg5
VWhere Did William Shakespeare Live For Most Of His Life
p291
sa(dp292
g3
VWilliam Shakespeare was born in Stratford-upon-Avon, purportedly on April 23, 1564. William was born of John Shakespeare, a glover and leather merchant, ...
p293
sg5
VAutobiography of william shakespeare - Shakespeare's Closet Online
p294
sa(dp295
g3
VEnjoy the best William Shakespeare Quotes at BrainyQuote. Quotations by William Shakespeare, English Dramatist, Born April 26, 1564. Share with your friends.
p296
sg5
VWilliam Shakespeare Quotes - BrainyQuote
p297
sa(dp298
g3
V1564 The Bard is born. The baptism of a child that may or may not be similar in appearance to one William Shakespeare Somewhere around April 23rd, in Stratford-upon ...
p299
sg5
VIn Search of Shakespeare . The Bard is born | PBS
p300
sa(dp301
g3
VWhile William Shakespeare's reputation is based primarily on his plays, he became famous first as a poet. With the partial exception of the Sonnets (1609), quarried ...
p302
sg5
VWilliam Shakespeare : The Poetry Foundation
p303
sa.