(lp1
(dp2
S'description'
p3
VThe investigation went on for seven years, and in 1990 Padre Pio was declared a Servant of God, the first step in the progression to canonization.
p4
sS'title'
p5
VPio of Pietrelcina - Wikipedia, the free encyclopedia
p6
sa(dp7
g3
VAfter three years of temporary profession, Padre Pio took his final vows in 1907. Then on ... even to die of suffering, ... Padre Pio did this.
p8
sg5
VPadre Pio The Man - Biography - EWTN Global Catholic Television ...
p9
sa(dp10
g3
VPadre Pio died on September 23, 1968, in San Giovanni Rotondo, Foggia, Italy of natural causes.
p11
sg5
VWhen did Padre Pio die - The Q&A wiki
p12
sa(dp13
g3
VPadre Pio, the Capuchin friar well known over the world and spoken of as the priest with special supernatural gifts, died ... Eight years later, ...
p14
sg5
VDEATH OF PADRE PIO - EWTN Global Catholic Television Network
p15
sa(dp16
g3
V... Close Encounters of the Special Kind with PADRE PIO ... eating; second inquisition, last ten years, death; the ... I felt that I would die.
p17
sg5
VPadre Pio bio, English - In
p18
sa(dp19
g3
VThe Pope, a devotee of Padre Pio, bears witness to a prediction made by Padre Pio many years earlier ... die on the cross, I humbly entreat Thee to glorify in
p20
sg5
VPadre Pio - Apparitions and pictures of Virgin Mary
p21
sa(dp22
g3
VMy side had already been wounded on the fifth of August of the same year.\u201d Padre Pio would bear the wounds for fifty years. ... What did Padre Pio say to Father ...
p23
sg5
VSaint Padre Pio, the priest with the stigmata
p24
sa(dp25
g3
VThis particular vision petrified Padre Pio for 20 years. The day ... Jesus that I could soon die of ... Padre Pio was asked, \u201cDid Jesus show you the places ...
p26
sg5
VLife of Padre Pio - Servants of the Pierced Hearts of Jesus and Mary
p27
sa(dp28
g3
VFrancesco was ordained to the priesthood in 1910 after seven years of study and became known as Padre Pio. ... Did St. Padre Pio really insist that women wear dresses ...
p29
sg5
VSt. Pio of Pietrelcina (Padre Pio) - Saints & Angels - Catholic Online
p30
sa(dp31
g3
VIn the year of 1918, ... which Padre Pio did for more than ten hours each and every day. Most often, he knew what was in the people's hearts before they confessed.
p32
sg5
VWhat did Padre Pio do - The Q&A wiki
p33
sa(dp34
g3
VPadre Pio is now Saint Padre Pio. He was canonized by Pope John Paul II on June 16, 2002. For many years in the past, thousands of people have climbed ...
p35
sg5
VPadre Pio - SSPX in Canada - Latin Mass
p36
sa(dp37
g3
VThe woman was in good health when she asked the question, but she did, in fact, die before Padre Pio. ... outliving Padre Pio by eleven years.
p38
sg5
VPADRE PIO: STIGMATIST PRIEST - WELCOME TO CATHOLIC TRADITION
p39
sa(dp40
g3
VPadre Pio and the Stigmata . Padre Pio bore the wounds of Jesus on his hands, feet, and side for 50 years. ... I thought I should die and really should have died if ...
p41
sg5
VPadre Pio and the Stigmata
p42
sa(dp43
g3
V... a Franciscan Capuchin priest who bore the five wounds of Jesus Christ on his body visibly for more than fifty years. Padre Pio ... or, if I did not die ...
p44
sg5
VPadre Pio - Catholic Church
p45
sa(dp46
g3
VFor Padre Pio, faith was life: he willed everything and did everything in the light of faith. ... barely three years after the death of Padre Pio, ...
p47
sg5
VPadre Pio da Pietrelcina (1887-1968) - Vatican: the Holy See
p48
sa(dp49
g3
VHe showed the puncture wounds on his hands to Pannullo on September 7 of that year. A doctor examined Padre Pio and diagnosed ... his greatest wish was to die.
p50
sg5
VPadre Pio Facts, information, pictures | Encyclopedia.com articles ...
p51
sa(dp52
g3
VPadre Pio (Francesco Forgione ... and side for fifty years. In addition, God endowed Padre Pio with many extraordinary spiritual gifts and charisms including the gift ...
p53
sg5
VA Short Biography - Padre Pio Devotions
p54
sa(dp55
g3
VWe hope you will enjoy the new look and feel of our Padre Pio Devotions website. It now provides for much better accessibility and viewing in all browsers and mobile ...
p56
sg5
VWelcome - Padre Pio Devotions
p57
sa(dp58
g3
VThe Superior asked Padre Pio: "Where did you get all these ... news for a year, ... body even though the doctor had told me my daughter was going to die.
p59
sg5
VFather Pio's Miracles
p60
sa(dp61
g3
VPadre Pio was asked: "Did you really talk to him, ... "I am Padre Pio and you will not die. ... About a year later, she went to see Padre Pio.
p62
sg5
VInfallible Catholic: Padre Pio on Bilocation
p63
sa(dp64
g3
VPadre Pio was born of simple, hardworking farming people on May 25, 1887 in Pietrelcina, southern Italy. He was tutored privately until his entry to the novitiate of ...
p65
sg5
VSt. Pio
p66
sa(dp67
g3
VAfter three years of temporary profession, Padre Pio took his final vows in 1907. ... even to die of suffering, ... Padre Pio did this.
p68
sg5
VHistory of Padre Pio
p69
sa(dp70
g3
VDoctors diagnosed him as consumptive and were sure he would die. Strong in spirit Pio received the Capuchin ... 1918, Padre Pio told his ... Fifty years lived ...
p71
sg5
VBIOGRAPHY - San Pio da Pietrelcina
p72
sa(dp73
g3
VThe Padre Pio Foundation of America, Inc. ... Welcome to the Padre Pio Foundation of America. Celebrating 35 years! Join US!
p74
sg5
VPadre Pio Foundation of America
p75
sa(dp76
g3
VFor two years Padre Pio was forbidden to offer Mass in public, ... During the last days of his life he spoke often to his brothers about his desire to die, ...
p77
sg5
VSaint Pio of Pietrelcina: A Short Biography of the Padre ...
p78
sa(dp79
g3
VThe stigmata of Padre Pio would ... for the last 50 years of his life. Padre Pio\u2019s stigmata would become the ... to repair the damage or she would die.
p80
sg5
VThe Stigmata of Padre Pio - Historic Mysteries
p81
sa(dp82
g3
VHELP!!! I'm depressed! I don't wanna die young,I'm only 23 ... Dear Padre Pio, It has been almost a year since my last prayer for justice in a case I ...
p83
sg5
VA Catholic Life: The Miracles of St. Padre Pio
p84
sa(dp85
g3
VWhen the priest left, she saw a monk: "I am Padre Pio and you will not die. ... About a year later, she went to see Padre Pio. He told her: ...
p86
sg5
VInfallible Catholic: Padre Pio on the Gift of Healing
p87
sa(dp88
g3
VIn a week you are going to die." ... The journalist Renato Trevisani reported that Padre Pio saw the 35 years old Pasquale ... was suggested to pray Padre Pio. She did.
p89
sg5
VPadre Pio biography English; Close Encounters of the special kind ...
p90
sa(dp91
g3
VThis vivid experience of the Mass, sacrifice of Christ, was that of Padre Pio during his 58 years of priesthood. And he ... \u2013 Do you also die at the Holy Mass?
p92
sg5
VThe Holy Mass of Saint Padre Pio - Official site Michael Journal ...
p93
sa(dp94
g3
VFor the last 50 years of his life he bore the marks of stigmata (the wounds of Jesus) ... How old was Padre Pio when he died? Where did Padre Pio die?
p95
sg5
VWho was Padre Pio? | Answers Encyclopedia: Facts and answers ...
p96
sa(dp97
g3
VWhat did Padre Pio say to Father Wojtyla? We don\u2019t ... \u2018I thought I would die, ... For the next fifty years they would confound impartial ...
p98
sg5
VSpiritual Gifts of Padre Pio | Catholic Expression
p99
sa(dp100
g3
VDid You Know that Padre Pio Agonized Over Whether to ... Do you know many sixteen year olds striving to enter ... Are We Catholics Willing to Die for the Sake ...
p101
sg5
VDid You Know that Padre Pio Agonized Over Whether to Become a ...
p102
sa(dp103
g3
VDuring the next few years Padre Pio was ... the medical authorities involved confessed to being unable to explain the cures of patients they fully expected to die.
p104
sg5
VMystics of the Church: Padre Pio -The Saint who wore gloves
p105
sa(dp106
g3
VSaint Padre Pio and some of his Miracles of the Cross. ... for almost a year. So from the time of his ordination, at twenty three years old, ...
p107
sg5
VSaint Padre Pio - Discover Catholic Miracles
p108
sa(dp109
g3
VHave you seen Padre Pio? And what, did he tell you?" ... Please St.Padre Pio heal my 5 year old nephew of cancer. ... he\u2019s die first we all thought .
p110
sg5
VMiracles of the Saints: Bilocation of St Padre Pio
p111
sa(dp112
g3
VI thought I should die and really should have died if the Lord had not intervened and ... I have loved St. Padre Pio for many years and really appreciate this ...
p113
sg5
VSaints Alive! Padre Pio and the Stigmata: Sanctity on Trial
p114
sa(dp115
g3
VThe final year of this dying, decaying century will see the beatification of Padre Pio, ... Padre Pio, seated in his open confessional, ...
p116
sg5
VPadre Pio : on Spirituality, Vatican II and the Novus Ordo Missae
p117
sa(dp118
g3
VThose who suffer and die innocently will be martyrs and they will be with Me in My Kingdom. Satan will ... Padre Pio: 50 Years of Thorns and Roses - 1 hour video:
p119
sg5
VMessages by Jesus to Padre Pio
p120
sa(dp121
g3
VNEW YEAR'S EVE 1949: Jesus ... Jesus to Padre Pio "Take care ... many shall die from fear and despair." "On that ...
p122
sg5
VPadre Pio - Visions of Jesus - Heaven-Speaks.com
p123
sa(dp124
g3
VDid Padre Pio's prayer and crucifix awake her for this final grace? 2 Mrs. Collins, age 52, cancer for 10 years, part of jaw and tongue were removed.
p125
sg5
VAn Introduction to Padre Pio
p126
sa(dp127
g3
VI thought I should die and really should have died ... that Padre Pio did ... and mittens that he has worn for many years. . . . Padre Pio never talks about ...
p128
sg5
VPADRE PIO: STIGMATIST PRIEST - WELCOME TO CATHOLIC TRADITION
p129
sa(dp130
g3
VBut Padre Pio of Pietrelcina, who died on September 23, 1968, ... In September of that year, he was sent to the friary of San Giovanni Rotondo, ...
p131
sg5
VPadre Pio
p132
sa(dp133
g3
VPrayer for Padre Pio's Intercession. Gracious ... so impelled by love for us that you willed to die on the ... Happy_New_Year_2000 || St. Valentines Day ...
p134
sg5
VThe Power of Prayer...Padre Pio - Gloria's Catholic/Christian ...
p135
sa(dp136
g3
VPadre Pio did this. ... A year later, Padre Pio announced plans for a medical and religious center where doctors and interns could ... even to die of suffering, but ...
p137
sg5
Vpadre pio (Padre Pio) on Myspace
p138
sa(dp139
g3
VBody of controversial saint Padre Pio exhumed for public display 40 years after his death. By NICK PISA. Last updated at 16:19 04 March 2008
p140
sg5
VBody of controversial saint Padre Pio exhumed for public display ...
p141
sa(dp142
g3
VAt the end of his novitiate year he took simple vows, and on 27 January ... Lanka honours Saint Padre Pio with first-ever shrine in Asia THE SUNDAY ...
p143
sg5
VSaint Padre Pio Shrine - Athurugiriya
p144
sa(dp145
g3
VVATICAN CITY (Reuters) - Padre Pio, the 20th century Italian mystic monk and miracle worker who for 50 years is said to have had the stigmata -- the bleeding ...
p146
sg5
VPadre Pio Now A Saint - Wrestled With Devil, Predicted Future
p147
sa(dp148
g3
VDid Padre Pio Predict the Three Days of ... Prophecy of the 3 Days of Darkness attributed to Padre Pio . New Year's Eve ... , many shall die from fear and ...
p149
sg5
V"Europe will be afflicted by horrable punishments, when the papal ...
p150
sa(dp151
g3
VJohn Paul visited San Giovanni Rotondo in 1987 to mark 100 years since Padre Pio's birth. But Benedict is making his second papal visit to the Puglia region in June, ...
p152
sg5
VPadre Pio, Pope Benedict: Soul Mates? - TIME
p153
sa(dp154
g3
VJohn Paul visited San Giovanni Rotondo in 1987 to mark 100 years since Padre Pio's birth. But Benedict is making his second papal visit to the Puglia region in June, ...
p155
sg5
VPadre Pio, Pope Benedict: Soul Mates? - TIME
p156
sa(dp157
g3
VDuring his first few years as a Capuchin ... off from work and say good-bye to his family because he was going to die soon. The policeman obeyed Padre Pio and, ...
p158
sg5
VPadre Pio
p159
sa(dp160
g3
VPadre Pio is a hero of mine. I am not a Catholic, but Jewish by birth, and a lifelong student of global spirituality. I lived in India for five years and ...
p161
sg5
VRichard Schiffman: Did Padre Pio Fake His Stigmata Wounds?
p162
sa(dp163
g3
VI thought I should die and really should have died if the Lord had not intervened and strengthened my heart ... kept Padre Pio under surveillance for 50 years, ...
p164
sg5
VBlood brother: Padre Pio | Articles | Features | Fortean Times UK
p165
sa(dp166
g3
VSt. Padre Pio of Pietrelcina ... , he bore the painful wounds for fifty years. In addition, God endowed Padre Pio with many extraordinary spiritual gifts and ...
p167
sg5
VSt. Padre Pio - Capuchin Franciscan Vocation Page of Western America
p168
sa(dp169
g3
VDid Padre Pio receive a revelation ... lived and worked alongside Padre Pio for many years in Our Lady of Grace ... \u201c . . . only those who die as baptized ...
p170
sg5
VPadre Pio on Salvation Outside the Church
p171
sa(dp172
g3
V... to keep wounds open on hands and chest for 50 years and ... did he examined Padre Pio's ... believing that he would not die, ...
p173
sg5
VPadre Pio's 'Stigmata Wounds' Caused By Carbolic Acid, Sergio ...
p174
sa(dp175
g3
Veven to die of suffering, ... At the center of the nascent hostility towards Padre Pio was the sixty-year-old archbishop ... When we look at what Padre Pio did, ...
p176
sg5
VBernard RUFFIN. Padre Pio. The True Story
p177
sa(dp178
g3
VAfter 42 years in the crypt of the Sanctuary of Santa Maria delle Grazie, ... Did you ever see a film of Padre Pio offering Mass? ... tour guide die tragically.
p179
sg5
VSt. (Padre) Pio's Body Transferred to New Church as Thousands Sing ...
p180
sa(dp181
g3
V... he\u2019s die first we all ... Padre Pio was beseiged by my ... All was lost many years ago and Saint Pio gave me the strength to leave a relationship that ...
p182
sg5
VPadre Pio Letters - Apostles.com
p183
sa(dp184
g3
VThe boy was going to die. ... For 50 years, Padre Pio bore the mystical stigmata, the bleeding wounds of Christ, on his hands, feet and side.
p185
sg5
VFatima News: News and Views: New Miracle for Padre Pio
p186
sa(dp187
g3
Vdie on the cross, I humbly entreat Thee to ... Beloved Padre Pio, ... which you bore for 50 years, you were chosen in our ...
p188
sg5
VPADRE PIO DEVOTIONS - MIRACLES THROUGH PRAYER
p189
sa(dp190
g3
VI thought I should die and ... To this day his hospital provides services to more than 60,000 people every year. Pope John Paul II gave Padre Pio ...
p191
sg5
VSt. Padre Pio of Pietrelcina - Yahoo! Voices - voices.yahoo.com
p192
sa(dp193
g3
VHe asked Jesus to take away "the annoyance," adding, " I do want to suffer, even to die of suffering, ... As the years began to weigh on Padre Pio, ...
p194
sg5
VSt.Padre Pio
p195
sa(dp196
g3
VWell even an unscandalised former altar boy like me had doubts about Padre Pio's stigmata - even as an 11-year old, ... he\u2019s die first we all thought .
p197
sg5
VZeitgeist: Acid freak: Padre Pio was a fake. No, really.
p198
sa(dp199
g3
VThis detail by detail account, which took 8 years to write, ... St. Padre Pio. A Masonic Temple?" Click on the appropriate icon below: English . Italian. German
p200
sg5
VPadre Pio's New Church? - http://PadrePioandChiesaviva.com/home
p201
sa(dp202
g3
VI thought I should die and really should have died if the Lord had not ... services to more than 60,000 people every year. Pope John Paul II gave Padre Pio ...
p203
sg5
VSt. Padre Pio of Pietrelcina | Italy
p204
sa(dp205
g3
VThe Pope has been a devotee of Padre Pio for many years. ... prayed to Padre Pio and did not die of cancer. In fact, the friend, Wanda Polawska, ...
p206
sg5
VSt. Padre Pio's stigmata - TheologyWeb News - TheologyWeb News
p207
sa(dp208
g3
VPadre Pio: The True Story [C. Bernard Ruffin] on Amazon.com. *FREE* super saver shipping on qualifying offers. Padre Pio: The True Story focuses primarily on the post ...
p209
sg5
VPadre Pio: The True Story: C. Bernard Ruffin: 9780879736736 ...
p210
sa(dp211
g3
VThe body of St Padre Pio, ... OFS United -Year of Faith Member since ... Did they (the saints) have bodily functions while they were here? Did they DIE??!!
p212
sg5
VWhy was Padre Pio's body exhumed? - Yahoo! Answers
p213
sa(dp214
g3
Vwould lose the equivalent of a glass of blood every day for the next fifty years. ... for the entire Church to suffer and die ... Padre Pio wept and ...
p215
sg5
VST. PADRE PIO OF PIETRELCINA - Saint Patrick's Basilica
p216
sa(dp217
g3
VSAINT PADRE PIO's 40 YEAR Connection to the LIFESONG HEALING MINISTRY in Sherman Mills, Maine . In 1963, the Church's most newly ...
p218
sg5
VSAINT PADRE PIO's 40 YEAR Connection to the
p219
sa(dp220
g3
VWill the Real Padre Pio Please Stand Up? ... \u201cIn the years following his death, his reputation for sanctity and miracles grew steadily.\u201d
p221
sg5
VNew Oxford Review
p222
sa(dp223
g3
VFor 50 years, Italy's favourite saint, Padre Pio, ... "I thought I should die and really should have died if the Lord had not intervened and strengthened my heart, ...
p224
sg5
VPadre Pio's claims of stigmata - was he a saint or faker? | Mail ...
p225
sa(dp226
g3
VSaint Padre Pio Shrine In ... was told by Doctors to abort or she and the baby will die. Thru her ... a priest for more than 50 years. I talked ...
p227
sg5
VHistory Of The Padre Pio Shrine
p228
sa(dp229
g3
VThere have been an abundance of sources in the past 40 years which attest to Padre Pio's thoughts on ... 14 posted on 04/29/2004 6:06:45 PM PDT by Conservative til I die
p230
sg5
VPadre Pio Aid Says Saint Accepted New Mass
p231
sa(dp232
g3
VPadre Pio's first prayer in the morning was for the reigning pope. Padre Pellegrino Funicelli, assistant to Padre Pio for many years, recalled how Padre ...
p233
sg5
VWhy become a Catholic: Spiritual Friendship - Padre Pio and Holy ...
p234
sa(dp235
g3
V(Grazie, Padre Pio!) ... who worked for years as a waiter, now owns the brand-new Villa San Pietro hotel, one of 71 hostelries opened since 1999, ...
p236
sg5
VMiracle Maker - TIME
p237
sa(dp238
g3
VPadre Pio: Saint or Sinner? Did Padre Pio Fake His Stigmata with Carbolic Acid? Richard Block, Yahoo! ... Forty years after the death of Padre Pio, ...
p239
sg5
VPadre Pio: Saint or Sinner? - Yahoo! Voices - voices.yahoo.com
p240
sa(dp241
g3
VPadre Pio was born in 1887 in the small Italian village of Pietrelcina. He joined the Capuchin Friars at the age of sixteen and was ordained a priest seven years later.
p242
sg5
VMemorial of St. Padre Pio - September 23, 2011 - Liturgical ...
p243
sa(dp244
g3
VThree Years of Privation! A moonlit night. We are at dinner one evening. ... Only when Padre Pio celebrated Mass did they set up the chalice beforehand! My God!
p245
sg5
VWhen Padre Pio was put under "house arrest"
p246
sa(dp247
g3
VPadre Pio And America. A Book by ... which the Lord Jesus gives the Church once or twice in a 1,000 years. Padre Pio is a sign that the Lord Jesus has particular ...
p248
sg5
VPadre Pio And America: A Book Review - The Franciscan Archive
p249
sa(dp250
g3
V"For several years now this slander, a ... but lies die hard there is not one word of truth in the page of that ... I met Padre Pio in a ...
p251
sg5
VArchbishop Lefebvre and Padre Pio - Society of Saint Pius X ...
p252
sa(dp253
g3
VPadre Pio - The Movie. 4,991 ... more than 3 years before I was convinced without a shadow of a doubt that Jesus is The ... they shall not die in My disgrace nor ...
p254
sg5
VPadre Pio - The Movie | Facebook
p255
sa(dp256
g3
VAs documented in a solidly researched book, Padre Pio: The True Story ... If in the 1990s a million a year were already visiting his tomb, ...
p257
sg5
Vpio - Spirit Daily - Catholic Daily spiritual news from around the ...
p258
sa(dp259
g3
VPadre Pio did not think that the holy ... For the next ten years, until Padre Pio's death ... in this Heart you must die when the Lord so wishes. \u2013 St. Pio of ...
p260
sg5
VPadre Pio Devotions - San Diego, CA - Religious Organization ...
p261
sa(dp262
g3
V... and that the child was certain to die. INTERVENTION OF PADRE PIO ... Join the Discussions of the Year of Faith. Click here throughout the Year of Faith, ...
p263
sg5
VC. Everett Koop: The Padre Pio Connection
p264
sa(dp265
g3
V... a year after Padre Pio died), clearly illustrates, that the "illuminations" of the changes Padre Pio did not support, ... but lies die hard; ...
p266
sg5
VPadre Pio, Humanae Vitae, and Vatican II - Fish Eaters Traditional ...
p267
sa(dp268
g3
VWe still pray to Padre Pio for guidance thru Matthew's tests and surgeries and I know that he has been with ... I would die for my ... two years later, ...
p269
sg5
VTestimonies - Padre Pio Home Page
p270
sa(dp271
g3
VFor over fifty years, Padre Pio of Pietrelcina reported stigmata which were studied by several 20th-century physicians, whose independence from the Church is not known.
p272
sg5
VStigmata - Wikipedia, the free encyclopedia
p273
sa(dp274
g3
VAt the time I did not realize what a holy man Padre Pio was, as I know him to be now. ... This year, by God\u2019s grace, Joey will turn 80 years old, ...
p275
sg5
VWHAT IS GARABANDAL?: PADRE PIO AND GARABANDAL
p276
sa(dp277
g3
VPadre Pio is the Patron saint of ... which thou didst bear for fifty years, ... so impelled by Thy love of us that Thou didst will to die on the Cross, ...
p278
sg5
VA Prayer for St. Padre Pio's Intercession - text and mp3 download ...
p279
sa(dp280
g3
VBefore this I did not have these." Padre Pio then said that the stigmata were not the ... It is impossible to think that for 60 years Padre Pio could have caused ...
p281
sg5
VThe Secret Story of Padre Pio's Stigmata | ZENIT - The World Seen ...
p282
sa(dp283
g3
VJuan Diego, Padre Pio, Opus Dei founder headed for sainthood Vatican ... involved a 20-year-old man who suffered a crushed skull in a suicide attempt; ...
p284
sg5
VJuan Diego, Padre Pio, Opus Dei founder headed for sainthood
p285
sa(dp286
g3
VDuring the 20th century, Padre Pio was one of the most famous and popular Catholic monks. ... In his 2005 [yes, two years ago!] book Padre Pio and America, ...
p287
sg5
VFake Stigmata Controversy - The Museum of Hoaxes
p288
sa(dp289
g3
VFilled with love of God and love of neighbour, Padre Pio lived to the full the vocation to work for the redemption of man, ... In the years following his death, ...
p290
sg5
VPadre Pio da Pietrelcina - Vatican: the Holy See
p291
sa(dp292
g3
VHe told Pietruccio, his blind friend, that he would die in his eighty-second year. ... Padre Pio did not think he had the strength to offer Mass.
p293
sg5
VPadre Pellegrino and Padre Pio | Medjugorje Message
p294
sa(dp295
g3
VThe poor Italian peasant boy Francesco already has visions of Jesus and Mary as a child, but the Devil visits him too. He, Francesco, is quite certain that he will ...
p296
sg5
VPadre Pio (TV 2000) - IMDb
p297
sa(dp298
g3
VThis wasn\u2019t the first time I shared space with Padre Pio. A few years ago ... I thought I should die and really should have died if the Lord had not intervened and ...
p299
sg5
VIf St. Padre Pio were alive today: A Priest and His Wounds
p300
sa(dp301
g3
VOn the subject of Padre Pio's diabolical torments, Andrea Monda also spoke with a leading Church exorcist. Besides his millions of devotees, is it not true that Padre ...
p302
sg5
VLibrary : The Devil and Padre Pio - Catholic Culture
p303
sa.