(lp1
(dp2
S'description'
p3
VBarry Manilow wowed pop music fans in the 70's with ... He then found work as a pianist for singer ... Barry Manilow wrote pop music songs. He ...
p4
sS'title'
p5
VBarry Manilow Biography - Yahoo! Voices - voices.yahoo.com
p6
sa(dp7
g3
V... is an American singer-songwriter and producer. He is best known for such ... Manilow was the musical director for the WCBS-TV ... Barry Manilow: Music And ...
p8
sg5
VBarry Manilow - Wikipedia, the free encyclopedia
p9
sa(dp10
g3
V... Barry Manilow is one of the most successful adult contemporary singers ... pianist, arranger, and musical director; he ... Manilow's stage musical Barry ...
p11
sg5
VAbout Barry Manilow - New Music Videos, Reality TV Shows ...
p12
sa(dp13
g3
VMusic Director David Alan Miller leads the ... Barry Manilow ranks as the top Adult Contemporary ... Under the musical direction of jazz pianist and ...
p14
sg5
VThings to do this week in NYC May 4-May 11: Music (City Guide ...
p15
sa(dp16
g3
Vstream vintage Barry Manilow concert recordings at Wolfgangsvault, with Barry Manilow biography, detailed summary of the shows and related Barry Manilow memorabilia ...
p17
sg5
VBarry Manilow - wolfgangsvault.com - Rock memorabilia, Concert ...
p18
sa(dp19
g3
VBarry Manilow concert recording at Troubador | Hollywood, CA | on Feb 25, 1975. Barry Manilow - vocals, pianoSid McGinnis - guitar Alan Axelrod - keyboardsCharlie ...
p20
sg5
VBarry Manilow | Troubador | Hollywood, CA | Feb 25, 1975 ...
p21
sa(dp22
g3
VBiography.com presents Barry Manilow, ... Because female-associated forms of entertainment such as soap ... Manilow soon became her musical director and ...
p23
sg5
VBarry Manilow Biography - Facts, Birthday, Life Story - Biography.com
p24
sa(dp25
g3
VListen to music by Barry Manilow on ... adult contemporary singers ... as her pianist, arranger, and musical director; he served as her accompanist on her ...
p26
sg5
VBarry Manilow - Listen to Free Music by Barry Manilow on Pandora ...
p27
sa(dp28
g3
VShe hired him as her pianist, arranger, and musical director. He accompanied her as she ... The first was his 1977 Barry Manilow Live album. He continued in the ...
p29
sg5
VBarry Manilow - Top 40, Latest Songs, New Music, Charts, and the ...
p30
sa(dp31
g3
V... Barry Manilow, ... the conductor and artistic director of the Foothills Chorale, ... Pianist Lane Moore will provide accompaniment.
p32
sg5
VGAMAC, Foothills Chorale choruses spotlight love in various guises ...
p33
sa(dp34
g3
VHis parents were Harold Pincus and Edna Manilow and when Barry was born, he was ... musical director, ... singer. From 1970 to 1971 he was accompanying ...
p35
sg5
VBarry Manilow | Hit Songs From The Seventies
p36
sa(dp37
g3
VManilow met Bette Midler in 1971 and she hired him as her pianist, arranger and musical director. ... Barry Manilow Special', (1977) for which he ... singers, in ...
p38
sg5
VBarry Manilow - Biography on Bio.
p39
sa(dp40
g3
VThe stage name Barry Manilow is the brainchild of a singer, ... pianist and musical director. ... During the late 70's, he witnessed greatest success by his concerts ...
p41
sg5
VBarry Manilow Tickets - Manilow Tour Dates - My Excite
p42
sa(dp43
g3
V... David's inspired collaboration with virtuoso pianist Matt ... 2007 Barry Manilow, Music and ... 2005 Barry Manilow, The Greatest Songs Of The 70\u2019s ...
p44
sg5
VDavid Rozenblatt @ All About Jazz
p45
sa(dp46
g3
V... Manilow met Bette Midler and became her music director, arranger and pianist ... Since then the singer has ... I grew up listing to Barry Manilow in the 70's, ...
p47
sg5
VBarry Manilow At The Paris Las Vegas - TripRes.com
p48
sa(dp49
g3
V... with Barry Manilow performing in the ... when he met Bette Midler and became her music director, arranger and pianist. ... 70\u2032s and his classics. He plays the ...
p50
sg5
VBarry Manilow Concert - Ultimate Manilow: The Hits Review | Las ...
p51
sa(dp52
g3
VHe broke into the business as an arranger, producer and pianist and then ... at Barry Manilow concerts, the singer would ... served as her musical director for ...
p53
sg5
VBarry Manilow Tickets - ClickitTicket Cheap Event Tickets ...
p54
sa(dp55
g3
VBarry Manilow. Occupation: Singer-songwriter, ... In 1971, became Bette Midler's music director, arranger and pianist. Debut #1 ... Senior female CIA officer bypassed ...
p56
sg5
VBarry Manilow - Las Vegas Sun News
p57
sa(dp58
g3
V"The First Barry Manilow Special," an Emmy award winning ... esque skit about a bar pianist (Manilow) ... focused on the music of the big bands and jazz singers.
p59
sg5
VBarry Manilow - The First Television Specials : DVD Talk Review of ...
p60
sa(dp61
g3
VLocal singer Dave Colucci takes up the Manilow mantle ... He was Bet Midler's music director in ... Dave Colucci\u2019s tribute to the music of Barry Manilow takes ...
p62
sg5
VA Barry Manilow tribute? Why not? | masslive.com
p63
sa(dp64
g3
VMusic; Bars & Clubs. Nightlife; Food. Recipes; Restaurants; Video; More; Barry Manilow: He's made it through the rain, one marriage and a quixotic ...
p65
sg5
VBarry Manilow: He's made it through the rain, one marriage and a ...
p66
sa(dp67
g3
V... Barry met Bette Midler and became her music director, arranger and pianist. He ... Barry Manilow's "Copacabana-The Musical ... Society of Singers presented Barry ...
p68
sg5
VBarry Manilow Biography - S9.com
p69
sa(dp70
g3
VThe Greatest Songs of the Seventies by Barry Manilow ... he entered 1970 as a jingles writer and nightclub pianist but left 1979 as pop music ... Angie Jeree Singers;
p71
sg5
VThe Greatest Songs of the Seventies by Barry Manilow @ARTISTdirect
p72
sa(dp73
g3
V... Bruce Sussman Music: Barry Manilow Director: ... s) A virtuoso pianist and singer. ... (Female 20s \u2013 30s) seeking versatile musical theater actress to ...
p74
sg5
VHarmony - Submit For NYC Appointment - Alliance Theatre ...
p75
sa(dp76
g3
VRating for Hollywood Bowl Musical. 5. ... Barry Manilow: He's made it through the rain, ... actress, singer and teaches Improv Comedy and On Camera Commercials at BHAS.
p77
sg5
VBarry Manilow at the Hollywood Bowl July 4th - Los Angeles Theater ...
p78
sa(dp79
g3
VThe 70s is filled with Female Singers. ... I am pretty sure the singer Barry is referring to IS Dusty Springfield. ... I'M A BIG FAN OF THE 70'S AND A MUSIC FANATIC.
p80
sg5
VInfluential Female Singers of the 1970's - Triplet Mom on HubPages
p81
sa(dp82
g3
V... but he's classy. "Barry Manilow ... with Manilow and the female singer ... he began to arrange for an orchestra and write his own music, and night house pianist ...
p83
sg5
VBarry Manilow Homepage
p84
sa(dp85
g3
VThe Musical, a show to which she had, ... Barry Manilow: Greatest Songs of the 70's: 2010 ... American female singers;
p86
sg5
VMelissa Manchester - Wikipedia, the free encyclopedia
p87
sa(dp88
g3
VLocal family wins chance to meet favorite singer, Barry Manilow, ... female pirates in "El Bravo." Director ... musical Jersey Boys, singer-pianist ...
p89
sg5
VBarry Manilow - BarryNet - Feedback - Briefs - Archive 15
p90
sa(dp91
g3
VEven if you disregard the fact that he first made it big in the 70's, ... Miss Music Nerd, a.k.a. composer and pianist Linda ... have heard Barry Manilow's music, ...
p92
sg5
VConcert Review: Barry Manilow: An Evening of Music and Passion ...
p93
sa(dp94
g3
VManilow then earned money by working as a pianist, ... Manilow was the musical director for the ... Barry is the man!!! An\ufeff emotional singer and a master ...
p95
sg5
VBarry Manilow - Bring On Tomorrow On This Morning with Phil ...
p96
sa(dp97
g3
VBarry Manilow (born June 17, 1943 ... film producer, and director. ... 1938, in Houston, Texas) is a prolific American country music singer, photographer ...
p98
sg5
VSimilar artists to Neil Diamond \u2013 Free listening, concerts ...
p99
sa(dp100
g3
VAs their musical director/composer for 16 years, he performed for over ... Bee Gees, Chicago, David Foster, John Lennon, Paul McCartney, Barry Manilow, ... 70's Hits ...
p101
sg5
VThe #1 Recommended Chicago Pianist - Classical Piano - Chicago
p102
sa(dp103
g3
V... like your hair in the 70's, ... Miss Music Nerd, a.k.a. composer and pianist Linda ... Barry Manilow is the music i listen to i got his new cd Greatest ...
p104
sg5
VConcert Review: Barry Manilow: An Evening of Music and Passion ...
p105
sa(dp106
g3
VAhmanson announces season with Barry Manilow musical ... Singer Barry Manilow coming to ... Barry Manilow served as pianist, arranger, and musical director for Bette ...
p107
sg5
VBarry Manilow - BarryNet - Feedback - Briefs
p108
sa(dp109
g3
VThey said there were better singers in the 60's and 70's ... is an American rock and roll and country music singer-songwriter and pianist. He is ... Barry Manilow 694 ...
p110
sg5
VTop Male Singers of the world - best, most, greatest of everything ...
p111
sa(dp112
g3
VIf you were asked to name your favorite female country music singer who would you choose? ... by Barry Manilow; ... Top ten TV shows of the 70\u2019s and 80\u2019s;
p113
sg5
VUnforgettable female country music singers - by C. A. Pruit - Page ...
p114
sa(dp115
g3
V... Manilow was the musical director for the ... is an American Jazz singer and pianist The special was nominated for ... PBS aired Barry Manilow: Music and ...
p116
sg5
VBarry Manilow - Citizendia
p117
sa(dp118
g3
VHe can do ANYTHING!!" Barry Manilow ALMOST ELTON JOHN stars multi-talented singer and pianist Craig A Meyer in a tribute that ... Tampa Female Jazz Singer Lisa ...
p119
sg5
VHire Pop Singers in Auburn, AL - Book Live Entertainment & more ...
p120
sa(dp121
g3
VPosts about Female Jazz Singers written by ... this time with Barry Manilow) ... Graham Bickley, Michael Peavoy and leading West End musical director Gareth ...
p122
sg5
VFemale Jazz Singers | The Art of the Torch Singer | Page 2
p123
sa(dp124
g3
VSingers Barry Accompanied For: 2/1/2008: Thomas: ... music director: 11/17/2006: John W Baldwin: ... I have been a Barry Manilow fan ever since "Mandy", ...
p125
sg5
VAll Questions and Answers for Manilow, Barry - AllExperts.com
p126
sa(dp127
g3
V... and also wrote for singers Marilyn Maye ... (Gavin once employed Barry Manilow!). ... In 1985 he became tour pianist and music director for ...
p128
sg5
Vdpz Jazz Online - Artists Dave Zoller and Genie Grant
p129
sa(dp130
g3
V1994 Death - Edna Manilow, mother of singer Barry Manilow, dies ... and blues artist, musical director, ... opener in early 70's 1942 Birthday - Len Barry ...
p131
sg5
VBarry Events in History - BrainyHistory
p132
sa(dp133
g3
VBarry Manilow has been a crooner and ... the native New Yorker developed a passion for music and entertaining that he admits ... the audio was a toss back to the 70's ...
p134
sg5
VManilow Live! (Blu-ray) : DVD Talk Review of the Blu-ray
p135
sa(dp136
g3
VWhile there is still good Barry Manilow music on ... since I was a tot in the 70's. I didn't even know he ... He is a extremely talented singer and all his ...
p137
sg5
VAmazon.com: Customer Reviews: Greatest Hits, Vol. 1
p138
sa(dp139
g3
VBarry Manilow: why we still love ... Singer Songwriters; Marriage; Singers; Pop; ... In 1971 he met Bette Midler and went on to become her pianist and music director; ...
p140
sg5
VBarry Manilow: Why we still love the King of Kitsch - Showbiz ...
p141
sa(dp142
g3
V... female singer-songwriter who wrote the most #1 hits ... Barry Manilow, singer/songwriter/pianist who writes ... Founder/director of the annual NYC Musical Saw ...
p143
sg5
VList of Jewish American singers and songwriters - Metapedia
p144
sa(dp145
g3
V... Widely regarded as one of the most popular female singers of ... Me' with Barry Manilow, who wrote music to ... director of the School For Music ...
p146
sg5
VVocal Jazz Singers DVDs - Singers.com - Buy a cappella music ...
p147
sa(dp148
g3
VInPulse also endeavors to advance the art of a cappella through original music, and the education of young singers. ... musical director ... and 70's. Acclaim from ...
p149
sg5
VSingers.com - List of American Groups
p150
sa(dp151
g3
VThe guitar player comes from Stevie Wonder and the musical director ... lead singer of the well-known country music ... but he manages. Barry Manilow: Music and ...
p152
sg5
VLas Vegas Singers | Las Vegas Show Reviews
p153
sa(dp154
g3
VHe is a white pianist and singer/songwriter with a tilt towards Christian themed music. ... Barry Manilow, ... During the 70's he formed the Edgar Winter Group.
p155
sg5
VTop 40 Blind and Visually Impaired American Musicians
p156
sa(dp157
g3
VIn the 70's, his music reflects the uncertainty of life at a time when the Vietnam War ... Who is the greatest female country singer of all time? ... by Barry Manilow;
p158
sg5
VThe greatest male R&B singers - by Cicely Richard - Helium
p159
sa(dp160
g3
VThey are models of a new Jewish-American music made popular by new Jewish-American ... Barry Manilow. buy@amazon . 28. ... popular female singers; rapcore; list of ...
p161
sg5
VList of Famous Jewish Singers and Songwriters
p162
sa(dp163
g3
VPop Culture Madness features the Best and Worst in Music ... WAKY-AM/Louisville KY program director Gary Guthrie spliced the two ... Barry Manilow: ...
p164
sg5
V70s Music - Most Popular Song Charts - Music Hits of the 1970s
p165
sa(dp166
g3
VSinging Pianist / Pop Singer Winston-Salem. Soulfully Nostalgic Music with a ... He can do ANYTHING!!" Barry Manilow ALMOST ELTON JOHN stars multi-talented singer and ...
p167
sg5
VHire Pop Singers in Winston-Salem, NC - Book Live Entertainment ...
p168
sa(dp169
g3
V... Bruce Sussman Music: Barry Manilow Director: ... early 30\u2019s) A virtuoso pianist and singer. ... (Female 20s \u2013 30s) seeking versatile musical theater actress ...
p170
sg5
VAudition for HARMONY at Alliance Theatre in Submission on 04/22
p171
sa(dp172
g3
VSinger/songwriter Patty Larkin released a new CD titled ... for which he is the music director, pianist, ... the Barry Manilow CDs Here at the Mayflower and A Christmas
p173
sg5
VBerklee Today | Berklee College of Music
p174
sa(dp175
g3
V... the title track was produced by then-labelmate Barry Manilow. ... In the late 70's, ... (who is the brother of Jamaican pianist and melodica ...
p176
sg5
Vfemale celebrity archives: phyllis hyman singer new york
p177
sa(dp178
g3
V... Lisa Ono, Jackie Evancho, Kirk Whalum, Bob Dylan, Brian Bromberg, Barry Manilow, Jay ... musical director, pianist and ... honored as the first female ...
p179
sg5
VGIC Productions
p180
sa(dp181
g3
VIn the 1950s and the early 1960s he was the pianist, ... was a British pop singer. Of the female artists of the British Invasion, ... Barry Manilow (born June 17, ...
p182
sg5
VSimilar artists to Dionne Warwick \u2013 Free listening, concerts ...
p183
sa(dp184
g3
V... the duo reunites as writer and director for this world-premiere dark ... Seussical the Musical Brings Beloved ... Barry Manilow. Greek Theatre (Los ...
p185
sg5
V"A Family For All Occasions": Philip Seymour Hoffman Directs ...
p186
sa(dp187
g3
VHer beautiful soprano voice and energetic presence have established her in the gospel music ... singer, keyboardist/pianist, ... Oldies, 60's & 70's Rock ...
p188
sg5
VThe Best San Diego Jazz Singers - Hire a Jazz Singer in San Diego, CA
p189
sa(dp190
g3
VHe joined Barry Manilow for six years in ... during which time he served as his musical director, ... George Lucas, Robert DeNiro, Barry Levinson, Bryan Singer, ...
p191
sg5
VInspired by Ray: The Ray Charles Symposium | Berklee College of Music
p192
sa(dp193
g3
VSteve is Pretzel Logic\u2019s bandleader and musical director. ... Mark comes from a musical family. His father is a jazz pianist, ... Burt Bacharach, Barry Manilow ...
p194
sg5
VBios - Pretzel Logic A Steely Dan Revue - Steely Dan Tribute Band ...
p195
sa(dp196
g3
VBut as high in the musical pantheon as he reigns, Barry Manilow is ... music director, arranger and pianist. ... Barry Manilow Songbook. The singer ...
p197
sg5
VAlan Jackson at Chastain Park Amphitheater in Atlanta, GA 05-10-2013
p198
sa(dp199
g3
VShe is also the first female film director to receive the Kennedy ... It finds the singer dabbling--if, ... a duet with Barry Manilow ...
p200
sg5
VAmazon.com: Duets: Barbra Streisand: Music
p201
sa(dp202
g3
VBritish singer, composer, and pianist Elton John was one of the most popular entertainers of the late 20th ... Music in the '70's \u2022 1970 t/m 1979. ... MANILOW BARRY ...
p203
sg5
VMusic in the 70s 1970 to 1979 - Family Tree & Family History at ...
p204
sa(dp205
g3
VHe has also worked as an arranger, pianist, and singer. ... Barry Manilow's "Read 'Em and Weep", ... The Musical. He shared it with fans through a website.
p206
sg5
VJim Steinman | Biography - Lyrics, Song Lyrics \u2013 LyricsFreak.com
p207
sa(dp208
g3
V... Deniece Williams, Melissa Manchester, Barry Manilow ... He was the director of the ... Worship Singers and Band. A graduate and music ...
p209
sg5
VOklahoma Jazz Hall of Fame - Tulsa, Oklahoma
p210
sa(dp211
g3
VThey are pianist Leon Fleisher, singer Diana Ross, the Beach Boys' Brian Wilson, director Martin ... Beach Boys Among Kennedy Center Honorees; Barry Manilow to ...
p212
sg5
VDiana Ross, Beach Boys Among Kennedy Center Honorees; Barry ...
p213
sa(dp214
g3
VGeorge and a young singer named Al ... Manchester and Barry Manilow. By the end of 1988, he had produced ... He served as musical director for Disney's ...
p215
sg5
VGeorge Duke @ All About Jazz
p216
sa(dp217
g3
V... including pianist Michel Camilo, singer ... Melissa Manchester, Al Jarreau, Barry Manilow ... In addition to nine years as the musical director ...
p218
sg5
VDianne Reeves and Friends - Saturday, February 16, 2013 | Carnegie ...
p219
sa(dp220
g3
VA internet friend found one of the female singers ... music, producing Barry Manilow, ... during '60's Pop and Soul music, but lost popularity in the '70's.
p221
sg5
VUncommon Top 40 - '50's '60's '70's+
p222
sa(dp223
g3
V21 year old female acoustic and soul style singer, ... REM, Buddy Holly, The Beatles, Barry Manilow, Robbie Williams ... THE 'BEST' MUSIC FROM THE 60's, 70's, ...
p224
sg5
VGigging singers Contact Information - Karaoke Venues UK ...
p225
sa(dp226
g3
V... Pianist and music director - Worked with Benny Goodman, Diana Ross, Tom Jones ... Barry Manilow and Todd ... Pianist, singer and composer - (He wrote, ...
p227
sg5
VThe Dead Rock Stars Club - 2011 July To December
p228
sa(dp229
g3
VBarry Manilow (1946) - American singer and songwriter. ... Has helped other female singers along the ... where he served as music director of the American ...
p230
sg5
VMusicians - Singers & Songwriters 2 - 4dbios - HomePage.shtml
p231
sa(dp232
g3
VMany classic artists that you don't hear on terrestial radio anymore like Barry Manilow, ... among others, as the musical director ... Few female singers ...
p233
sg5
VNat King Cole on Slacker Radio - Slacker Personal Radio - Listen ...
p234
sa(dp235
g3
V70`s Themed Singers/Bands 80`s Themed Singers ... Added to this he is currently enjoying a ninth successive season as resident pianist at ... Barry Manilow; ...
p236
sg5
VChris Lloyd - Garston Entertainments: 0845 071 0988
p237
sa(dp238
g3
V... teams once again with director Deborah Warner for their first New York ... Seussical the Musical Brings Beloved Characters ... Barry Manilow. Greek Theatre (Los ...
p239
sg5
VBroadway's "The Testament of Mary" Starring Fiona Shaw ("True ...
p240
sa(dp241
g3
V... made famous in 1970 by one of the hottest female artists of the 70's, ... of my favorite country music singers, ... Barry Manilow, Julio ...
p242
sg5
VYouTube
p243
sa(dp244
g3
VBarry Manilow: Legendary singer-songwriter Barry ... and film to portray the female ... The guitar player comes from Stevie Wonder and the musical director ...
p245
sg5
VLas Vegas entertainment
p246
sa(dp247
g3
VLocally he was musical director at the Forty Thieves Night ... In addition to being an accomplished pianist, he also coached many aspiring ... Barry Manilow.
p248
sg5
VBermuda's Musicians, Performing Arts groups, Singers and Artistes
p249
sa(dp250
g3
V... trained in the United Kingdom throughout the 70\u2019s and 80\u2019s and influenced by all the ... where he attended Goldsmith Music College. ... BARRY MANILOW, ...
p251
sg5
VStarbookers -Tribute Bands and Tribute Acts, Stylistics, SING BABY ...
p252
sa(dp253
g3
VAndrea earned a Bachelor's in Music Education from ... Eldon Shamblin, Glenn Campbell, Michael Bolton, Ray Barretto, Barry Manilow ... He was Director of ...
p254
sg5
VAndrea Baker/Steve Wilkerson - CASTING NEW LIVES-entertainment ...
p255
sa(dp256
g3
V... Manilow was the musical director for the WCBS-TV series Callback. ... for Barry Manilow: Music And Passion ... ^ Singer Barry Manilow to Have Hip Surgery ^
p257
sg5
VAstrology: Barry Manilow, date of birth: 1943/06/17, Horoscope ...
p258
sa(dp259
g3
VAlfredo is a member of the very talented Mexican-American Ortiz musical family. He is a fine singer and excellent ... Barry Manilow, ... He was the pianist on ...
p260
sg5
VJazz on the latin Side Allstars - Jose Rizo
p261
sa(dp262
g3
VGeorge and a young singer named Al Jarreau formed a ... as Melissa Manchester and Barry Manilow. ... He served as musical director for Disney's ...
p263
sg5
VGeorge Duke :: Biography
p264
sa(dp265
g3
V... only their female singer ... From Broadway to a nightclub act with Barry Manilow to a ... Daughter of a musical theater star and an accomplished pianist, ...
p266
sg5
VMixx 96.1FM Top 96
p267
sa(dp268
g3
VSTRATTON is a husband and wife musical team headed by singer, ... Mary-Margaret is also an Award winning Art Director and provides all ... It's no Barry Manilow, ...
p269
sg5
VSTRATTON | Free Music, Tour Dates, Photos, Videos
p270
sa(dp271
g3
V... Grammy nominated Ms. Donatelli is backed by music director/pianist ... An impressive group of female ... Barry Manilow in Concert. Singer/pianist ...
p272
sg5
VAlfredo Rodriguez | The International Review of Music
p273
sa(dp274
g3
VTV Commercials of the 70's and ... but we viewers are treated to a generic dance riff with a female singer intoning "Movin ... Barry Manilow (SGCS) Lionel ...
p275
sg5
VTV Commercials of the 70's and 80's
p276
sa(dp277
g3
VMy favorite female singer without doubt is Karen Carpenter followed in no particular order by Dolly Parton, ... Barry Manilow, ... The 70's - The Decade the Music Died ;
p278
sg5
VFavorite Female Singers -Karen Carpenter - some Canadian female ...
p279
sa(dp280
g3
V... Hugh Cornwell and Barry Manilow. ... is an American rock and roll and country music singer, songwriter and pianist. ... singer, producer, movie director ...
p281
sg5
VFamous and Influential Musicians-Keyboard
p282
sa(dp283
g3
VIn the early `70\u2019s Jim became the ... and is currently the music director at Mt Adams School District and Jazz ... Barry Manilow, Bernadette Peters ...
p284
sg5
VJazz in the Valley - Artists
p285
sa(dp286
g3
VReviewers called her a "singer's ... Bette Midler and Barry Manilow. ... Dawn collaborated with pianist/performer Mark Nadler, writing music and lyrics for ...
p287
sg5
VDawn Hampton - About | Facebook
p288
sa(dp289
g3
V... Born 6-10-1919 - Singer, pianist and actor - (He ... designer - Worked for Barry Manilow and ... Percussionist, singer and musical director ...
p290
sg5
VThe Dead Rock Stars Club 2009 January to June
p291
sa(dp292
g3
V... his wife and the group's other female singer, ... Barry Manilow - Showstoppers (1991) ... He became musical director for Bobby Darin, ...
p293
sg5
Vventuracountyjazz.com - Jazz Musicians Living And/Or Playing ...
p294
sa(dp295
g3
VAt the time of his appointment in 1957 as musical director of Sadler's Wells, he was the ... by Barry Manilow ... selling singers in the 70's and 80's ...
p296
sg5
VOn this day in MUSIC - Page 67 - Historum - History Forums
p297
sa(dp298
g3
V... an iconic NY 70\u2019s New Wave punk band lead by singer ... American singer, pianist, and actor. He has sold over 25 million ... Midler and Barry Manilow; ...
p299
sg5
VBooking Agent and Booking Agency Company for Pop-Bands | Pop-Music ...
p300
sa(dp301
g3
V... transforming an industry that had previously been dominated by large bands fronted by female singers. ... pianist, and songwriter Joel\u2019s music is ... Barry Manilow.
p302
sg5
VB
sa.