(lp1
(dp2
S'description'
p3
VAll of Egypt's pyramids are sited on the west bank of the Nile and most are grouped together in a number of pyramid fields. The German Egyptologist Karl Richard ...
p4
sS'title'
p5
VHow many Egyptian pyramids have been discovered - The Q&A wiki
p6
sa(dp7
g3
V... mummies,etc. found in any pyramid in egypt. They have been found. ... in November 2008 118 pyramids had been. How many mummies have been found in Giza pyramid?
p8
sg5
VHow many pyramids have found - The Q&A wiki
p9
sa(dp10
g3
VEgyptian pyramids found by ... pyramids. The work has been pioneered at ... so many sites all over Egypt. "To excavate a pyramid is the ...
p11
sg5
VBBC News - Egyptian pyramids found by infra-red satellite images
p12
sa(dp13
g3
VA great many more have since been discovered. As of November 2008, 118 Egyptian pyramids have been identified. The location of Pyramid 29, ...
p14
sg5
VEgyptian pyramids - Wikipedia, the free encyclopedia
p15
sa(dp16
g3
VHow many pyramids are discovered in Egypt ? ... there are actually over 100 pyramids in Egypt, many of ... It may have also been the last royal pyramid ...
p17
sg5
VHow many pyramids are discovered in Egypt ? - Yahoo! Answers
p18
sa(dp19
g3
VThe rest of the pyramid complex consisted of a large ... A great many more have since been discovered. ... 118 Egyptian pyramids have been identified.
p20
sg5
VHow many pyramids were built actually in egypt? - Yahoo! Answers India
p21
sa(dp22
g3
VWhile the most famous of these pyramids are found in Egypt, ... a number of pyramids have been built ... How to Read a Food Pyramid. There are many important ...
p23
sg5
VHow Many Pyramids Are There? | eHow.com
p24
sa(dp25
g3
V... and has yielded a string of unearthed pyramids in ... Egypt \u2014 Archaeologists have discovered a new ... a pyramid believed to have been ...
p26
sg5
VNew pyramid discovered in Egypt - USATODAY.com
p27
sa(dp28
g3
VThere are remains around Egypt for 90 to 120 Pyramid or the ... Many of these Pyramids are found in far or ... nearly 138 pyramids have been discovered ...
p29
sg5
VHow many pyramids have been built? - Yahoo! Answers
p30
sa(dp31
g3
VWhile more than 100 pyramids in Egypt have been discovered, the largest and most famous are in Giza, ... The great Pyramid at Giza is called Cheops or Khufu.
p32
sg5
VEgyptian Pyramids - Pyramids of Ancient Egypt
p33
sa(dp34
g3
VEgypt has well over 100 pyramids, ... and Egypt's New Kingdom.It may have also been the last royal pyramid built in ... a pyramid shaped stone found in the ...
p35
sg5
VEgyptian Pyramids: The Great Pyramids and More
p36
sa(dp37
g3
VMore than twenty pyramids and pyramidal hills have been found in Italy ... of articles dedicated to the pyramids in Egypt. The article makes the first pyramid ...
p38
sg5
VHow Many Pyramids are in the World?
p39
sa(dp40
g3
VLots of folks have tried to claim throughout the years that the famous pyramids of Egypt were built by aliens. I have a feeling this news will only strengthen those ...
p41
sg5
VNew Egyptian Pyramids May Have Been Discovered Thanks To Google ...
p42
sa(dp43
g3
VThe discovery of this Egyptian pyramid is of a great ... in the Egyptian Museum. Archeologists have been looking ... list of the Egyptian pyramids discovered ...
p44
sg5
VAncient Egyptian Pyramid was discovered in Luxor in Feb 2013
p45
sa(dp46
g3
VSeventeen lost pyramids and more than 1,000 tombs have been found in a new satellite survey of Egypt.
p47
sg5
V17 lost pyramids found by satellite - Telegraph
p48
sa(dp49
g3
VHow many pharaohs (or mummies) have been found inside pyramids in Egypt? ChaCha Answer: Before the pyramids, people were put in pits ...
p50
sg5
VHow many pharaohs (or mummies) have been found inside pyramids in ...
p51
sa(dp52
g3
VSurely there must have been an easier way? ... 10:00 Pharaohs-The Great Pyramid of Egypt ... 10:02 The hidden secrets of Egypt Pyramids ...
p53
sg5
VHow were the pyramids of egypt really built - Part 1 - YouTube
p54
sa(dp55
g3
VKing Khufu's pyramid rests on a base that covers 13 acres ... At least 80 royal pyramids have been found in Egypt, but none rival the three at Giza. Many of ...
p56
sg5
VEgypt Ancient, PYRAMIDS - World History International: World ...
p57
sa(dp58
g3
VHumans have been building structures using pyramid shapes for thousands of years. ... Over 130 pyramids have been discovered in Egypt.
p59
sg5
VFun Pyramid Facts for Kids - Egyptian, Mayan, Aztec, Modern ...
p60
sa(dp61
g3
VSeventeen lost pyramids are believed to have been found in Egypt by a team of space archaeologists from Alabama, according to a report. Sarah Parcak and her team at a ...
p62
sg5
V17 lost pyramids discovered in Egypt by space scientists
p63
sa(dp64
g3
VSome of the theories of who built the Pyramids suggest that the builders may not have been from Egypt. ... the Pyramid. We found ... 104 Pyramids in Egypt ...
p65
sg5
VNOVA | Who Built the Pyramids? - PBS: Public Broadcasting Service
p66
sa(dp67
g3
VIf you mean they are of a pyramid shape, ... then they are found all around the world. Nubia has ... The best catalog of Egyptian pyramids is The Complete Pyramids ...
p68
sg5
VPyramids: How many pyramids exist in the world? - Quora
p69
sa(dp70
g3
VAll The pyramids of Egypt, ... Historians believe that this pyramid could have been larger than king Djoser\u2019s ... no records of Huni\u2019s name have been found on ...
p71
sg5
VWhere Are The Pyramids Of Egypt?
p72
sa(dp73
g3
VThere are many pyramids in Northern Egypt. Other sites are: Abu Rawash, Saqqara, Abu Sir, Helwan, ... (from the Pyramid age) been found in any pyramids? No.
p74
sg5
VEgyptian Pyramids - Fun Facts, Questions, Answers, Information
p75
sa(dp76
g3
VGetting on top of the great pyramids in Egypt is illegal. ... "Many thanks to good friends who have been there and supported the ... pyramid that they found almost ...
p77
sg5
VHow to climb the ancient pyramids of Egypt | canada.com
p78
sa(dp79
g3
V... Egypt Pyramids facts. home; ... that he thought might have been kept inside the Pyramid. He sent ... exterior openings have been found, ...
p80
sg5
VPyramids of Giza, Pyramids facts, Egypt pyramids, The Sphinx ...
p81
sa(dp82
g3
VA 4,300-year-old pyramid has been discovered in Saqqara, Egypt, the sprawling necropolis and burial site of the rulers of ancient Memphis, Egypt's chief ...
p83
sg5
V4,300-Year-Old Pyramid Found in Egypt | Fox News
p84
sa(dp85
g3
VWriter Carl Hoffman traveled to Egypt in February 2011, ... The Great Pyramid at Giza, ... All I could think of is how hard it must have been to make them, ...
p86
sg5
VPyramids at Giza -- National Geographic
p87
sa(dp88
g3
VTwo possible pyramid complexes might have been found in Egypt, according to a Google Earth satellite imagery survey. Located about 90 miles apart, the sites contain ...
p89
sg5
VLost Egyptian Pyramids Found? : Discovery News
p90
sa(dp91
g3
VThe pyramids of Egypt are amazing structures and fascinate ... in her book The Pyramid Builders of Ancient Egypt, ... whose mummy or burial place has never been found.
p92
sg5
VThe Pyramids of Ancient Egypt - Answers in Genesis
p93
sa(dp94
g3
VKnowing the pyramids: In Ancient Egypt was polytheistic religion ... Numerous theories have been elaborated. ... A French architect believes he has found the answer ...
p95
sg5
VPyramids of Egypt |Articles Web
p96
sa(dp97
g3
V... the largest of the many pyramids of Egypt. ... that though many people have wandered and found many artifacts ... among many others. Time has been generous ...
p98
sg5
VGiant Mysteries - The Ancient Pyramids of Egypt
p99
sa(dp100
g3
V(Before It's News) The world has always been asking, \u201cwho built the great pyramids of Egypt.\u201d Most people believe it was the Egyptians, however, there is some ...
p101
sg5
VGiants Build the Ancient Pyramids of Egypt, Evidence Found ...
p102
sa(dp103
g3
VArcheologists have also found three ... The ancient history about Egypt pyramids The Pyramids of Gizas has revealed ... It has been repaired many times to ...
p104
sg5
Vgreat sphinx | Egypt Pyramids
p105
sa(dp106
g3
V... that she has found two possible pyramid ... they have been "very ... of ancient Egypt. "Her Dimai and Abu Sidhum 'pyramids' are ...
p107
sg5
VLong-lost Egyptian pyramids found on Google Earth? | Fox News
p108
sa(dp109
g3
V... there and ancient Egypt. The pyramids, ... pyramids were found to have been built with ... pyramid outside of Sedeinga is known to have been ...
p110
sg5
V35 pyramids found in Sudan necropolis: Links found between ancient ...
p111
sa(dp112
g3
VThe Pyramids of Giza in Egypt ... Ancient Egyptian Anecdotes Papyri translations, which have been edited to make
p113
sg5
VThe Pyramids of Giza in Egypt - Egypt Pyramids Pharaohs ...
p114
sa(dp115
g3
VMost of the pyramids can be found on the ... we have been able to ... Journey back four and a half thousand years to Egypt's Old Kingdom, to the Pyramid ...
p116
sg5
VPyramids in Egypt - Homework for kids - Woodlands Junior School ...
p117
sa(dp118
g3
VThroughout history there have been many theories ... a true pyramid shape. The ancient Egyptian pyramids ... ever discovered on the inside of the Egyptian ...
p119
sg5
VAncient Egyptian Pyramids
p120
sa(dp121
g3
VThis suggests the pyramid may have been designed to serve as a means to ... In 2008 only 118 pyramids had been discovered in Egypt. Many pyramids had been buried ...
p122
sg5
VOur World of Wonders, The Pyramids of Egypt, Thematic Unit Study
p123
sa(dp124
g3
VPYRAMIDS OF EGYPT . ... of a king was ever discovered in any of these pyramids, ... and the pyramid on Elephantine Island that has been accredited to Huni .
p125
sg5
VPYRAMIDS OF EGYPT - EGYPT GUIDE TRAVEL
p126
sa(dp127
g3
VThe Egyptian Pyramids Step Pyramid at ... but it has been repeated so many times that ... make reference to the temporary mud ramp found at Sekhemket\u2019s Pyramid, ...
p128
sg5
VRediscover Ancient Egypt - The Egyptian Pyramids at Giza, Sakkara ...
p129
sa(dp130
g3
VThe Pyramids of Egypt. Many of the pyramids were built with a number of different stone materials. ... The tombs of the pyramid builders have also been found, ...
p131
sg5
VThe Pyramids of Egypt - Crystalinks Home Page
p132
sa(dp133
g3
VThis suggests the pyramid may have been designed to serve as a ... but more have been identified and discovered ... There are many pyramids in Egypt.
p134
sg5
VYahoo! Answers - Pyramids of egypt?
p135
sa(dp136
g3
V... of precision machinery in ancient Egypt, the idea that the Great Pyramid was built by an advanced civilization ... line of pyramids has been discovered, ...
p137
sg5
V"Pyramids and Temples in Egypt" by Coen Vonk
p138
sa(dp139
g3
VMysteries Of The World: Have Two Lost Egyptian Pyramids Been Found?
p140
sg5
VMysteries Of The World: Have Two Lost Egyptian Pyramids Been Found?
p141
sa(dp142
g3
VHow many mummies were found in the pyramids at Giza? - How many bodies have been ... many bodies have been found inside pyramids? ... the Pyramids at Giza in Egypt, ...
p143
sg5
VHow many mummies were found in the pyramids at Giza? - WebAnswers.com
p144
sa(dp145
g3
VA densely packed cluster of 35 pyramids from 2,000 years ago has been ... influenced by Egyptian ... table found by the remains of a pyramid ...
p146
sg5
V35 Ancient Pyramids Discovered in Sudan Necropolis | LiveScience
p147
sa(dp148
g3
VAncient Egypt Pyramid facts top10 ... with Top 10 Pyramid Facts Pyramids continue to fascinate ... rough masonry have been stripped off many years ago ...
p149
sg5
VAncient Egypt Pyramid facts top10 blog by Explore Travel and Cruises
p150
sa(dp151
g3
VAt least 80 royal pyramids have been found in Egypt, ... The pyramid's outside would have been cased with fine limestone, but this was removed long ago.
p152
sg5
VPyramids - Egypt Hotel Reservation Centre
p153
sa(dp154
g3
VAt least 80 royal pyramids have been found in Egypt, ... The pyramid's outside would have been cased with fine limestone, but this was removed long ago.
p155
sg5
VPyramids - Egypt Hotel Reservation Centre
p156
sa(dp157
g3
VThe three major pyramids in the Giza Necropolis have been studied ... Pyramidal structures have been found in ... from the Great Pyramid of Giza in Egypt, ...
p158
sg5
VHow Were the Pyramids Constructed? | eHow
p159
sa(dp160
g3
VMummy parts have been found in pyramids. ... "To suppose that the pyramid's only function in ancient Egypt was as a royal tomb," wrote Miroslav Verner, ...
p161
sg5
VWhy were the Pyramids built? - Catchpenny Mysteries of Ancient Egypt
p162
sa(dp163
g3
VAncient Egypt Pyramid Discovered In Luxor, ... He has been in so many ... I am absolutely sure that more and more pyramids and other structures ...
p164
sg5
VAncient Egypt Pyramid Discovered In Luxor, Belonged To Vizier Of ...
p165
sa(dp166
g3
V... but three pyramids and laying the foundation for future Egyptian pyramids. Sneferu\u2019s first pyramid, ... There has been a lot of ... but rather has found it's ...
p167
sg5
VDaily Kos: Ancient Egypt: The First Pyramid
p168
sa(dp169
g3
V... at least two of the suspected pyramids have been confirmed and excavated. ... "Lost" Pyramid Found Buried in Egypt. Lost pyramids spotted from space - BBC.
p170
sg5
V17 Lost Egyptian Pyramids Discovered By Space Archaeologists
p171
sa(dp172
g3
VAltogether, there are around one hundred pyramids found in ancient Egypt. ... Unbelievably, some of the pyramid builders could have been women, ...
p173
sg5
VThe Great Pyramid Of Giza Facts - Pyramids in Ancient Egypt
p174
sa(dp175
g3
V17 Previously Undiscovered Pyramids Found In Egypt Posted: May 25, 2011 Using state ... At least two of the pyramids have already been excavated with excellent results.
p176
sg5
V17 Previously Undiscovered Pyramids Found In Egypt - The Inquisitr
p177
sa(dp178
g3
VPeople power may have come to modern-day Egypt and not Sudan, but the unearthing of ancient pyramids in Egypt's southern neighbour shows that greater social equality ...
p179
sg5
V.:Middle East Online::Newly found pyramids reveal aspects of ...
p180
sa(dp181
g3
VHow The Egyptian Pyramids Were ... and a ramp may have been coiled around the pyramid as it grew in ... then you've found a qualified coupon and can verify it ...
p182
sg5
VHow The Egyptian Pyramids Were Constructed
p183
sa(dp184
g3
VIt is the 118th pyramid found in Egypt to date. ... It and other surrounding similarly clad pyramids would have been visible for many kilometres ...
p185
sg5
VAncient Egypt - A Visit to the Newly Discovered Pyramid at Saqqara
p186
sa(dp187
g3
VThe satellite imaging has found new pyramids which predate ... discover 17 buried pyramids in Egypt, ... the pyramids have so far been confirmed by ...
p188
sg5
VAmerican archaeologists discover 17 buried pyramids in Egypt ...
p189
sa(dp190
g3
VThe Aztecs, Mayans, and ancient Egyptians were three very different civilizations with one very large similarity: pyramids. However, of these three ancient cultures ...
p191
sg5
VProbing Question: How were the Egyptian pyramids built? | Penn ...
p192
sa(dp193
g3
VDiscover the Egyptian pyramids. ... to have been chosen by the gods to serve ... lined up next to the Great Pyramid, and a tomb was found nearby containing ...
p194
sg5
VEgyptian Pyramids \u2014 History.com Articles, Video, Pictures and Facts
p195
sa(dp196
g3
VThe largest granite stones in the pyramid, found in the "King ... They have been preserved, along with the pyramid complex ... the oldest known of Egypt's 97 pyramids.
p197
sg5
VThe Great Pyramids in Egypt - Egypt Tours | Information | Egypt ...
p198
sa(dp199
g3
VI am giving you a secret that has been long kept. To build Egyptian type ... pyramid. They are all different in many ... pyramids discovered in Egypt , ...
p200
sg5
Vhow did they make egyptian pyramids - Ask.com
p201
sa(dp202
g3
VA new pyramid has been discovered deep beneath Egyptian sands, archaeologists announced today.
p203
sg5
VNew Pyramid Found in Egypt: 4,300-Year-Old Queen's Tomb
p204
sa(dp205
g3
VThe Great Pyramid According to the Ancient Egypt history. The ancient history about Egypt pyramids has put ... found through this way and many have been dug ...
p206
sg5
VEgypt Pyramids
p207
sa(dp208
g3
VFind out the results of radiocarbon dating of material from the pyramids of Egypt by ... by the pyramid age, the Egyptians had been ... early explorers found ...
p209
sg5
VHow Old Are the Pyramids | Mark Lehner's Team Finds Out |
p210
sa(dp211
g3
V... Jean-Pierre Houdin describes his theories about how the Great pyramid of Egypt was built. ... I may have found an interesting ... It has been interpreted ...
p212
sg5
VHow they Built the Great Pyramid of Egypt, page 1
p213
sa(dp214
g3
VPyramids of Egypt - Ancient Egypt for ... so that the greatest remains of Ancient Egypt are also some of the earliest to have been built! ... Building an Egyptian pyramid
p215
sg5
VPyramids of Egypt - Ancient Egypt for Kids!
p216
sa(dp217
g3
VIn the history of pyramid building construction has been used ... In Egypt, there are so many pyramids variety ... and are found above the statue of the Sphinx is ...
p218
sg5
VPyramids in Egypt | To Travelling
p219
sa(dp220
g3
VRed Ice Creations ... Two unidentified, possible pyramid complexes have been located with satellite imagery from Google Earth.
p221
sg5
VLost Pyramids of Egypt Found Using Google Earth? - Red Ice Creations
p222
sa(dp223
g3
V... Secret Chambers of the Great Pyramid of Khufu in Egypt. Home; Ancient Egypt; ... they have been working in the pyramids ... I have found a great deal of ...
p224
sg5
VSecret Chambers of the Great Pyramid of Khufu in Egypt
p225
sa(dp226
g3
VAncient Egyptian Pyramids; Giza, the site of the Great Pyramid ... Egyptian civilisation, the site has been ... have lived there. Archaeologists found ...
p227
sg5
VAncient Egypt: Pyramids of Giza
p228
sa(dp229
g3
V'Lost Pyramids' of Egypt Found ... Does this Google Earth image show a previously undiscovered ancient Egyptian pyramid ... The Egyptian sites have been sent to ...
p230
sg5
V'Lost Pyramids' of Egypt Found Using Google Earth? | TDG - Science ...
p231
sa(dp232
g3
VEgyptian Pyramid Facts. Enjoy our range of interesting Ancient Egyptian pyramid facts for kids. ... Over 130 pyramids have been discovered in Egypt.
p233
sg5
VAncient Egyptian Pyramid Facts for Kids - Giza, Djoser, Saqqara ...
p234
sa(dp235
g3
VThe pyramid has been attributed to the ... Menkauhor, Old Kingdom, Ancient Egypt, Pyramid, Egyptian pyramids ... 3,000-Year-Old Tombs Are Found in Egypt;
p236
sg5
VAncient Egyptian Pyramid Identified At Last - Science News - redOrbit
p237
sa(dp238
g3
VThere are several ways that the heavy blocks could have been ... the pyramids were recently found, and Egypt's chief ... Pyramid So Sloppy? Clue to Egypt's ...
p239
sg5
VHow Were the Egyptian Pyramids Built? | LifesLittleMysteries.com
p240
sa(dp241
g3
VA look at how the Egyptian pyramids ... Building in Egypt, p. 278. The pyramid blocks were hewn ... Extant ramps have been found at the pyramids of Amenemhat ...
p242
sg5
VHow were the Pyramids built? - Catchpenny Mysteries of Ancient Egypt
p243
sa(dp244
g3
VJust how many Egyptian Pyramids are ... But the best-known are the great pyramids found at ... Huge limestone blocks would have been floated down the River ...
p245
sg5
VEgyptian Pyramids - Which is the Most Famous?
p246
sa(dp247
g3
VThe step pyramid was originally intended to be a large ... About 100 pyramids have been discovered in Egypt but the largest and most well known are the ...
p248
sg5
VPyramids - Ancient Egypt - History on the Net Main Page
p249
sa(dp250
g3
VThe pyramid of an ancient Egyptian pharaoh has been rediscovered after being buried for generations, archaeologists announced today. (See photos and video.) The ...
p251
sg5
V"Lost" Pyramid Found Buried in Egypt - Daily Nature and Science ...
p252
sa(dp253
g3
VAround 138 pyramids have now been identified in Egypt (2008), ... Things found inside Zosers Step Pyramid; Pharaohs List; Pyramids by Night; Search The Web.
p254
sg5
VMysteries Of Ancient Egypt: The Pyramids of Africa
p255
sa(dp256
g3
VThe world has always been asking, \u201cwho built the great pyramids of Egypt.\u201d Most people believe it was the Egyptians, however, there is some debate on when the ...
p257
sg5
VGiants Build the Ancient Pyramids of Egypt, Evidence Found ...
p258
sa(dp259
g3
VThe Great Pyramid of Giza is the largest pyramid in Egypt ... Modern Pyramids. Pyramids have occasionally been ... An example of a modern pyramid can be found ...
p260
sg5
VPyramids and Mounds - Crystalinks - Crystalinks Home Page
p261
sa(dp262
g3
VHe has found the city of the pyramid ... route to the pyramids must have ... at another site in Egypt where cattle appeared to have been raised on a ...
p263
sg5
VWho Built the Pyramids? | Harvard Magazine Jul-Aug 2003
p264
sa(dp265
g3
VA great deal of the treasure stored in the pyramids has been ... Each pyramid has an ascending ... Egypt Pyramids; Mysterious Markings Discovered at the ...
p266
sg5
VThe Pyramids of Giza | PlanetWare - PlanetWare Travel Guide ...
p267
sa(dp268
g3
VThe precise age of the pyramids of Giza has long been ... People have been excavating in Egypt for ... have been found on them to connect the Great Pyramid of ...
p269
sg5
VNOVA Online/Pyramids/How Old Are the Pyramids?
p270
sa(dp271
g3
V... \u201cThere are many mysteries in Egypt, like the pyramids. ... the pyramids may have been built to ... and no super-technological cutting tools have been found.
p272
sg5
VFlash! Fox News Reports that Aliens May Have Built the Pyramids of ...
p273
sa(dp274
g3
V... is more than just three pyramids and the Sphinx. Each pyramid has a mortuary ... no vessels have been found ... builders may not have been from Egypt.
p275
sg5
VThe Pyramids Of Egypt - ICC (International Club to Culture) EGYPT
p276
sa(dp277
g3
VIn Egypt (Pyramids are found in many other ... of about 2120 feet high with sharp four corners each of 45 degrees has been claimed as a pyramid by one ...
p278
sg5
VThe Kerala Articles: The Pyramids of Giza
p279
sa(dp280
g3
VA university researcher has found new pyramids in Egypt through ... Pyramid expert Nabil Selim has verified that ... Some pyramids may have been wireless ...
p281
sg5
VGoogle Earth might have found new Egyptian pyramids - Neowin
p282
sa(dp283
g3
VThe rise and fall of the pyramid era. The pyramids epitomize ancient Egypt ... for the dead king and for the Egyptian gods may have been carried out. A ...
p284
sg5
VCULTUREFOCUS: Ancient Egypt. Pyramids of Giza, pictures and history.
p285
sa(dp286
g3
VEach pyramid has been the final resting place of an Egyptian king, called a \u201cpharaoh.\u201d ... As of late 2008, some 138 pyramids had been discovered in Egypt.
p287
sg5
VStanding the Test of Time: The Pyramids of Egypt
p288
sa(dp289
g3
VPyramids and the Ancient Egypt ... and explored Egypt they have discovered ... Pharaoh and his life has been known. Every Pharaoh had his pyramid ...
p290
sg5
VPyramids | Ancient Egypt
p291
sa(dp292
g3
VThere are many pyramids in Egypt, ... Well no one has actually been able to weigh a pyramid, ... Hand held lamps are commonly found in the ancient Mediterranean ...
p293
sg5
VQuestions about Egypt - Pyramids
p294
sa(dp295
g3
VArchaeologists have found ... of the Pyramid, there have been other discoveries that have ... of the pyramids in Egypt in many ...
p296
sg5
VWorld Mysteries - Mystic Places - The Great Pyramid of Giza in Egypt
p297
sa(dp298
g3
Vok pay attention.. the bbc are fucking assstards!!!! no body has ever been found in th fucking pyramid ... 10:02 The hidden secrets of Egypt Pyramids ...
p299
sg5
VPharaohs-The Great Pyramid of Egypt (How was it built?) - BBC 3 of ...
p300
sa(dp301
g3
VThe Great Pyramid of Giza in Egypt is the largest of the original Seven ... because many of the other pyramids in the area have been found to be burial chambers ...
p302
sg5
VGreat Pyramid - Home Page New
p303
sa.