(lp1
(dp2
S'description'
p3
VFull Text of Susan McDougal Indictment. ... a federal trial on criminal contempt charges in ... her in contempt of court because, as a result of her ...
p4
sS'title'
p5
VWashingtonpost.com: Whitewater Special Report
p6
sa(dp7
g3
VThe original indictment filed 12 counts against McDougal, ... trial; Charges: Two counts of criminal contempt and ... 1998 Susan McDougal was ...
p8
sg5
VThe trials and tribulations of Susan McDougal - April 8, 1999
p9
sa(dp10
g3
V... 1998 Susan McDougal Indicted for ... Susan McDougal on charges of criminal contempt and obstruction of ... at Mrs. McDougal's criminal trial, ...
p11
sg5
VSusan McDougal Indicted for Refusing to Answer Grand Jury's Questions
p12
sa(dp13
g3
V... including Susan McDougal. Federal trial ... 1998 for civil contempt of court, McDougal ... the OIC indicted McDougal on criminal contempt-of-court charges, ...
p14
sg5
VSusan McDougal - Wikipedia, the free encyclopedia
p15
sa(dp16
g3
VHillary Rodham Clinton was named in an indictment ... in the contempt-of-court trial of Susan H. McDougal, ... McDougal, acquitted of embezzlement charges ...
p17
sg5
VJames B. McDougal News - The New York Times
p18
sa(dp19
g3
VThe trial of Susan McDougal on criminal contempt and ... faces yet a a third trial which could result in a ... 1998, less than one week after Susan McDougal ...
p20
sg5
VWitnesses undermine Starr case against Susan McDougal - World ...
p21
sa(dp22
g3
VSusan McDougal, being detained for contempt of court, ... 1998 Susan McDougal is indicted on charges of criminal ... 1998 Starr brings a third indictment against ...
p23
sg5
VTime Line (1995-1998) - Washington Post: Breaking News, World, US ...
p24
sa(dp25
g3
V... saying he was not convinced the appeal would result in a ... she stands trial on embezzlement charges in ... Susan McDougal's contempt sentence for ...
p26
sg5
VFeatured Articles about Susan Mcdougal - Page 5 - Los Angeles Times
p27
sa(dp28
g3
VThe McDougal indictment, ... a jury trial on new criminal charges. ... prosecutors had sought to question Susan McDougal two weeks ago about a 1983 check for ...
p29
sg5
VStarr Secures an Indictment of McDougal - Los Angeles Times
p30
sa(dp31
g3
V... a long trial and ... And he had obtained a new indictment against Susan McDougal, ... on criminal contempt charges although there was no expectation that ...
p32
sg5
VThe Investigation: Starr's Work Could Last Till End of Clinton ...
p33
sa(dp34
g3
VSusan McDougal Jailed for Contempt. ... In April 1998 Susan McDougal completed ... President William Jefferson Clinton was free of all charges. Another McDougal Trial.
p35
sg5
VWhitewater Facts, information, pictures | Encyclopedia.com ...
p36
sa(dp37
g3
VState vs. Callahan Multiple count indictment and two week trial of owner ... 1998 when Kenneth Starr ... contempt trial of Susan McDougal on charges ...
p38
sg5
VTrial Experience - Home Page
p39
sa(dp40
g3
VSusan McDougal has spent 18 months ... The contempt charges she is now facing do not ... State laws governing contempt vary and can result in longer ...
p41
sg5
VMcDougal Trial Raises Questions of Contempt
p42
sa(dp43
g3
V... indictment of Susan McDougal, ... deadlocked on two counts of criminal contempt. ... he is the key defense witness in the trial on fraud and conspiracy charges ...
p44
sg5
VFeatured Articles about Susan Mcdougal - Page 2 - Sun Sentinel
p45
sa(dp46
g3
V... who will be representing the United States as first chair in the trial ... contempt charges against Susan McDougal in ... to the result, ...
p47
sg5
VTranscript: Independent Counsel Ken Starr - February 5, 1998
p48
sa(dp49
g3
V... MCDOUGAL HELD IN CONTEMPT OVER ... of federal charges. She was born Susan ... at her trial. Federal District Judge Susan Webber ...
p50
sg5
VMCDOUGAL HELD IN CONTEMPT OVER CLINTON TESTIMONY. - Free Online ...
p51
sa(dp52
g3
VReports on the indictment ... Information on the legal barriers in pursuing the charges in... Susan McDougal ... Clearing of embezzlement and contempt charges ...
p53
sg5
VEmbezzler gives back money, sort of - Tags: TRIALS (Embezzlement)
p54
sa(dp55
g3
V... Susan McDougal is a ... in contempt of court as a result of that. They are now threatening her with criminal contempt, a new indictment which could ...
p56
sg5
VOnline NewsHour: A Starr Investigation Update -- May 1, 1998
p57
sa(dp58
g3
VSusan McDougal isn't ... facing a third Starr indictment. But McDougal was ... trial in February on charges of obstruction of justice and ...
p59
sg5
VAS BILL PAL, SHE STILL HAS TO FACE STARR CHARGES - NY Daily News
p60
sa(dp61
g3
V... APW19990318.0168,"Who was Mrs. McDougal's lawyer in the 1998 indictment and trial of Susan McDougal ... the result of the contempt charges in the 1998 ...
p62
sg5
Vhomepages.inf.ed.ac.uk
p63
sa(dp64
g3
VForty minutes of the videotape was shown in court today during the contempt trial of Susan McDougal, ... The indictment charges ... 1998. The federal indictment ...
p65
sg5
VCLINTON'S ROGUES GALLERY: - DOWNSIDE LEGACY at two degrees of Bill ...
p66
sa(dp67
g3
V... Susan McDougal, ... trial and my day in court and I thank ... yet another indictment against Mrs McDougal on the two contempt of court charges.
p68
sg5
VArkansas judge rules Clinton in contempt of court | World news ...
p69
sa(dp70
g3
V... the criminal trial of James and Susan McDougal, ... result in a contempt-of ... for the new charges facing Susan McDougal.The notion that ...
p71
sg5
VArticles about Susan Mcdougal - Baltimore Sun
p72
sa(dp73
g3
VA federal jury on Monday acquitted Susan McDougal of ... Judge George Howard Jr. declared a mistrial on those charges. ... McDougal's attorney, said the trial result ...
p74
sg5
VJury Finds Mcdougal Innocent - Sun Sentinel
p75
sa(dp76
g3
V"No one knew who Susan McDougal was," Geragos says. By the time she was acquitted of all charges in 1998, McDougal was ... As a result, Geragos was named trial ...
p77
sg5
VMark Geragos - Southern California Criminal Defense Lawyers - King ...
p78
sa(dp79
g3
VIt came into National news as a result of ... Federal regulators said \u201cThe indictment against Susan McDougal details ... McDougal's trial for criminal contempt-of ...
p80
sg5
VCastle Grande - Wikipedia, the free encyclopedia
p81
sa(dp82
g3
V... believes he never would have been tried on Whitewater charges if Clinton ... Whitewater-related trial, ... partners James B. and Susan McDougal ...
p83
sg5
VA brutal twist for Clinton rival Nemesis: Arkansas Gov. Jim Guy ...
p84
sa(dp85
g3
VAndrophy obtained a dismissal of a federal indictment ... Androphy acted as co-counsel for Susan McDougal in the ... and in 1998 he won another ...
p86
sg5
VJoel M. Androphy - Criminal Defense Attorney: Berg & Androphy Law Firm
p87
sa(dp88
g3
VAlthough these are slightly different categories than the government's witness used at trial, Susan McDougal ... result of fraud), pet'n ... indictment to the jury ...
p89
sg5
VUNITED STATES v. McDOUGAL, No. 96-3270., February 23, 1998 - US ...
p90
sa(dp91
g3
VThose transactions later formed the basis of criminal charges against James and Susan McDougal and ... for civil contempt for ... 1998. McDougal, Susan. The ...
p92
sg5
VWhitewater Scandal - Encyclopedia of Arkansas
p93
sa(dp94
g3
VSusan McDougal, the former ... Kenneth W. Starr on charges of criminal contempt and ... called the indictment heavy-handed, and McDougal attorney Mark ...
p95
sg5
VMcDougal Indicted for Silence on Whitewater Investigation - The Tech
p96
sa(dp97
g3
VWhitewater figure Susan McDougal, who was found innocent of charges that she ... videotaped in April 1998. ... as part of the contempt trial of Susan McDougal, ...
p98
sg5
VArticles about Whitewater by Date - Page 5 - Chicago Tribune
p99
sa(dp100
g3
V... 78 counts of bank fraud as a result of her ... 1998 when Kenneth Starr appeared ... the Criminal contempt trial of Susan McDougal on charges brought by ...
p101
sg5
VRichard Holiman | DUI Counseling | ZoomInfo.com
p102
sa(dp103
g3
VLearn and talk about Susan McDougal , and check out ... McDougal's trial for criminal contempt-of ... charges, CNN, November 23, 1998 ...
p104
sg5
VLearn and talk about Susan McDougal, Living people, People from ...
p105
sa(dp106
g3
VSusan McDougal, being detained for contempt of court, ... 4 May 1998: Susan McDougal is indicted on charges of ... 13 Nov 1998: Starr brings a third indictment ...
p107
sg5
Vimpeachtimeline - Wake Forest Student, Faculty and Staff Web Pages
p108
sa(dp109
g3
VWhitewater figure Susan McDougal has been ... and now McDougal goes on trial today facing a three-count indictment alleging criminal contempt and obstruction ...
p110
sg5
VArticles about Whitewater Figure - Orlando Sentinel
p111
sa(dp112
g3
VHis victims have included former Whitewater partner Susan McDougal, jailed for 18 months on contempt charges and currently awaiting trial on ... tax fraud indictment.
p113
sg5
VAppeals court reinstates tax case against Webster Hubbell - World ...
p114
sa(dp115
g3
VSusan H. McDougal, * * ... 3Her felony convictions were affirmed in February 1998. United States v. McDougal, ... Part of the record in the criminal contempt trial and
p116
sg5
VUnited States Court of Appeals
p117
sa(dp118
g3
VStarr\u2019s report mentions no impeachable offenses by Clinton as a result of the ... with a contempt indictment of Susan McDougal, ... and other charges.
p119
sg5
VWhere's Whitewater? - Salon.com
p120
sa(dp121
g3
VSUSAN McDOUGAL. THE CLINTON PARDONS ... Steele\u2019s trial on charges of obstruction of justice and making false ... In June 1998, McDougal was freed from federal ...
p122
sg5
VTHE AFTERMATH
p123
sa(dp124
g3
VIn the first trial James and Susan McDougal and Arkansas ... In February 1998, both James McDougal and former ... who still faced his own contempt charges, ...
p125
sg5
VWhitewater legal definition of Whitewater. Whitewater synonyms by ...
p126
sa(dp127
g3
VAs a result, there may have been charges of ... obtaining the indictment and proposed to use at trial was ... 1998: Susan McDougal was indicted on charges of ...
p128
sg5
VBEGINNING IN LITTLE ROCK
p129
sa(dp130
g3
V... Dateline NBC ran a two-part profile of convicted Whitewater felon Susan McDougal ... contempt charges ... trial court papers in the indictment ...
p131
sg5
VMediaWatch - February 1998 -- Media Research Center
p132
sa(dp133
g3
VJim Henley's Trial On Fraud Charges Is ... Starting in 1982 and operated by Jim McDougal-Susan McDougal Madison Guaranty Savings ... (1957\u20131998), ...
p134
sg5
VRegaining respect; Jim Henley's trial on fraud charges is over ...
p135
sa(dp136
g3
V... whom McDougal accuses of lodging theft charges ... called to testify at Susan McDougal's embezzlement trial, ... indictment alleges that the ...
p137
sg5
VWITNESS MAID MCDOUGAL'S DAY - NY Daily News
p138
sa(dp139
g3
V... to seek an indictment of Jim and Susan McDougal and others ... to trial in March 1996 amid charges by ... Ms. McDougal had been found in contempt by ...
p140
sg5
VStarr's prepared text - ArkansasOnline.com
p141
sa(dp142
g3
VIn the first trial James and Susan McDougal and Arkansas ... In February 1998, both James McDougal and former ... who still faced his own contempt charges, ...
p143
sg5
VWhitewater - lawbrain.com
p144
sa(dp145
g3
VSusan H. McDOUGAL, Defendant-Appellant. No ... Guy Tucker on charges that ... under the case number associated with her 1998 criminal contempt trial, ...
p146
sg5
VUNITED STATES v. McDOUGAL, No. 08-2524., March 20, 2009 - US 8th ...
p147
sa(dp148
g3
VPelley also reported the indictment of McDougal, ... Susan McDougal was hit with more charges of criminal contempt and obstruction of justice.
p149
sg5
VCyberAlert -- 05/05/1998 -- Inappropriate to Ask Clinton ...
p150
sa(dp151
g3
V... 1998: Ken Starr seeks contempt charges ... As a result of your callous ... Deputy Independent Counsel Hickman Ewing testifies at the Susan McDougal trial that he ...
p152
sg5
VClinton impeachment timeline - Welcome to CUNY - The City ...
p153
sa(dp154
g3
V... 1998: Ken Starr seeks contempt charges ... As a result of your callous ... Deputy Independent Counsel Hickman Ewing testifies at the Susan McDougal trial that he ...
p155
sg5
VClinton impeachment timeline - Welcome to CUNY - The City ...
p156
sa(dp157
g3
VIn the first trial James and Susan McDougal and Arkansas ... In February 1998, both James McDougal and former ... who still faced his own contempt charges, ...
p158
sg5
VHole (River) legal definition of Hole (River). Hole (River ...
p159
sa(dp160
g3
V... his 1999 story on the trial of Whitewater figure Susan McDougal reflects his ... Rock for McDougal's subsequent contempt trial for ... to my indictment.
p161
sg5
VSeattle News and Events | Walt Crowley, 60
p162
sa(dp163
g3
VFocuses on Susan McDougal's acquittal on charges of ... indictment against James McDougal, Susan ... Susan McDougal's upcoming trial for contempt as ...
p164
sg5
VArticles citations with the tag: MCDOUGAL, Susan, 1955- -- Trials ...
p165
sa(dp166
g3
V... 1998, Hill was indicted on criminal charges. ... faces more charges as a result of an indictment ... in the Susan McDougal criminal contempt trial ...
p167
sg5
VAMPP: *Gate - mega.nu - Daniel Pouzzner - douzzer@mega.nu
p168
sa(dp169
g3
VJames McDougal is indicted on federal fraud charges related to his management ... Susan McDougal, being detained for contempt of ... 1998 McDougal is released from ...
p170
sg5
VTalking With Susan McDougal
p171
sa(dp172
g3
V... [Susan] McDougal stated her full name "for the record", ... 1998, McDougal spent the maximum possible 18 months imprisonment for civil contempt, ...
p173
sg5
VThe Right To Lie to the Cops - Page 2
p174
sa(dp175
g3
V... in her recent trial on obstruction of justice and contempt charges. ... In finding McDougal not guilty of obstruction ... abusive indictment on Julie Hiatt ...
p176
sg5
VBad Days at Prosecutor Central
p177
sa(dp178
g3
V... leaving coverage of Susan McDougal\u2019s trial mostly to the ... associates to convict her on the contempt charges. ... avoid indictment by changing my ...
p179
sg5
VRemember Ken Starr? He Hasn\u2019t Gone Away | Observer
p180
sa(dp181
g3
VStarr's November 1998 indictment of Hubbell does ... trial of Jim and Susan McDougal and ... her on new charges of criminal contempt and ...
p182
sg5
Vfrontline: once upon a time in arkansas: THE CASTLE GRANDE DEAL
p183
sa(dp184
g3
VWhitewater figure Susan McDougal, ... criminal contempt counts for ... The single indictment was the only one to result from a
p185
sg5
VThursday, May 7, 1998 Laredo Morning Times PAGE 9A NATIONAL Woman ...
p186
sa(dp187
g3
V... the separate indictment against Gov ... she remains jailed on civil contempt charges stemming from her ... Testifying at the Susan McDougal trial, ...
p188
sg5
VClinton was more Gangsta that 50 Cent - Conspiracy Theory - tribe.net
p189
sa(dp190
g3
VHowever it is true that he was not convicted as a result ... she remains jailed on civil contempt charges ... Testifying at the Susan McDougal trial, ...
p191
sg5
VIsn't it amazing how many people actually believe Clinton was ...
p192
sa(dp193
g3
VHubbell is accused in the November 1998 indictment of concealing his ... The judge in Susan McDougal's trial froze jury ... face criminal contempt charges ...
p194
sg5
VCLINTON'S ROGUES GALLERY: - DOWNSIDE LEGACY at two degrees of Bill ...
p195
sa(dp196
g3
V... called the indictment "57 pages of baloney," and denied the ... Susan McDougal, and Arkansas Gov. Jim Guy Tucker are on trial on charges of criminal fraud ...
p197
sg5
VCNN - U.S. News Briefs - Mar. 15, 1996
p198
sa(dp199
g3
V... loan connected to James and Susan McDougal, ... suspected getting an indictment would be difficult, and decided instead to concentrate on charges ...
p200
sg5
VLaw Prof Writes \u2018Explosive\u2019 New Book on Whitewater, Lewinsky ...
p201
sa(dp202
g3
VAre There Any Additional Charges Against Kevin in the ... In late 1998, Kevin contacted the ... enabling Susan McDougal to answer pending state charges while ...
p203
sg5
VState of California v. Kevin David Mitnick
p204
sa(dp205
g3
V... Jim Guy Tucker and Susan McDougal. In 1998, ... during the course of your trial?" Susan McDougal refused to ... charges that Susan McDougal had made ...
p206
sg5
VStarr's Testimony Before the Judiciary Committee (2/7) [November ...
p207
sa(dp208
g3
Vincapacitated for having permitted such a result. ... the charges" -- Washington Post, October 1998 ... tax-evasion indictment.-- Prosecution of Susan McDougal on ...
p209
sg5
VWhitewater and Clinton Scandal Clips
p210
sa(dp211
g3
VStarr's subsequent indictment of McDougal for criminal contempt of court ... 1998. ... pursuing new criminal charges ... Please note that a result does not ...
p212
sg5
VWhat is BILL CLINTON CRIMINAL?
p213
sa(dp214
g3
VAs a result, Starr\u2019s ... Starr\u2019s office returned a 15-count indictment ... Jim McDougal told investigators that at the time Clinton and Susan McDougal ...
p215
sg5
VBrother on brother - Salon.com
p216
sa(dp217
g3
VHe testified during Susan McDougal's trial on criminal contempt ... In November 1998, Starr got a third indictment ... She was acquitted in November 1998 of charges ...
p218
sg5
VGabrielle Cusumano, Political Blog, Conservative Bloggers ...
p219
sa(dp220
g3
VOnly after coming under indictment in 1993 for charges in just such a scheme ... By April 1998, ... it came up with only a contempt indictment against Susan McDougal.
p221
sg5
VWhitewater - Activity Stream - Goodbadcorrupt.com Forum
p222
sa(dp223
g3
V... if the evidence warranted, to seek an indictment of Jim and Susan McDougal and ... trial in March of 1996, amid charges by ... Susan McDougal. In 1998, ...
p224
sg5
VImpeachment Inquiry: William Jefferson Clinton, President of the ...
p225
sa(dp226
g3
V... [Susan] McDougal stated her full name "for the record", ... 1998, McDougal spent the maximum possible 18 months imprisonment for civil contempt, ...
p227
sg5
VThe Right To Lie to the Cops - Page 2 - Baltimore Sun talk forum
p228
sa(dp229
g3
V... 11 Whitewater figure Susan McDougal; 12 ... single acts of contempt can result in both criminal ... over the post-trial contempt ...
p230
sg5
VFederal Contempt of Court by Joel Androphy
p231
sa(dp232
g3
VWhitewater trial of Arkansas Gov. Jim ... Susan McDougal, being detained for contempt of ... 1998 Susan McDougal is indicted on charges of criminal contempt and ...
p233
sg5
VLetter: It\u2019s wrong to put spouse of former president in Oval ...
p234
sa(dp235
g3
VHubbell was scheduled to go to trial in August to face charges that he ... others could result. The original indictment ... Susan McDougal and Julie Hiatt ...
p236
sg5
VHubbell Deals With Starr, Agrees To Plead Guilty To Cover-up ...
p237
sa(dp238
g3
V... pleaded guilty to two charges in his Arkansas trial ... matter are beneath contempt. ... fraud and conspiracy trial of James and Susan McDougal, ...
p239
sg5
VThe Clinton Crime Family - William Jefferson Clinton Memorial Library
p240
sa(dp241
g3
VAnd he said prosecutors should move now to retry Susan McDougal on the criminal contempt charges on ... 1998, landed McDougal in ... Susan McDougal's trial even ...
p242
sg5
VAMPP: Reno and Starr - mega.nu - Daniel Pouzzner - douzzer@mega.nu
p243
sa(dp244
g3
V1998 The Clinton Administration ... Jim Guy Tucker and Jim and Susan McDougal, ... After countless trials and hearings, Susan McDougal refuses to speak on the ...
p245
sg5
VThe Clintongate Administration - The Capitalist Conservative ...
p246
sa(dp247
g3
VThe result is rampantly biased interpretation based on virtually no ... The indictment suggested that the money might have ... WHEN SUSAN MCDOUGAL WAS READY ...
p248
sg5
VWhitewater and Clinton Scandal Archives of the Progressive Review ...
p249
sa(dp250
g3
VThe criminal investigation of Clinton in the Lewinsky matter began in January 1998. ... Susan H. McDougal : Indictment 8/17/95. Trial 3 ... contempt of court charges ...
p251
sg5
VIndependent counsel says prosecutors had ample evidence to charge ...
p252
sa(dp253
g3
V... to Whitewater figure Susan McDougal ... for civil contempt after she refused to testify about the truthfulness of Clinton's testimony at her trial, ...
p254
sg5
V[CTRL] WP: Clinton Administration Delays in Issuing Pardons
p255
sa(dp256
g3
V... Susan McDougal explained her ... will be tried in June on charges of ... if the case had gone to trial. But what makes the indictment of Steele even more ...
p257
sg5
VSteele Trap - The New Republic
p258
sa(dp259
g3
V... disagreed with the findings\u201d of Judge Wright\u2019s contempt ... incurred as a result of the Lewinsky investigation to ... co-conspirator Susan McDougal.
p260
sg5
VClinton\u2019s disgraceful departure - WND - A Free Press for a Free ...
p261
sa(dp262
g3
V... statements made in open court suggesting that trial judges have engaged in ... McDougal Quiet at Grand Jury; Criminal Contempt Indictment Possible.
p263
sg5
VThe power behind the robe: a primer on contempt law: judges have ...
p264
sa(dp265
g3
V... said the recent exoneration of Susan McDougal in an Arkansas ... the jurors felt that McDougal had been guilty of contempt. ``But those 12 ... of the charges ...
p266
sg5
VStarr: Counsel Law Has Failed To Rid Process Of Politics ...
p267
sa(dp268
g3
VAfter countless trials and hearings, Susan McDougal ... Clinton has also become the first US president cited for contempt ... When faced with indictment ...
p269
sg5
VDo you think Hiliary Clinton is unworthy candidate? - Yahoo! Answers
p270
sa(dp271
g3
VGrand Jury Indicts Susan McDougal For Contempt - May 4, 1998: ... she wants to go to trial and present evidence ... The indictment charges Taylor with directing a ...
p272
sg5
VIndicts - Factbites
p273
sa(dp274
g3
V... 1998 --- New York ... making it easier to bring legal charges against employers whose workplace is ... Susan McDougal's release from prison for medical ...
p275
sg5
VJudicial Triple-Header
p276
sa(dp277
g3
V... pleaded guilty to two charges in his Arkansas trial ... their ethics and principles in this matter are beneath contempt. ... Susan McDougal was indicted on ...
p278
sg5
VThe Clinton Crime Family
p279
sa(dp280
g3
VJim McDougal died in prison and Susan McDougal served a year and a half behind ... back in 1997 or 1998 ... the lesson here is that the result was ...
p281
sg5
VWhitewater: Case Closed - CBS News - Breaking News Headlines ...
p282
sa(dp283
g3
VAfter countless trials and hearings, Susan McDougal refuses to ... When faced with indictment he fled to ... of justice in attempt to coverup as a direct result of ...
p284
sg5
VClinton Scandals - The Berean Chronicles
p285
sa(dp286
g3
VShe is expected to be spotlighted in the criminal contempt trial of her Whitewater partner Susan McDougal, ... Interior under federal contempt charges.
p287
sg5
Vwww.dailyrepublican.com
p288
sa(dp289
g3
VSUSAN SCHMIDT, WASH POST, 1998 ... The indictment charges that Hubbell falsely told ... Yost notes the criminal contempt trial of Susan McDougal: ...
p290
sg5
VHsu's Legal Process Continues As Rezko's Heats Up
p291
sa(dp292
g3
VHe was co-counsel in the fraud trial of Jim and Susan McDougal, ... The charges result from Operation Madhouse, ... the indictment charges. ...
p293
sg5
VAssistant U.S. Attorney | Federal Criminal Defense Lawyers
p294
sa(dp295
g3
VSusan McDougal was ... enough to warrant an indictment. A Federal judge orders a trial on ... pleaded guilty to two charges in his Arkansas trial ...
p296
sg5
VHillary Clinton in talks about possible move to World Bank | Pitts ...
p297
sa(dp298
g3
V... pleaded guilty to two charges in his Arkansas trial ... their ethics and principles in this matter are beneath contempt. ... Susan McDougal was indicted on ...
p299
sg5
VThe Clinton Crime Family - Discover the Networks
p300
sa(dp301
g3
V... to trial for a crime punishable by death or by imprisonment in the penitentiary unless either the initial charge has been brought by indictment of a ... a result ...
p302
sg5
VIllinois Grand Juror Handbook
p303
sa.