(lp1
(dp2
S'description'
p3
VIMF Members' Quotas and Voting ... Dependent territories of member countries are listed alphabetically followed by a description of the constitutional relationships ...
p4
sS'title'
p5
VIMF Country Information Page
p6
sa(dp7
g3
VThe International Monetary Fund (IMF) is an international organization that was initiated in 1944 at the Bretton Woods Conference and formally created in 1945 by 29 ...
p8
sg5
VInternational Monetary Fund - Wikipedia, the free encyclopedia
p9
sa(dp10
g3
VWith its near-global membership of 188 countries, the IMF is uniquely placed to help member governments ... it mobilized on many fronts to support its member countries.
p11
sg5
VAbout the IMF: Overview: What we do
p12
sa(dp13
g3
VList of Member Countries ... List of Members. Last Updated: June 13, 2012. The International Monetary Fund (IMF) is an organization of 188 countries, working to ...
p14
sg5
VList of Members\u2019 Date of Entry
p15
sa(dp16
g3
VThe original members of the IMF were the 29 nations whose governments had ratified the Articles of Agreement by 27 December 1945. Any other state, whether ...
p17
sg5
VMembership - The International Monetary Fund (IMF)
p18
sa(dp19
g3
VThe International Monetary Fund (IMF) is an international organization. 187 countries are members of the International Monetary Fund. It has its headquarters in ...
p20
sg5
VInternational Monetary Fund - Simple English Wikipedia, the free ...
p21
sa(dp22
g3
VThe IMF is governed primarily by an executive board that consists of representatives of the IMF member countries, ... rates in many countries under IMF ...
p23
sg5
VIMF 20 Questions on the IMF - Third World Traveler, third world ...
p24
sa(dp25
g3
VAlthough many countries were represented at the Bretton Woods Conference, ... Each member state of IBRD should be also a member of the International Monetary Fund ...
p26
sg5
VWorld Bank - Wikipedia, the free encyclopedia
p27
sa(dp28
g3
VMember countries govern the World Bank Group through the Boards of Governors and the Boards of ... a country must first join the International Monetary Fund ...
p29
sg5
VAbout Us - Member Countries
p30
sa(dp31
g3
VHow many countries are there in IMF? 187 ... Answers members: Username. Lost password? Password. Remember me. Battle of Midway; Battle of Stalingrad; Battle of the Bulge;
p32
sg5
VHow many countries are in the imf - The Q&A wiki
p33
sa(dp34
g3
VHow many members are in IMF? In: Economics [Edit categories] Answer: 186. Improve answer. First answer by Contributor . Last edit by Contributor. Question popularity ...
p35
sg5
VHow many members are in IMF - The Q&A wiki
p36
sa(dp37
g3
VToday, the IMF has 182 member nations and a staff of about 2600 in 110 countries, with headquarters in Washington, ...
p38
sg5
VWhat is the IMF? - IGC Internet -- The Progressive Community
p39
sa(dp40
g3
VHow Many Countries Will Need IMF Help? By S. Adam Cardais on November 04, 2008 ... Further exposing many countries are high foreign exchange loan volumes.
p41
sg5
VHow Many Countries Will Need IMF Help? - Businessweek
p42
sa(dp43
g3
VThe International Monetary Fund (IMF) is an ... the IMF became more involved with its member countries\u2019 economic policies, ...
p44
sg5
VTHE IMF INTERNATIONAL MONETARY FUND - SOLAR NAVIGATOR ENCYCLOPEDIA ...
p45
sa(dp46
g3
V... of $25.1 billion\u2014the IMF's first rescue of a European Union member. ... the view among many emerging-market countries that the IMF is "a stooge of ...
p47
sg5
VThe IMF: Busy Bailing Out Troubled Countries - Businessweek
p48
sa(dp49
g3
VAlso created at the Bretton Woods Conference, the mission of the International Monetary Fund (IMF) ... which represents member countries.
p50
sg5
VWorld Bank / IMF FAQs | Global Exchange
p51
sa(dp52
g3
VThe International Monetary Fund (IMF) ... Even though the member countries may borrow money to make their quota contributions, it is, in reality, ...
p53
sg5
VThe International Monetary Fund - Inicio
p54
sa(dp55
g3
VThe British delegation argued for a fund which could help the member nations economically, ... The International Monetary Fund came into existence on December 27, ...
p56
sg5
VHistory of IMF (International Monetary Fund) - Buzzle
p57
sa(dp58
g3
V\u201c International Monetary Fund's Financial Assistance Policies: ... Since the IMF and member nations accepted the dollar as equal to gold, ...
p59
sg5
Vinternational monetary system Facts, information, pictures ...
p60
sa(dp61
g3
VThe International Monetary Fund (IMF or Fund) ... providing Fund support for commercial bank debt and debt service-reduction operations by member countries.
p62
sg5
VInternational Monetary Fund: The Role of the IMF and IMF History
p63
sa(dp64
g3
VThe IMF, or International Monetary Fund, is an organization of 187 member countries. Their goal is to work with the Fund to stabilize the global economy by ...
p65
sg5
VWhat Is the IMF or International Monetary Fund
p66
sa(dp67
g3
VWASHINGTON, March 25 (Reuters) - International Monetary Fund member countries have rejected an idea supported by IMF chief Dominique Strauss-Kahn to create ...
p68
sg5
VIMF member countries reject green fund plan | Reuters
p69
sa(dp70
g3
VThe IMF is an international organization of 184 member countries. ... International Monetary Fund, 700 19th Street, N.W., Washington, D.C. 20431. Tel: (202) 623-7000
p71
sg5
VInternational Monetary Fund - IMF - :: Brown Consultancy ::
p72
sa(dp73
g3
V... the IMF is not a cash drain on the U.S. and other member countries, ... Like economically successful Chile and many other nations, the clients of the IMF and ...
p74
sg5
VWhy We Should Terminate the IMF & World Bank
p75
sa(dp76
g3
VThe International Monetary Fund has become the latest forecasting body to slash its growth ... when its first 29 member countries signed its Articles ...
p77
sg5
VWhat is the IMF? - Telegraph - Telegraph.co.uk - Telegraph online ...
p78
sa(dp79
g3
VThe only countries that did not belong the IMF were Cuba and North Korea.
p80
sg5
VWhat countries were the only non-members of the International ...
p81
sa(dp82
g3
VThe International Monetary Fund (IMF) ... Those member countries that borrow from the IMF invariably ask for currency that can be readily converted, ...
p83
sg5
VInternational Monetary Fund (IMF) Study Guide & Homework Help ...
p84
sa(dp85
g3
VThe Annual Meetings of the International Monetary Fund ... It does so in three ways: keeping track of the global economy and the economies of member countries; ...
p86
sg5
VWhat's the Annual Meetings of the IMF and World Bank? | 2012 TOKYO ...
p87
sa(dp88
g3
VThe loans are funded by quota contributions from member countries. The IMF states that \u201cTransparency helps economies function better and makes them less vulnerable ...
p89
sg5
VThe International Monetary Fund - UCL - London's Global University
p90
sa(dp91
g3
V
sg5
VBhutan - What is the World Bank ?
p92
sa(dp93
g3
VRole in Global Economic Issues For many countries, the IMF has been the organization to ... Many members feel that they should have more of a stake in what the ...
p94
sg5
VCan The IMF Solve Global Economic Problems?
p95
sa(dp96
g3
VInternational Monetary Fund (IMF) is an international financial institution that promotes economic cooperation among the member countries for ensuring rapid economic ...
p97
sg5
VPurpose of IMF - Buzzle
p98
sa(dp99
g3
VREPORT TO CONGRESS ON THE USE OF SPECIAL DRAWING RIGHTS BY IMF MEMBER COUNTRIES August 2010 This report has been prepared pursuant to section 67 of the Bretton Woods ...
p100
sg5
VREPORT TO CONGRESS ON THE USE OF SPECIAL DRAWING RIGHTS BY IMF ...
p101
sa(dp102
g3
VAll powers of the IMF are vested in its Board of Governors, on which all member states are represented. Each member state appoints one governor and one ...
p103
sg5
VStructure - The International Monetary Fund (IMF) - located ...
p104
sa(dp105
g3
VThere are 177 member countries of the World Bank, ... Feinberg, Richard and Gwin Catherine The International Monetary Fund in a Multipolar World: Pulling Together.
p106
sg5
VIMF And The World Bank - MUNFW, Inc
p107
sa(dp108
g3
VThe arrest of Dominique Strauss-Kahn, the managing director of the International Monetary Fund, ... The IMF receives funding from its 187 member countries, ...
p109
sg5
VWhat Exactly Does the IMF Do? | Fox Business
p110
sa(dp111
g3
VFurther, in 1998 total quotas contributed by member countries to the IMF equaled roughly US$ 193 billion \u2013 in 2006, total quotas reached US$ 317.3 billion.
p112
sg5
VFunding the IMF | University of Iowa Center for International ...
p113
sa(dp114
g3
VThe IMF was originally designed to promote international economic cooperation and provide its member countries with ... countries, the IMF forces countries ...
p115
sg5
VTop Ten Reasons to Oppose the IMF | Global Exchange
p116
sa(dp117
g3
VThe International Monetary Fund, or IMF, and the World Bank's forerunner were set up to manage the post-World War II global economy. ... paid by member nations.
p118
sg5
VBBC News - Profile: IMF and World Bank
p119
sa(dp120
g3
V... The push to reinvent the International Monetary Fund took a ... The fund's 186 member nations agreed to draft a new and broader ... Yet many nations, ...
p121
sg5
VNations Cast Plan for Expanded IMF - Washington Post
p122
sa(dp123
g3
VHow many members are there in world bank and imf? ... Can I as a citizen of a United Nations member state ask for copies of videotapes on meetings?
p124
sg5
VHow many members are there in world bank and imf? - Yahoo! Answers
p125
sa(dp126
g3
VThe IMF or International Monetary Fund was founded in 1945 by 29 member nations. Its purpose was to facilitate global financial stability.
p127
sg5
VIMF, International Monetary Fund | Economy Watch
p128
sa(dp129
g3
VList of IMF and World Bank Member Countries. Afghanistan / Albania / Algeria / Angola / Antigua and Barbuda / Argentina / Armenia / Australia / Austria / Azerbaijan ...
p130
sg5
VList of IMF and World Bank Member Countries | 2012 TOKYO ANNUAL ...
p131
sa(dp132
g3
VThe International Monetary Fund, both criticized and lauded for its efforts to promote financial stability, ... The IMF cannot force its will on member countries; ...
p133
sg5
VThe International Monetary Fund - Council on Foreign Relations
p134
sa(dp135
g3
VInternational Monetary Fund said it was not studying plans to grant Argentina more funds to help it through its ... paid in by the IMF's 182 member countries.
p136
sg5
VIMF stuff from witiger.com - Prof. W. Tim G. Richardson, Toronto ...
p137
sa(dp138
g3
VOnly a handful of UN member countries, including Cuba and the Democratic People's Republic of Korea, ... World Bank and The International Monetary Fund:
p139
sg5
VWorld Bank and the International Monetary Fund Origins IMF World Bank
p140
sa(dp141
g3
VThe International Monetary Fund (IMF) ... In stark comparison to the influence of the rich countries, the largest African member of the Fund \u2013 South Africa ...
p142
sg5
VInternational Monetary Fund - SourceWatch
p143
sa(dp144
g3
VThe International Monetary Fund (IMF) is an international organization that provides financial assistance and advice to member countries. This article will discuss ...
p145
sg5
VAn Introduction To The International Monetary Fund (IMF)
p146
sa(dp147
g3
VInternational Monetary Fund , specialized agency of the United Nations, ... The IMF provides policy advice and financing to member countries with economic problems.
p148
sg5
VInternational Monetary Fund | Infoplease.com
p149
sa(dp150
g3
VWith the departure of the head of the International Monetary Fund, ... The IMF will issue a loan to one of its member countries, but there are conditions.
p151
sg5
VIMF loans: which country owes the most? | News | guardian.co.uk
p152
sa(dp153
g3
VIMF Interactions with Member Countries: The Civil Society Dimension . ... However, this list has had limited coverage of many IMF members, including the six SSA . 25
p154
sg5
VIMF Interactions with Member Countries: The Civil Society Dimension
p155
sa(dp156
g3
VThe IMF's influence in the global economy steadily increased as it accumulated more members. The number of IMF member countries ... International Monetary Fund\u2019s ...
p157
sg5
VVultures in The International Monetary Fund
p158
sa(dp159
g3
VIMF / World Bank: the facts New Internationalist magazine ... Other member countries are divided into blocs, with one nation 'representing' them on the Board.
p160
sg5
VIMF / World Bank: the facts - Third World Traveler, third world ...
p161
sa(dp162
g3
V"The International Monetary Fund today recognised the Federal Government of Somalia, ... and many IMF member countries," the IMF said. ...
p163
sg5
VIMF recognises Somalia government - Africa - Al Jazeera English
p164
sa(dp165
g3
VIn collaboration with member countries, the IMF delivers technical assistance through missions from headquarters, short-term expert assignments, ...
p166
sg5
VArchived - Canada at the IMF and World Bank - 2010
p167
sa(dp168
g3
VThe International Monetary Fund wants its members to pledge an additional $500 billion to help tackle financial problems around the world. And it's urging its largest ...
p169
sg5
VIMF Seeking Additional Funding From Member Nations
p170
sa(dp171
g3
VThey have called for changes to the quota system in which votes in the IMF are weighted in line with member nations' financial contributions.
p172
sg5
VBBC News - Profile: IMF and World Bank
p173
sa(dp174
g3
VI. Exit: The Transition from Program to Surveillance-only Status in Emerging Market Economies and Its Impact on IMF-Country Interactions; Series Number: BP/09/06 ...
p175
sg5
VIMF Interactions with Member Countries
p176
sa(dp177
g3
VThe special drawing right (SDR) is an international reserve asset, created by the IMF in 1969 to supplement the existing official reserves of member countries.
p178
sg5
VThe IMF's special drawing rights (SDRs) (Bretton Woods Project)
p179
sa(dp180
g3
VThe International Monetary Fund was created with a goal to stabilize exchange rates and ... IMF lends to various member countries in the form of ...
p181
sg5
VIMF & Impact On India - Upload & Share PowerPoint presentations ...
p182
sa(dp183
g3
VSDRs are allocated by the IMF to its member countries and are backed by the full faith and credit of the member countries' governments. History of SDRs: ...
p184
sg5
VSDR by IMF - Scribd
p185
sa(dp186
g3
VThe International Monetary Fund's interactive global economy forum. Home; About Us; Bloggers; ... I\u2019d like to know whether IMF extends help to NON MEMBER countries.
p187
sg5
VIMF Helping Africa Through the Crisis | iMFdirect - The IMF Blog
p188
sa(dp189
g3
VOne of the most critical of the IMF conditions in many countries has been that governments have ... Worst affected are the innocent members of the public ...
p190
sg5
VIMF: Bailing out countries or foreign banks?
p191
sa(dp192
g3
VThe International Monetary Fund (IMF), is an organization originating, like the World Bank, from the Bretton Woods Conference of 1944. ... by their member countries.
p193
sg5
VA Dollar a Day :: The World Bank and IMF - ThinkQuest
p194
sa(dp195
g3
VMark Weisbrot: The IMF's conditions on financial aid to poor countries are unnecessary. It can afford to be more generous
p196
sg5
VThe IMF is hurting poor countries | Mark Weisbrot | Comment is ...
p197
sa(dp198
g3
VUS Leaders Urge Congress to Ratify IMF Voting Reforms: The Obama administration has asked U.S. lawmakers ... US Calls for Ban on Drunk Diplomats at UN Meetings: The ...
p199
sg5
VWorld Bank Member Countries, World Bank Directory | Economy Watch
p200
sa(dp201
g3
VThe International Monetary Fund ... Member countries may, for example, use the reverse tranche and the credit tranche, or they may receive emergency assistance.
p202
sg5
VThe International Monetary Fund (IMF) \u2013 FREE The International ...
p203
sa(dp204
g3
VNot a member? Join Here. About. How Answers Works; Points & Levels; ... The book indicates that the IMF has bailed out many countries,what is meant by bailout?
p205
sg5
VThe book indicates that the IMF has bailed out many countries,what ...
p206
sa(dp207
g3
V... from the United Nations, the African Union, the European Union, the Organisation of Islamic Cooperation, and many IMF member countries,\u201d the IMF said. ...
p208
sg5
Vgulftoday.ae | Somali PM hails IMF decision to recognise Somalia
p209
sa(dp210
g3
VThe IMF is mandated to oversee the international monetary system and monitor the economic and financial policies of its 188 member countries.
p211
sg5
VIMF Surveillance
p212
sa(dp213
g3
VYet, at the same time many view the IMF with disdain, ... Compiling statistics and evaluation of its member countries economies (Nearly all in UN are members of IMF)
p214
sg5
VEconomics Essays: IMF - Advantages and Disadvantages
p215
sa(dp216
g3
VThe IMF was conceived primarily as a supervisory ... This is to be achieved through maintaining monetary exchange stability and assisting member countries who are ...
p217
sg5
VBackground to the issues (Bretton Woods Project)
p218
sa(dp219
g3
VDefinition: The IMF is the International Monetary Fund, headquartered in Washington, D.C. It's a global organization made up of 185 member countries, founded in 1944 ...
p220
sg5
VIMF - Definition of IMF - World News - About World News from ...
p221
sa(dp222
g3
VHow the World Bank and IMF are Destroying the Global Economy. ... into countries where they were talking about privatizing and selling off these assets.
p223
sg5
VHow the World Bank and IMF are Destroying the Global Economy
p224
sa(dp225
g3
V(source: IMF) 4. Managed Float. intervention has not declined: ... (iii) A member should take into account the interests of other member countries, ...
p226
sg5
VCurrent International Monetary System - Department of Economics
p227
sa(dp228
g3
V(Reuters) - IMF chief Christine Lagarde on Thursday urged member countries to quickly sign off on an agreement last year to double IMF resources and give ...
p229
sg5
VIMF urges members to boost funding under 2010 plan | Reuters
p230
sa(dp231
g3
VAt the request of several African member countries, the IMF has assigned a small number of resident representatives and technical experts in specific areas.
p232
sg5
VThe World Bank and IMF in Africa | Did You Know
p233
sa(dp234
g3
VReport to Congress on the Use of Special Drawing Rights by IMF Member Countries - Free download as PDF File (.pdf), Text File (.txt) or read online for free. U.S ...
p235
sg5
VReport to Congress on the Use of Special Drawing Rights by IMF ...
p236
sa(dp237
g3
Vinterlocutors in member countries, many of whom have themselves spent time as Fund and ... Voting and Decisions in the International Monetary Fund (Washington, DC:
p238
sg5
VThe United States and the International Financial Institutions ...
p239
sa(dp240
g3
V... iMFdirect blog India inequality inflation International Monetary Fund investment Italy Japan jobs monetary policy ... in relation to member countries ...
p241
sg5
V2010: The Year of IMF Reform | iMFdirect - The IMF Blog
p242
sa(dp243
g3
VRelations with Non-Member Countries ... Article XI Relations with Non-Member Countries Section 1. Undertakings regarding relations with non-member countries
p244
sg5
VIMF Articles: Relations with Non-Member Countries
p245
sa(dp246
g3
VIMF / WORLD BANK DESTROYING COUNTRIES. ... However, none of this seems to bother the American people or members of the press. Bush is a wartime president ...
p247
sg5
VIMF / WORLD BANK DESTROYING COUNTRIES - Unity Publishing ...
p248
sa(dp249
g3
VThe International Monetary Fund was established ... To the left: The Executive Board of the IMF. Consisting of 24 member countries. Of which 16 seats ...
p250
sg5
VIMF History - UC Atlas of Global Inequality
p251
sa(dp252
g3
VThe IMF has 185 member countries divided into 24 constituencies. New Zealand is in a constituency with 13 other members at the IMF.
p253
sg5
VInternational Monetary Fund \u2014 The Treasury - New Zealand
p254
sa(dp255
g3
VChile became a member of the Organisation on 7 May 2010, ... International Monetary Fund, ... and many other United Nations bodies.
p256
sg5
VMembers and partners - Organisation for Economic Co-operation and ...
p257
sa(dp258
g3
V... many countries - one monetary system . ... on the occasion of the International Monetary Fund ... and the national central banks of the EU Member States); ...
p259
sg5
VECB: EMU: many countries - one monetary system
p260
sa(dp261
g3
VInternational Monetary Fund VS ... and growth of international trade Currently 182 member countries By sharing economic policies the system of buying and selling ...
p262
sg5
VInternational Monetary Fund VS The World Bank
p263
sa(dp264
g3
V1 International Monetary Fund overview; 2 IMF approves governance and quota changes; ... first, through immediate bilateral financing from IMF member countries
p265
sg5
VIMF - Riski - freerisk
p266
sa(dp267
g3
V... term financial assistance and promoting external balance stability in member countries with a wider responsibility of ... International Monetary Fund ...
p268
sg5
VThe IMF response to the crisis: Crisis prevention and political ...
p269
sa(dp270
g3
VThey were designed by the International Monetary Fund and the ... Both have over 170 member countries whose power ... The inability of many countries to repay ...
p271
sg5
VHow The IMF-World Bank and Structural Adjustment Program Destroyed ...
p272
sa(dp273
g3
VMany Asian countries built ... of $250 billion toward increasing global liquidity will be based on the existing quotas of IMF member countries. Since the ...
p274
sg5
VA development-blind G20 outcome that empowers an unreformed IMF
p275
sa(dp276
g3
V(This is about the same as the risk that IMF members bear for a bailout.) ... or if even multiple smaller member countries were in serious trouble?
p277
sg5
VAsk a Korean!: IMF Bailout of Korea During East Asian Financial ...
p278
sa(dp279
g3
VThe map shows the geographical distribution of IMF arrangements at ... They are short term loans intended to provide support to member countries ...
p280
sg5
VCurrent IMF Arrangements - UC Atlas of Global Inequality
p281
sa(dp282
g3
VMost of the world\u2019s trading nations are members, ... The lack of foreign exchange is a key reason developing countries turn to the IMF for loans, ...
p283
sg5
VDecommissioning The IMF, World Bank and WTO - STWR - Share The ...
p284
sa(dp285
g3
VThe flags of the countries that are members of the United Nations fly outside U.N. headquarters in New York City. ... "How many countries are in the world?"
p286
sg5
VThe Number of Countries in the World - Number of Countries Worldwide
p287
sa(dp288
g3
VThis is the site for Member States of the United Nations. Here you will find information and links.
p289
sg5
VUnited Nations Member States
p290
sa(dp291
g3
Vcountries to join the 15 current members of the EU. ... "On a Common Currency for the GCC Countries", IMF's Policy Discussion Paper No. 02/12, 2 December 2002.
p292
sg5
VThe Insider - Single currency for Middle East - approved by IMF.
p293
sa(dp294
g3
VThe Treasury Department leads the U.S. Government's engagement in the International Monetary Fund (IMF). The IMF is an organization of 188 member countries that works ...
p295
sg5
VInternational Monetary Fund - U.S. Department of the Treasury
p296
sa(dp297
g3
VThis can lead to the formation of other barriers between member countries and non-member countries, ... International Monetary Fund (IMF), The World Bank, ...
p298
sg5
VRole in the Global Economy of International Organizations ...
p299
sa(dp300
g3
VSDRs are allocated to member countries in proportion to their IMF quotas 5, but SDRs can be issued by the IMF only when 85 percent of the IMF membership agrees.
p301
sg5
VFACTSHEET: SPECIAL DRAWING RIGHTS (SDR) OF THE IMF What is it?
p302
sa.