(lp1
(dp2
S'description'
p3
VThe euro area includes those EU Member States that have adopted the single currency. But the euro area ... is sufficiently prepared for adoption of the single ...
p4
sS'title'
p5
VAdopting the euro - European Commission
p6
sa(dp7
g3
VThe name euro was officially adopted on 16 ... The earliest date was in ... One of the advantages of the adoption of a common currency is the reduction of the ...
p8
sg5
VEuro - Wikipedia, the free encyclopedia
p9
sa(dp10
g3
VThe adoption of the euro ... then 12 and 13 and 15 members since January this year. ... Members that once adopted the single currency have to put more ...
p11
sg5
VECB: The adoption of the euro: principles, procedures and criteria
p12
sa(dp13
g3
VThe Euro was officially created on 1 st January 1999 . At that date the exchange rate between the old currencies and the Euro was fixed, and banking was done in Euros ...
p14
sg5
VWhen was the Euro adopted - The Q&A wiki
p15
sa(dp16
g3
VCurrently 5 of the new members have adopted the euro: Slovenia (1 January 2007) Cyprus ... (euro adoption day coincides with the first day of circulating euros)
p17
sg5
VEnlargement of the eurozone - Wikipedia, the free encyclopedia
p18
sa(dp19
g3
VThe Euro Summit will meet at least twice a year, ... brings together the heads of state or government of European Union countries that have adopted the euro, ...
p20
sg5
VEuro Summit rules of procedures adopted - Eurozone
p21
sa(dp22
g3
VSome have expressed their wish to adopt the euro immediately after the two-year ... before the adoption of the euro. ... the euro is adopted as the ...
p23
sg5
VThe Euro - Currency System, by Cloanto - Server Software, Web ...
p24
sa(dp25
g3
VWhich countries have adopted the euro - and when? 1999: Belgium, Germany, Ireland, Spain, France, Italy, Luxembourg, the Netherlands, Austria, Portugal and Finland:
p26
sg5
VThe euro - European Commission
p27
sa(dp28
g3
V2 are participants in ERMII and have a targeted date for Euro adoption: Lithuania- January 2012 ... Since the Euro was adopted in 2002, Belgium, ...
p29
sg5
VThe Euro- FAQ - ibiblio - The Public's Library and Digital Archive
p30
sa(dp31
g3
VSixteen member states have adopted the euro ... Criteria for membership in the European Union and adoption of the euro ... The following year the European ...
p32
sg5
VEconomic and Monetary Union and the Euro - 1. History \u2013 Adopting ...
p33
sa(dp34
g3
V... "A day will come when all nations on our continent will form a European brotherhood ... The euro was adopted by eleven countries including Austria ...
p35
sg5
VWhen did the Euro begin? - ThinkQuest
p36
sa(dp37
g3
VWhy did France adopt the euro? Because they wanted to herp their derp. What year did France adopt the euro? France adopted the Euro on January 1, 1999 along with 10 ...
p38
sg5
VWhen did France adopt the Euro - The Q&A wiki
p39
sa(dp40
g3
V... The ETUC demands the adoption of an ambitious European ... per year. The European trade unions note that the European Union has still not adopted a ...
p41
sg5
V28 April 2013 - World Day for Safety and Health at Work: The ETUC ...
p42
sa(dp43
g3
Vthe same year the 9 EU States of origin ... comparative review of European adoption research realized in ... intercountry adopted children often have ...
p44
sg5
VInternational Adoption in the European Union - Scribd
p45
sa(dp46
g3
Vregulation as adopted by the European Union sets the effective date one day before the IASB ... since Adopted EU-adoption Effective Date* Regulation as of ...
p47
sg5
VIFRS adopted by the European Union - Home - Ernst & Young - United ...
p48
sa(dp49
g3
VThe Euro is the new 'single currency' of the European Monetary Union, adopted on ... 2002 was the last day for changing old currency to Euro at any bank for the ...
p50
sg5
VEuro Currency | OANDA
p51
sa(dp52
g3
VMain About the Euro Adoption in Lithuania About the Euro Adoption in Lithuania. Print Send to a friend. The Euro and the Euro Area; Euro Banknotes and Coins;
p53
sg5
VLithuania in the European Union - About the Euro Adoption in Lithuania
p54
sa(dp55
g3
VPoland's adoption of the Euro in 2015 is very realistic and more likely than in 2014, but it isn't a target date, Deputy Finance Minister Ludwik Kotecki told reporters.
p56
sg5
VPoland delays adoption of the Euro until 2015 \u2014 MercoPress
p57
sa(dp58
g3
VThe Council of the European Union adopted a decision to delay by one year implementation of the Emissions Trading Scheme for ... European Commission Proposes Stronger ...
p59
sg5
VThe Council of the European Union adopted a decision to delay by ...
p60
sa(dp61
g3
VAdoption of the euro: The euro banknotes and coins were introduced in Spain on 1 January 2002, ... Brussels approves Spain's two-year deficit delay
p62
sg5
VSpain and the euro \u2014 European business, finance and EU political ...
p63
sa(dp64
g3
V... linked their currencies in order to prevent large fluctuations prior to the adoption of the euro.) ... That year, it also adopted the European Monetary ...
p65
sg5
VEuro: the common currency explained - World - CBC News
p66
sa(dp67
g3
VPoland Backtracks on Euro Adoption. ... respect before Poland adopted the euro, ... also a possibility\u201d as the target date for Poland\u2019s euro ...
p68
sg5
VPoland Backtracks on Euro Adoption - Emerging Europe Real Time - WSJ
p69
sa(dp70
g3
VHearing before the Plenary of the European Parliament on the occasion of the adoption of the ... second half of this year. ... hopefully be adopted and provide ...
p71
sg5
VECB: Hearing before the Plenary of the European Parliament on the ...
p72
sa(dp73
g3
V1 January 2002 ("E-Day") Beginning today, euro bills and coins will replace the national bills and coins in 12 European countries. ... Definition adopted: ...
p74
sg5
VThe EURO - Europes's New Currency
p75
sa(dp76
g3
V... adoption of a new European law which will improve rights for an estimated 75 million crime victims across the EU each year. ... been adopted. European ...
p77
sg5
VPutting victims first: New European law improving rights for ...
p78
sa(dp79
g3
VWhat is the Euro (EUR)? Credit Ratings & Outlook. ... It grew by 2.11% over the previous year. Unemployment. The latest unemployment rate for 2010 is 9.57%.
p80
sg5
VWhat is the Euro (EUR)? | GoCurrency.com - Currency Converter ...
p81
sa(dp82
g3
VMany of the children adopted were European and Japanese war orphans. ... the year a visa was issued may not be the year the adoption was finalized.
p83
sg5
VADOPTION INSTITUTE: INTERNATIONAL ADOPTION FACTS
p84
sa(dp85
g3
VProblems with the Adoption ... the European switch from Old Style to New Style was complicated by ... This date also saw the calendar adopted throughout the ...
p86
sg5
VThe Gregorian Calendar - European History The History of Europe
p87
sa(dp88
g3
VHungary\u2019s Earliest Euro-Adoption Date Is 2018. ... Hungary\u2019s earliest possible date to adopt the euro is 2018, Prime Minister Viktor Orban said, ...
p89
sg5
VHungary\u2019s Earliest Euro-Adoption Date Is 2018 - Bloomberg
p90
sa(dp91
g3
VEuro information. Status: Euro-area member since 1 January 1999 Fixed conversion rate: \u20ac1 = 1.95583 DEM Adoption of the euro: The euro banknotes and coins were ...
p92
sg5
VGermany and the euro \u2014 European business, finance and EU ...
p93
sa(dp94
g3
VDEFINITIVE ADOPTION. of the European Union\u2019s general budget for the financial year ... for the financial year 2012 has been definitively adopted. Done at Brussels, ...
p95
sg5
VDefinitive adoption of the European Union's general budget for the ...
p96
sa(dp97
g3
VInternational adoption has continued to date, ... was the realization that some of the children adopted from Eastern European orphanages were more negatively ...
p98
sg5
VInternational Adoption - Adoption Encyclopedia
p99
sa(dp100
g3
VLast year, my institution, the European Central Bank, ... the adoption of a foreign country's ... A monetary constitution was then adopted in the early 1990s with ...
p101
sg5
VECB: An analysis of the international role of the euro: its impact ...
p102
sa(dp103
g3
VEuropean Convention on the Adoption of Children ... Adoption confers on the adopted person in respect of the adopter ... date and place of birth of the adopted ...
p104
sg5
VEuropean Convention on the Adoption of Children
p105
sa(dp106
g3
VMajor bank branches opened for a few hours in Cyprus despite the New Year holiday. The Maltese celebrated the euro's arrival with fireworks.
p107
sg5
VBBC NEWS | Europe | Cyprus and Malta adopt the euro
p108
sa(dp109
g3
VIn 2002 it was reported that the euro would be adopted as an official currency in Cuba's ... See adoption. ... Has set 2014 as its target date to join euro.
p110
sg5
VEuro
p111
sa(dp112
g3
VRomania has dropped setting a target date for adopting the euro, ... for the first time a programme on progress towards adoption of the euro without a target date. ...
p113
sg5
VRomania drops target date for euro adoption
p114
sa(dp115
g3
V... (a two-year currency stability test for euro hopefuls) by the end of 2009. ... Euro adoption is all Bulgaria needs now to be completely destroyed.
p116
sg5
VBulgaria Likely to Adopt Euro in 2012-2013 - Novinite.com - Sofia ...
p117
sa(dp118
g3
VDate posted: November 13, 2010 Suggested Citation. Palea, Vera, The Effects of the IAS/IFRS Adoption in the European Union on the Cost of Equity: ...
p119
sg5
VThe Effects of the IAS/IFRS Adoption in the European Union on the ...
p120
sa(dp121
g3
V... Slovenia officially joined the Eurozone and adopted the euro as its new official currency. ... After that date it will be possible to exchange tolar banknotes ...
p122
sg5
VSlovenia adopts euro - Wikinews, the free news source
p123
sa(dp124
g3
VClick to learn more about Eastern European Adoptions. ... Birthmother's Day Recent ... HAGUE CONVENTION ON INTERCOUNTRY ADOPTION; MEDICAL PROBLEMS OF ADOPTED ...
p125
sg5
VEastern European Adoptions - Adoption Encyclopedia
p126
sa(dp127
g3
VBirthmother's Day Recent Placement ... and adopted by his maternal uncle ... We can\u2019t wait to start a family through the miracle of adoption, and we want to help ...
p128
sg5
VEuropean - Famous Adoptees, Adopted People, Celebrities, Actors ...
p129
sa(dp130
g3
VAny region that previously used currencies from the above countries has also adopted the Euro. This applies to the Principality of Andorra, ...
p131
sg5
VEUR - Euro rates, news, and tools
p132
sa(dp133
g3
VEuropean Convention on the Adoption of Children ... which contains extracts from the public records attesting the date and place of birth of the adopted ...
p134
sg5
VEuropean Convention on the Adoption of Children (Revised), 2008
p135
sa(dp136
g3
VInternational adoption statistics for the year 2008. ... Top European Countries ... Curious about how many parents adopted from what countries last year?
p137
sg5
VInternational Adoption Statistics for the year 2008
p138
sa(dp139
g3
VDay in History; Home; World. Countries; Atlas; ... adopted the euro in 2001.) ... Danish voters rejected adoption of the euro in a referendum in 2000; ...
p140
sg5
VEuropean Monetary System | Infoplease.com
p141
sa(dp142
g3
VResolution adopted by the ETUC Steering Committee on 13 July 2004 and endorsed by its ... It was this that prompted the European Parliament and, a year later, ...
p143
sg5
VThe European Constitution - ETUC
p144
sa(dp145
g3
VEUROPEAN PARLIAMENT DEFINITIVE ADOPTION. ... Union for the financial year 2012 has been definitively adopted. Done at Strasbourg, 20 April 2012. The President.
p146
sg5
VDefinitive adoption of amending budget No 1 of the European Union ...
p147
sa(dp148
g3
VAdoption in Europe, and mainly Eastern Europe, is a region from which many Americans seek adoption placements. While there have always been high numbers of adopted ...
p149
sg5
VAdoption Europe - Foster - Adoption.org
p150
sa(dp151
g3
VDay in History; Home; World. Countries; Atlas; News; History; Geography; Structures & Buildings; ... The 12 nations that adopted the euro are: Austria, Belgium ...
p152
sg5
VEuro Introduced | Infoplease.com
p153
sa(dp154
g3
VOLDHAM MUM FIGHTS THE FORCED ADOPTION OF HER PRECIOUS CHILD THROUGH THE EUROPEAN ... I believe some 1,000 children a year are wrongly adopted in ...
p155
sg5
VMum\u2019s care baby fight goes to Euro court - UKCORRUPTFAMILYCOURTS
p156
sa(dp157
g3
VAndorra, Montenegro, and Kosovo have adopted the euro unilaterally, while not being EU members as well." ... Who discovered the Rosetta Stone and in what year?
p158
sg5
VHave all countries in the European Union converted their currency ...
p159
sa(dp160
g3
VMOSCOW \u2014 Russia threatened to suspend all child adoptions by U.S. families Friday after a 7-year-old boy adopted by a woman from Tennessee was sent alone on a one ...
p161
sg5
VBoy sent back to Russia; adoption ban urged
p162
sa(dp163
g3
VHow many countries moved to using the euro officially at that date? Europe's Currency -The Euro: 12. Belgium, Germany, ... In 2002, Greece adopted the Euro.
p164
sg5
VThe Euro - Fun Facts and Information - Fun Trivia Quizzes - World ...
p165
sa(dp166
g3
VWorld Consumer Rights Day Industry ... The first subsidiary legislations enacted under the Euro Adoption Act was the Legal Notice on Dual Display and Euro ...
p167
sg5
VMinistry for Finance - Euro - MFIN - Home
p168
sa(dp169
g3
VEuropean Year for Active Ageing (2012 ... Position of the European Parliament adopted at first reading on 7 July 2011 with a view to the adoption of Decision No ...
p170
sg5
VTexts adopted - Thursday, 7 July 2011 - European Year for Active ...
p171
sa(dp172
g3
VThe Council of Europe agreed to the use by the Community of the European flag that it had adopted in ... the European Commission believed that adoption date of ...
p173
sg5
VEuropean Union - CRW Flags Inc. Store in Glen Burnie, Maryland
p174
sa(dp175
g3
VAdoption of IFRSs for Use in the European ... it is published in the Official Journal and enters into force on the day ... and Interpretations adopted by the European ...
p176
sg5
VIFRS in Europe \u2013 Background information \u2014 IAS Plus
p177
sa(dp178
g3
VThe euro has been adopted ... its adoption. Slovakia adopted the euro on ... on it come from the European Central Bank. The proposed date for ...
p179
sg5
VEuropean Currency page
p180
sa(dp181
g3
VThis plan became part of the Maastricht Treaty on European Union adopted by the European Council in December 1991. ... followed by Cyprus and Malta a year later.
p182
sg5
VEconomic and monetary union (EMU) and the euro
p183
sa(dp184
g3
Vthat IFRS would be adopted in Europe. ... Events and Predicted Effects on Likelihood of European Adoption of IFRS Event Date Description Assessed Effect
p185
sg5
VMarket Reaction to the Adoption of IFRS in Europe
p186
sa(dp187
g3
V\u2013 having regard to the Foreign Affairs Council Conclusions on the European Neighbourhood Policy, adopted on ... this year 's Annual Report ... adoption of the ...
p188
sg5
VChoisissez la langue de votre document : - European Parliament
p189
sa(dp190
g3
VWHERE FAMILIES completed THROUGH ADOPTION IN EASTERN EUROPEAN AND CENTRAL ASIAN ... The adopted children of FRUA's families come from all ... This year, FRUA offers ...
p191
sg5
VFRUA Home Page - Eastern European Adoption
p192
sa(dp193
g3
VThe debt of the euro region rose last year to the highest since the start of the single currency as governments increased borrowing to plug budget deficits ...
p194
sg5
VEuro-Region Debt Rises to Highest in Currency\u2019s History - Bloomberg
p195
sa(dp196
g3
VAlso on This Day Lead Story The euro debuts, 1999 American Revolution ... adopted the euro in January 2001, becoming the 12th member of the so-called eurozone. ...
p197
sg5
VThe euro debuts \u2014 History.com This Day in History \u2014 1/4/1999
p198
sa(dp199
g3
VFrom that date, the ECB was ... San Marino and the Vatican (the Holy See) have subsequently adopted the new currency. ... Can I use the euro in the UK?
p200
sg5
Vthe euro
p201
sa(dp202
g3
VWho can be adopted from Ukraine? ... European Children Adoption Services is fully accredited under the U.S. Intercountry Adoption Act (IAA) ...
p203
sg5
VEuropean Children Adoption Services - Programs - Adoption from ...
p204
sa(dp205
g3
VGirls were younger at time of adoption (76% adopted at age ... and the remaining respondents were adopted by European ... (such as gender and year of adoption) ...
p206
sg5
VADOPTION INSTITUTE: SURVEY OF ADULT KOREAN ADOPTEES
p207
sa(dp208
g3
Vcommon currency adopted originally by 11 European nations starting January 1, 1999. The first to adopt the Euro were: Austria, Belgium, ... On that date, the ...
p209
sg5
VEuro Definition | Business Dictionaries from AllBusiness.com
p210
sa(dp211
g3
VThis date was important not only as the history of Euro in its cash form, but this date was also important ... The history has started in 1999 with the Euro adoption.
p212
sg5
VHistory of Euro
p213
sa(dp214
g3
VYear in Review Links; euro, monetary unit and currency of the European Union (EU). ... both Malta and the Greek Cypriot sector of Cyprus adopted the euro in 2008.
p215
sg5
Veuro (currency unit) -- Encyclopedia Britannica
p216
sa(dp217
g3
VThis is an account of the introduction, and adoption, of the Gregorian Calendar. ... This Day In European History; Most Popular. The Borgias; Napoleon Bonaparte;
p218
sg5
VThe Gregorian Calendar - European History The History of Europe
p219
sa(dp220
g3
VReferate Adoption of euro by Romania. ... which cannot exceed with more than 2% the interests from the most advanced member states in the year before the examination;
p221
sg5
VAdoption of euro by Romania - Referat.ro - referate, lucrari de ...
p222
sa(dp223
g3
VChildren adopted from Eastern Europe do have a ... Learning and Emotional Issues of Chidren from Eastern European Adoption ... Top 10 New Year's ...
p224
sg5
VLearning and Emotional Issues of Chidren from Eastern European ...
p225
sa(dp226
g3
VTen year anniversary of the euro passes with little fanfare, as 12 nations which share common currency continue to grapple with economic crisis.
p227
sg5
VEuro News - The New York Times
p228
sa(dp229
g3
VToday the European Parliament adopted its annual ... and suggests additional action in the coming year. The European Parliament acknowledges that the EU has ...
p230
sg5
VHuman rights in the world: European Parliament zooms in on LGBT ...
p231
sa(dp232
g3
VAnimal Testing Restrictions Adopted By European Parliament ... The revision to the 25-year-old rules had originally envisioned a more complete ban on primate ...
p233
sg5
VAnimal Testing Restrictions Adopted By European Parliament
p234
sa(dp235
g3
VThe ordinary legislative procedure shall consist in the joint adoption by the European ... Legal acts adopted by ... They shall enter into force on the date ...
p236
sg5
VConsolidated version of the Treaty on the Functioning of the ...
p237
sa(dp238
g3
VThe suggestion by Germany's finance minister Oskar Lafontaine that target zones be adopted has been rejected by other European ... as it has in the past year. The ...
p239
sg5
VInternational Effects of the Euro | Brookings Institution
p240
sa(dp241
g3
VInternational Adoption: Eastern Europe ; Adopted Children: ... 20% under 1 year of age 51% 1 ... Eastern European Adoption Coalition, Inc.
p242
sg5
VRussian Adoption - International Adoption from Russia
p243
sa(dp244
g3
V... we evaluate the common assertion that EU firms began using IFRS by 2005 when the EU formally adopted ... Adoption of IFRS in the European ... year is ...
p245
sg5
VDeviations from the Mandatory Adoption of IFRS in the European ...
p246
sa(dp247
g3
VA Little-Known Trend\u2014European and Canadian Families Adopting Black ... after a year of trying ... At adoption conferences, Fleming says, "white ...
p248
sg5
VWhy Are American Babies Being Adopted Abroad? - Adoption, Real ...
p249
sa(dp250
g3
VSuppose that Greece had never adopted the Euro and the ... national interest rates converged in the wake of the adoption of the euro. ... PASOK's policy to date ...
p251
sg5
VGreece and the euro: Was it worth it? | The Economist
p252
sa(dp253
g3
VEuropean Adoption Consultants uses the phrase, ... One of the events European Adoption Consultants hosts is a Memorial Day Picnic with over 3000 people, ...
p254
sg5
VEuropean Adoption Consultants International Adoption Agency
p255
sa(dp256
g3
VAdoption.com is the authority for all things adoption. ... Pre-finalization & Just Adopted Ages & Stages ... December 2013 Due Date Buddies ...
p257
sg5
VAdoption, International, Domestic, Waiting Child, Baby, Infant, Open
p258
sa(dp259
g3
VSlovakia adopted the euro in January 2009 and Estonia joined in January 2011). Exchanging Irish banknotes and coin. ... the year and a national emblem.
p260
sg5
VAbout the euro
p261
sa(dp262
g3
V... 76% were ages one year to four years ... after concerns arose about the welfare of children adopted from Russia by U ... European Adoption ...
p263
sg5
VThe Adoption Guide: Adoption from Russia
p264
sa(dp265
g3
VEvery year, thousands of ... however, that embracing another culture is one of the unanticipated joys of intercountry adoption. How do internationally adopted ...
p266
sg5
VThe Adoption Guide: Adopting Internationally
p267
sa(dp268
g3
VU.S. families adopt approximately 20,000 children from other countries each year. Who Chooses International Adoption? ... and want to be adopted by any european or ...
p269
sg5
VInternational Adoption | International Adoption Basics - Adoptive ...
p270
sa(dp271
g3
VThe infants available through international adoption are under a year old. ... We adopted not just one 10 month ... From everyone here at European Adoption ...
p272
sg5
VEuropean Adoption Consultants' Blog | Helping families with ...
p273
sa(dp274
g3
VJanuary 1, 1999 . As revelers rang in the New Year round the globe, the European Union started the New Year with a new common currency, the Euro.
p275
sg5
VOnline NewsHour: The Euro Unveiled -- January 1, 1999
p276
sa(dp277
g3
VSeek out family and friends who are supportive of your adoption journey or who have already adopted. Online Adoption ... Birthmother's Day Propaganda? Why Foster ...
p278
sg5
VPreparing to Parent the Adopted Child - Adoption and Foster Care ...
p279
sa(dp280
g3
VEuropean Children Adoption Services has been uniting families since 1998.
p281
sg5
VECAS | European Children Adoption Services | International Adoption
p282
sa(dp283
g3
V... established the mechanisms and timetable for the adoption of the Euro as the ... per Euro by the summer of that year. ... have adopted the Euro, ...
p284
sg5
VEuropean Union Facts, information, pictures | Encyclopedia.com ...
p285
sa(dp286
g3
VHowever, residents of the first European Union countries that adopted the euro didn't begin using euro banknotes and coins until January 1, 2002.
p287
sg5
VEuro Countries - Countries Using the Euro
p288
sa(dp289
g3
VOur adoption consultants, many of whom have adopted themselves, know many of your personal concerns. We're fully accredited. ... & Adoption Celebration is coming soon!
p290
sg5
VEuropean Adoption Consultants
p291
sa(dp292
g3
VAlthough the need for adoption standardization is strong to date, only eight states have adopted the ... The English and their European neighbors took their adoption ...
p293
sg5
Vadoption Facts, information, pictures | Encyclopedia.com articles ...
p294
sa(dp295
g3
VBirthmother's Day Recent Placement ... Pre-finalization & Just Adopted Ages & Stages ... The children's data is provided by various adoption organizations.
p296
sg5
VInternational Adoption Photolisting - Adoption.com Waiting Children
p297
sa(dp298
g3
VAfter Is\u0103rescu's declaration, many people commented that they were surprised by how late the target date for euro adoption had been set, being 7-9 years away.
p299
sg5
VRomania to adopt euro between 2012 and 2014 - Wikinews, the free ...
p300
sa(dp301
g3
VPublications Search Start Date. to; Publications Search End Date; View All. Events. ... Amendments to the Capital Requirements Directive Adopted by European Parliament.
p302
sg5
VAmendments to the Capital Requirements Directive Adopted by ...
p303
sa.