(lp1
(dp2
S'description'
p3
VWhat did Janet Reno accomplish? ... She also focused her attention on prevention programs that enabled children to grow up in a safe, ...
p4
sS'title'
p5
VWhat did Janet Reno accomplish? - Yahoo! Answers
p6
sa(dp7
g3
VJanet Reno was born and grew up in Florida. She left for Cornell University in 1956, majoring in chemistry, and then became one of 16 women in a class of 500 at ...
p8
sg5
VJanet Reno - Women's History - Comprehensive Research and ...
p9
sa(dp10
g3
V... and pictures about Janet Reno at Encyclopedia.com. Make research ... The first of four children of journalists Henry and Jane Reno, she grew up in South ...
p11
sg5
VJanet Reno Facts, information, pictures | Encyclopedia.com ...
p12
sa(dp13
g3
VAnd true, he has been in trouble. Growing up in Queens, he says, ... To Janet Reno she may be merely Janet Reno; to them she is Janet Reno, ...
p14
sg5
VWashingtonpost.com: Why Janet Reno Fascinates, Confounds and Even ...
p15
sa(dp16
g3
VJanet Reno is no friend of ... despite growing pressure from congressional ... now seems to be taking on full complicity in covering up a whole host of other ...
p17
sg5
VJanet "WACO" Reno - zpub
p18
sa(dp19
g3
VJanet Wood Reno (born July 21, 1938), ... we have a State Attorney by the name of Janet Reno. She locks brothers up for not paying their child support." ...
p20
sg5
VJanet Reno - Wikipedia, the free encyclopedia
p21
sa(dp22
g3
V"Um, are you a Tar Heel fan, Ms. Reno?" "No, I grew up in Miami, so I like the Hurricanes. ... "It was Janet Reno," she said. "It was everything I knew.
p23
sg5
VJanet Reno Is Innocent - Esquire
p24
sa(dp25
g3
V"She loved the dinosaurs," Janet Reno said. A year later, the elder Reno is gone. ... The message: She wants every child to grow up the way she did.
p26
sg5
VJanet Reno's Formula for Crime Prevention: Look After the ...
p27
sa(dp28
g3
VHillary's Janet Reno imitation Exclusive: Jack Cashill explains why AG's 'buck stops here' gambit worked in '93 ... She grew up with the JFK myth.
p29
sg5
VHillary\u2019s Janet Reno imitation - WND - A Free Press for a Free ...
p30
sa(dp31
g3
VJanet Reno is credited as ... The eldest of the four children of journalists Henry and Jane (Wood) Reno, she grew up in a rather unconventional middle-class family ...
p32
sg5
VJanet Reno biography, birth date, birth place and pictures
p33
sa(dp34
g3
VHunter Reno makes sure Janet Reno's lipstick -- the only makeup she wears -- is fresh, ... It was a wonderful place to grow up, Reno and her sister say, ...
p35
sg5
VState: On Janet Reno's campaign, it's all relative
p36
sa(dp37
g3
VA friend sent my this (quote?) from janet Reno, ... This claim was made over a year ago and seems to be expanding and growing. Reno has ... look up a couple of dates ...
p38
sg5
VDid Janet Reno really say that? - the Greenspun family server
p39
sa(dp40
g3
VWhere Are They Now: Janet Reno by ... We asked the former Attorney General what she'd been up to since leaving office in January. She paused for a ...
p41
sg5
VWhere Are They Now: Janet Reno - LewRockwell.com
p42
sa(dp43
g3
VJanet Reno says her mother was a woman of singular determination, ... I have wonderful memories of growing up here, and living here most of my life," Reno said.
p44
sg5
VFloridian: 4 bedrooms, 2 baths, 1 huge political asset
p45
sa(dp46
g3
VClose-Up. The U.S. Attorney General -- Janet Reno -- Despite Her Turbulent Tenure, She Has Maintained High Profile. ... "She says, `When I was growing up, ...
p47
sg5
VBusiness | The U.S. Attorney General -- Janet Reno -- Despite Her ...
p48
sa(dp49
g3
VJanet Reno and Her Record as a So-Called Champion of ... This writer does not presume to judge whether Elian Gonzalez should grow up with his father or his Miami ...
p50
sg5
VIWF - Janet Reno and Her Record as a So-Called Champion of Children
p51
sa(dp52
g3
VHe grew up, as did his siblings, ... Hurchalla said Janet Reno, who suffers from Parkinson\u2019s disease, wouldn\u2019t be commenting on her brother\u2019s passing.
p53
sg5
VRobert Reno, brother of former U.S. Attorney General, dies ...
p54
sa(dp55
g3
V... the chorus of opposition is likely to grow. ... Government Spending Up, Private GDP Down. Chris Edwards. ... Janet Reno Wants to Govern It. By
p56
sg5
VPity Florida, Janet Reno Wants to Govern It | Cato Institute
p57
sa(dp58
g3
VWho would rather f**k, janet reno with an open sored herpes out break, or megan fox User Name: Remember Me? ... Grow up dude... Hahahaha. What is this?
p59
sg5
VWho would rather f**k, janet reno with an open sored herpes out ...
p60
sa(dp61
g3
VAttorney General Janet Reno never looked better as she fielded questions ... the opportunity to see her close up was refreshing and served ... A growing number of ...
p62
sg5
VJanet Reno - Never Better
p63
sa(dp64
g3
VReno set up a special children\u2019s unit inside the ... \u201cThere is a growing consensus that her office is a ... \u201cDid Stephen King Invent Janet Reno?\u201d 17 ...
p65
sg5
VWhere's Janet Reno when you need her? - American Patriot Friends ...
p66
sa(dp67
g3
VJanet Reno's decision on Waco was made, it seems in retrospect, ... From this intense and complicated growing up, Reno may have derived an impulse ...
p68
sg5
VReadings | Waco - The Inside Story | FRONTLINE | PBS
p69
sa(dp70
g3
VWill the Real Janet Reno Please Stand Up? : ... and growing inequities embodied ... Medicaid for services they did not perform. Atty. Gen. Janet Reno, ...
p71
sg5
VFeatured Articles about Janet Reno - Page 2 - Los Angeles Times
p72
sa(dp73
g3
VThe only thing wrong with Janet Reno is that she's ... growing rapidly recently. Janet Reno lobbies ... to do than building a truck bomb and blowing up the ...
p74
sg5
VKilling Little Children -- Free Speech, September 1999
p75
sa(dp76
g3
V... she dealt with the legacy of Brown and she also grew up in the South during that time,\u201d said ... In 1995 Janet Reno revealed that she has Parkinson's ...
p77
sg5
VJanet Reno - Factbites
p78
sa(dp79
g3
VJanet Reno stood up to a heartfelt applause and immediately got laughs from her audience before ... Give our people a firm foundation upon which to grow, ...
p80
sg5
VJANET RENO, speech to the November 2001 Luncheon of the Greater ...
p81
sa(dp82
g3
V''I was in those meetings -- Janet Reno did everything she could to resolve this peacefully,'' an exasperated Doris Meissner, ... Mills grew up in Pennsylvania, ...
p83
sg5
VElian / Miami Herald - Cuba News / Noticias - CubaNet News
p84
sa(dp85
g3
VJanet Reno...WTF? AJ mentioned this ... Residents suspect hydroponic growing. ... She looks JUST LIKE Janet Napolitano!!! Where do they dig up all these progressive ...
p86
sg5
VJanet Reno...WTF? AJ mentioned this crap, any other sources?
p87
sa(dp88
g3
VJanet Reno. Janet Reno was considered too tall and not good looking enough to hire as an attorney. Born 07-21-1938, Janet Reno, ... as they grew up.
p89
sg5
VWomen of Achievement - THE LIZ LIBRARY | Women's law and research ...
p90
sa(dp91
g3
VJanet Reno's Ban on Open Carry ... If you are interested in growing your online rep apply to be ... Beck claims there's a government cover-up surrounding ...
p92
sg5
VJanet Reno's Ban on Open Carry in Florida - Orlando gun rights ...
p93
sa(dp94
g3
VHe reminds voters he grew up on the rough ... and Napolitano recalls the time Janet Reno announced she wanted to see the now-closed tunnels beneath the Arizona ...
p95
sg5
VTom and Janet's Excellent AG Venture - - News - Phoenix - Phoenix ...
p96
sa(dp97
g3
VInformation concerning controversies faced by Janet Reno. Including Elian ... family reunion and repatriation allowing children to grow up in the security of ...
p98
sg5
VJanet Reno Controversies.
p99
sa(dp100
g3
V"No one would have showed up to hear him if he did ... Janet Reno will go to Congress and make ... operations have grow accustomed to buying new ...
p101
sg5
VROLLING STONE - CAN JANET RENO BUST THE WAR ON DRUGS - 920S-000-008
p102
sa(dp103
g3
V... in the form of one cooperative agreement of up to $ ... as Janet Reno did. ... against wife battering grew into a national industry that ...
p104
sg5
VReno calls for tougher hate crimes law - Fathers for Life
p105
sa(dp106
g3
VAn angry Attorney General Janet Reno, moving to quell a growing ... Sect members had been holed up in the building for 51 days following a deadly gun ...
p107
sg5
VJanet Reno Vows to Uncover Truth About Siege In Waco - The Tech
p108
sa(dp109
g3
V... California, and grew up in Stockton, California. ... Leigh married 18-year-old John Kenneth Carlisle in Reno, Nevada, on August 1, 1942.
p110
sg5
VJanet Leigh - Wikipedia, the free encyclopedia
p111
sa(dp112
g3
VHillary was the one who ordered the FUBAR final assault on the holed-up ... "Give me a reason not to do this," Janet Reno is ... Mrs Clinton grew more ...
p113
sg5
VHillary Ordered The Final Massacre At Waco - rense.com
p114
sa(dp115
g3
VJanet Reno. Former AG's ... American Jewish defense agencies want federal law enforcement officials to turn up the heat on a growing national hate group apparently ...
p116
sg5
VJanet Reno | The Jewish Week
p117
sa(dp118
g3
VJanet Reno, U.S. Attorney General 103rd Landon Lecturer ... Others are growing up lacking the confidence to handle interpersonal conflict without resorting to violence.
p119
sg5
VJanet Reno Landon Lecture - Kansas State University
p120
sa(dp121
g3
VWhile growing up while their violent, ... Do not attempt the Reverse Janet Reno. GOP Kama Sutra: World's shortest book. Vlad_the_Inaner. 2013-04-10 01:13:03 PM:
p122
sg5
VFARK.com: (7692435) Cuba pulls a reverse Janet Reno
p123
sa(dp124
g3
VSign Up; Home; Search; Settings; Top Contributors; Help Center; ... Did Janet Reno have a boyfriend? She doesnt have one Can you answer this question? [report abuse]
p125
sg5
VDid Janet Reno wrestle alligators - The Q&A wiki
p126
sa(dp127
g3
V... and I suspect the numbers will grow as the ... she picked up the ... He made it and I'm sure he pressured Janet Reno to do it. And if she would have ...
p128
sg5
VCNN Transcript - Breaking News: Janet Reno Addresses the INS ...
p129
sa(dp130
g3
VJanet Jackson is rumored to be fuming over Beyonce's controversial 'like the Jacksons comment' a few weeks ago. Beyonce told reporters: "I grew up upper-class ...
p131
sg5
VNews | Janet Jackson: 'Beyonce Has A Lot Of Growing Up To Do ...
p132
sa(dp133
g3
VShe is Janet Reno's partner - Bulger ... Here's To Never Growing Up!
p134
sg5
VJanet Napolitano 'favoured woman with whom she had a 'long ...
p135
sa(dp136
g3
VA Pakistani-American man was being sought Monday in the failed plot to blow up a bomb ... of Arizona as Janet Reno\u2019s puppet ... need to grow a set like ...
p137
sg5
VSecretary of Homeland Security Janet Napolitano Needs to Be Fired ...
p138
sa(dp139
g3
VSchool Terror drills by Janet Reno's Homeland ... A lot of them grew up in families where they were routinely molested by a parent or step-parent so ...
p140
sg5
Vpolitical and science rhymes: School Terror drills by Janet Reno's ...
p141
sa(dp142
g3
VThe DHS would not return calls questioning her exclamations that she "did not mean to scare, ... Fucking grow up, lady. ... its like janet reno all over again. 1; 2; 3;
p143
sg5
VJanet Napolitano Dazed And Confused About What Sequester Really ...
p144
sa(dp145
g3
V\u201cJanet is proud of her family ... \u201cNot only is Janet telling everyone who will listen that Beyonce has a lot of growing up to do and that she needs to stop ...
p146
sg5
VJanet Jackson thinks that Beyonce needs to grow up! | The Rundown
p147
sa(dp148
g3
VAttorney General Janet Reno's decision not to appoint ... And the Janet Reno/Bill Clinton analogy. The growing role ... the ordering up of 900 files of ...
p149
sg5
VOnline NewsHour: Presidents and Attorneys General -- December 3, 1997
p150
sa(dp151
g3
VJanet Napolitano screw up Waco yr ago not she miss 2 ... Congress Must Defund & Dismantle Obama\u2019s Growing ... Now all she has to do is pick Janet Reno ...
p152
sg5
VJanet Napolitano - First thoughts about
p153
sa(dp154
g3
VDHS Janet Napolitano During a recent CNN interview, ... Sign up; News & Info; Business. ... and videographers to join the fastest growing group of local ...
p155
sg5
VDHS Janet Napolitano claims illegal immigration "is not a crime ...
p156
sa(dp157
g3
VElian's mother gave her life to make sure that Elian was able to grow in a free ... Janet Reno said that she ordered the raid to forcefully remove Elian ...
p158
sg5
VElian Gonzalez - The Real Cuba
p159
sa(dp160
g3
V... "Time is always in our favor," and urges negotiators and agents not to grow ... Did the FBI tell Janet Reno this? Did she ... Did Reno Know FBI Might Speed Up ...
p161
sg5
VThe Davidan Massacre - Chpt. 9 - CarolMoore.Net
p162
sa(dp163
g3
VHow did she know? The source said ... grow up and learn the terms mean. Than ... During Janet RENO\u2019S reign of terror as the U. S. Attorney General we experienced ...
p164
sg5
VJanet Napolitano Perjured Herself to Congress: Fast & Furious ...
p165
sa(dp166
g3
VAttorney General Janet Reno, following up on the arrest of suspected Oklahoma City ... \u201cMy fellow Americans, a tree takes a long time to grow and wounds take a ...
p167
sg5
VJanet Reno - History Commons
p168
sa(dp169
g3
V... the way Janet Reno once was. ... She has her head up her Fox hole. ... Education is the only thing that will keep us competitive against growing markets.
p170
sg5
VAnn Coulter: Elizabeth Warren \u2018The New Sex Symbol Of The ...
p171
sa(dp172
g3
VReno clears up Brown death ... It grew with the acknowledgment that authorities had misplaced the x-rays and other forensic evidence. Despite what ABC News and Janet ...
p173
sg5
VReno clears up Brown death - WND - A Free Press for a Free People
p174
sa(dp175
g3
VDAVID MARKUS: Janet Reno saw this problem and she did something about it. She changed how these cases were prosecuted. ... literally growing up before the jury's eyes.
p176
sg5
VFRONTLINE 1707 - American Family Rights :: The Voice of America's ...
p177
sa(dp178
g3
VJanet Wood Reno (born July 21, 1938) is a former Attorney General of the United States (1993\u20132001). She was nominated by President Bill Clinton on February 11, 1993 ...
p179
sg5
VJanet Reno - Allvoices - Breaking News, Current Events, Latest ...
p180
sa(dp181
g3
VThink of all the nasty jokes people made about Janet Reno when she was Attorney ... he still gets paired up with conventionally pretty actresses and plays ...
p182
sg5
VConan O'Brien Made A Bad Joke About Janet Napolitano's Looks At WHCD
p183
sa(dp184
g3
VAs she grew older, her interests branched out into several directions -- dancing, ... By 1993, Janet's follow-up album janet contained a very openly sexual tone.
p185
sg5
VJanet Jackson - AskMen
p186
sa(dp187
g3
VReno set up a special children\u2019s unit inside the ... Whatever else she may be, Janet [\u201cBarbecue\u201d 40] Reno is ... \u201cThere is a growing consensus that her office ...
p188
sg5
VDisney, Hoover and Reno - Skews.Me
p189
sa(dp190
g3
VJanet Reno. Image Source Yes, ... She grew up filthy rich and became Hollywood famous for her ridiculous number of plastic surgeries, ...
p191
sg5
V15 Female Celebs Most Often Mistaken for Transsexuals
p192
sa(dp193
g3
VClinton set up the little-known body to coordinate an unprecedented crackdown on ... GROWING UP WITH MUSIC. 5 ... Remember Janet Reno threatening the ...
p194
sg5
VCommonsense & Wonder: Remember Janet Reno threatening the banks?
p195
sa(dp196
g3
V... Donna, now finish this up, okay? ... referring a growing number of children to private ... Janet Reno, realizing she had another Country Walk on her ...
p197
sg5
VReno Reconsidered (Part B) - - News - Miami - Miami New Times
p198
sa(dp199
g3
VThe youngest of the the Jacksons, Janet, has led an unusual and impressive musical life. ... Katherine, Jackson grew up in the affluence of a show business family.
p200
sg5
VJanet Jackson Biography - Facts, Birthday, Life Story - Biography.com
p201
sa(dp202
g3
VU.S. Attorney General Janet Reno, ... will grow by one-third if we don't do something about it now," said Reno, ... "Let's not get mixed up, ...
p203
sg5
VReno: Law Agencies Must Unite To Gain An Edge On Terrorists - Sun ...
p204
sa(dp205
g3
VIt makes sense why she acted how she did, she was ... and Precious. So really, I think that she is growing up ... Former Attorney General Janet Reno ...
p206
sg5
VJanet Jackson VS. Mariah Carey (videos, house, better, performance ...
p207
sa(dp208
g3
VSign Up; Home; Search; Settings; Top Contributors; ... What job did Janet Reno have during Bill Clinton's presidency? She was the Attorney General of the United States .
p209
sg5
VWhat jobs did Jonet Reno and Madeleine Albright hold during Bill ...
p210
sa(dp211
g3
VJanet is great. She\u2019s so well liked that many Arizonans refer ... then she should do a real bang-up job securing the ... She\u2019s going to fail, just as Reno did ...
p212
sg5
VJanet Napolitano to Run Homeland Security and Endure Many More Fun ...
p213
sa(dp214
g3
VBut she grew testy at ... Did Janet Reno's Justice Department drag its feet ... With Clintonites hunkered down and Justice covering up, Congress must do the ...
p215
sg5
VWilliam Perry - DOWNSIDE LEGACY at two degrees of Bill Clinton
p216
sa(dp217
g3
VREMARKS OF THE HONORABLE JANET RENO, ... and one of the first things that I did was to face up to this ... will have an opportunity to grow in a strong and ...
p218
sg5
V03-20-98: REMARKS OF THE HONORABLE JANET RENO TO THE NATIONAL ...
p219
sa(dp220
g3
VIn her years in Reno, she enjoyed all the ... Eric and Lori, Alex (Bo) and Nathalia, of Anchorage; brothers, Dean (wife Janet ... She grew up and spent ...
p221
sg5
VNevada Silver and Blue | University of Nevada, Reno
p222
sa(dp223
g3
VExactly, Janet Reno comes to mind, if she had any sexuality. Printer Friendly | Permalink | | Top . ... I grew up with Barbara Mikalski as my state's senator.
p224
sg5
VJanet Napoliano: 1st Gay cabinet member? - Democratic Underground
p225
sa(dp226
g3
VJANET RENO Defendant. Civil Action 98-5591. ... If she stands up -- ... And she estimates that the for profit sector of the web is the fastest growing sector of the ...
p227
sg5
VACLU, et al, v. Janet Reno--TRO Transcript
p228
sa(dp229
g3
VThat marriage was known and what did Janet do?? SHE ADMITTED IT ... Janet Jackson really needs to grow up and realize that she is no longer among the elite ...
p230
sg5
VDebarge's Mother: If We Talked To The Tabloids About Janet Jackson ...
p231
sa(dp232
g3
VNBC and CBS stressed Janet Reno's concern for Elian: "She ... The subsequent story picked up on ... "In the first three months of this year the economy grew ...
p233
sg5
VCyberAlert -- 04/28/2000 -- Reno Showed Her "Humanity" | Media ...
p234
sa(dp235
g3
VShe said: "Being a Jehovah's Witness, you grow up in a very religious world. ... Janet also revealed she dreamed of becoming a jockey, ...
p236
sg5
VJanet Jackson's tough love - Monsters and Critics
p237
sa(dp238
g3
VAs she grew, her interests branched in several directions- dancing, acting, singing. ... janet, her 1993 follow-up, should, as Michael Odell put it, ...
p239
sg5
VJANET JACKSON BIOGRAPHY - Lyrics
p240
sa(dp241
g3
VGrowing Up Jackson. Celebrate Janet's late brother Michael's life with pictures from their childhood. READ IT. Advertisement. Janet Jackson: Cover Collection .
p242
sg5
VJanet Jackson : People.com
p243
sa(dp244
g3
VShe will never have the class Janet has even if she grew up with a daddy who was rich. Also, she should fire her mother from making her clothes. 2/12/2010 3:24 PM:
p245
sg5
VJanet Jackson Wants to Put Beyonce in Check
p246
sa(dp247
g3
VJanet S. Wong was born in Los Angeles, and grew up in Southern and Northern California. As part of her undergraduate program at UCLA, she spent her junior year in ...
p248
sg5
VJanet S. Wong - Author of Acclaimed Children's Books - Janet's ...
p249
sa(dp250
g3
V\u201cNot only is Janet telling everyone who will listen that Beyonce has a lot of growing up to do and that she needs to stop ... old, I grew up with Janet, so ...
p251
sg5
VBeyonce vs. Janet Jackson Feud - Hip-Hop Crunch: A HipHop News ...
p252
sa(dp253
g3
VVolunteers step up to help Janet Gregory come home: ... and Vecchione couldn\u2019t imagine her saying goodbye to the house she grew up in.
p254
sg5
VHundreds of volunteers work to bring Janet Gregory home | The ...
p255
sa(dp256
g3
VFor a growing number of Americans, ... Janet Reno What do oats, ... Janet\u2019s diabetes cleared up after her diet was changed. Derek says, ...
p257
sg5
VNEXUS - National College of Natural Medicine | Naturopathic ...
p258
sa(dp259
g3
V... America grew used to thinking of Justice David Souter as an only child turned unmarried ... and what is she really up to? ... Janet Reno, Harriet ...
p260
sg5
VThe secret life of a Supreme Court short-lister. - Slate Magazine
p261
sa(dp262
g3
VWhere did you grow up and how big was your family? Did your family resemble the Calder pack? ... Claire from Reno, TX: When do you most like to write? Morning?
p263
sg5
VCalder Pride [NOOK Book] (Book 2009) - Barnes & Noble
p264
sa(dp265
g3
VJoin Janet Mock and Colorlines.com at Facing Race 2012, ... and the women I grew up with and the things they had to do in order to transition, ...
p266
sg5
VJanet Mock on the Freedom of Telling Her Own Story - COLORLINES
p267
sa(dp268
g3
Vyes the bee has a lot of growing up to do ... it in general not to mention the jackson like she did..,..janet is a true living div she came up of nothin..she didn ...
p269
sg5
VSolange On Beyonce Janet Jackson Controversy
p270
sa(dp271
g3
V\u201cJanet? Oh, she\u2019s married,\u201d La Toya said, and everyone in the audience ... Growing Up In The Jackson Family, and decided to check it out, ...
p272
sg5
VGrowing Up In The Jackson Family by La Toya Jackson | Rabbit, Read
p273
sa(dp274
g3
VReverend Lovejoy no doubt holds Janet Reno responsible for ... "Cat's in the Cradle," a 1974 hit written by the late Harry Chapin is about a son growing up before ...
p275
sg5
V[2F04] Bart's Girlfriend - The Simpsons Archive
p276
sa(dp277
g3
VThere was also a talent-night skit put on by the twin-sister Wagon Bosses Julie Jepsen and Janet Moore. Day 5- Into Reno ... She did not grow up around horses.
p278
sg5
VReno Rodeo Cattle Drive - Cowboy Showcase, Home of Real Western Spirit
p279
sa(dp280
g3
VJanet spoke with us about how she got her start as an author, how she created Stephanie Plum, ... What did you like to read when you were growing up?
p281
sg5
VA Conversation With Janet Evanovich *Writers Write -- The IWJ*
p282
sa(dp283
g3
VBeyonce Knowles has a lot of growing up to do. Sure, she can\u2019t be stopped ... Janet grew up in a fam that used wat they had to get by, hell, ...
p284
sg5
VBeyonce Janet Jackson Feud - RnB Music Blog
p285
sa(dp286
g3
VHow she was: Janet at a special ... to grow out and we are reading up on how to care ... stripes do NOT make you look bigger She posed up with ...
p287
sg5
VNew man, new hairstyle for slick looking Janet Jackson as she lops ...
p288
sa(dp289
g3
VEllen Ochoa, Astronaut By Janet Michaels Reader 1 Reader 2 Reader 3 Reader 4 Reader 5 Reader 6 Reader 1: When Ellen Ochoa was growing up, her mother told her ...
p290
sg5
VEllen Ochoa, Astronaut By Janet Michaels Reader 1 Reader 2 Reader ...
p291
sa(dp292
g3
VWe have both become mothers and as our kids grow up we both have small grand kids now. ... Janet Gurtler Young Adult Author. Cranky before coffee intake.
p293
sg5
VJanet Gurtler- YA Addict: What did Linda Joy Singleton and her ...
p294
sa(dp295
g3
VIt was an attempt at evidence of a growing terrorist threat to ... Janet Reno, she will be ... termination and supposed "she just wasn't showing up ...
p296
sg5
VTrial - Leventhal v. Reno - 99CIV.10405 - Shira Scheindlin
p297
sa(dp298
g3
VWould those all be issues that might be used and might Janet Reno become the issue and her stewardship ... you know, part of growing up is to recognize ...
p299
sg5
VCyberAlert -- 05/22/2001 -- "Big" Tax Cut Yields Little Cut ...
p300
sa(dp301
g3
VI heard she grew up in southern USA and was paddled by her high school track coach several ... Janet Ellis did smack her daughter Sophie when she misbehaved growing ...
p302
sg5
VCelebrity Spanking Contributions Q-Z - Spanking Facts and Research ...
p303
sa.