(lp1
(dp2
S'description'
p3
VThe Church of Jesus Christ of Latter-day Saints ... a restoration of the church founded by Jesus Christ. ... Mormons, view faith in Jesus Christ and his ...
p4
sS'title'
p5
VThe Church of Jesus Christ of Latter-day Saints - Wikipedia, the ...
p6
sa(dp7
g3
VOfficial website of The Church of Jesus Christ of Latter-day Saints (Mormons). Scriptures, general conference addresses, Church magazines, temple information, stake ...
p8
sg5
VThe Church of Jesus Christ of Latter-day Saints
p9
sa(dp10
g3
VThe Church of Christ was the original name of the Latter Day Saint church founded by ... early Mormons. ) Beginning in 1834 ... Church of Jesus Christ of Latter Day ...
p11
sg5
VChurch of Christ (Latter Day Saints) - Wikipedia, the free ...
p12
sa(dp13
g3
VWe invite you to visit with missionaries of the Church to learn more about the Mormons ... founded the LDS Church ... Church of Jesus Christ of Latter-day Saints ...
p14
sg5
VWho founded Mormonism and The Church of Jesus Christ of Latter-day ...
p15
sa(dp16
g3
VThe Church of Jesus Christ of Latter-day Saints is often ... Jesus Christ, appeared to a 14-year-old boy ... of Latter-day Saints Lightplanet: Mormons - over ...
p17
sg5
VThe Church of Jesus Christ of Latter-day Saints - Mormonism, The ...
p18
sa(dp19
g3
VThe Church of Jesus Christ of Latter-day Saints is the official name of the religion commonly called the Mormon Church. ... Mormons are united by a commitment to ...
p20
sg5
VMormon.org | Beliefs and People of The Church of Jesus Christ of ...
p21
sa(dp22
g3
VMembers of The Church of Jesus Christ of Latter-day Saints ... which was founded in 1842. ... In the year 2007 alone, the Church responded to major earthquakes in ...
p23
sg5
VWho are the Mormons? - LDS News | Mormon News - Official Newsroom ...
p24
sa(dp25
g3
V... and the three-year run of network ... Church of Jesus Christ of Latter-day Saints For The Family ... Jesus Christ of Latter-day Saints, LDS, or \u201cMormons ...
p26
sg5
VThe Church of Jesus Christ of Latter-day Saints | The Family
p27
sa(dp28
g3
VThe Church of Jesus Christ of Latter-Day Saints, ... Latter-day Saints (Mormons) ... members of the Church founded the Territory of Deseret.
p29
sg5
VThe Church of Jesus Christ of Latter-Day Saints - Conservapedia
p30
sa(dp31
g3
VReorganized Church of Jesus Christ of Latter Day Saints. ... of Latter-day Saints (commonly called the Mormons). ... founded the precursor to the Church of Christ ...
p32
sg5
VReorganized Church of Jesus Christ of Latter Day Saints
p33
sa(dp34
g3
VA basic tenet of The Church of Jesus Christ of Latter-day Saints is \u201cobeying, ... (such as the lunar New Year), etc. With appropriate Church leader coordination, ...
p35
sg5
VThe Church of Jesus Christ of Latter-day Saints in China
p36
sa(dp37
g3
VChurch of Jesus Christ of Latter-day Saints ... of Jesus Christ of Latter-day Saints, often called Mormons or Latter-day Saints. ... founded the church in ...
p38
sg5
VMormon, Mormonism - Public Services Home Page
p39
sa(dp40
g3
VFounded in Fayette, ... Another Testament of Jesus Christ (hence the nickname \u201cMormons\u201d), ... Church of Jesus Christ of Latter-day Saints.
p41
sg5
VChurch of Jesus Christ of Latter-day Saints - Encyclopedia of Arkansas
p42
sa(dp43
g3
VThe Catholic Church was founded by Jesus ... If Mormons reject the Catholic Church, ... I believe that The Church of Jesus Christ of Latter-day Saints, ...
p44
sg5
VThe Holy Catholic Church ........ VERSUS ......... The Church of ...
p45
sa(dp46
g3
VIntroduction Latter-day Saints, Church of Jesus Christ of, ... Church of Jesus Christ of, name of the church founded (1830) ... are commonly called Mormons.
p47
sg5
VLatter-day Saints, Church of Jesus Christ of: Introduction ...
p48
sa(dp49
g3
V... house for members of The Church of Jesus Christ of Latter-Day Saints; but you may know them as the Mormons. The Mormon church was ... church, founded by ...
p50
sg5
VThe Church of Jesus Christ of Latter-Day Saints
p51
sa(dp52
g3
VMormons first arrived in Texas in November of 1845 when Lyman Wight, along with 150 other Church members, founded ... Church of Jesus Christ of Latter-day Saints, ...
p53
sg5
VProfile of The Church of Jesus Christ of Latter-day Saints in Texas
p54
sa(dp55
g3
VMembers of the Church of Jesus Christ of Latter-day Saints ... In the settlement\u2019s second year, ... Panaca is the oldest surviving town in Nevada founded by Mormons.
p56
sg5
VChurch of Jesus Christ of Latter-day Saints
p57
sa(dp58
g3
VThe Church of Jesus Christ of Latter-day Saints was officially organized ... of 1847 and arrived in the valley of the Great Salt Lake on July 24 of that year.
p59
sg5
VAmerican Prophet: The Story of Joseph Smith
p60
sa(dp61
g3
VChurch of Jesus Christ of Latter-Day Saints. ... whose adherents are known as Latter-day Saints or Mormons, ... In 1830 Smith founded the Church of Christ, ...
p62
sg5
VNew Georgia Encyclopedia: Church of Jesus Christ of Latter-Day Saints
p63
sa(dp64
g3
V... of Jesus Christ of Latter-day Saints (Mormons, ... Church of Jesus Christ of Latter-day Saints say ... founded by man, and it was in the year ...
p65
sg5
VIs the Church of Jesus Christ of Latter-day Saints (i.e. the ...
p66
sa(dp67
g3
VChurch of Jesus Christ of Latter-Day Saints - church founded by Joseph Smith in ... Mormon Church, Mormons. ... by the Church of Jesus Christ of Latter-day Saints ...
p68
sg5
VChurch of Jesus Christ of Latter-day Saints - definition of Church ...
p69
sa(dp70
g3
VA basic introduction to "the Mormons" The Church of Jesus Christ ... year in many parts of the world. The Church ... Church of Jesus Christ of Latter-day Saints, ...
p71
sg5
VMormons and Mormon Beliefs: An Introduction to The Church of Jesus ...
p72
sa(dp73
g3
VMormons in Wisconsin: Baptism ... 21. And about a year after the crucifixion of Christ, ... Church of Jesus Christ of Latter Day Saints
p74
sg5
VChurch of Jesus Christ of Latter Day Saints - United Order of Enoch
p75
sa(dp76
g3
VThe Church of Jesus Christ of Latter-day Saints in the United Kingdom. 4,242 likes ... by members of the Church during The Queen's Diamond Jubilee year within the ...
p77
sg5
VThe Church of Jesus Christ of Latter-day Saints in the United ...
p78
sa(dp79
g3
V(Also called the Church of Jesus Christ of Latter-Day Saints.) ... and a year later was said to number about two thousand souls. ... several towns founded, ...
p80
sg5
VMormons - NEW ADVENT: Home
p81
sa(dp82
g3
VThe Mormons The Church of Jesus Christ of ... almost a year after he had founded the Church. ... the Catholic Church or the Church of Jesus Christ of Latter-day Saints.
p83
sg5
VThe Mormons - The Church of Jesus Christ of Latter Day Saints
p84
sa(dp85
g3
VFind more Church of Jesus Christ Of Latter Day Saints churches in our church directory and church finder ... Year Founded: 1820 ... Mormons are united by a ...
p86
sg5
VChurch Of Jesus Christ Of Latter-day Saints Church of Jesus Christ ...
p87
sa(dp88
g3
VMormons in Wisconsin: Baptism ... Church of Jesus Christ of Latter Day Saints Mormon Road and Hwy. 11 Burlington, Wisconsin (800) 862-5667 . One example of our
p89
sg5
VChurch of Jesus Christ of Latter Day Saints
p90
sa(dp91
g3
VThe Church of Jesus Christ of Latter-day Saints was founded in 19th ... The Church of Jesus Christ of Latter-Day Saints; Teachings of Jesus Christ; All About Mormons;
p92
sg5
VBBC - Religion: Mormonism
p93
sa(dp94
g3
VChurch Of Jesus Christ Of Latter-day Saints is a Church of Jesus Christ Of Latter Day Saints ... Year Founded: Bible ... Mormons are united by a commitment to ...
p95
sg5
VChurch Of Jesus Christ Of Latter-day Saints Church of Jesus Christ ...
p96
sa(dp97
g3
VThe Church of Jesus Christ of Latter-day Saints For Teachers and Leaders of Seminaries and Institutes, ... Mormon.org About Mormons; LDS.org Member Resources;
p98
sg5
VSI: Seminaries & Institutes of Religion
p99
sa(dp100
g3
VThe Church of Jesus Christ of Latter-day Saints ... successor of the church founded ... also referred to as "Latter Day Saints" and "Mormons" and because ...
p101
sg5
VChurch of Jesus Christ of Latter-day Saints
p102
sa(dp103
g3
VCHURCH OF JESUS CHRIST OF LATTER-DAY SAINTS. ... to as the Mormons or Latter-day Saints, ... followers founded the Church of Latter-day Saints in ...
p104
sg5
VCHURCH OF JESUS CHRIST OF LATTER-DAY SAINTS
p105
sa(dp106
g3
V... (Church of Jesus Christ of Latter-day Saints) ... to go on a mission for the church. I served a 2 year mission in Finland ... and somewhat dumb-founded.
p107
sg5
VMORMON CULT (Church of Jesus Christ of Latter-day Saints) in ...
p108
sa(dp109
g3
VThe Church of Jesus Christ of Latter-day Saints teaches that all women are ... Originally founded specifically to assist the ... Mormons Believe in Jesus Christ.
p110
sg5
VChurch Of Jesus Christ Of Latter Day Saints | Paris Mormon Temple
p111
sa(dp112
g3
VThe LDS Restorationist churches including The Church of Jesus Christ of Latter-day Saints ... founded in 1830. The Church of Christ was ... to as "Mormons " by the ...
p113
sg5
VThe LDS Restorationist movement, including The Church of Jesus ...
p114
sa(dp115
g3
VView all new releases. RELIGION - Church of Jesus Christ of Latter-day Saints (Mormon)
p116
sg5
VRELIGION - Church of Jesus Christ of Latter-day Saints (Mormon ...
p117
sa(dp118
g3
VTHE MORMONS (The Church of Jesus Christ of Latter-day Saints) Hebrews 1:1-2 God, who at various times and in different ways spoke in time past to the fathers by ...
p119
sg5
VThe Church of Jesus Christ of Latter-day Saints or Mormons
p120
sa(dp121
g3
VEven though most still use the name Church of Jesus Christ of Latter Day Saints, ... The \u201cVoree Mormons\u201d who ... church founded by Joseph Smith ...
p122
sg5
VChurch of Jesus Christ of Latter Day Saints (Strangite)
p123
sa(dp124
g3
VJesus Christ & Joseph Smith - History of Latter Day Saints / LDS / Church of Jesus Christ / Mormons ... Latter Day Saints founded by Freemsons by ...
p125
sg5
VJesus Christ & Joseph Smith - History of Latter Day Saints / LDS ...
p126
sa(dp127
g3
VThe Church of Jesus Christ of Latter-day Saints ... This period of apostasy would last until 1820 when a 14-year-old farm boy named ... Mormons embrace all ...
p128
sg5
VThe Church of Jesus Christ of Latter-day Saints
p129
sa(dp130
g3
VFundamentalist Church of Jesus Christ of Latter Day Saints ... of Jesus Christ of Latter-day Saints (LDS). That year, ... founded in 1935 by two ex-LDS Mormons: ...
p131
sg5
VFundamentalist Church of Jesus Christ of Latter Day Saints ...
p132
sa(dp133
g3
VJoseph Smith. Joseph Smith founded the Church of Jesus Christ of Latter-day Saints in 1830. Adherents of the church, known as Mormons, sent ...
p134
sg5
VJoseph Smith founded the Church of Jesus Christ of Latter-day ...
p135
sa(dp136
g3
VThe Church of Jesus Christ of Latter-day Saints, whose members are sometimes known as "Mormons," was founded in ... but they hold two specific meetings each year ...
p137
sg5
VAbout the Mormon Church | ksl.com - Utah News, Sports, Weather and ...
p138
sa(dp139
g3
V... (now The Church of Jesus Christ of Latter-day Saints ... Ancestry Magazine One-Year ... is a young and vibrant organisation founded by Jean ...
p140
sg5
VAncestry & Genealogy Church Records- Latter-day Saints
p141
sa(dp142
g3
V... since faithful Mormons don\u2019t do alcohol? ... An earlier version of this story ran last year, ... member of The Church of Jesus Christ of Latter-day Saints, ...
p143
sg5
VChurch of Jesus Christ of Latter-day Saints \u2013 CNN Belief Blog ...
p144
sa(dp145
g3
VFamilySearch.org is a nonprofit family history organization from The Church of Jesus Christ of Latter-day Saints dedicated to connecting families across generations.
p146
sg5
VFamilySearch.org - Free Family History and Genealogy Records
p147
sa(dp148
g3
VFundamentalist Church Of Jesus Christ Of Latter Day Saints. ... officially founded in 1913 as a ranching community. ... \u201cLeading Mormons to the REAL Jesus\u201d ...
p149
sg5
VFundamentalist Church Of Jesus Christ Of Latter Day Saints ...
p150
sa(dp151
g3
VIn the same year, Smith founded the Church of Christ--later known as the Church of Jesus Christ of Latter-day Saints--in ... led an exodus of persecuted Mormons ...
p152
sg5
VMormon Church established \u2014 History.com This Day in History ...
p153
sa(dp154
g3
VIn the same year, Smith founded the Church of Christ--later known as the Church of Jesus Christ of Latter-day Saints--in ... led an exodus of persecuted Mormons ...
p155
sg5
VMormon Church established \u2014 History.com This Day in History ...
p156
sa(dp157
g3
VWhat Do Mormons Believe? Does God ... com Guide of this topic about The Church of Jesus Christ of Latter-day Saints. ... year students in the Church's Seminary ...
p158
sg5
VLDS - Church of Jesus Christ of Latter-day Saints - Mormons - LDS ...
p159
sa(dp160
g3
VLatter Day Saint Movement; ... Founded: May 3, 1994 . ... "The Manti Mormons: The Rise of the Latest Mormon Church." Sunstone, June 1996, ...
p161
sg5
VLatter Day Saint Movement / True and Living Church of Jesus Christ ...
p162
sa(dp163
g3
VThe Church of Jesus Christ of Latter-day Saints, ... Jesus Christ, appeared to a 14-year ... of the church founded by Jesus Christ and the sole ...
p164
sg5
VChristianity: Details about 'Church Of Jesus Christ Of Latter Day ...
p165
sa(dp166
g3
VFounded: 1890. Location: Eldorado ... the Fundamentalist Church of Jesus Christ of Latter-day Saints ... That was the year the prophet went on the run after a warrant ...
p167
sg5
VFundamentalist Church of Jesus Christ of Latter-Day Saints ...
p168
sa(dp169
g3
VThe Church of Jesus Christ of Latter-day Saints was ... and twice each year the Church holds a ... of The Church of Jesus Christ of Latter-day Saints. Founded in ...
p170
sg5
VThe Church of Jesus Christ of Latter-day Saints
p171
sa(dp172
g3
V... of Mormonism or Church of Jesus Christ of Latter-Day Saints. ... followers or Mormons or Latter Day Saints. Mormonism was founded by ... Mormons respect ...
p173
sg5
VRELIGION INFO - Mormonism (Church of Jesus Christ of Latter-Day ...
p174
sa(dp175
g3
V... among Mormons, the Church was more ... Latter-day Saint foster homes during the school year. ... The Church of Jesus Christ of Latter-day Saints, ...
p176
sg5
VChristianity / the church of jesus christ of latter-day saints ...
p177
sa(dp178
g3
VAs of year-end 2010, The Church of Jesus Christ of Latter ... Encyclopedic History of the Church of Jesus Christ of Latter-day Saints ... The Michigan Mormons: ...
p179
sg5
VThe Church of Jesus Christ of Latter-day Saints in Michigan ...
p180
sa(dp181
g3
V... statistics, and interesting facts of the temples of the LDS (Mormon) Church. ... Church Growth | Mormons ... of The Church of Jesus Christ of Latter-day Saints
p182
sg5
VTemples of The Church of Jesus Christ of Latter-day Saints
p183
sa(dp184
g3
VHistory Of The Church Of Jesus Christ Of Latter-day Saints ... among Mormons, the Church was ... Latter-day Saint foster homes during the school year.
p185
sg5
VHistory Of The Church Of Jesus Christ Of Latter-day Saints
p186
sa(dp187
g3
VFundamentalist Church of Jesus Christ of Latter Day Saints ... Since Mormonism was founded on a combination of fantasy ... Fundamentalist Mormons hold to the ...
p188
sg5
VFundamentalist Church of Jesus Christ of Latter Day Saints (FLDS ...
p189
sa(dp190
g3
VThe Church of Jesus Christ of Latter-day Saints ... The church was legally founded on ... about The Church of Jesus Christ of Latter-day Saints (Mormons): ...
p191
sg5
VChurch of Jesus Christ of Latter-day Saints
p192
sa(dp193
g3
VThe Church of Jesus Christ of Latter-day Saints ... successor of the church founded ... also referred to as "Latter Day Saints" and "Mormons" and because ...
p194
sg5
VChurch of Jesus Christ of Latter-day Saints
p195
sa(dp196
g3
VJesus Christ is central to The Church of Jesus Christ of Latter-day Saints, which bears His name. JesusChrist.lds.org is an official Web site of The Church of Jesus ...
p197
sg5
VJesus Christ, The Son of God
p198
sa(dp199
g3
V3:51 Mormons Donating ... the nearly seven-million-pound exterior of a 112-year-old ... president of The Church of Jesus Christ of Latter-day Saints, ...
p200
sg5
VThe Church of Jesus Christ of Latter-day Saints - YouTube
p201
sa(dp202
g3
VThe church in 1895 founded ... During his twelve-year tenure, the church built ... The History of the Reorganized Church of Jesus Christ of Latter Day Saints ...
p203
sg5
VReorganized Church of Jesus Christ of Latter Day Saints (RLDS ...
p204
sa(dp205
g3
VWorld Religions - Mormonism. Mormonism What do the Mormons believe? The Mormon Church, also called the Church of Jesus Christ of Latter Day Saints (LDS) was founded ...
p206
sg5
VWorld Religions Forum - Faith of Choice - The Church of Jesus ...
p207
sa(dp208
g3
VThe Church of Jesus Christ of Latter-day Saints in the United Kingdom. 4,170 likes ... of thousands of church members during the historic Diamond Jubilee Year. ...
p209
sg5
VThe Church of Jesus Christ of Latter-day Saints in the United ...
p210
sa(dp211
g3
VChurch of Jesus Christ of Latter-Day Saints, LDS, Mormons, Diaries, Genealogy, History, Journals, Pioneers, Polygamy, Tabernacle Choir, Temples.
p212
sg5
VLDS Church, The Mormons - Utah Information and Resource Guide
p213
sa(dp214
g3
V... of the Church of Jesus Christ of Latter-day Saints (LDS, Mormons). ... are founded on the many ... Latter-day Saints clearly believe that Jesus is ...
p215
sg5
VA Different Jesus? The Christ of the Latter-day Saints | CRI
p216
sa(dp217
g3
V... of Jesus Christ of Latter Day Saints (Mormons ... Jesus Christ of Latter Day Saints was founded by ... a year (See Membership history of the Church of ...
p218
sg5
VLatter Day Saints (Mormons): Key facts | That Religious Studies ...
p219
sa(dp220
g3
V... Mormons believe in Jesus Christ, ... since Christ\u2019s original church was founded. ... affiliated with The Church of Jesus Christ of Latter-day Saints ...
p221
sg5
VMormon Prophets of The Church of Jesus Christ of Latter-day Saints
p222
sa(dp223
g3
V... The Church of Jesus Christ of Latter-Day Saints, ... gathered many thousands of the Latter-day Saints, founded a great city, ... Are Mormons Christians?
p224
sg5
VJacksonville Ward - The Church of Jesus Christ of Latter-Day ...
p225
sa(dp226
g3
V... who eventually founded the Church of Jesus Christ of ... Mormons be allowed in. When church leaders ... of the Church of Jesus Christ of Latter-day Saints.
p227
sg5
VHistory of the Church of Jesus Christ of Latter-day Saints
p228
sa(dp229
g3
VKnown as the Reorganized Church of Jesus Christ of Latter Day Saints, ... Church was founded in 1853 and until 1859, conferences were held at twice a year at ...
p230
sg5
VChurch of Jesus Christ of Latter Day Saints in Wisconsin
p231
sa(dp232
g3
VChurch of Jesus Christ of Latter-Day Saints: ... For devout Mormons, the name of The Church of Jesus Christ of Latter-day Saints results from divine revelation, ...
p233
sg5
VThe Church of Jesus Christ of Latter Day Saints: Origins of the name
p234
sa(dp235
g3
VThe Church of Jesus Christ of Latter-day Saints in America is reportedly bringing in $7 billion a year ... of Mormons actually attend church on a ...
p236
sg5
VMormon Church $7 Billion Income From Tithe, Including Mitt Romney ...
p237
sa(dp238
g3
VChrist's Church ("Mormons") Faith; Family; FAQ; General Conference Talks; God; Grace; ... which is a common nickname for The Church of Jesus Christ of Latter-day Saints.
p239
sg5
VMormon Church: Mormon beliefs and stories from average Mormon ...
p240
sa(dp241
g3
VLatter-day Saints The Church of Jesus Christ of ... of Latter-day Saints (commonly called the Mormons). ... founded the precursor to the Church of Christ ...
p242
sg5
VReorganized Church of Jesus Christ of Latter Day Saints
p243
sa(dp244
g3
VWight previously founded an ... the same year most of Wisconsin Mormons ... The Doctrine and Covenants of the Church of Jesus Christ of Latter Day Saints, ...
p245
sg5
VMormons in Wisconsin - Church of Jesus Christ of Latter Day Saints
p246
sa(dp247
g3
VWe believe we are the true church founded by Christ while ... The Church of Jesus Christ of Latter-day Saints ... of Latter-day Saints are also referred to as "Mormons.
p248
sg5
VWhat does the Church of Jesus Christ of Latter-day Saints believe
p249
sa(dp250
g3
VAlso mormons believed Jesus and ... The nearly-universal and nearly-2000-year-old usage of the word "Christian ... "Church of Jesus Christ of Latter-day Saints"
p251
sg5
VThe Church of Jesus Christ of Latter Day Saints are Christians 2
p252
sa(dp253
g3
VWhen was the Mormon church founded? The Church of Jesus Christ of ... of Latter-day Saints(aka mormons). What year ... Church of Jesus Christ of Latter-day Saints ...
p254
sg5
VWho founded the Mormon Church - The Q&A wiki
p255
sa(dp256
g3
V... there are more than 5 million Mormons. The church is headquartered in Salt Lake City. ... The Church of Jesus Christ of Latter-day Saints was founded by Joseph ...
p257
sg5
VWho Are the Mormons? Beliefs and history of Latter-day Saints ...
p258
sa(dp259
g3
VNews on The Church of Jesus Christ of Latter-day Saints ... Who says Mormons aren't Christians? 7 hr. Rumors of Mormon Wars. 13 hr. Mormons Change References To ...
p260
sg5
VThe Church of Jesus Christ of Latter-day Saints News - Topix
p261
sa(dp262
g3
VThe Church of Jesus Christ of Latter-day Saints ... Every year on Christmas Eve, ... Basic Mormon Beliefs and Real Mormons. Jesus Christ in Mormonism .
p263
sg5
VMormons Believe - from Members of the Church of Jesus Christ of ...
p264
sa(dp265
g3
VThe decision to rename the church was made last year ... The Reorganized Church of Jesus Christ of Latter Day Saints ... Smith founded the Church of Jesus Christ ...
p266
sg5
VRLDS Name Change to "Community of Christ"
p267
sa(dp268
g3
VChurch members are often known simply as "Mormons" or "Latter-day Saints ... The Church of Jesus Christ of Latter-day Saints, ... church founded by Jesus Christ ...
p269
sg5
VChurch of Jesus Christ of Latter-day Saints - Who or What is ...
p270
sa(dp271
g3
VThe Church of Jesus Christ of Latter-day Saints, ... Coming of Christ and his establishment of a 1,000-year ... by most leading Mormons in the church\u2019s ...
p272
sg5
VMormon (religion) -- Encyclopedia Britannica
p273
sa(dp274
g3
VAdherents.com presents the Top 10 U.S. States with highest percentage of Mormons; ... the Church of Jesus Christ of Latter-day Saints was the 11th largest ...
p275
sg5
VLatter-day Saints (LDS) / Mormon Statistics / Church of Jesus ...
p276
sa(dp277
g3
VA lot of what you hear and read about Mormons ... of Jesus Christ of Latter-day Saints (LDS Church) ... twice a year. What to Expect at a Mormon Church ...
p278
sg5
VBasic Beliefs of The Church of Jesus Christ of Latter-day Saints
p279
sa(dp280
g3
VKnown as the Reorganized Church of Jesus Christ of Latter Day Saints, ... Church was founded in 1853 and until 1859, conferences were held at twice a year at ...
p281
sg5
VChurch of Jesus Christ of Latter Day Saints in Wisconsin
p282
sa(dp283
g3
VMembers of Church of Jesus Christ of Latter-day Saints believe that the ... but history shows that each year a few members continued to secretly participate ...
p284
sg5
VMORMONFUNDAMENTALISM.COM
p285
sa(dp286
g3
VThe Church of Jesus Christ of Latter-Day Saints ... unique customs," it is the Mormons aka The Church of Latter-Day Saints! ... year old was enchanted ...
p287
sg5
VThe Church of Jesus Christ of Latter-Day Saints - University City ...
p288
sa(dp289
g3
VThree two-year programs become ... The brochure Scouting and The Church of Jesus Christ of Latter-day Saints offers insight into the Scouting program within ...
p290
sg5
VScouting in The Church of Jesus Christ of Latter-day Saints Community
p291
sa(dp292
g3
VYear Supply of Food Freeze Dried Foods Dehydrated ... The Church Of Jesus Christ of Latter-Day Saints. ... or you don't know any Mormons then a little phone book ...
p293
sg5
VThe Church Of Jesus Christ of Latter-Day Saints
p294
sa(dp295
g3
V... and Marriage for Mormons (Latter-day Saints) ... twice a year at the church's worldwide ... The Church of Jesus Christ of Latter-day Saints which included ...
p296
sg5
VThe Church of Jesus Christ of Latter-day Saints : Wikis (The Full ...
p297
sa(dp298
g3
VIt appears that the Mormons might be ... If the church taught the true story of how it was founded and ... The Church of Jesus Christ of Latter-day Saints is ...
p299
sg5
VRipoff Report | The Church of Jesus Christ of Latter-Day Saints ...
p300
sa(dp301
g3
V... the Church of Jesus Christ of Latter-day Saints is one ... dawn of the Latter-day Saints. Founded by ... Mormons en%ark on an unpaid two-year ...
p302
sg5
VMormons on a mission: the Church of Jesus Christ of Latter-day ...
p303
sa.