(lp1
(dp2
S'description'
p3
VThe French-American nutritionist Jean Mayer became president of Tufts in ... creativity and other non-academic ... Tufts University Library System contains over ...
p4
sS'title'
p5
VTufts University - Wikipedia, the free encyclopedia
p6
sa(dp7
g3
VThe Founding of Tufts University. ... specifically with "that bleak hill over in Medford," Tufts replied, ... clergyman and the college's first president, ...
p8
sg5
VHistory - Get to Know Tufts - Tufts University
p9
sa(dp10
g3
V... Tufts University's 9th president, ... the evolution of both Tufts and higher education over the ... other nearby spaces that provide Tufts with the same ...
p11
sg5
VFormer Tufts President Hallowell passes away - News - Tufts Daily ...
p12
sa(dp13
g3
V@ President's Lawn, Tufts University instagram.com/p/YnoADgLuXZ/ ... meaning older stories embedded on other Web sites will no longer appear. Of course not!
p14
sg5
VSpring Fling! (with images, tweets)  tuftsuniversity  Storify
p15
sa(dp16
g3
VFacts about Tufts that are unique to the university including discoveries, ... Tufts President Elmer Capen ... Several other Tufts items have made the trip to ...
p17
sg5
VDid You Know (HTML5 version) - Get to Know Tufts - Tufts University
p18
sa(dp19
g3
V... Tufts University's 9th president, ... challenges that he and other presidents faced in ... and the evolution of both Tufts and higher education over the ...
p20
sg5
VFormer Tufts President Hallowell passes away - News - Tufts Daily ...
p21
sa(dp22
g3
VNew Tufts University President Anthony Monaco sits down ... otherwise future generations will be paying twice over ... One of my other concerns about the ...
p23
sg5
VTufts President Anthony Monaco On Life, Learning And The Cost Of ...
p24
sa(dp25
g3
VUniversity President Robert A. Brown made the ... Tufts University has adopted a new ... it makes it easier for other schools,\u201d he said of ...
p26
sg5
VYour Campus - College & University news - Boston.com
p27
sa(dp28
g3
VCome to think of it\u2014it has happened at other ... then-Tufts President Lawrence Bacow signed on with an organization of college presidents known Amethyst Initiative ...
p29
sg5
VExcessive Drinking Isn't Just a Tufts University Problem
p30
sa(dp31
g3
V... and a key member of the university leadership team," said Tufts Provost and Senior Vice President David ... and four other books on leadership ... at Tufts ...
p32
sg5
VTop NATO Commander Admiral James Stavridis Named Dean of Tufts ...
p33
sa(dp34
g3
VReferred to by President Larry Bacow as a small university with ... college, Tufts has transformed itself over the past ... the thousands of other Tufts ...
p35
sg5
VTufts University in Medford, MA - TU - StateUniversity.com
p36
sa(dp37
g3
VFree Speech at Tufts University "Deja Vu" All Over ... \u2014 and Tufts, like nearly every other college and ... soon repealed by President Mayer. He also ...
p38
sg5
VFree Speech at Tufts University "Deja Vu" All Over Again - The ...
p39
sa(dp40
g3
VTufts President Lawrence S. Bacow awarded Charles M ... best university presidents thanks to great institutional ... entire curriculum for free over ...
p41
sg5
VCharles M. Vest | Tufts Now
p42
sa(dp43
g3
VOver the years, Dr. Ablow ... Sexual Development through the Life Cycle\u201d as well as other courses addressing LGBT ... President, Tufts University. Harris ...
p44
sg5
VLetter to Mass. Transgender Political Coalition - Office of the ...
p45
sa(dp46
g3
VIn 1946 Tufts joined other highly selective ... The president of Tufts, ... at the once-tiny college he had helped to create and over whose first ...
p47
sg5
VLight on the hill: A history of Tufts College, 1852-1952
p48
sa(dp49
g3
VTufts University is set to formally inaugurate noted neuroscientist Anthony ... Tufts University inaugurates new president. ... Follow other Boston.com ...
p50
sg5
VTufts University inaugurates new president - Boston.com
p51
sa(dp52
g3
VThe college was renamed "Tufts University" in 1954. For over a ... after the French-American nutritionist Jean Mayer became president in the ... reports, other ...
p53
sg5
VTufts University - SourceWatch
p54
sa(dp55
g3
V... and start talking with other ... I was there when Jean Mayer took over as president and ... An Entrepreneurial University: The Transformation of Tufts, ...
p56
sg5
VTufts history - College Confidential
p57
sa(dp58
g3
VA number of schools have 'improved' over the ... moves have helped propel Tufts and other elite ... most university presidents, he has put the stamp of ...
p59
sg5
VHow did Tufts become a hot school? - College Confidential
p60
sa(dp61
g3
VOver the past few weeks quite a few of you ... named Provost of the Franklin W. Olin College of Engineering. Other ... the President. Tufts University Ballou ...
p62
sg5
VThoughts on Times of Transition - Office of the President
p63
sa(dp64
g3
VStudents and Faculty Member Travel to Zambia Over the Holidays ... or by logging onto the Tufts University ... http://president.tufts.edu/tca ...
p65
sg5
VAnnouncements - Tufts University
p66
sa(dp67
g3
VIn an address at Tufts, former President ... "What we seek after the horror of 9-11 is that we want to protect our country and other ... Copyright 2013 Tufts University
p68
sg5
VTufts E-News: "Choose Hope Over Hate"
p69
sa(dp70
g3
VI chose Tufts over my other options ... in bioengineering and served as Vice President of the ... MBA program at Tufts University School of Medicine ...
p71
sg5
VMeet the Class of M15 | Tufts University School of Medicine MD ...
p72
sa(dp73
g3
VTufts University Korean American ... The comment stayed on the website for over twenty four hours even after ... KSA-13 requested that Tufts President Bacow issue ...
p74
sg5
VTufts University Korean American Students Settlement Agreement ...
p75
sa(dp76
g3
VWhen Imelda Romualdez Marcos, wife of Philippine president Ferdinand E. Marcos and a member of his martial law cabinet, visited Tufts University in 1977, over 1000 ...
p77
sg5
VMarcos Cancels Funds For Tufts Endowment | News | The Harvard Crimson
p78
sa(dp79
g3
VAnthony Monaco became Tufts University's 13th president this summer, when he took over ... president of Tufts University, ... of higher education and Tufts's ...
p80
sg5
VTufts President Talks About Green Line, Education, Town-Gown ...
p81
sa(dp82
g3
VAs a professor and as provost for three very different presidents, he witnessed a ... who did for the College of ... other Tufts families and 23 ...
p83
sg5
VTufts Journal: Corner: A university unbound
p84
sa(dp85
g3
V... on Aging at Tufts University. He has authored over eighty ... and over 100 other ... Vice President Sales and Marketing. He has over 20 years ...
p86
sg5
VExecutive Team | Boston Heart Diagnostics
p87
sa(dp88
g3
VNews about Tufts University. ... Professor Bedau\u2019s half-century career encompassed several cycles in the national debate over capital punishment, which he opposed ...
p89
sg5
VTufts University - The New York Times
p90
sa(dp91
g3
VCombined Degrees and Other Special Degree ... guide\u201d to picking your college. ... all-time high for Tufts and a 12.5 percent increase over last ...
p92
sg5
VInside Admissions  Tufts University Admissions Department
p93
sa(dp94
g3
V... President of the Tufts Associated Health ... Northeastern University and several other institutions. He ... over 100 scientific publications. He is ...
p95
sg5
VTufts Managed Care Institute - Board of Directors
p96
sa(dp97
g3
V... all over the world. Lo and behold ... along with 22 other Tufts ... Studies and sponsored by the Experimental College. The course, taught by Tufts alum and well ...
p98
sg5
VTufts University: The Experimental College
p99
sa(dp100
g3
VSee other services through ... President of the Tufts Associated ... MA and Yale University School of Medicine. He did his postgraduate training in internal ...
p101
sg5
VJohn Harrington | HBS Association of Boston | ZoomInfo.com
p102
sa(dp103
g3
VIt does not affect other things because it creates something to ... Tufts University welcomed back to the hill ... Tufts President Anthony Monaco took a break ...
p104
sg5
VTufts Events
p105
sa(dp106
g3
V... I sat in on a Tufts Experimental College class called Positive Psychology. ... remember, chew over, ... each other, and some baby carrots.
p107
sg5
VInside Admissions  Tufts University Admissions Department
p108
sa(dp109
g3
VTufts University A Graduate ... Libya and three other Americans has brought ... his own party \u2014 over statements he made blasting President Obama just ...
p110
sg5
VDid Romney Speak Too Soon About Attacks? Prof. Daniel Drezner ...
p111
sa(dp112
g3
VTufts University Suspends InterVarsity Chapter ... Following conflicts over the club status of InterVarsity ... Snow College president Scott Wyatt says the ...
p113
sg5
VChristianity Today Gleanings: Tufts University Suspends ...
p114
sa(dp115
g3
V... by the Tufts University Office of ... President announces that he is leaving Tufts in June 2011 after 10 ... His 39 saves led the Jumbos over the ...
p116
sg5
VThe Puck Stops Here - Tufts Journal
p117
sa(dp118
g3
V\u201cOver the years, Tom served Tufts University and the ... \u201cDr. Norris has been a fantastic friend and a mentor to me and many other deans,\u201d said ADEA President ...
p119
sg5
VNews@TuftsDental \u2013 January 2013 - Tufts University School of ...
p120
sa(dp121
g3
VThrow in another tax cut along the lines of the two successfully supported by President ... Tufts University ... many other loopholes ...
p122
sg5
VGDAE - Tufts University
p123
sa(dp124
g3
VVaris and Dr. David McGrath and other friends have ... Tufts University 200 Westboro Rd N ... into externships in practices all over the country. He always strived ...
p125
sg5
VVeterinary Alumni News T U F T S
p126
sa(dp127
g3
VNew England Patriots offensive lineman Ryan Wendell is scheduled to visit Tufts University Sunday ... vomiting "all over ... Tufts President's recent ...
p128
sg5
VTufts University - Medford, MA Patch
p129
sa(dp130
g3
VSee other services through which you ... FCP (CMO) Over twenty years of experience in ... and Indiana University and is currently an adjunct professor at Tufts ...
p131
sg5
VUllrich Schwertschlag | Tufts University | ZoomInfo.com
p132
sa(dp133
g3
VLuis Santamaria is a Corporal at the Tufts University Police Department. He has been ... and he has conducted over eighty ... and many other outlets. He has also ...
p134
sg5
VTufts University: The Experimental College
p135
sa(dp136
g3
VWe will be adding other power point ... University President Anthony Monaco is ... Which experiences and resources at Tufts did you find most helpful in ...
p137
sg5
VNews from Tufts University Parents Program
p138
sa(dp139
g3
V... faculty and staff in the Tufts community over the ... you will also learn from each other. ... Tony Monaco is unique among university presidents in that he is a ...
p140
sg5
VTufts Matriculation 2015 | Tufts Now
p141
sa(dp142
g3
VTufts University School Engineering Top Stories news alumni faculty ... Williams takes over from Travis ... and advising the President and ...
p143
sg5
VTufts University School Engineering Top Stories - Engineering ...
p144
sa(dp145
g3
VWhen Dr. Robert I. Rotberg comes to Lafayette College next month as its 14th president, he brings ... and other countries. He earned ... at Tufts University, ...
p146
sg5
VNew Lafayette Chief Has Learned Lessons From Experience - Morning Call
p147
sa(dp148
g3
VOver the last 30 years, ... has been appointed president of Tufts University, the Tufts board of ... 68, and about 11 other people are housed not at the Sheraton ...
p149
sg5
VArticles about Tufts University - Los Angeles Times
p150
sa(dp151
g3
V... managing 13 other Tufts students and developing systemic ... giving Tufts an outstanding turnout of over ... Tisch College; Dean Ladin; President Bacow. ...
p152
sg5
VPresident Bacow recognizes graduating students for outstanding ...
p153
sa(dp154
g3
VAs Shira completed his official duties as ADA president, Tufts University ... schools within the university and with other ... many times over ...
p155
sg5
VA Thirty-Year History of Tufts University School of Dental ...
p156
sa(dp157
g3
VAri Socolow has completed the 34 courses needed to graduate from Tufts University, and he ... the president of Tufts, ... debate over the new ...
p158
sg5
VCampus Life: Tufts; It Takes Time, As Well as Credits, To Graduate ...
p159
sa(dp160
g3
VTufts University. Forward; Facebook Like; Tweet Widget; Add comment. Your name * E-mail * The content of this field is kept private and will not be shown publicly ...
p161
sg5
VLee A. Coffin, Tufts University | College Admission
p162
sa(dp163
g3
VTufts University Department of Drama ... which he premiered with other fellow Jumbos during the Fall 2011 ... including president of the American Society for ...
p164
sg5
VTufts University Department of Drama and Dance - Medford, MA ...
p165
sa(dp166
g3
V... director of alcohol and health education at Tufts University. ... retired second vice president and associate general counsel ... for over 53 years, died ...
p167
sg5
VArticles about Tufts University - Hartford Courant
p168
sa(dp169
g3
V... and perhaps more than most university presidents, he has put the stamp of ... And when he took over at Tufts, he ... He has been busy at other jobs ...
p170
sg5
VJEAN MAYER'S DECADE AT TUFTS - A STAMP OF PASSION - NYTimes.com
p171
sa(dp172
g3
V... is part of the Tufts University School of Engineering. ... threw it over his ... and all other Tufts students the opportunity to become educated in ...
p173
sg5
VThe Gordon Institute - Tufts University
p174
sa(dp175
g3
VWhat was your affiliation with the Lincoln Filene Center and over what time period? I ... bank and university presidents, ... Tufts University- not unlike many other ...
p176
sg5
VLincoln Filene Center History: Stuart Langton - Jonathan M. Tisch ...
p177
sa(dp178
g3
VTufts University in ... Tufts isn\u2019t the only campus community battling over Christian student groups\u2019 rights to ... As the vice president of cultural ...
p179
sg5
VTufts University Bans Christian Student Group for Requiring ...
p180
sa(dp181
g3
V... Tufts College, 1940-1943; HSc.D., 1978. Other ... He was a founding member and president of the Human ... went from less than 10% to over 50% in adults ...
p182
sg5
VLuminaries, M - Z - Tufts University Alumni Association
p183
sa(dp184
g3
VTodd Harris \u201914.5 will be president of the Undergraduate Council of ... Tufts University \u2022 ... the university looks different than it did before he took over as .
p185
sg5
Vtufts+university | Search Results | College Media Network
p186
sa(dp187
g3
VTufts University students celebrating the ... At first I thought it was a story about the Tufts president ... Jilted lover does the sensible thing and runs over ...
p188
sg5
VTufts President Ends Annual Naked Quad Run - It's too boozy and ...
p189
sa(dp190
g3
VThe plan sets a clear over-arching ... of strength identified for the University as a whole by President Bacow and ... 2013 Tufts University ...
p191
sg5
VStrategic Plan - Arts and Sciences - Tufts University
p192
sa(dp193
g3
VA group of Tufts University veterinary students entered the ... Among other activities, ... people come from all over the world to swim with them.
p194
sg5
VCummings School of Veterinary Medicine  Jumble - sites.tufts.edu
p195
sa(dp196
g3
VWhen Dr. Robert I. Rotberg comes to Lafayette College next month as its 14th president, he brings ... hours as he did at Tufts. ... each other." He said he ...
p197
sg5
VNew Lafayette President Left Tufts Amid Controversy As Vice ...
p198
sa(dp199
g3
VFeatured Tufts University News ... Her father is senior vice president and chief financial officer ... a scientist who's taken over his deceased father's job of ...
p200
sg5
VFeatured Articles about Tufts University - Page 2 - Chicago Tribune
p201
sa(dp202
g3
V... physiologist, nutritionist, educator, was the tenth president of Tufts University. ... university sponsored. In total over ... Tufts was realized. When other ...
p203
sg5
VJean Mayer - UUA Server for Other Organizations' Web Sites
p204
sa(dp205
g3
VHe is currently vice president of the Vermont Higher Education ... of Vermont College of Medicine. He has published over 400 ... D. from Tufts University ...
p206
sg5
VBoard of Trustees - About Fletcher Allen - Fletcher Allen
p207
sa(dp208
g3
V... Tufts University students are ... rallies and a petition to the president with over 1,300 ... underbid each other for the contract while Tufts can choose ...
p209
sg5
VTufts students organize janitors - The Somerville News Blog
p210
sa(dp211
g3
V... is part of the Tufts University School of Engineering. ... joined athletic teams, was class president, ... the other side is to have fun while ...
p212
sg5
VThe Gordon Institute - Tufts University
p213
sa(dp214
g3
VAnd how about other governors who have run for president? ... But did you know that football has well over 100 ... Did you know that Tufts University has a ...
p215
sg5
VDigital Collections and Archives: features Archives
p216
sa(dp217
g3
Vover, still advancing, but more warily. Watch your head! Next you drop to your hands and knees. ... the next president of Tufts University. by Taylor McNeil
p218
sg5
VTufts doctors GAME DAY
p219
sa(dp220
g3
V... In a letter to the men\u2019s crew team posted on the website of the Office of the President, University ... http://president.tufts ... Get over it . I'd have to ...
p221
sg5
VMen\u2019s crew team suspended after Spring Fling shirt incident
p222
sa(dp223
g3
VTufts University Health Service has learned ... Boston Mayor Honored At Tufts President Bacow presented the 8th ... At Tufts Veterinary School Over 75 teams of ...
p224
sg5
VAnnouncements - Tufts University
p225
sa(dp226
g3
V... President, Connecticut Family ... Ripps graduated from Hamilton College with Honors and then attended Tufts University Medical School. He did a surgical ... Over ...
p227
sg5
VRonald Ripps, President, Connecticut Family Orthopedics | Spoke
p228
sa(dp229
g3
VWhen Arts & Sciences Dean Robert Sternberg took his first college psychology course, he got a C\u2014not an ... of development over a ... president. \u201cAt Tufts we ...
p230
sg5
VNew center will help faculty teach to a diversity of learning ...
p231
sa(dp232
g3
V... Tufts College." After over a century as a small New England liberal arts college, the French-American nutritionist Jean Mayer became president of Tufts ... other ...
p233
sg5
VTufts University | Learn everything there is to know about Tufts ...
p234
sa(dp235
g3
V... President and CEO of Tufts ... teaching hospital for Tufts University School ... approved the over-the-counter sale of Plan B One-Step for use ...
p236
sg5
VNational leader in quality and patient safety tapped as Tufts ...
p237
sa(dp238
g3
V... President and CEO of Tufts Medical Center. ... the Medical Center is the principal teaching hospital for Tufts University School of ... crossed over the center ...
p239
sg5
VNational leader in quality and patient safety tapped as Tufts ...
p240
sa(dp241
g3
VHis resume also includes positions at Yale and Tufts University in ... provided by Buchanan over the years. Sternberg said he ... As university president, ...
p242
sg5
VIncoming UW president: 'College made me what I am' - The Gillette ...
p243
sa(dp244
g3
VHis resume also includes positions at Yale and Tufts University in ... provided by Buchanan over the years. Sternberg said he ... As university president, ...
p245
sg5
VIncoming UW president: 'College made me what I am'
p246
sa(dp247
g3
VLetter from President Monaco; Athletics Home Page; ... and went on to secure an 8-7 NESCAC men's lacrosse victory over visiting Tufts here today. ... Tufts University
p248
sg5
VWesleyan Overcomes Early 3-0 Deficit to Defeat Tufts in NESCAC Men ...
p249
sa(dp250
g3
VMAGAZINE OF THE TuFTs uNIvErsITy MEdIcAl ANd sAcklEr ... lessons in the educational videos he is over-seeing on evolution and other ... were Tufts President ...
p251
sg5
VStayin\u2019 alive
p252
sa(dp253
g3
VPrior to joining Tufts University, ... and stayed over the subsequent year to ... She has served as the President and Vice President for ...
p254
sg5
VTufts University - Optical Diagnostics for Diseased and Engineered ...
p255
sa(dp256
g3
VSubsequently he gave his pledge to add other ... was elected president of the College. But he ... announced his intention of making Tufts College his child. He ...
p257
sg5
VTufts College | New England Magazine
p258
sa(dp259
g3
VThe other half of the ... Cummings Credits Tufts Before he got into real ... says Senior Vice President and Provost Sol Gittleman. He notes that the department ...
p260
sg5
VCummings Credits Tufts - Commercial real estate, office ...
p261
sa(dp262
g3
V... say two Tufts experts, isn't over yet. ... "A war-time president who didn't go to war versus a candidate who did - other things ... Copyright 2013 Tufts University
p263
sg5
VTufts E-News: There's Something About Kerry
p264
sa(dp265
g3
VMike Stone is the President and Co-Founder ... and evolve the tool over time ... He is a 2007 graduate of Tufts University with a BA in Psychology and a minor in ...
p266
sg5
VMike Stone, President & Co-Founder - Abroad101 | Featured on MO.com
p267
sa(dp268
g3
V... a small number of people trained in the biological sciences have become college preside. ... who took over the ... when he became dean of Tufts University School ...
p269
sg5
VLife Scientists as College Presidents: Unique Training for a ...
p270
sa(dp271
g3
VWyatt is Elected TCU Vice President ... Tufts University Information Technology ... Wyatt co-chairs the University's Alcohol and Other Drug Task Force.
p272
sg5
VWhat Has Wyatt Done? | Wyatt for Tufts
p273
sa(dp274
g3
V... and his M.D. degree from Tufts University in 1986. He then did his residency in ... The over-arching goal in the ... differ from other T cell subsets and ...
p275
sg5
VMolecular Cardiology Research Institute - Molecular Cardiology ...
p276
sa(dp277
g3
Vat Tufts University School of Medicine. He served as Chief of ... He has taught for over 25 years ... other Tufts Medical Center committees or
p278
sg5
VAnnual Report 2 0 0 9
p279
sa(dp280
g3
VBrune and Tufts President ... published wcckdavs during the academic year by the students of Tufts University. ... said the Tufts group\u2019s other ...
p281
sg5
VP* Po TUFTS ITHE DAILY7
p282
sa(dp283
g3
V... Tufts University has been thinking ... that holds priority over the right to freedoms that any other group ... to elect their President because ...
p284
sg5
VTufts University\u2019s Nondiscrimination Policy No Longer Applies to ...
p285
sa(dp286
g3
V... which dumped over a foot of snow ... other students warned the university that he had talked in ... showed the current president was among a college class ...
p287
sg5
VPowered By Article Dashboard Tufts University School Of Medicine ...
p288
sa(dp289
g3
VA community-wide event held over the weekend ... as it did for the other ... \u201cRace participants varied from freshmen at Tufts to the university president ...
p290
sg5
VMedford's Tufts University races for a cause - Medford ...
p291
sa(dp292
g3
V... and a few other ... a friend of mine go into tufts ed. you are more competitive than him in every way except he did ... When does Tufts University ...
p293
sg5
VChances at Johns Hopkins and Tufts? - Yahoo! Answers
p294
sa(dp295
g3
V- Lawrence Bacow, Tufts University President (Tufts Daily, 3/5/04) ... it is more liberal than many other schools, but it is not over the top.
p296
sg5
VCollege Confidential Discussion - College Admissions, Search, and ...
p297
sa(dp298
g3
V-A myriad of other devices ... Data.gov is part of President Obama\u2019s ... HHSL would like to recognize several Tufts University faculty and staff from ...
p299
sg5
VTufts University Hirsh Health Sciences Library - Boston, MA ...
p300
sa(dp301
g3
VFree Online Library: David Lee makes his Tufts University colleagues happy by running a newsletter profit center on campus.(Publisher profile) by "The ...
p302
sg5
VDavid Lee makes his Tufts University colleagues happy by running a ...
p303
sa.