(lp1
(dp2
S'description'
p3
VThe Church of Jesus Christ of Latter-day Saints ... itself to be a restoration of the church founded by Jesus Christ. ... the Latter-day Saints, and the Mormons.
p4
sS'title'
p5
VThe Church of Jesus Christ of Latter-day Saints - Wikipedia, the ...
p6
sa(dp7
g3
VThe Church of Christ was the original name of the Latter Day Saint church founded by ... Mormons. ) Beginning in 1834 ... Church of Jesus Christ of Latter Day Saints ...
p8
sg5
VChurch of Christ (Latter Day Saints) - Wikipedia, the free ...
p9
sa(dp10
g3
VOfficial website of The Church of Jesus Christ of Latter-day Saints (Mormons). Scriptures, general conference addresses, Church magazines, temple information, stake ...
p11
sg5
VThe Church of Jesus Christ of Latter-day Saints
p12
sa(dp13
g3
VDiscover Mormons who share your personal ... The Church of Jesus Christ of Latter-day Saints is God's one true church on ... Joseph Smith founded the LDS Church.
p14
sg5
VWho founded Mormonism and The Church of Jesus Christ of Latter-day ...
p15
sa(dp16
g3
VThe Church of Jesus Christ of Latter-day Saints is the official name of the religion commonly called the Mormon ... Mormons are united by a commitment to Jesus Christ.
p17
sg5
VMormon.org | Beliefs and People of The Church of Jesus Christ of ...
p18
sa(dp19
g3
VThe Church of Jesus Christ of Latter-day Saints is often ... LDS Today - news related to The Church of Jesus Christ of Latter-day Saints Lightplanet: Mormons - over ...
p20
sg5
VThe Church of Jesus Christ of Latter-day Saints - Mormonism, The ...
p21
sa(dp22
g3
VThis movement was founded by ... Church of Jesus Christ of Latter-day Saints (LDS Church). ... The Church of Jesus Christ of Latter-day Saints (or Mormons) ...
p23
sg5
VThe Church of Jesus Christ of Latter-Day Saints: The Mormons ...
p24
sa(dp25
g3
VIntroduction Latter-day Saints, Church of Jesus Christ of, ... Church of Jesus Christ of, name of the church founded (1830) ... are commonly called Mormons.
p26
sg5
VLatter-day Saints, Church of Jesus Christ of: Introduction ...
p27
sa(dp28
g3
VChurch of Jesus Christ of Latter-Day Saints. ... whose adherents are known as Latter-day Saints or Mormons, ... In 1830 Smith founded the Church of Christ, ...
p29
sg5
VNew Georgia Encyclopedia: Church of Jesus Christ of Latter-Day Saints
p30
sa(dp31
g3
V... clearly shows that it is the same Church, and that it is founded on the ... Mormons; Reflections on the ... The Church of Jesus Christ of Latter-day Saints ...
p32
sg5
VThe Church of Jesus Christ of Latter-day Saints (Mormons or LDS ...
p33
sa(dp34
g3
VThe Church of Jesus Christ of Latter-day Saints is the official name of the Church established on April ... and members are often called Mormons or Latter-day Saints.
p35
sg5
VChurch of Jesus Christ of Latter-Day Saints, the - The ...
p36
sa(dp37
g3
VMembers of The Church of Jesus Christ of Latter-day Saints (commonly known as Mormons) ... The Church of Jesus Christ of Latter-day Saints is ... which was founded ...
p38
sg5
VWho are the Mormons? - LDS News | Mormon News - Official Newsroom ...
p39
sa(dp40
g3
VJesus Christ is central to The Church of Jesus Christ of Latter-day Saints, which bears His name. JesusChrist.lds.org is an official Web site of The Church of Jesus ...
p41
sg5
VJesus Christ, The Son of God
p42
sa(dp43
g3
VThe Church of Jesus Christ of Latter-Day Saints, ... Latter-day Saints (Mormons) ... members of the Church founded the Territory of Deseret.
p44
sg5
VThe Church of Jesus Christ of Latter-Day Saints - Conservapedia
p45
sa(dp46
g3
VFounded in Fayette, ... Another Testament of Jesus Christ (hence the nickname \u201cMormons\u201d), ... Church of Jesus Christ of Latter-day Saints.
p47
sg5
VChurch of Jesus Christ of Latter-day Saints - Encyclopedia of Arkansas
p48
sa(dp49
g3
VMormons in Wisconsin: Baptism ... Church of Jesus Christ of Latter Day Saints Mormon Road and Hwy. 11 Burlington, Wisconsin (800) 862-5667 . One example of our
p50
sg5
VChurch of Jesus Christ of Latter Day Saints - Mormons - Strang
p51
sa(dp52
g3
VThe Church of Jesus Christ of Latter-day Saints ... Members of the church, who are often called Mormons, ... The church was founded by Joseph Smith in 1830 in upstate ...
p53
sg5
VThe Church of Jesus Christ of Latter-day Saints - Simple English ...
p54
sa(dp55
g3
VThe Mormons are the members of a Christian Millenarian movement, also known as the Church of Jesus Christ of Latter Day Saints
p56
sg5
VThe Church of Jesus Christ of Latter Day Saints: The Mormons ...
p57
sa(dp58
g3
VMormons are members of The Church of Jesus Christ of Latter-day Saints. There are a few fundamentalist sects that call themselves "Mormons," but they are not ...
p59
sg5
VMormons - Mormonism, The Mormon Church, Beliefs, & Religion ...
p60
sa(dp61
g3
V... (Church of Jesus Christ of Latter-Day Saints) are resolute followers of our Lord & Sa ... The Church of Jesus Christ of Latter-day Saints (the Mormons) ...
p62
sg5
VMormons & Christianity: How can members of the Church of Jesus ...
p63
sa(dp64
g3
VThe Church of Jesus Christ of Latter-day Saints ... was founded upon an inspired declaration ... of Jesus Christ of Latter-day Saints, LDS, or \u201cMormons\u201d as ...
p65
sg5
VThe Church of Jesus Christ of Latter-day Saints | The Family
p66
sa(dp67
g3
VLatter-day Saints, Church of Jesus Christ of ... Founding of the Church. The history of the Mormons began with ... itself as the successor of the church founded by ...
p68
sg5
VLatter-day Saints, Church of Jesus Christ of definition of Latter ...
p69
sa(dp70
g3
VReorganized Church of Jesus Christ of Latter Day Saints. ... of Latter-day Saints (commonly called the Mormons). ... founded the precursor to the Church of Christ ...
p71
sg5
VReorganized Church of Jesus Christ of Latter Day Saints
p72
sa(dp73
g3
VChurch of Jesus Christ of Latter-Day Saints - church founded by Joseph Smith in ... Mormon Church, Mormons. ... by the Church of Jesus Christ of Latter-day Saints ...
p74
sg5
VChurch of Jesus Christ of Latter-day Saints - definition of Church ...
p75
sa(dp76
g3
VMormonism, Mormon, The Church of Jesus Christ of Latter-day Saints is not Christian. It is a false religion. ... Hinckley says Mormons believe in a different Jesus.
p77
sg5
VMormonism, LDS, Church of Jesus Christ of Latter-day saints ...
p78
sa(dp79
g3
VMormons: Baptists: The Church ... Christian church. Campbell and his associates founded the ... to "Reorganized Church of Jesus Christ of Latter Day Saints" at the ...
p80
sg5
VChristianity / the church of jesus christ of latter-day saints ...
p81
sa(dp82
g3
VThe LDS Restorationist churches including The Church of Jesus Christ of Latter-day Saints ... founded in 1830. The Church of Christ was ... to as "Mormons " by the ...
p83
sg5
VThe LDS Restorationist movement, including The Church of Jesus ...
p84
sa(dp85
g3
VThe Fundamentalist Church of Jesus Christ of Latter Day Saints ... was founded in 1935 by two Mormons who had been excommunicated from The Church of Jesus Christ ...
p86
sg5
VTHE FUNDAMENTALIST CHURCH OF JESUS CHRIST OF LATTER DAY SAINTS
p87
sa(dp88
g3
VPurpose of this Website Many individuals from the People\u2019s Republic of China (PRC) have joined The Church of Jesus Christ of Latter-day Saints while living in other ...
p89
sg5
VThe Church of Jesus Christ of Latter-day Saints in China
p90
sa(dp91
g3
VMembers of the Church of Jesus Christ of Latter-day Saints (Mormons) ... was founded as a church outpost on the Spanish Trail leading to southern California.
p92
sg5
VChurch of Jesus Christ of Latter-day Saints
p93
sa(dp94
g3
VJoseph Smith. Joseph Smith founded the Church of Jesus Christ of Latter-day Saints in 1830. Adherents of the church, known as Mormons, sent ...
p95
sg5
VJoseph Smith founded the Church of Jesus Christ of Latter-day ...
p96
sa(dp97
g3
VThe official history website of The Church of Jesus Christ of Latter-day Saints
p98
sg5
VChurch History
p99
sa(dp100
g3
VMormons first arrived in Texas in November of 1845 when Lyman Wight, along with 150 other Church members, founded ... Church of Jesus Christ of Latter-day Saints, ...
p101
sg5
VProfile of The Church of Jesus Christ of Latter-day Saints in Texas
p102
sa(dp103
g3
VMormons in Wisconsin: Baptism ... Church of Jesus Christ of Latter Day Saints Mormon Road and Hwy. 11 Burlington, Wisconsin (800) 862-5667 . One example of our
p104
sg5
VChurch of Jesus Christ of Latter Day Saints
p105
sa(dp106
g3
V101 Responses to IS THE \u201cCHURCH OF JESUS CHRIST OF LATTER-DAY SAINTS\u201d (LDS, Mormons) A ... stand in opposition to The Church of Jesus Christ of Latter-day Saints.
p107
sg5
VIS THE \u201cCHURCH OF JESUS CHRIST OF LATTER-DAY SAINTS\u201d (LDS ...
p108
sa(dp109
g3
VIt was founded by Joseph Smith, Jr ... Most people do not know us as "Latter-day Saints," but as "Mormons," a ... So remember that it's The Church of Jesus Christ of ...
p110
sg5
VMormons and Mormon Beliefs: An Introduction to The Church of Jesus ...
p111
sa(dp112
g3
VLDS Information About The Church of Jesus Christ of Latter-day Saints, Mormon Resources, LDS Life, Scriptures, and LDS Church Beliefs. ... What Do Mormons Believe?
p113
sg5
VLDS - Church of Jesus Christ of Latter-day Saints - Mormons - LDS ...
p114
sa(dp115
g3
V... is the meeting house for members of The Church of Jesus Christ of Latter-Day Saints; ... church, founded by ... the Mormons believe in God and in His Son Jesus ...
p116
sg5
VThe Church of Jesus Christ of Latter-Day Saints
p117
sa(dp118
g3
VThe Church of Jesus Christ of Latter-day Saints was founded in 19th ... The Church of Jesus Christ of Latter-Day Saints; Teachings of Jesus Christ; All About Mormons;
p119
sg5
VBBC - Religion: Mormonism
p120
sa(dp121
g3
V... on the big events of The Church of Jesus Christ of Latter-day Saints and its people in the year ... Mormons in Italy rejoice: Church granted country's 'official ...
p122
sg5
VTimeline: The Church of Jesus Christ of Latter-day Saints in 2012
p123
sa(dp124
g3
VThe Church of Jesus Christ of Latter-day Saints, ... by the LDS church. Mormons are counseled ... of the church founded by Jesus Christ and the sole ...
p125
sg5
VChristianity: Details about 'Church Of Jesus Christ Of Latter Day ...
p126
sa(dp127
g3
VMormonism - The Church of Jesus Christ of Latter-Day Saints. Read about history, theology, ... Mormons & Mormonism: The Church of Jesus Christ of Latter-Day Saints.
p128
sg5
VMormons & Mormonism: The Church of Jesus Christ of Latter-Day Saints
p129
sa(dp130
g3
VThe members of the Church of Jesus Christ of Latter-day Saints (Mormons) ... Jesus Christ founded the Church and restored it through Joseph Smith Jr. (B) ...
p131
sg5
VThe members of the Church of Jesus Christ of Latter-day Saints ...
p132
sa(dp133
g3
V... the Church of Jesus Christ of Latter-day Saints, is the largest religious group founded in ... Guests that are not Mormons can fully participate in the ...
p134
sg5
VJesus Christ of Latter Day Saints - Making Plans with Funeral ...
p135
sa(dp136
g3
V... of Mormonism or Church of Jesus Christ of Latter-Day Saints. ... followers or Mormons or Latter Day Saints. Mormonism was founded by ... Mormons respect ...
p137
sg5
VRELIGION INFO - Mormonism (Church of Jesus Christ of Latter-Day ...
p138
sa(dp139
g3
VWould there be \u201cdry\u201d state dinners, since faithful Mormons don\u2019t do alcohol? ... Utah, member of The Church of Jesus Christ of Latter-day Saints, ...
p140
sg5
VChurch of Jesus Christ of Latter-day Saints \u2013 CNN Belief Blog ...
p141
sa(dp142
g3
VAlso called the Church of Jesus Christ of Latter-Day Saints. ... Mormons (Also called the Church of Jesus Christ of Latter-Day Saints.) ... several towns founded, ...
p143
sg5
VMormons - NEW ADVENT: Home
p144
sa(dp145
g3
VFamilySearch.org is a nonprofit family history organization from The Church of Jesus Christ of Latter-day Saints dedicated to connecting families across generations.
p146
sg5
VFamilySearch.org - Free Family History and Genealogy Records
p147
sa(dp148
g3
VMormons in Wisconsin: Baptism ... Church of Jesus Christ of Latter Day Saints Mormon Road and Hwy. 11 Burlington, Wisconsin (800) 862-5667 . One example of our
p149
sg5
VChurch of Jesus Christ of Latter Day Saints - Mormons - Strang
p150
sa(dp151
g3
VThe Church of Jesus Christ of Latter-day Saints (LDS) was founded by Joseph Smith, Jr., in 1830. LDS members are often referred to as Mormons, a nickname taken from ...
p152
sg5
VChurch of Jesus Christ of Latter-Day Saints : The Humane Society ...
p153
sa(dp154
g3
VMormons in Wisconsin: Baptism ... Church of Jesus Christ of Latter Day Saints Mormon Road and Hwy. 11 Burlington, Wisconsin (800) 862-5667 . One example of our
p155
sg5
VChurch of Jesus Christ of Latter Day Saints - Mormons - Strang
p156
sa(dp157
g3
VThe Church of Jesus Christ of Latter-day Saints (LDS) was founded by Joseph Smith, Jr., in 1830. LDS members are often referred to as Mormons, a nickname taken from ...
p158
sg5
VChurch of Jesus Christ of Latter-Day Saints : The Humane Society ...
p159
sa(dp160
g3
VThe Church of Jesus Christ of Latter-day Saints (the Mormons): Why are Mormons secretive about their religion?
p161
sg5
VThe Church of Jesus Christ of Latter-day Saints (the Mormons): Why ...
p162
sa(dp163
g3
VIt's actually the Church of JESUS CHRIST of Latter-Day Saints ... Latter Day Saints and "the Mormons, ... of Latter-day Saints. Joseph Smith founded ...
p164
sg5
VWhy are Mormons called the Church of Latter Day Saints? - Yahoo ...
p165
sa(dp166
g3
VWhat Latter-day Saints (Mormons) Believe Central tenets of this faith, ... More on the Church of Jesus Christ of Latter-day Saints. Mormon Section; Mormon Discussions
p167
sg5
VWhat Latter-day Saints (Mormons) Believe - Beliefnet.com
p168
sa(dp169
g3
VWho founded the Mormons church? God ... The Church of Jesus Christ of Latter-day Saints (the correct name for what is nicknamed the Mormon. Related topics:
p170
sg5
VWho founded the Mormon Church - The Q&A wiki
p171
sa(dp172
g3
V... The Church of Jesus Christ of the Latter Day Saints ... Christianity is founded by Jesus who ... Christ of the Latter Day Saints (Mormons), since the church was ...
p173
sg5
VMormons \u2013 The Church of Jesus Christ of the Latter Day Saints
p174
sa(dp175
g3
VLDS Information About The Church of Jesus Christ of Latter-day Saints, Mormon Resources, LDS Life, Scriptures, and LDS Church Beliefs. ... What Do Mormons Believe?
p176
sg5
VLDS - Church of Jesus Christ of Latter-day Saints - Mormons - LDS ...
p177
sa(dp178
g3
VFind more Church of Jesus Christ Of Latter Day Saints churches in our church directory and ... Year Founded: Bible ... Mormons are united by a commitment to Jesus ...
p179
sg5
VChurch Of Jesus Christ Of Latter-day Saints Church of Jesus Christ ...
p180
sa(dp181
g3
VThe Church of Jesus Christ of Latter-day Saints, whose members are sometimes known as "Mormons," was founded in 1830 in New York state. Today, the Church is ...
p182
sg5
VAbout the Mormon Church | ksl.com - Utah News, Sports, Weather and ...
p183
sa(dp184
g3
VSeveral Dissimilarities Between The Church of Jesus Christ of Latter Day Saints (LDS) ... symbolizes Jesus' death, while Mormons worship the risen Christ.
p185
sg5
VChurch of Jesus Christ of Latter Day Saints and the Church of God
p186
sa(dp187
g3
V... The Church of Jesus Christ of Latter-day Saints was founded in 1830 ... The Church of Jesus Christ of Latter-day Saints. ... Mormons Worship the Lord Jesus Christ.
p188
sg5
VChurch Of Jesus Christ Of Latter-day Saints | Hartford Mormon Temple
p189
sa(dp190
g3
VA brief description of the Church of Jesus Christ of Latter-day Saints/Mormons.
p191
sg5
VChurch of Jesus Christ of latter day saints. Mormons/lds/ - YouTube
p192
sa(dp193
g3
VThe socially and politically conservative Church of Jesus Christ of Latter-day Saints ... Church, queer Mormons ... the Latter Day Saint Movement founded ...
p194
sg5
VChurch of Jesus Christ of Latter-day Saints (Mormons)
p195
sa(dp196
g3
VThe Church of Jesus Christ of Latter-day Saints was officially organized on April 6, 1830 in Fayette, New York, with six members. Today, ...
p197
sg5
VAmerican Prophet: The Story of Joseph Smith
p198
sa(dp199
g3
VWho was the founder of the Church of Jesus Christ of Latter Day Saints? In ... Saints are also referred to as "Mormons. Who founded the church of Jesus Christ of ...
p200
sg5
VWho was the founder of the Church of Jesus Christ of Latter Day Saints
p201
sa(dp202
g3
VChurch of Jesus Christ of Latter-Day Saints: ... For devout Mormons, the name of The Church of Jesus Christ of Latter-day Saints results from divine revelation, ...
p203
sg5
VThe Church of Jesus Christ of Latter Day Saints: Origins of the name
p204
sa(dp205
g3
V... there are more than 5 million Mormons. The church is headquartered in Salt Lake City. ... The Church of Jesus Christ of Latter-day Saints was founded by Joseph ...
p206
sg5
VWho Are the Mormons? Beliefs and history of Latter-day Saints ...
p207
sa(dp208
g3
VThe Church of Jesus Christ of Latter-day Saints ... Mormons embrace all truth, and believe that many Christian denominations share true doctrines in common.
p209
sg5
VThe Church of Jesus Christ of Latter-day Saints
p210
sa(dp211
g3
V... Church of Jesus Christ of Latter Day Saints, ... Christ of Latter-day Saints. A Church founded in ... Mormons are members of The Church of Jesus Christ ...
p212
sg5
VUrban Dictionary: church of jesus christ of latter day saints
p213
sa(dp214
g3
VTegucigalpa Honduras Temple Dedicated. 17 Mar 2013. The Church of Jesus Christ of Latter-day Saints dedicated its first temple in Honduras, the sixth in Central ...
p215
sg5
VTemples of The Church of Jesus Christ of Latter-day Saints ...
p216
sa(dp217
g3
VOther Mormons have prophets that are like fig trees, that do not ... Church of Jesus Christ of Latter Day Saints Mormon Road and Hwy. 11 Burlington, Wisconsin
p218
sg5
VChurch of Jesus Christ of Latter Day Saints - Mormons - Prophets
p219
sa(dp220
g3
VHistory of the Church of Jesus Christ of Latter-day Saints (supposedly) by Joseph Smith. ... Following Mormons Thinking Mormons Temples/Masonry Discrimination BYU:
p221
sg5
VHistory of the Church of Jesus Christ of Latter-day Saints by ...
p222
sa(dp223
g3
VPlease Note: \u201cChurch of The Latter Rain\u201d is a non-denominational, ... We are not affiliated with \u201cThe Church of Jesus Christ Latter Day Saints\u201d (Mormons).
p224
sg5
VChurch of The Latter Rain
p225
sa(dp226
g3
VFounded: 1890. Location: ... the Fundamentalist Church of Jesus Christ of Latter-day Saints (FLDS) is a white supremacist, homophobic, antigovernment, ...
p227
sg5
VFundamentalist Church of Jesus Christ of Latter-Day Saints ...
p228
sa(dp229
g3
VThe Church of Jesus Christ of Latter-day Saints, also known as the Mormon church, is the largest American-founded church in history. Many people know a Mormon or have ...
p230
sg5
VMormon Church Beliefs | Learn What Mormons Really Believe
p231
sa(dp232
g3
VThe Church of Jesus Christ of Latter-day Saints is a religious ... where the Church has had significant influence since Mormons founded it in 1847 after gathering ...
p233
sg5
VChurch of Jesus Christ of Latter-day Saints - Issuepedia
p234
sa(dp235
g3
V... (The Church of Jesus Christ of Latter-day Saints ... FLDS members consider themselves to be the only true Mormons. ... on which Mormonism was founded, ...
p236
sg5
VFundamentalist Church of Jesus Christ of Latter Day Saints (FLDS ...
p237
sa(dp238
g3
VThe Church of Jesus Christ of Latter-Day Saints: ... Mormonism is founded upon a personal return by Jesus Christ to ... Mormons, that the contemporary Church was ...
p239
sg5
VThe Church of Jesus Christ of Latter-Day Saints: A Rebuttal
p240
sa(dp241
g3
VThe Family History Library of the Church of Jesus Christ of Latter-day Saints Address The Family History Library of the Church of Jesus Christ of Latter-day ...
p242
sg5
VThe Family History Library of the Church of Jesus Christ of Latter ...
p243
sa(dp244
g3
VTHE MORMONS (The Church of Jesus Christ of Latter-day Saints) Hebrews 1:1-2 God, who at various times and in different ways spoke in time past to the fathers by ...
p245
sg5
VThe Church of Jesus Christ of Latter-day Saints or Mormons
p246
sa(dp247
g3
VThe Reorganized Church of Jesus Christ of Latter Day Saints ... Church of Jesus Christ of Latter-day Saints (Mormons) ... States was founded as a ...
p248
sg5
VReorganized Church of Jesus Christ of Latter Day Saints | Roger ...
p249
sa(dp250
g3
VHistory Of The Church Of Jesus Christ Of Latter-day Saints ... where they founded Salt ... and transgendered Mormons, some Church members have formed a ...
p251
sg5
VHistory Of The Church Of Jesus Christ Of Latter-day Saints
p252
sa(dp253
g3
VJesus Christ & Joseph Smith ... History of Latter Day Saints / LDS / Church of Jesus Christ / Mormons ... Latter Day Saints founded by Freemsons by ...
p254
sg5
VJesus Christ & Joseph Smith - History of Latter Day Saints / LDS ...
p255
sa(dp256
g3
VApostles Church of Jesus Christ of Latter Day Saints; Mormon Church; Church of Jesus Christ of Latter Day Saints Mormons; Jesus Christ of Latter Day Saint Churches
p257
sg5
VKeller, Texas (TX) Church of Jesus Christ of Latter-day Saints ...
p258
sa(dp259
g3
VMormons believe that their church is "the only true and living ... declared that baptisms in the Church of Jesus Christ of Latter-day Saints are "not the ...
p260
sg5
VMormon Church : Apologetics research resources
p261
sa(dp262
g3
VThis material is not interesting to many Mormons. ... but the intended meaning is Church of Latter-day Saints of Jesus Christ. ... a SEER STONE founded
p263
sg5
VLDS: What's in a name? Church of Latter-day Saints of Jesus Christ ~~
p264
sa(dp265
g3
V... Mormons" (i.e., the Latter-day Saints who followed Brigham Young with the main, larger body of the church founded ... Church of Jesus Christ of Latter Day Saints ...
p266
sg5
VFamous members of the Community of Christ (RLDS)
p267
sa(dp268
g3
VBrief Mormon overview of the historical beginnings of The Church of Jesus Christ of Latter-day Saints, ... History Of The Mormons - Church Of Jesus Christ Of Latter ...
p269
sg5
VHistory Of The Mormons - Church Of Jesus Christ Of Latter-Day Saints
p270
sa(dp271
g3
VLatter-day Saints, Church of Jesus Christ of ... name of the church founded ... Founding of the Church. The history of the Mormons began with Smith's claim that ...
p272
sg5
VLatter-day Saints, Church of Jesus Christ of - Facts from the ...
p273
sa(dp274
g3
VChrist's Church ("Mormons") Faith; Family; FAQ; General Conference Talks; God; Grace; ... which is a common nickname for The Church of Jesus Christ of Latter-day Saints.
p275
sg5
VMormon Church: Mormon beliefs and stories from average Mormon ...
p276
sa(dp277
g3
VCommunity of Christ, formerly the Reorganized Church of Jesus Christ of Latter Day Saints ... Jesus Christ of, name of the church founded ... the Mormons, including ...
p278
sg5
VReorganized Church of Jesus Christ of Latter-day Saints definition ...
p279
sa(dp280
g3
VMormons believe in God, ... The Church of Jesus Christ of Latter-day Saints: Newsroom; Google News: ... Founded. April 6, 1830. Founder.
p281
sg5
VThe Church of Jesus Christ of Latter-day Saints - Mahalo.com
p282
sa(dp283
g3
VThe Mormon Church is a religious body founded in ... the Church of Jesus Christ of Latter-day Saints, ... of Jesus Christ of Latter-day Saints (the Mormons) ...
p284
sg5
VThe Church of Jesus Christ of Latter-day Saints legal definition ...
p285
sa(dp286
g3
VChurch of Jesus Christ of Latter Day Saints (Mormons)claim to be the only true church of Jesus Christ. The mere claim should make one to be skeptical, since Jesus ...
p287
sg5
VChurch of Jesus Christ of Latter Day Saints (Mormons)
p288
sa(dp289
g3
VHow to Join the Mormon Church (Church of Jesus Christ of Latter Day Saints). ... They are considered apostate Mormons by the main Mormon Church, ...
p290
sg5
VHow to Join the Mormon Church (Church of Jesus Christ of Latter ...
p291
sa(dp292
g3
VSome of the beliefs and practices of the Church of Jesus Christ of Latter-day Saints, also known as the Mormon Church: Scripture - Mormons regard the Christian Bible ...
p293
sg5
VBeliefs and practices of the Church of Jesus Christ of Latter-day ...
p294
sa(dp295
g3
VInformation about the Reorganized Church of Jesus Christ of Latter Day Saints ... day Saints - commonly called the Mormons ... founded the Church of Jesus Christ ...
p296
sg5
VRLDS Name Change to "Community of Christ"
p297
sa(dp298
g3
V... The Truth Behind the Church of Jesus Christ Latter Day Saints. ... Founded in 1830, ... indoctrinated Mormons are kept so busy with church work; ...
p299
sg5
VMormonism - The Truth Behind the Church of Jesus Christ Latter Day ...
p300
sa(dp301
g3
VCHURCH OF JESUS CHRIST OF LATTER-DAY SAINTS. The Church of Jesus Christ of Latter-day Saints, commonly referred to as the Mormons or Latter-day Saints, had a ...
p302
sg5
VCHURCH OF JESUS CHRIST OF LATTER-DAY SAINTS
p303
sa.