(lp1
(dp2
S'description'
p3
VThe European Union grows as candidate countries meet the ... that have adopted the single currency. But the euro area ... when the euro was first ...
p4
sS'title'
p5
VAdopting the euro - European Commission
p6
sa(dp7
g3
V... EUR) is the currency used by the Institutions of the European Union and is the ... The name euro was officially adopted on 16 ... many countries have been unable ...
p8
sg5
VEuro - Wikipedia, the free encyclopedia
p9
sa(dp10
g3
VA listing of the countries that utilize the euro as their ... residents of the first European Union countries that adopted the euro didn't begin ...
p11
sg5
VEuro Countries - Countries Using the Euro
p12
sa(dp13
g3
V... ahead of its adoption of the euro ... part of the European Union. And since that time, the euro ... senior European official with first-hand ...
p14
sg5
VIs Latvia the new Cyprus? | GlobalPost
p15
sa(dp16
g3
V... region joined the European Union, followed by two countries on ... to the first group of countries which adopted the euro. ... the adoption of the euro.
p17
sg5
VThe Euro - Currency System, by Cloanto - Server Software, Web ...
p18
sa(dp19
g3
VA country must first be a member of the European Union ... union. Members that once adopted the ... for euro adoption by non-candidate countries.
p20
sg5
VECB: The adoption of the euro: principles, procedures and criteria
p21
sa(dp22
g3
V... 17 of the European Union's Member ... First the euro was introduced as an accounting currency for ... Which countries have adopted the euro - and when ...
p23
sg5
VThe euro - European Commission
p24
sa(dp25
g3
VThe countries in the European Union that use the euro are: Belgium, Germany, Greece, ... EU countries not using the euro are: Denmark, Sweden, and the U.K.
p26
sg5
VWhat is the Euro (EUR)? | GoCurrency.com - Currency Converter ...
p27
sa(dp28
g3
VWith enlargement towards European formerly communist countries as well ... In the same year Slovenia adopted the euro, ... These first established the European ...
p29
sg5
VEuropean Union - Wikipedia, the free encyclopedia
p30
sa(dp31
g3
VFinance minister Rimantas Sadzius reveals Lithuania\u2019s 2015 euro adoption ... national and European ... countries that have adopted the euro show that ...
p32
sg5
VQ&A: Rimantas Sadzius, Lithuanian finance minister /Euromoney magazine
p33
sa(dp34
g3
V17 Member States of the European Union use the euro as their currency. Belgium; Germany; Estonia; Ireland; Greece; Spain; France; Italy; Cyprus; Luxembourg; Malta ...
p35
sg5
VMap of euro area 1999 \u2013 2011 - ECB: European Central Bank home page
p36
sa(dp37
g3
V... European Union [Edit categories] Answer: As of ... Initially 11 EU countries adopted the Euro from 1999, ... First answer by Contributor .
p38
sg5
VWhich countries use the Euro - The Q&A wiki
p39
sa(dp40
g3
V16 countries have adopted the Euro, ... First answer by Apepper. ... . 16 of the 27 member states of the European Union have adopted this currency.
p41
sg5
VHow many European country used euro as currency - The Q&A wiki
p42
sa(dp43
g3
VHow many countries use Euro? 3 years ago; ... Certain states outside the EU have adopted the euro as their currency. For formal adoption, ... European ...
p44
sg5
VHow many countries use Euro? - Yahoo! Answers
p45
sa(dp46
g3
VNot all countries that are part of the European Union use ... Union member nations that have adopted the euro now also ... have a target date for adoption.
p47
sg5
VWhich Countries Use the Euro Currency? | eHow
p48
sa(dp49
g3
VHow many countries might still join the European Union? and ... The European Union grows as candidate countries meet the ... the euro was first ...
p50
sg5
VHow many EU countries? - Yahoo! Answers
p51
sa(dp52
g3
VIt was the first time anyone talked about a union that would have ... twelve countries. 1999. The euro was adopted by ... twelve countries in the European Union.
p53
sg5
VWhen did the Euro begin? - ThinkQuest
p54
sa(dp55
g3
VThe Countries of the European Union . This page is a resource for european countries, especially the EU countries. Our lists will tell you which are the euro ...
p56
sg5
VEU Country List
p57
sa(dp58
g3
VThe Euro is the new 'single currency' of the European Monetary Union, adopted on ... 2002, these 12 countries officially introduced the Euro banknotes and coins as ...
p59
sg5
VEuro Currency | OANDA
p60
sa(dp61
g3
VThe euro area (also known as the eurozone) consists of those European Union countries which have adopted the ... institutions and path to euro adoption. next
p62
sg5
VHome - Eurozone
p63
sa(dp64
g3
VCountries; Europe Day; Facts and figures; Institutions and bodies; Work for the EU; EU funding; More on how the EU works; ... EUROPEAN UNION. European Parliament ...
p65
sg5
VEUROPA - European Union website, the official EU website
p66
sa(dp67
g3
VThe euro area (also known as the eurozone) consists of those European Union countries which have adopted the ... institutions and path to euro adoption. next
p68
sg5
VHome - Eurozone
p69
sa(dp70
g3
VAhead of Euro adoption, ... Since the Euro was first issued in 2002, the countries which have an Issue Date ... The Latin alphabet is used all over the European Union.
p71
sg5
VThe Euro- FAQ - ibiblio - The Public's Library and Digital Archive
p72
sa(dp73
g3
V... (euro) is used in 14 countries of the ... shortly after the first European elections ... The adoption process of the European Union flag is described in a ...
p74
sg5
VEuropean Union - CRW Flags Inc. Store in Glen Burnie, Maryland
p75
sa(dp76
g3
VGiven at a conference on Euro Adoption in the Accession Countries ... of the European Union. ... guiding the euro through the choppy waters of its first ...
p77
sg5
VThe Euro -- Towards Adopting the Common Currency in Central Europe ...
p78
sa(dp79
g3
VAlso available are Euro Member Countries services ... in the European Economic and Monetary Union ... from the above countries has also adopted the Euro.
p80
sg5
VEUR - Euro rates, news, and tools
p81
sa(dp82
g3
VThe European Monetary System was established in 1979 by the European Union in order to bring ... When was the euro first ... For many European countries ...
p83
sg5
VThe Euro - Fun Facts and Information - Fun Trivia Quizzes - World ...
p84
sa(dp85
g3
VSixteen member states have adopted the euro ... participating European countries can ... Criteria for membership in the European Union and adoption of the euro are ...
p86
sg5
VEconomic and Monetary Union and the Euro - 1. History \u2013 Adopting ...
p87
sa(dp88
g3
V... The ETUC demands the adoption of an ambitious European ... that the European Union has still not adopted a strategy in ... by the various countries ...
p89
sg5
V28 April 2013 - World Day for Safety and Health at Work: The ETUC ...
p90
sa(dp91
g3
VThis political motivation began when the idea of the European Union and a single currency was first ... European Union. Economically, the euro ... countries other ...
p92
sg5
VHowStuffWorks "How the Euro Works" - HowStuffWorks "Business & Money"
p93
sa(dp94
g3
V... 12 European Union countries chose to form an ... and started using the euro. The 12 countries locked their ... (the Holy See) have subsequently adopted the ...
p95
sg5
Vthe euro
p96
sa(dp97
g3
V... established the mechanisms and timetable for the adoption of the Euro as ... that many European countries have ... union of nations. The first one ...
p98
sg5
VEuropean Union Facts, information, pictures | Encyclopedia.com ...
p99
sa(dp100
g3
VThe first appeal for a European ... the adoption of a single European currency ... Treaty on European Union, which was formally adopted by the Heads ...
p101
sg5
VTowards a single currency: a brief history of EMU
p102
sa(dp103
g3
V... the euro. 495 million people live ... the first member countries ... They are elected in their countries every five years by the citizens of the European Union ...
p104
sg5
VEuropean Union - Simple English Wikipedia, the free encyclopedia
p105
sa(dp106
g3
VGeography and maps of the European Union.: ... an eventual union of all Europe, the first step of which would be ... 12 euro-area countries began ...
p107
sg5
VGeography, Flag and Map of the European Union
p108
sa(dp109
g3
VEleven countries have been chosen for the first round ... The locking rates have been adopted by the E.U ... Official Euro Siteof the European Union; ...
p110
sg5
VThe EURO - Europes's New Currency
p111
sa(dp112
g3
VThe euro zone is made up of 17 European countries ... With the adoption of the euro ... Why did credit get cheaper in Greece after it adopted the euro?
p113
sg5
VSteps of the euro crisis - The Washington Post
p114
sa(dp115
g3
VThe European Union ... Sixteen member states have adopted a common currency, the euro, ... Potential candidate countries: Austria: 1995: Belgium:
p116
sg5
VMap of European Union Member States - ChartsBin.com - Visualize ...
p117
sa(dp118
g3
V... (2008), Slovakia (2009), and Estonia (2011)\u2014have since adopted the euro. Of the European Union ... adoption of the euro in ... a number of countries ...
p119
sg5
VEuropean Monetary System | Infoplease.com
p120
sa(dp121
g3
VNot all members of the EU have adopted the euro, ... What Countries Are European Union ... The concept of an European trade area was first established in ...
p122
sg5
VWhat Is the European Union and What Does It Do
p123
sa(dp124
g3
VEuropean Union - (EU), name given ... Denmark, Estonia, Finland, France, Germany (originally West Germany), Great Britain ... as a prelude to their 1999 adoption of ...
p125
sg5
VEuropean Union - Facts from the Encyclopedia - Yahoo! Education
p126
sa(dp127
g3
VThe European Union is an ... Most nations belonging to the EU have adopted a common currency, called the Euro. ... Slovenia was the first of the countries from the ...
p128
sg5
VWhat is the European Union? (with picture)
p129
sa(dp130
g3
VBecause of the number of different languages in the European Union, ... also adopt the Euro. First they must ... Union (EMU). Many other countries ...
p131
sg5
VEuro - Simple English Wikipedia, the free encyclopedia
p132
sa(dp133
g3
VThe European Union. ... The Eurozone is the subset of European Union member states which have adopted the euro, ... this is eliminated at the adoption of a ...
p134
sg5
VEuropean Union, Multinational Corporations and the Eurozone
p135
sa(dp136
g3
VWhat date did each european country convert to the euro currency? - Which european countries ... european union have and have not adopted ... First after the Euro ...
p137
sg5
VWhat date did each european country convert to the euro currency ...
p138
sa(dp139
g3
VBeing a part of the European Union and the Euro zone, Spain adopted the common European ... like many of the countries of the European Union,One Euro values up to 1 ...
p140
sg5
VCurrency of Spain, Spain Currency - World Map
p141
sa(dp142
g3
VTogether, these countries create what is ... the euro. Originally, ... Eurodollars have little to do with the official currency of the European Union, the euro ...
p143
sg5
VEuro Definition | Investopedia - Investopedia \u2013 Educating the ...
p144
sa(dp145
g3
VEuropean Union Economy 2013, ... (1 January 2009), and Estonia (1 January 2011) have adopted the euro; ... (ESM) online, a year earlier than originally planned.
p146
sg5
VEuropean Union Economy 2013, CIA World Factbook
p147
sa(dp148
g3
VThe Euro Area is an economic and monetary union of 17 European Union countries that adopted the euro ... the statistical office of the European Union. In the first ...
p149
sg5
VEURO AREA GDP GROWTH RATE | LATEST DATA | FORECAST | NEWS
p150
sa(dp151
g3
VEuropean Union \u2014 Interinstitutional ... them in the Official Journal of the European Union was adopted by the ... the euro, which appears first in ...
p152
sg5
V\u2018EU-27, acceding state and candidate countries\u2019
p153
sa(dp154
g3
VEurozone Countries Eleven countries adopted the euro when it was ... The euro was launched in 1999. It was first introduced as the ... What Is the European Union?
p155
sg5
VEuro - US Economy and Business - US Economic Indicators - US ...
p156
sa(dp157
g3
V... including those that have not adopted the euro and perhaps many ... First, Banking Union will facilitate the ... Making the European Monetary Union, ...
p158
sg5
VECB: The nature and significance of Banking Union
p159
sa(dp160
g3
V... but accommodating the concerns of non-euro area European Union (EU) countries will augur well ... is adopted, ESM direct ... the first half of 2013 and adoption ...
p161
sg5
VA Banking Union February 2013 for the Euro Area
p162
sa(dp163
g3
VEuropean Union - (EU), name given ... Denmark, Estonia, Finland, France, Germany (originally West Germany), Great Britain ... as a prelude to their 1999 adoption of ...
p164
sg5
VEuropean Union - Facts from the Encyclopedia - Yahoo! Education
p165
sa(dp166
g3
VThe European Commission's 'Euro Coins Genesis ... The first draft of the euro adoption ... Malta expect the euro to be adopted in those countries in ...
p167
sg5
VCOMMISSION OF THE EUROPEAN COMMUNITIES - EUR-Lex \u2014 Access to ...
p168
sa(dp169
g3
VThe European Union is an ... Most nations belonging to the EU have adopted a common currency, called the Euro. ... Slovenia was the first of the countries from the ...
p170
sg5
VWhat is the European Union? (with picture)
p171
sa(dp172
g3
VThe first full customs union was originally known as the European ... Enlargement of the European Union article. Many countries, ... US 1.31 per euro on ...
p173
sg5
VEuropean Union - Definition | WordIQ.com
p174
sa(dp175
g3
VSpain was in the first wave of European Union countries to ... Before the adoption of ... several European nations adopted a single currency called the euro to ...
p176
sg5
VAbout Old Currency Used in Spain | eHow.com
p177
sa(dp178
g3
VThe European Union. ... The Eurozone is the subset of European Union member states which have adopted the euro, ... this is eliminated at the adoption of a ...
p179
sg5
VEuropean Union, Multinational Corporations and the Eurozone
p180
sa(dp181
g3
VWhen citizens in 12 of the 15 European Union (EU) countries gave up their francs, ... But on the first day of 2002, the euro went from Buchgeld to Bargeld (cash).
p182
sg5
VDeutsch und der Euro: German and the euro
p183
sa(dp184
g3
VWhat date did each european country convert to the euro currency? - Which european countries ... european union have and have not adopted ... First after the Euro ...
p185
sg5
VWhat date did each european country convert to the euro currency ...
p186
sa(dp187
g3
Vadoption of EURO V-equivalent standards in 2012. ... for membership in the European Union will adopt EURO standards if ... Numerous other countries have adopted or
p188
sg5
VAppendix 6 International Emission Standards for Heavy-Duty Vehicles
p189
sa(dp190
g3
VEuropean Union Economy 2013, ... (1 January 2009), and Estonia (1 January 2011) have adopted the euro; ... (ESM) online, a year earlier than originally planned.
p191
sg5
VEuropean Union Economy 2013, CIA World Factbook
p192
sa(dp193
g3
VTogether, these countries create what is ... the euro. Originally, ... Eurodollars have little to do with the official currency of the European Union, the euro ...
p194
sg5
VEuro Definition | Investopedia - Investopedia \u2013 Educating the ...
p195
sa(dp196
g3
V3 The first symbol is the letter code to be ... is the common currency of many countries of the European Union. ... The euro has not been adopted by all EU countries.
p197
sg5
VEuropean Union \u2013 Travel guides at Wikivoyage
p198
sa(dp199
g3
VORGANISATIONS AND THIRD COUNTRIES AND UNION DELE ... Chapter 2 Legal acts of the Union, adoption ... European Union and of the measures adopted pursuant to ...
p200
sg5
Vof the European Union
p201
sa(dp202
g3
VThe Euro Area is an economic and monetary union of 17 European Union countries that adopted the euro ... the statistical office of the European Union. In the first ...
p203
sg5
VEURO AREA GDP GROWTH RATE | LATEST DATA | FORECAST | NEWS
p204
sa(dp205
g3
VThe 12 countries in the euro zone ... Formally adopted by the Treaty on European Union ... in reference to the cradle of European civilisation and to the first ...
p206
sg5
VThe Very Latest Euro Coin Info... - Eurozone Member Countries
p207
sa(dp208
g3
VEuropean Union \u2014 Interinstitutional ... them in the Official Journal of the European Union was adopted by the ... the euro, which appears first in ...
p209
sg5
V\u2018EU-27, acceding state and candidate countries\u2019
p210
sa(dp211
g3
V... as the first of the ... for the adoption of the euro by these countries as the Governing ... of countries which have not yet adopted the euro only have to pay ...
p212
sg5
VFrequently Asked Questions: - ECB: European Central Bank home page
p213
sa(dp214
g3
V... twelve countries in the European Union use the euro, ... How many countries has adopted the Euro as a currency? ... Be the first person to mark this ...
p215
sg5
VYahoo! Answers - How many EU countries aren't using the EURO as ...
p216
sa(dp217
g3
V... as the European Parliament. At first, ... with a European Union. In 1984, the draft treaty was adopted by ... in many countries of the European Union and ...
p218
sg5
VA History of the European Union - Random History and Word Origins ...
p219
sa(dp220
g3
V... is the term used to specify the currency of European Union countries. ... have adopted the Euro. ... adoption of Euro is growing and it is ...
p221
sg5
VYahoo! Answers - What is the difference between EURO DOLLAR and ...
p222
sa(dp223
g3
VThe European Union, ... the euro, was officially adopted by 11 member ... The failure of many eurozone countries to stick to the self-imposed rules on government ...
p224
sg5
VBBC News - Profile: The European Union
p225
sa(dp226
g3
V... not all countries in the union were ... around the world on January first, 1999. It replaced the former European Currency ... Countries Have Adopted the Euro?
p227
sg5
VWhat year did the euro start - Ask.com
p228
sa(dp229
g3
VEuropean officials who favored austerity have adopted a ... to all countries and micro-states that use euro specter of ... that many European Union ...
p230
sg5
VEuropean Union - The New York Times
p231
sa(dp232
g3
V... but the voters refuse to approve its adoption. Slovakia adopted the euro ... total European Union ... first world war the currencies of many of the ...
p233
sg5
VThe Common Currency (Euro) - European Currency page
p234
sa(dp235
g3
VThe idea was first proposed by the French ... is the common currency of many countries of the European Union. ... The euro has not been adopted by all EU countries.
p236
sg5
VEuropean Economic Area travel guide - Wikitravel
p237
sa(dp238
g3
V... European Union, euro. Eiropa, ... My first language is English but I'm not English, ... When the three countries mentioned above adopted the same currency, ...
p239
sg5
VLatvia and the euro: Not yet in the zone... | The Economist
p240
sa(dp241
g3
VEuropean Union (EU), ... In 1998, as a prelude to their 1999 adoption of the euro, ... Organization of European countries, ...
p242
sg5
VEuropean Union definition of European Union in the Free Online ...
p243
sa(dp244
g3
VWhich countries of the European Union do not use the Euro? ... The 11 member states that have not yet adopted the ... When the Euro first came in, many people ...
p245
sg5
VWhich countries of the European Union do not use the Euro?
p246
sa(dp247
g3
VWhen the EU countries ... looking likely to replace the dollar as the first ... People made the same dire warnings when the rest of the Union changed to the euro ...
p248
sg5
VShould Britain Adopt the Euro as its Currency? // General
p249
sa(dp250
g3
VThe European Union study on strategic transport ... Only some European countries possess naval ... the European Commission adopted a set of recommendations to ...
p251
sg5
VEuropean Union - GlobalSecurity.org - Reliable Security Information
p252
sa(dp253
g3
V... 1999, the third and final stage of European Economic and Monetary Union ... rates and adopted the euro as ... to countries, the euro area as such ...
p254
sg5
VThe IMF & the European Economic and Monetary Union - Factsheet
p255
sa(dp256
g3
VCountries that use the Euro are members of the European Union. Not all countries in Europe ... When the Irish adopted the Euro on ... Be the first person ...
p257
sg5
VWhich european countries do not use the euro? - Yahoo! UK ...
p258
sa(dp259
g3
VThe Roadmap adopted by the European Council follows the report ... other EU countries. 1. Banking union ... following the first session of the European ...
p260
sg5
VEuropean Council - The European Council agrees on a Roadmap for ...
p261
sa(dp262
g3
V... ten new countries joined the European Union, ... the 27 current EU members had adopted the Euro as their official ... toward the adoption of the Euro.
p263
sg5
VEuropean Union Legal Materials - Research Guides
p264
sa(dp265
g3
VThe European Union ... in an attempt to closely unite European interests. Adoption of the new mandate by member ... adopted a standard European ...
p266
sg5
VEuropean Union - History, Organization, Membership, Common defense ...
p267
sa(dp268
g3
VThe generous social welfare system in Denmark and other members of the European Union ... adopted the euro. ... many different European countries ...
p269
sg5
VCan The European Welfare State Survive? : NPR
p270
sa(dp271
g3
V... the Latvian parliament gave final passage to a law applying for adoption of the euro. ... Many such small countries ... euro when it joined the European Union ...
p272
sg5
VLatvia\u2019s Parliament Votes for the Euro - Peter G. Peterson ...
p273
sa(dp274
g3
VWhat are the prospects for European monetary union? ... after the First World War. However, if the Euro is to assume a ... European countries have ...
p275
sg5
VThe Euro - Europe's Single Common Currency - University of Exeter
p276
sa(dp277
g3
VA common currency used by many European countries. The euro was established in 1999 when 11 European countries adopted a common ... the European Monetary Union ...
p278
sg5
VEuro (currency) financial definition of Euro (currency). Euro ...
p279
sa(dp280
g3
VUser-contributed definitions of European Union ... countries which created, as one of its first ... and the adoption of a common currency, the euro. ...
p281
sg5
VEuropean Union definitions | Quizlet - Simple free learning tools ...
p282
sa(dp283
g3
VThe countries' leaders made symbolic withdrawals of euros from ... which is outside the European Union and is recognised ... the first part of sovereign British ...
p284
sg5
VBBC NEWS | Europe | Cyprus and Malta adopt the euro
p285
sa(dp286
g3
VSeveral prominent economists think Greece should simply drop the euro and return to ... the European Union? First, ... Gave Their Kids Up for Adoption;
p287
sg5
VGreek Debt: Can Greece dropout of the European Union? - Slate Magazine
p288
sa(dp289
g3
VThe seriousness of these two losses will depend on the type of monetary union adopted. ... the euro. The euro was first ... Wim F.V. European Monetary Union ...
p290
sg5
VMonetary Unions | Economic History Services
p291
sa(dp292
g3
VThe Council tried to incite political cooperation among European countries. ... by the Western European Union ... and Luxemburg made up this first European ...
p293
sg5
VThe Origins 1945-1957 - The history of the European Union and ...
p294
sa(dp295
g3
V... before the adoption of the Euro, ... restaurants that adopted the euro early or ... The behavior of restaurant prices in the three European Union countries ...
p296
sg5
VMenu Costs at Work: Restaurant Prices and the Introduction of the Euro
p297
sa(dp298
g3
VIn 1999 the euro was first adopted by 11 nations as an alternative currency in ... of the member countries of the European Union who have adopted European ...
p299
sg5
VEuros | Define Euros at Dictionary.com
p300
sa(dp301
g3
VToday the European Parliament adopted a revised version of the ... between the Council of the European Union and the European ... in many countries face ...
p302
sg5
VILGA-Europe welcomes the adoption of a groundbreaking EU asylum ...
p303
sa.