(lp1
(dp2
S'description'
p3
V... young Macaulay Culkin needed his mom's permission to get a marriage license, ... that got Prince Edward to the ... a pal of Edward's. "They're busy ...
p4
sS'title'
p5
VEdward & Sophie - Weddings, The British Royals, Prince Edward ...
p6
sa(dp7
g3
V... Prince Edward and ... And where did they cozy up at the ... The honeymoon of the ill-fated marriage between Prince Charles and Princess Diana was ...
p8
sg5
VRoyal Honeymoons - British Prince Royal Honeymoons
p9
sa(dp10
g3
V... such a marriage would have conflicted with Edward's status as ... they were brought back to Britain by Louis ... Letters From a Prince: Edward to Mrs Freda ...
p11
sg5
VEdward VIII - Wikipedia, the free encyclopedia
p12
sa(dp13
g3
VIt's been two years since Prince William married Catherine ... of the Princess exercising to the British tabloid ... of their privacy than they did as ...
p14
sg5
VThe honeymoon's over. Now what? | Column | Opinion | The Kingston ...
p15
sa(dp16
g3
V... rather than as Prince/ss and Royal Highness (as they would otherwise ... As Edward's 1999 marriage ... Prince Edward became the first British prince in ...
p17
sg5
VPrince Edward, Earl of Wessex - Wikipedia, the free encyclopedia
p18
sa(dp19
g3
VEyes on honeymoon after British ... Britain's Prince William and his ... the pressure they will face as the future British king and queen ...
p20
sg5
VEyes on honeymoon after British royal wedding joy | Reuters
p21
sa(dp22
g3
VPrince Edward was best man to his 26-year-old ... in her 1981 marriage to Prince Charles. After they had signed the register the ... appearances on British and ...
p23
sg5
VBBC ON THIS DAY | 23 | 1986: Prince Andrew weds Sarah Ferguson
p24
sa(dp25
g3
VInformation about The Queens marriage to Prince Philip. ... They spent their honeymoon at ... Prince Edward, in 1964. Prince Andrew and Prince Edward were the first ...
p26
sg5
VMarriage and Family
p27
sa(dp28
g3
VBRITAIN-ROYALS-MARRIAGE. ... reportedly not even told his new wife where they are going on honeymoon, ... princess Beatrice and Eugenie and Prince Edward.
p29
sg5
VPrince William declares Kate Middleton his 'rock', keeps honeymoon ...
p30
sa(dp31
g3
VThis past Tuesday, April 24th, marked the 27th anniversary of the death of the most scandalous woman to ever marry into the British Royal family, American-born Wallis ...
p32
sg5
V27th Anniversary of Britain's most scandalous woman's death ...
p33
sa(dp34
g3
VThe news that Britain's Prince William and ... They were married at ... Did the Duchess of Cambridge conceive while on Asia Pacific 'second honeymoon ...
p35
sg5
VDid the Duchess of Cambridge conceive while on Asia Pacific ...
p36
sa(dp37
g3
VHow they met Prince Charles first met ... of their honeymoon. With a 'just married' sign attached to the landau by the groom's younger brothers Andrew and Edward, ...
p38
sg5
VIconic weddings: Prince Charles and Lady Diana Spencer ...
p39
sa(dp40
g3
V... King Edward was willing to give up the British throne - and he did. Education; ... Prince Edward's Struggle ... hat would my Navy friends say if they saw me in ...
p41
sg5
VKing Edward VIII Abdicated to Marry Mrs. Wallis Simpson
p42
sa(dp43
g3
VPrince William & Kate Middleton are said to make Birkhall ... Scotland -- their home after they get married. Home; About; ... Prince Edward & Sophie; Princess Anne ...
p44
sg5
VWilliam & Kate to Live in Birkhall after Marriage | British Royals
p45
sa(dp46
g3
VThey originally planned ... It was not the first time a royal couple has chosen to honeymoon at Balmoral. The Prince and the ... Edward and Sophie begin married ...
p47
sg5
VHoneymoon over for Edward and Sophie - BBC - Homepage
p48
sa(dp49
g3
V... Britain's newly married Prince ... have left the island nation of the Seychelles after a 10-day honeymoon, officials said Saturday. "They left ...
p50
sg5
VPrince William & Kate Middleton End Seychelles Honeymoon
p51
sa(dp52
g3
V"A friend and I have questioned for some time why the only child of Prince Edward is ... We read British ... when her parents married, they decided that ...
p53
sg5
VLiving in England: Prince Edward's Daughter
p54
sa(dp55
g3
VThe couple have reportedly drawn up a shortlist of British honeymoon destinations ... When she married Prince Edward, ... Can't they just paint her as she really is ...
p56
sg5
VRoyal wedding: Prince William and Kate Middleton planning Scilly ...
p57
sa(dp58
g3
VQueen Elizabeth is the first British monarch to ... First Marriage: Yes. Did You Know? Prince Philip is ... 1999, Edward married Sophie Rhys-Jones. They have a ...
p59
sg5
VQueen Elizabeth II and Prince Philip - Marriage -- Free Advice and ...
p60
sa(dp61
g3
V... that between Prince Albert Edward ... He is said to be one of Britain's ... * Queen Victoria set two crucial royal wedding dress trends when she married Prince ...
p62
sg5
VThe Royal Wedding: Trees, tiaras and trestle tables - This Britain ...
p63
sa(dp64
g3
VAndrew and Sarah's marriage was watched by British royals ... How they met Prince Andrew and his ... was supported by brother Prince Edward, and Prince ...
p65
sg5
VIconic weddings: Prince Andrew and Sarah Ferguson - hellomagazine.com
p66
sa(dp67
g3
V\u2014from the 1940 film They ... the newly titled Duke of York and fourth in line to the British throne, married ... Prince Edward, Andrew's ...
p68
sg5
VThe Royal Wedding - Weddings, The British Royals, Prince Andrew ...
p69
sa(dp70
g3
VGreat Britain. Prince Edward. ... Prince Edward, Earl of Wessex ... and they were married at St George\u2019s Chapel, Windsor Castle, ...
p71
sg5
VPrince Edward - British Royal Family History
p72
sa(dp73
g3
V... Sweden, Lichtenstein, Denmark, the Netherlands, Romania and Britain, which sent Prince Edward, ... prince in Europe to get married. ... They might have ...
p74
sg5
VPrince Guillaume marries Countess Stephanie de Lannoy in ...
p75
sa(dp76
g3
VTheir Suggested Morganatic marriage proposal is refused by Parliament ... In planning their honeymoon, they decide to go where ... Edward, Prince of ...
p77
sg5
VWallis and Edward Story.htm
p78
sa(dp79
g3
VPRINCE EDWARD OF WINDSOR AND ... Prince Edward is the youngest son of Britain's Queen Elizabeth. He married Sophie Rhys-Jones ... They also have another very ...
p80
sg5
VPrince Edward and Sophie Rhys-Jones marriage
p81
sa(dp82
g3
V(Golf fans probably know St Andrew's better as one of the locations used for the British ... did not get married in ... Prince William & Kate's Honeymoon ...
p83
sg5
VPrince William's Wedding - Squidoo : Welcome to Squidoo
p84
sa(dp85
g3
VBritain's royalty and nobility ... Prince Edward did become King Edward VIII ... then-husband was named Earl of Snowdon at their marriage in 1960. They have been ...
p86
sg5
VWho are the Duke of York, Duke of Kent, etc., and how did they get ...
p87
sa(dp88
g3
V... Prince Albert, and they had nine children. A. ... a British photographer. Their marriage dissolved in ... Whom did he marry? Edward married Sophie Rhys ...
p89
sg5
VMake a Royal Match: Match the royal brides and grooms to make the ...
p90
sa(dp91
g3
VBRITAIN\u2019S Prince William will marry longtime love Kate Middleton in ... better when they are married ... togeather and I\u2019m still waiting for a honeymoon.
p92
sg5
VPRINCE WILLIAM AND KATE MIDDLETON\u2019S WEDDING TO COST THE BRITISH ...
p93
sa(dp94
g3
V... will find Caribbean hideaways both familiar and exotic whether they choose to honeymoon in the ... was married here ... Britain's Prince William ...
p95
sg5
VCaribbean Royal Honeymoons - Where to Enjoy Post Wedding Bliss ...
p96
sa(dp97
g3
V... Britain's Prince William and ... What type of honeymoon do ... so they're both considerably older than Diana was when she got married, and they don ...
p98
sg5
VPrince William and Kate Middleton engagement
p99
sa(dp100
g3
VMichael Cole reports from Westminster Abbey as Prince Andrew marries Sarah Ferguson. ... with Prince Edward as the supporter ... They divorced in 1996, ...
p101
sg5
VBBC - History - Prince Andrew's wedding (pictures, video, facts ...
p102
sa(dp103
g3
VYet, for some reason, Prince Edward preferred married women ... After their marriage, they settled ... the glamor and power of being close to the heir of Britain's ...
p104
sg5
VKing Edward VIII Abdicated for Love - Page 2 - 20th Century History
p105
sa(dp106
g3
V... one title by the monarch when they are married. ... of York when he married while Prince Edward became ... British tourists' complaint ...
p107
sg5
VRoyal wedding: Prince William and Kate Middleton become Duke and ...
p108
sa(dp109
g3
VThey'll arrive June 30 and tour Alberta, Prince Edward Island, ... Canada is a member of the British Commonwealth of former colonies, ...
p110
sg5
VPrince William and Kate to 'honeymoon' in Canada ...
p111
sa(dp112
g3
VPrince Harry. The Royal Foundation; Life in Pictures; Charities; 1; 2; 3; Pause. ... Visit the official website of the British Monarchy. Storify; Google+; SoundCloud ...
p113
sg5
VRoyal Wedding
p114
sa(dp115
g3
V... Prince Andrew, Prince Edward ... was announced on the 9 July 1947 and they were married in Westminster ... honeymoon the Prince resumed his career in the ...
p116
sg5
VPrince Philip - British Royal Family History
p117
sa(dp118
g3
V... Countess of Wessex, is the wife of Prince Edward, ... and Sophie Rhys-Jones became the Countess of Wessex when they were married. ... The British Monarchy.
p119
sg5
VBritish Royal Family \u2013 Sophie, The Countess of Wessex | Suite101
p120
sa(dp121
g3
V... only Prince Edward is still in his first marriage. ... and they had a church service after. ... British law recognizes only those offspring from Anglican ...
p122
sg5
VPostPartisan - Prince William, Kate Middleton and 'obsolete' marriage
p123
sa(dp124
g3
VThe couple delayed their honeymoon. ... Britain's Prince William ... Michael and Carole Middleton smile and wave at the crowds following the marriage of Prince ...
p125
sg5
VKate Middleton and Prince William celebrate two year anniversary ...
p126
sa(dp127
g3
VBuckingham Palace cleared its calendar for the long-awaited marriage of Prince William and long-time ... and the future of Britain's ... The Royal honeymoon.
p128
sg5
VPrince William, Kate Middleton, Baby News, Biography, Quotes
p129
sa(dp130
g3
VSo it's not as if they could just get married under a tent in the Middleton ... and that of Prince Edward and Sophie Rhys-Jones ... The Honeymoon: Top bet ...
p131
sg5
VYvonne Yorke: William and Kate's Royal Wedding -- What to Expect
p132
sa(dp133
g3
VWhich Prince Edward is Prince Edward ... Mountbatten when he adopted British citizenship prior to his marriage. ... Philip receive when they married in 1947 ...
p134
sg5
VHow well do you know the Royal Family? A regal quiz | Arts ...
p135
sa(dp136
g3
VPrince Edward Island; ... Brooke Burke & David Charvet waited a month after they got married to do it all over ... Destination Weddings Honeymoon packages ...
p137
sg5
VRenew your Vows - Destination Weddings Honeymoon packages and planning
p138
sa(dp139
g3
VThe marriage of Edward VIII and Wallis Warfield ... the Prince and Wallis took a ... They divorced on April 27, 1937. The British government released documents ...
p140
sg5
VThe Duke of Windsor and Wallis Warfield Simpson -- The Marriage of ...
p141
sa(dp142
g3
VWhy did they change their name? ... Prince Edward, ... Younger sons of the monarch are normally given dukedoms at the time of their marriage. However, given the ...
p143
sg5
VMembers of Royal Family
p144
sa(dp145
g3
VThe prince and Kate Middleton, his 29-year-old girlfriend of nearly a decade, married in Westminster Abbey on Friday in the biggest royal wedding for 30 ...
p146
sg5
VEyes on honeymoon after royal wedding joy | Reuters
p147
sa(dp148
g3
VThe latest on the Royal Couple Prince William and Catherine \u201cKate ... Britain's most eligible bachelor arrives in the US (by ... Prince Edward & Sophie; Princess ...
p149
sg5
VPrince William & Catherine | British Royals
p150
sa(dp151
g3
V... the rarely photographed daughter of Prince Edward ... honeymoon. It's thought likely that they ... Britain for a generation, Prince ...
p152
sg5
VRoyal wedding live - Telegraph - Telegraph.co.uk - Telegraph ...
p153
sa(dp154
g3
V... the rarely photographed daughter of Prince Edward ... honeymoon. It's thought likely that they ... Britain for a generation, Prince ...
p155
sg5
VRoyal wedding live - Telegraph - Telegraph.co.uk - Telegraph ...
p156
sa(dp157
g3
VPrince Albert Frederick Arthur ... Both George and his elder brother Edward did not spend much ... the couple married on 26th April 1923. They spent the first part ...
p158
sg5
VGeorge VI - British history and tourist information
p159
sa(dp160
g3
VPrince Edward Island; Quebec; ... with the destinations but they also have proven relationships ... usually for those who wanted to run away to get married.
p161
sg5
VDestination Weddings Honeymoon packages and planning |
p162
sa(dp163
g3
VThey enjoyed their honeymoon at ... This really was an incredibly accurate prophecy because Prince Philip did not propose marriage to ... So ended Britain's ...
p164
sg5
VGerman ancestry, Sexual perversion in the royal family, Prince ...
p165
sa(dp166
g3
VKing Edward VIII was the eldest child of Britain's King ... They are buried at the ... which began when he was Prince of Wales and she was still married to ...
p167
sg5
VRoyalty.nu - Edward VIII and Wallis Simpson, the Duke and Duchess ...
p168
sa(dp169
g3
V... Edward, the Prince of Wales, and her father ... romantic relationship was Prince Philip of Greece. They had met during a royal ... the honeymoon to ...
p170
sg5
VQueen Elizabeth II: Duty Comes First
p171
sa(dp172
g3
VMarriage of the rich and famous: ... Prince Andrew, Prince Edward. Famous faces included David Beckham, Victoria Beckham, Elton John, ... Where did they meet?
p173
sg5
VCelebrity Weddings. The wedding of Kate Middleton - Prince William
p174
sa(dp175
g3
V... where they took up residence at Saint-Cloud, ... the marriage of Prince Philip's parents began to crumble. ... HRH The Prince Edward, Earl of Wessex: 10 March 1964:
p176
sg5
VPrince Philip, Duke of Edinburgh - Hellenica, Information about ...
p177
sa(dp178
g3
VThey spent a private moment together with their families as they signed the marriage ... Prince William and ... This royal wedding is Britain's Marie ...
p179
sg5
VRoyal wedding: A stylish marriage for William and Kate | UK news ...
p180
sa(dp181
g3
VPRINCESS DI PRINCE CHARLES HONEYMOON TIME POST CARD in ... "Off they go! Honeymoon Time! ... Three of the past six British monarchs, Victoria, Edward VII, ...
p182
sg5
VPrincess Di Prince Charles Honeymoon Time Post Card | eBay
p183
sa(dp184
g3
V... and splendid in the life of Great Britain, the marriage was solemnized. ... and they were all young ladies of ... The honeymoon was spent at Windsor Castle ...
p185
sg5
VQueen Victoria - The Marriage of Queen Victoria and Prince Albert ...
p186
sa(dp187
g3
V... that married into the British ... upon marriage unless they had to step down to marry,like Prince Michael of Kent did,because he married a ...
p188
sg5
VWhat happens if a Prince or Princess marries a commoner? - Yahoo ...
p189
sa(dp190
g3
V... the current Prince of Wales, he thought that they way to keep the monarchy ... The couple married on June 3rd ... Prince Edward in British Columbia for the ...
p191
sg5
VBritish Royal Wedding Look-Back: Edward VIII and Wallis | The ...
p192
sa(dp193
g3
VRead about the wedding of HRH Prince Andrew ... Prince Edward & Sophie Rhys-Jones Windsor Castle's ... bride and groom escaped on a honeymoon to ...
p194
sg5
VBritish Royal Wedding Index - HRH Prince Andrew & Sarah Ferguson ...
p195
sa(dp196
g3
VHe was named Duke of Edinburgh shortly before they got married but was not made a Prince ... Prince Edward. When they ... Britain. Has 8 grandchildren:Prince ...
p197
sg5
VQueen Elizabeth II - Biography
p198
sa(dp199
g3
V... the husband of Queen Victoria of Britain, was a German prince who came to wield great ... and by all accounts their marriage was very happy. They loved ...
p200
sg5
VBiography of Prince Albert | Husband of Queen Victoria
p201
sa(dp202
g3
VKing Edward VIII abdicated the throne not because ... The Prince-Duke of Teck ... Quite the Opposite- if a British Royal married a Catholic- they would have to ...
p203
sg5
VCan Americans marry into the British royal family - The Q&A wiki
p204
sa(dp205
g3
VSince the wedding of Prince William and Kate Middleton is the first, first-time wedding of a British royal who ... panther as Edward VII did, her marriage ...
p206
sg5
VMarriage of William, Kate May Be Set Down as Morganatic, But ...
p207
sa(dp208
g3
VThey never had children. www ... reached close proximity of British throne via his nephew Prince Phillip and ... a son of Edward VIII and married Ausssie woman who ...
p209
sg5
VDid Edward VIII and Mrs Simpson have children - The Q&A wiki
p210
sa(dp211
g3
VThe British Royal Family has it all: ... while King Edward VIII was Prince of ... Edward married Wallis the following year. They were known from then on as the Duke ...
p212
sg5
VBarely Regal: A Timeline of British Royal Scandals | Infoplease.com
p213
sa(dp214
g3
VIt's a sign that they ... Buckingham Palace and London get ready for the April 29 marriage of Prince ... Princess Diana still looms large in Britain's ...
p215
sg5
VComplete Coverage - The Royal Wedding of Prince William and Kate ...
p216
sa(dp217
g3
V... and Prince Andrew. They are reportedly in Switzerland second daughter, ... Britain's Prince Andrew abseiled down the Shard ... Prince Edward and Prince ...
p218
sg5
VPrince Andrew News, Blogs and Latest Updates - ABC News
p219
sa(dp220
g3
VWho was the first British monarch, or Prince of ... Henry also gave her a peerage title in her own right before they married. ... Edward Prince of ...
p221
sg5
VWho was the first British monarch, or Prince of Wales, to marry a ...
p222
sa(dp223
g3
VLONDON \u2014 The wedding of the century wrapped in about an hour Friday as Britain's Prince William married ... honeymoon locales and ... They were also ...
p224
sg5
VPrince William, Middleton wed in royal fashion - USATODAY.com
p225
sa(dp226
g3
VAndrews has a reputation as "Britain's ... In spite of the suggestion so far that they may choose to honeymoon ... "To celebrate the marriage of Prince ...
p227
sg5
VPrince William and Kate Wedding Journal Souveneir Download
p228
sa(dp229
g3
V... for their honeymoon, where later, they were joined by ... the Prince was displeased by the way some British officers ... She married Edward ...
p230
sg5
VEdwardVII - MARTINSTOWN VILLAGE WEBSITE ~ Dorset England
p231
sa(dp232
g3
VThe duchess was admitted to King Edward VII Hospital today in ... according to Britain's Press ... Prince William and Kate were married on ...
p233
sg5
VKate Middleton Is Pregnant - ABC News - ABCNews.com - Breaking ...
p234
sa(dp235
g3
V71 Responses to \u201cPrince William & Catherine\u2019s honeymoon delayed, ... She is Prince Edward\u2019s ... I hope they married because they were ready and really loved ...
p236
sg5
V71 Responses to \u201cPrince William & Catherine\u2019s honeymoon ...
p237
sa(dp238
g3
V... but the prince did not ... She was married""her second marriage""to an ... including Britain's secrets of state. Edward not only left important documents ...
p239
sg5
VThe Abdication Of King Edward VIII - Essortment Articles: Free ...
p240
sa(dp241
g3
VLady Diana Spencer married The Prince of Wales at St Paul's ... and Prince Edward were The ... They finished their honeymoon with a ...
p242
sg5
VLADY DIANA SPENCER - SOLAR NAVIGATOR ENCYCLOPEDIA HOMEPAGE
p243
sa(dp244
g3
VEdward, Prince of Wales, ... Edward married Joan of Kent and was created prince of Aquitaine and ... They rose in revolt against him and in 1370 Edward besieged the ...
p245
sg5
VBBC - History - Edward, the Black Prince
p246
sa(dp247
g3
VHis mother is the current reigning Monarch of the United Kingdom of Great Britain ... wrote to Prince Edward indicating that they ... The marriage quieted, but did ...
p248
sg5
VPrince Edward, Earl of Wessex Biography - Entertainment and World ...
p249
sa(dp250
g3
VKin Edvard and Queen Paige set out on their honeymoon. They soon find out that the Prime minister has planned to destroy the forest for an oil pipe to be put in. Then ...
p251
sg5
VThe Prince & Me 3: A Royal Honeymoon (Video 2008) - IMDb
p252
sa(dp253
g3
V... and Victoria, in love with him, proposed marriage. They were ... 1840, and the Prince of Wales, Edward, in ... of great britain prince consort king george ...
p254
sg5
VQueen Victoria - Women's History - Comprehensive Research and ...
p255
sa(dp256
g3
VWhat kind of work did Diana do before she married Prince ... Where are they now? 1. When and ... from a Prince of the United Kingdom of Great Britain and Northern ...
p257
sg5
VDiana, Princess of Wales: Frequently Asked Questions
p258
sa(dp259
g3
VDonald Driver and his "Dancing" partner, Peta Murgatroyd, chat with Access about their insane freestyle dance, but why did they decide to go country?
p260
sg5
VRemembering Bonnie Franklin (1944 - 2013)
p261
sa(dp262
g3
VIf you thought British royal family gossip would dissipate after the wedding of Kate Middleton and Prince William ... couple's secret honeymoon, ... JUST MARRIED: Let ...
p263
sg5
VWhen Will Kate Middleton Get Pregnant? - The Hollywood Gossip
p264
sa(dp265
g3
V
sg5
VAccess Hollywood
p266
sa(dp267
g3
VElizabeth never married. British Monarchs ... Edward married the beautiful Alexandra of ... She married her cousin Prince Philip, Duke of Edinburgh, and they had ...
p268
sg5
VKings and Queens of England & Britain - Historic UK - heritage ...
p269
sa(dp270
g3
VDetailed biography of Edward, Prince of ... their marriage from Innocent VI, though they appear to have ... they did not ravage Aquitaine, and the prince was ...
p271
sg5
VEdward, the Black Prince of Wales (1330-1376) [English History ...
p272
sa(dp273
g3
VWhat hobbies did Queen Victoria have? How did Britain change ... Victoria was the only child of Prince Edward ... a German Prince. They married on the 10th ...
p274
sg5
VQueen Victoria for kids - Woodlands Junior School, Tonbridge, Kent UK
p275
sa(dp276
g3
VThe photos have potential implications for the Prince\u2019s image representing Britain ... honeymoon was respected by the British Press in ... Britain, they were ...
p277
sg5
VPrince Harry Vegas Pictures: The Sun publishes photos of naked ...
p278
sa(dp279
g3
V... Prince Edward also proposed with a ring from the ... Britain\u2019s future king presented the Duchess of Cornwall with a unique art deco style ... But they don\u2019t ...
p280
sg5
VThe engagement rings adorning the hands of the British royals | My ...
p281
sa(dp282
g3
VThey consummate their marriage, but Edward's passionate lovemaking ... They spend their honeymoon hiking in ... Edward is portrayed by British actor Robert ...
p283
sg5
VEdward Cullen - Twilight Saga Wiki
p284
sa(dp285
g3
VPrince William and his new wife Kate laughed and smiled as they mingled ... she married Prince ... honeymoon 2011-06-01 22:10. Britain's Prince William ...
p286
sg5
VRoyal Wedding Central - Channel24.co.za - Entertainment now
p287
sa(dp288
g3
V... as a bride for HRH Albert Edward, The Prince of Wales. They were introduced by ... and was created a British duke. From the time of her marriage until ...
p289
sg5
VRoyal Wedding Tiaras | The Royal Universe
p290
sa(dp291
g3
V... (like that of his predecessor Prince Edward, ... as they walked behind the coffin ... The Prince of Wales married Mrs Camilla Parker Bowles on 9 April ...
p292
sg5
VOfficial website of the British Monarchy: The Prince of Wales
p293
sa(dp294
g3
VPrince Edward filled the role ... Wallis met London resident Ernest Simpson and they were married in 1928. ... 1894\u20131972, king of Great Britain and Ireland ...
p295
sg5
VEdward VIII Facts, information, pictures | Encyclopedia.com ...
p296
sa(dp297
g3
V... that the heir to the British throne, Prince ... "They had to hold a press ... the honeymoon phase or early part of a marriage or ...
p298
sg5
VPrince William's engagement spurs tips on mixed money marriages ...
p299
sa(dp300
g3
VOne positive signal in July 1997 was Britain's ... and Camilla proved that they were having an affair and ... prince married Lady Diana ...
p301
sg5
VPrince of Wales Charles Facts, information, pictures ...
p302
sa.