(lp1
(dp2
S'description'
p3
VThe Parliament of Lebanon is the national parliament of Lebanon. There are 128 members elected to a four-year terms in multi-member constituencies, apportioned among ...
p4
sS'title'
p5
VParliament of Lebanon - Wikipedia, the free encyclopedia
p6
sa(dp7
g3
VLebanon stability key for region: Kuwait deputy speaker: April 13, 2013 ... designate and had congratulated him on \u201cthe great trust Parliament had placed ...
p8
sg5
VLebanon stability key for region: Kuwait deputy speaker | News ...
p9
sa(dp10
g3
VThe Commons Deputy Speakers chair debates in the absence of the Speaker ... Email: hcinfo@parliament.uk; Text phone: Dial 18001 followed by 020 7219 4272;
p11
sg5
VCommons Deputy Speakers - UK Parliament
p12
sa(dp13
g3
VMany bodies also have a speaker pro tempore or deputy speaker, ... Speaker: Solvita \u0100bolti\u0146a: Lebanon: Parliament of Lebanon: Speaker: Nabih Berri: Liechtenstein:
p14
sg5
VSpeaker (politics) - Wikipedia, the free encyclopedia
p15
sa(dp16
g3
VThe Deputy Speaker of the House of ... He was elected as Deputy Speaker on 9 October 2012 and has previously served as Second Deputy Speaker in the 42nd Parliament.
p17
sg5
VThe Speaker \u2013 Parliament of Australia
p18
sa(dp19
g3
VView the photo Lebanon's Parliament speaker Nabih Berri meets with Russia's Deputy Foreign Minister Mikhail Bogdanov in Beirut on Yahoo! News Philippines. View the ...
p20
sg5
VLebanon's Parliament speaker Nabih Berri meets with Russia's ...
p21
sa(dp22
g3
VDEPUTY SPEAKER OF PARLIAMENT OF UGANDA . The duties of the Deputy Speaker are as outlined above for the Speaker : MPs & Staff: Click here to log into your eMail Box.
p23
sg5
VSpeaker of Parliament
p24
sa(dp25
g3
VA deputy speaker of Britain\u2019s lower house of parliament said Sunday that allegations of raping one man and sexually assaulting another were \u201ccompletely ...
p26
sg5
VBritain\u2019s Deputy Speaker of Parliament Nigel Evans denies rape ...
p27
sa(dp28
g3
VLebanon Speaker postpones parliament session. ... Deputy Speaker MP Farid Makari , a key member of March 14 alliance said on Monday that he would not call for a ...
p29
sg5
VLebanon Speaker postpones parliament session | Ya Libnan | World ...
p30
sa(dp31
g3
VBefore entering Parliament, he served on Chorley Borough Council, ... On 8th June 2010, Nigel was elected as one of three Deputy Speakers of the House of Commons.
p32
sg5
VBiographies of Deputy Speakers - UK Parliament
p33
sa(dp34
g3
VThe deputy speaker of the British Parliament was arrested Saturday on suspicion of rape, a source told CNN.
p35
sg5
VSources: Deputy speaker of British Parliament questioned in rape ...
p36
sa(dp37
g3
VLONDON: Deputy speaker of Britain's lower house of parliament and Conservative gay lawmaker Nigel Evans has been arrested by police for allegedly raping a ...
p38
sg5
VBritish parliament's deputy speaker arrested on rape charges ...
p39
sa(dp40
g3
VSpeaker Nabih Berri calls for a Parliament session the ... (The Daily Star/Lebanese Parliament ... Deputy Speaker Farid Makari said following the meeting that ...
p41
sg5
VParliament's secretariat fails to agree on agenda | News ...
p42
sa(dp43
g3
VHaving served as the Member of Parliament for Regina\u2014Qu'Appelle since 2004, ... I became the Deputy Speaker for the 40th Parliament.
p44
sg5
VThe Speaker of the House of Commons - Parliament of Canada Web ...
p45
sa(dp46
g3
VLebanon; Saudi Arabia; Syria; business. Global Economy; Debt Crisis; Emerging Markets; Technology; Science; ... UK parliament's deputy speaker 'arrested over gay rape ...
p47
sg5
VUK parliament's deputy speaker 'arrested over gay rape claim'
p48
sa(dp49
g3
VHome; About Parliament. Organisation Structure. Speaker of Parliament; The Cabinet; Leader of the House; Members of Parliament; What We Do. Functions; Select Committees
p50
sg5
VSpeaker of Parliament | Parliament Of Singapore
p51
sa(dp52
g3
VThe Deputy Speaker and the Second Deputy Speaker often take the ... At the beginning of each Parliament the Speaker is authorised by the Governor-General to ...
p53
sg5
VInfosheet 3 - The Speaker \u2013 Parliament of Australia
p54
sa(dp55
g3
VDeputy speaker of U.K. Parliament arrested on gay rape charge Sounds like it\u2019s a case of he said, he said. Two men in Britain have accused the ...
p56
sg5
VDeputy speaker of U.K. Parliament arrested on gay rape charge ...
p57
sa(dp58
g3
VUK Parliament deputy speaker questioned House of Commons speaker arrested ... He was elected deputy speaker of the House of Commons in 2010.
p59
sg5
VUK Parliament deputy speaker questioned | National News - WGAL Home
p60
sa(dp61
g3
VThe deputy speaker of Britain's House of Commons, Nigel Evans, ... UK Parliament deputy speaker questioned House of Commons speaker arrested. From Bharati Niak CNN.
p62
sg5
VUK Parliament deputy speaker questioned | News - Home
p63
sa(dp64
g3
VThe Deputy Speaker of Lok Sabha is elected by the lower house of the Parliament. He is elected from the Lok Sabha members for a time span of five years. He acts as ...
p65
sg5
VDeputy Speaker of Lok Sabha - India Map, Map of India
p66
sa(dp67
g3
VSpeaker's Biography. Hon'ble Speaker Parliament of Bangladesh Dr. Shirin Sharmin Chaudhury, MP: Deputy Speaker's Biography. Hon'ble Deputy Speaker Parliament of ...
p68
sg5
VLegislative Information Centre (LIC) - Bangladesh Parliament ...
p69
sa(dp70
g3
VLONDON: Deputy speaker of Britain's lower house of parliament and Conservative gay lawmaker Nigel Evans has been arrested by police for allegedly raping a ...
p71
sg5
VBritish parliament's deputy speaker arrested on rape charges - The ...
p72
sa(dp73
g3
VU.K. Parliament\u2019s Deputy Speaker Denies \u2018False\u2019 Rape Allegation. By Robert Hutton - 2013-05-05T10:01:30Z. Nigel Evans, the Deputy ...
p74
sg5
VU.K. Parliament\u2019s Deputy Speaker Denies \u2018False\u2019 Rape ...
p75
sa(dp76
g3
V... Welcome Address by the Deputy Speaker of Parliament\u2019s National Assembly, ... Programme Director, to borrow a quote from the Lebanese-American poet and author, ...
p77
sg5
VParliament Content
p78
sa(dp79
g3
VLONDON: A deputy speaker of Britain's lower house of parliament said on Sunday that allegations of raping one man and sexually assaulting another were "completely ...
p80
sg5
VBritish parliament deputy speaker denies gay rape charge - Channel ...
p81
sa(dp82
g3
VThe impartiality of the Speaker is one of the prime values the integrity of South African Parliament is ... THe Deputy Speaker has the responsibility of ...
p83
sg5
VParliament Content
p84
sa(dp85
g3
VUK Parliament deputy speaker questioned House of Commons speaker arrested UPDATED 7:13 PM EDT May 04, 2013. Tweet; Share; NEXT STORY. Prosecutor: Kidnap suspect depraved.
p86
sg5
VUK Parliament deputy speaker questioned | National News - WLWT Home
p87
sa(dp88
g3
VAnna Grodzka, Poland's Only Transgender MP, May Become Deputy Parliament Speaker
p89
sg5
VAnna Grodzka, Poland's Only Transgender MP, May Become Deputy ...
p90
sa(dp91
g3
V(UPDATE 6:09PM) A deputy speaker of Britain's lower house of parliament was arrested on Saturday on suspicion of raping one man and sexually assaulting another ...
p92
sg5
VUK parliament's deputy speaker 'arrested over gay rape' claim ...
p93
sa(dp94
g3
VParliament is not sitting. ... The Office of the Deputy Speaker in the National Assembly of Zambia is an honourable office established under Article 70(1) ...
p95
sg5
VNational Assembly of Zambia - Deputy Speaker
p96
sa(dp97
g3
VLondon: Deputy speaker of Britain's lower house of parliament and Conservative gay lawmaker Nigel Evans has been arrested by police for allegedly raping and sexually ...
p98
sg5
VBritish Parliament's Deputy Speaker arrested on rape charges
p99
sa(dp100
g3
VThe deputy speaker of Britain's House of Commons, ... UK Parliament deputy speaker questioned House of Commons speaker arrested. Author: From Bharati Niak CNN.
p101
sg5
VUK Parliament deputy speaker questioned | News - Home
p102
sa(dp103
g3
VLondon: Deputy speaker of Britain's lower house of parliament and Conservative gay lawmaker Nigel Evans has been arrested by police for allegedly raping a man and ...
p104
sg5
VUK Parliament`s deputy speaker arrested on rape charges
p105
sa(dp106
g3
VA deputy speaker of Britain's lower house of parliament was arrested on Saturday on suspicion of raping one man and sexually assaulting another, according to media ...
p107
sg5
VUK parliament's deputy speaker 'arrested over gay rape claim ...
p108
sa(dp109
g3
VDeputy Speaker (Lok Sabha) Parliament House Address: Room No 1A Parliament House New Delhi -1: Parliament House No. 23034675,23034694,23012832 23017455 (Fax)
p110
sg5
VSarkaritel.com, : Parliament of India, Lok Sabha
p111
sa(dp112
g3
VThe deputy speaker of Britain's House of Commons, Nigel Evans, ... UK Parliament deputy speaker questioned House of Commons speaker arrested. From Bharati Niak CNN.
p113
sg5
VUK Parliament deputy speaker questioned | National News - Home
p114
sa(dp115
g3
V#757Live Deputy House of Commons Speaker Nigel Evans, 55, was arrested on Saturday. He was questioned about sex offenses that allegedly took place between July 2009 ...
p116
sg5
VUK Parliament\u2019s deputy speaker denies rape charges @757Live ...
p117
sa(dp118
g3
Vhttp://www.ntvuganda.co.ug http://www.twitter.com/ntvuganda Outgoing Deputy Speaker of Parliament Rebecca Kadaga could become the first woman speaker of ...
p119
sg5
VShowdown for Parliament Speaker and Deputy - YouTube
p120
sa(dp121
g3
VUK Parliament deputy speaker questioned House of Commons speaker arrested ... He was elected deputy speaker of the House of Commons in 2010.
p122
sg5
VUK Parliament deputy speaker questioned | National News - WXII Home
p123
sa(dp124
g3
VThe deputy speaker of Britain's House of Commons, ... UK Parliament deputy speaker questioned House of Commons speaker arrested. Author: From Bharati Niak CNN.
p125
sg5
VUK Parliament deputy speaker questioned | News - KXLY.com
p126
sa(dp127
g3
VUK Parliament deputy speaker questioned House of Commons speaker arrested UPDATED 6:13 PM CDT May 04, 2013. Tweet; Share; NEXT STORY. Man found dead in field identified.
p128
sg5
VUK Parliament deputy speaker questioned | National News - KCCI Home
p129
sa(dp130
g3
VUK Parliament deputy speaker questioned House of Commons speaker arrested ... He was elected deputy speaker of the House of Commons in 2010.
p131
sg5
VUK Parliament deputy speaker questioned | National News - WMTW Home
p132
sa(dp133
g3
VThe Parliament of Canada Act provides that all matters of administrative and financial policy affecting the House ... The Speaker is assisted by a Deputy Speaker, ...
p134
sg5
VRole of the Speaker - Parliament of Canada Web Site - Site Web du ...
p135
sa(dp136
g3
VThe deputy parliament speaker sat down with NOW Lebanon to discuss the upcoming elections, the national dialogue, security and the possibility for real reconciliation ...
p137
sg5
VTalking To: Farid Makari
p138
sa(dp139
g3
VUK Parliament deputy speaker questioned House of Commons speaker arrested UPDATED 6:13 PM CDT May 04, 2013. Tweet; Share; NEXT STORY. Suspect in officer shooting ...
p140
sg5
VUK Parliament deputy speaker questioned | National News - KETV Home
p141
sa(dp142
g3
VUK Parliament deputy speaker questioned House of Commons speaker arrested ... He was elected deputy speaker of the House of Commons in 2010.
p143
sg5
VUK Parliament deputy speaker questioned | National News - WMUR Home
p144
sa(dp145
g3
VUK Parliament deputy speaker questioned House of Commons speaker arrested UPDATED 7:13 PM EDT May 04, 2013. Tweet; Share; NEXT STORY.
p146
sg5
VUK Parliament deputy speaker questioned | National News - WPBF Home
p147
sa(dp148
g3
VUK Parliament deputy speaker questioned House of Commons speaker arrested UPDATED 6:13 PM CDT May 04, 2013. Tweet; Share; NEXT STORY. Man bites dog to stop attack on ...
p149
sg5
VUK Parliament deputy speaker questioned | National News - KCCI Home
p150
sa(dp151
g3
VUK Parliament deputy speaker questioned House of Commons speaker arrested UPDATED 6:13 PM CDT May 04, 2013. Tweet; Share; NEXT STORY.
p152
sg5
VUK Parliament deputy speaker questioned | National News - WDSU Home
p153
sa(dp154
g3
VUK Parliament deputy speaker questioned House of Commons speaker arrested UPDATED 7:13 PM EDT May 04, 2013. Tweet; Share; NEXT STORY.
p155
sg5
VUK Parliament deputy speaker questioned | National News - WPBF Home
p156
sa(dp157
g3
VThe deputy speaker of Britain's House of Commons, ... UK Parliament deputy speaker questioned House of Commons speaker arrested. Author: From Bharati Niak CNN.
p158
sg5
VUK Parliament deputy speaker questioned | News - Home
p159
sa(dp160
g3
VUK Parliament deputy speaker questioned House of Commons speaker arrested UPDATED 6:13 PM CDT May 04, 2013. Tweet; Share; NEXT STORY. Man bites dog to stop attack on ...
p161
sg5
VUK Parliament deputy speaker questioned | National News - KCCI Home
p162
sa(dp163
g3
VA delegation of March 14 MPs handed Lebanon Speaker Nabih Berri a petition calling on him to convene the parliament before the end of the ... to his deputy \u201d Please ...
p164
sg5
VLebanon\u2019s ISF chief to hand over responsibilities to his deputy ...
p165
sa(dp166
g3
VUK Parliament deputy speaker questioned House of Commons speaker arrested UPDATED 6:13 PM CDT May 04, 2013. Tweet; Share; NEXT STORY. Suspect in officer shooting ...
p167
sg5
VUK Parliament deputy speaker questioned | National News - KETV Home
p168
sa(dp169
g3
VLONDON, May 5 \u2013 A deputy speaker of Britain\u2019s lower house of parliament said on Sunday that allegations of raping one man and sexually assaulting another were ...
p170
sg5
VBritish parliament deputy speaker denies gay rape charge | Capital ...
p171
sa(dp172
g3
VUK Parliament deputy speaker questioned House of Commons speaker arrested UPDATED 7:13 PM EDT May 04, 2013. Tweet; Share; NEXT STORY. Prosecutor: Kidnap suspect depraved.
p173
sg5
VUK Parliament deputy speaker questioned | National News - WMTW Home
p174
sa(dp175
g3
VUK Parliament deputy speaker questioned House of Commons speaker arrested UPDATED 7:13 PM EDT May 04, 2013. Tweet; Share; NEXT STORY. Get ConnecTV. Text Size: A Small ...
p176
sg5
VUK Parliament deputy speaker questioned | National News - WPBF Home
p177
sa(dp178
g3
VUK Parliament deputy speaker questioned House of Commons speaker arrested ... He was elected deputy speaker of the House of Commons in 2010.
p179
sg5
VUK Parliament deputy speaker questioned | National News - WAPT Home
p180
sa(dp181
g3
VParliament deputy speaker denies rape claims Nigel Evans says he considered two accusers friends. From Bharati Naik CNN. POSTED: 6:08 AM May 05 2013 UPDATED: 6:40 AM ...
p182
sg5
VParliament deputy speaker denies rape claims | News - Home
p183
sa(dp184
g3
VThe deputy speaker of Britain's House of Commons, Nigel Evans, ... UK Parliament deputy speaker questioned House of Commons speaker arrested. From Bharati Niak CNN.
p185
sg5
VUK Parliament deputy speaker questioned | Nation/World News - Home
p186
sa(dp187
g3
VUK Parliament deputy speaker questioned House of Commons speaker arrested UPDATED 7:13 PM EDT May 04, 2013. Tweet; Share; NEXT STORY.
p188
sg5
VUK Parliament deputy speaker questioned | National News - WYFF Home
p189
sa(dp190
g3
VUK Parliament deputy speaker questioned House of Commons speaker arrested UPDATED 1:13 PM HST May 04, 2013. Tweet; Share; NEXT STORY. Court documents: Woman slit pet ...
p191
sg5
VUK Parliament deputy speaker questioned | National News - KITV Home
p192
sa(dp193
g3
VUK Parliament deputy speaker questioned House of Commons speaker arrested UPDATED 4:13 PM PDT May 04, 2013. Tweet; Share; NEXT STORY.
p194
sg5
VUK Parliament deputy speaker questioned | News - KSBW Home
p195
sa(dp196
g3
VThe deputy speaker of Britain's House of Commons, Nigel Evans, ... UK Parliament deputy speaker questioned House of Commons speaker arrested. From Bharati Niak CNN.
p197
sg5
VUK Parliament deputy speaker questioned | News - KEYT
p198
sa(dp199
g3
VUK Parliament deputy speaker questioned House of Commons speaker arrested UPDATED 4:13 PM PDT May 04, 2013. Tweet; Share; NEXT STORY. Prosecutor: Kidnap suspect depraved.
p200
sg5
VUK Parliament deputy speaker questioned | National News - KCRA Home
p201
sa(dp202
g3
VThe deputy speaker of the British Parliament was arrested Saturday on suspicion of rape, a source told CNN.
p203
sg5
VSources: Deputy speaker of British Parliament questioned in rape ...
p204
sa(dp205
g3
VPoland\u2019s transsexual MP Anna Grodzka will not become a deputy speaker of parliament after MPs voted to retain Wanda Nowicka in the post, Friday morning. Left to ...
p206
sg5
VTranssexual MP won\u2019t become parliament deputy speaker - National
p207
sa(dp208
g3
VUK Parliament deputy speaker questioned House of Commons speaker arrested ... He was elected deputy speaker of the House of Commons in 2010.
p209
sg5
VUK Parliament deputy speaker questioned | National News - WBAL Home
p210
sa(dp211
g3
VA deputy speaker of Britain's lower house of parliament said Sunday that allegations of raping one man and sexually assaulting another were "completely false", adding ...
p212
sg5
VEUROPE - British parliament deputy speaker denies gay rape charge
p213
sa(dp214
g3
VUK Parliament deputy speaker questioned House of Commons speaker arrested ... He was elected deputy speaker of the House of Commons in 2010.
p215
sg5
VUK Parliament deputy speaker questioned | National News - WDSU Home
p216
sa(dp217
g3
VPoland's first transgender MP may soon be elected as the prestigious post of deputy parliament speaker
p218
sg5
VAnna Grodzka, Poland's trans MP, may become deputy parliament speaker
p219
sa(dp220
g3
VLONDON : A deputy speaker of Britain's lower house of parliament was arrested on Saturday on suspicion of raping one man and sexually assaulting another, according to ...
p221
sg5
VUK parliament's deputy speaker held over \u2018rape\u2019
p222
sa(dp223
g3
VLONDON: Deputy speaker of Britain's lower house of parliament and Conservative gay lawmaker Nigel Evans has been arrested by police for allegedly raping a ...
p224
sg5
VBritish parliament's deputy speaker arrested on rape charges ...
p225
sa(dp226
g3
VUK Parliament deputy speaker questioned House of Commons speaker arrested ... He was elected deputy speaker of the House of Commons in 2010.
p227
sg5
VUK Parliament deputy speaker questioned | National News - WESH Home
p228
sa(dp229
g3
VSee Mongolias deputy speaker of Parliament Latest News, Photos, Biography, Videos and Wallpapers. Mongolias deputy speaker of Parliament profile on Times of India
p230
sg5
VMongolias deputy speaker of Parliament: Latest News, Videos ...
p231
sa(dp232
g3
VLONDON: Deputy speaker of Britain's lower house of parliament and Conservative gay lawmaker Nigel Evans has been arrested by police for allegedly raping a ...
p233
sg5
VBritish parliament's deputy speaker Nigel Evans arrested on rape ...
p234
sa(dp235
g3
VThe Deputy Speaker of Parliament Rt Hon. Jacob Oulanyah on Monday met a delegation of Tanzania Army officers from the Tanzanian National Defence College.
p236
sg5
VDeputy Speaker Boasts of Army Representation in Uganda\u2019s Parliament
p237
sa(dp238
g3
VParliament deputy speaker denies rape claims Nigel Evans says he considered two accusers friends. From Bharati Naik CNN. POSTED: 04:08 AM MDT May 05, 2013 ...
p239
sg5
VParliament deputy speaker denies rape claims | News - Home
p240
sa(dp241
g3
VUK Parliament deputy speaker questioned House of Commons speaker arrested UPDATED 6:13 PM CDT May 04, 2013. Tweet; Share; NEXT STORY. Fire damages house in South ...
p242
sg5
VUK Parliament deputy speaker questioned | National News - WISN Home
p243
sa(dp244
g3
VUK Parliament deputy speaker questioned House of Commons speaker arrested UPDATED 5:13 PM MDT May 04, 2013. Tweet; Share; NEXT STORY.
p245
sg5
VUK Parliament deputy speaker questioned | National News - KOAT Home
p246
sa(dp247
g3
VUK Parliament deputy speaker questioned House of Commons speaker arrested ... He was elected deputy speaker of the House of Commons in 2010.
p248
sg5
VUK Parliament deputy speaker questioned | National News - KITV Home
p249
sa(dp250
g3
VThe deputy speaker of Britain's House of Commons, ... UK parliament deputy speaker questioned . Author: By CNN Staff. Published On: May 04 2013 02:18:33 PM PDT.
p251
sg5
VUK parliament deputy speaker questioned | News - KXLY.com
p252
sa(dp253
g3
VUK Parliament - Deputy Speaker consults the Speaker ... 1:35 Deputy Speaker Dawn Primarolo dealing with shouting and screaming by Oban277 529 views
p254
sg5
VUK Parliament - Deputy Speaker consults the Speaker - YouTube
p255
sa(dp256
g3
VDeputy Speakers of the Croatian Parliament. According to constitutional provisions, the Croatian Parliament has one or more deputy speakers. The Standing Orders of ...
p257
sg5
VHrvatski sabor
p258
sa(dp259
g3
VUK Parliament deputy speaker questioned House of Commons speaker arrested UPDATED 6:13 PM CDT May 04, 2013. Tweet; Share; NEXT STORY.
p260
sg5
VUK Parliament deputy speaker questioned | National News - KHBS Home
p261
sa(dp262
g3
VUK Parliament`s deputy speaker arrested on rape charges \u2022 Deputy speaker of Britain`s lower house of parliament and Conservative gay lawmaker Nigel Evans has been ...
p263
sg5
VUK Parliament`s deputy speaker arrested on rape charges - One News ...
p264
sa(dp265
g3
VThe deputy speaker of Britain's House of Commons said Sunday the allegations of rape and sexual assault leveled against him are false. Nigel Evans also said the ...
p266
sg5
VParliament deputy speaker denies rape claims | National News ...
p267
sa(dp268
g3
VThe deputy speaker of Britain's House of Commons, Nigel Evans, was arrested Saturday in northwest England on suspicion of rape and sexual assault, a source familiar ...
p269
sg5
VUK Parliament deputy speaker questioned | National News - KHBS Home
p270
sa(dp271
g3
VThe deputy speaker of Britain's House of Commons, Nigel Evans, was arrested Saturday in northwest England on suspicion of rape and sexual assault, a source familiar ...
p272
sg5
VUK Parliament deputy speaker questioned | National News - WPTZ Home
p273
sa(dp274
g3
V(AFP) \u2013 5 days ago LONDON \u2014 A deputy speaker of Britain's lower house of parliament was arrested on suspicion of raping one man and sexually assaulting another ...
p275
sg5
VAFP: Senior British MP 'arrested over gay rape claim'
p276
sa(dp277
g3
VAnna Grodzka, Poland and the world\u2019s only transgendered MP, says she is willing to stand for the post of deputy speaker of parliament \u201cif my party supports me ...
p278
sg5
VWorld\u2019s only transgendered MP to become Polish deputy parliament ...
p279
sa(dp280
g3
VKUALA LUMPUR: Malaysia's Parliament is a mess as far as Deputy Speaker Wan Junaidi Tuanku Jaafar is concerned. Rather than being the centre of debate over ...
p281
sg5
VDeputy Speaker: M\u2019sian Parliament a mess | Free Malaysia Today
p282
sa(dp283
g3
VDeputy speaker of Britain's lower house of parliament and Conservative gay lawmaker Nigel Evans has been arrested by police for allegedly raping and ...
p284
sg5
VUK deputy speaker Nigel Evans arrested for allegedly raping 2 ...
p285
sa(dp286
g3
VPoland's first transgender MP has been blocked from being elected to the prestigious post of deputy parliament speaker
p287
sg5
VPoland's trans MP blocked from deputy parliament speaker post ...
p288
sa(dp289
g3
VThe deputy speaker of Britain's House of Commons said Sunday the allegations of rape and sexual assault leveled against him are false. Nigel Evans also said the ...
p290
sg5
VParliament deputy speaker denies rape claims | News - Home
p291
sa(dp292
g3
V4 Timing of elections . When should the elections be held? 62. In the past, the Speaker has been reaffirmed (see further below) or elected at the beginning of a ...
p293
sg5
VHouse of Commons - Election of the Speaker and of the Deputy ...
p294
sa(dp295
g3
VBritish Parliament Deputy Speaker arrested on "suspicion of rape" The Deputy speaker of the British House of Commons, Nigel Evans MP, has reportedly been arrested on ...
p296
sg5
VBritish Parliament Deputy Speaker arrested on "suspicion of rape ...
p297
sa(dp298
g3
VA deputy speaker of Britain's lower house of parliament was arrested on Sunday on suspicion of raping one and sexually assaulting another. Nigel Evans, the ...
p299
sg5
VUK parliament's deputy speaker arrested on rape charges
p300
sa(dp301
g3
VBritish citizens can thank Prime Minister Margaret Thatcher for giving them hope, instilling them with pride and making their lives more livable, says Nigel Evans ...
p302
sg5
VDeputy Parliament Speaker Evans: Thatcher Made Brits Believe Again
p303
sa.