(lp1
(dp2
S'description'
p3
VIt is not about bone cancer. Although multiple myeloma affects the bones, ... and more myeloma cells are found in the body. ... Taking Part in Cancer Research.
p4
sS'title'
p5
VWhat You Need To Know About\u2122 Multiple Myeloma - National Cancer ...
p6
sa(dp7
g3
VCancer Types; Multiple Myeloma; Multiple Myeloma. This section has been reviewed and approved by the Cancer.Net Editorial Board, 7/2012. Overview. Cancer.Net Guide
p8
sg5
VMultiple Myeloma | Cancer.Net
p9
sa(dp10
g3
VMultiple Myeloma What is cancer? The body is made up of trillions of living cells. ... Cancer begins when cells in a part of the body start to grow out of control.
p11
sg5
VMultiple Myeloma - American Cancer Society | Information and ...
p12
sa(dp13
g3
VMultiple myeloma is a type of cancer. ... In cancer, new cells form when the body doesn ... They may damage the solid part of the bone. When myeloma cells collect ...
p14
sg5
VWhat You Need To Know About\u2122 Multiple Myeloma - National Cancer ...
p15
sa(dp16
g3
V... is a form of Myeloma Bone Cancer. A Multiple Myeloma prognosis means ... These cells are part of your immune system, which helps protect the body from germs and ...
p17
sg5
VWhat Is Multiple Myeloma, Plasma Cell Myeloma And What Are ...
p18
sa(dp19
g3
VPlasma cells are an important part of the immune ... cluster in multiple sites of the body\u2014is cancer of ... myeloma? Multiple myeloma (MM) is a cancer of ...
p20
sg5
VHuntsman Cancer Institute - What is Multiple Myeloma?
p21
sa(dp22
g3
VExpert information about what Multiple Myeloma, Plasmacytoma or Bone Marrow blood cancer is; the signs, symptoms & prognosis for patients & families
p23
sg5
VMultiple Myeloma & Plasmacytoma: About Blood & Bone Marrow Cancer
p24
sa(dp25
g3
VMultiple myeloma is a type of cancer that occurs when plasma cells in the body start to overgrow in the bone marrow. ... as part of the immune system, ...
p26
sg5
VMultiple Myeloma - Site Map - Body & Health
p27
sa(dp28
g3
V... or any other internal part of the body, ... Multiple Myeloma is a cancer that originates in the plasma cells of the human body and seeps into the bones ...
p29
sg5
VMyeloma Cancer, Symptoms, Prognosis, Treatment
p30
sa(dp31
g3
VWhat is myeloma? Myeloma is a type of cancer that develops ... multiple myeloma. Plasma cells are part of ... in the body, it is often called multiple myeloma.
p32
sg5
VWhat is myeloma? : Cancer Research UK : CancerHelp UK
p33
sa(dp34
g3
VMultiple myeloma is a cancer formed by malignant plasma cells. Normal plasma cells are found in the bone marrow and are an important part of ... that help the body ...
p35
sg5
VWhat is multiple myeloma? - American Cancer Society | Information ...
p36
sa(dp37
g3
VMyeloma, or multiple myeloma, is cancer of a certain type of white blood cell called a ... and they can travel through the bloodstream and damage other parts of the body.
p38
sg5
VMultiple Myeloma Facts | Multiple Myeloma | Seattle Cancer Care ...
p39
sa(dp40
g3
VIn the disease called multiple myeloma, ... are another type of plasma cell cancer. Instead of multiple tumors, a single tumor can arise in any part of the body.
p41
sg5
VAbout Multiple Myeloma
p42
sa(dp43
g3
VThese abnormal cells might develop in different parts of the body. In case of multiple myeloma, ... Multiple Myeloma is the cancer of plasma cells.
p44
sg5
VMultiple Myeloma | Multiple Myeloma Treatment
p45
sa(dp46
g3
VMultiple myeloma symptoms include bone and rib pain, ... Antibodies are part of the immune system. ... In cancer, new cells form when the body doesn't need them, ...
p47
sg5
VMultiple Myeloma Symptoms, Treatment, Stages, Causes and Diagnosis ...
p48
sa(dp49
g3
VWhat is multiple myeloma? This type of cancer begins in the blood ... Plasma cells help the body\u2019s immune system ... outer part of the bone. Multiple Myeloma ...
p50
sg5
VMultiple Myeloma Information - CTCA Cancer Treatment Centers &amp ...
p51
sa(dp52
g3
VCare guide for Multiple Myeloma possible ... tumor and spread through the blood stream or lymphatic system to other parts of the body. Once cancer cells ...
p53
sg5
VMultiple Myeloma - Care Guide - Drugs.com | Prescription Drug ...
p54
sa(dp55
g3
VMultiple Myeloma Overview. Multiple myeloma is a cancer of plasma cells. Plasma cells are a special type of white blood cell that are part of the body\u2019s immune system.
p56
sg5
VTypes of Cancer | Virginia Cancer
p57
sa(dp58
g3
V... also known as myeloma, is a hematologic cancer, ... hard outer part of the bone and then spread ... on the Body. The primary effect of multiple myeloma is on ...
p59
sg5
VWhat is multiple myeloma
p60
sa(dp61
g3
VMultiple myeloma is cancer that originates in plasma cells. ... These cells are part of the body's immune system. In multiple myeloma, ...
p62
sg5
VMultiple Myeloma Overview - Multiple Myeloma - HealthCommunities.com
p63
sa(dp64
g3
VMyeloma at Knight Cancer ... the part of the body where blood cells ... The type of radiation treatment used to treat multiple myeloma is called external beam ...
p65
sg5
VKnight Cancer Institute:Myeloma - OHSU Home
p66
sa(dp67
g3
VMultiple myeloma is a kind of cancer that develops in the plasma cells and is ... The tumor may also spread to other parts of the body through bloodstream or lymph ...
p68
sg5
VWhat is Multiple Myeloma - Learn About Types of Cancer, Symptoms ...
p69
sa(dp70
g3
VIt is a cancer of the plasma cell, an important part of the ... Multiple myeloma is characterized by excessive ... bones of the body, forming multiple ...
p71
sg5
VWhat Is Multiple Myeloma - Definition
p72
sa(dp73
g3
VWhat is Myeloma? Myeloma is cancer of certain white ... Multiple myeloma is the most ... lungs or almost any other part of the body. Solitary myeloma is myeloma that ...
p74
sg5
VMyeloma Treatment - Fox Chase Cancer Center: Comprehensive Care
p75
sa(dp76
g3
VWhat is multiple myeloma? Multiple myeloma is cancer that affects certain white blood ... A CT scan shows detailed images of any part of the body, including the ...
p77
sg5
VConditions - Myeloma Bone Disease / Multiple Myeloma | Cooper ...
p78
sa(dp79
g3
VExercise & Multiple Myeloma (Part One) ... I was able to relate that my body was strong and in good shape ... My Cancer Store; My Multiple Myeloma; Myeloma Beacon;
p80
sg5
VExercise & Multiple Myeloma (Part One) | Multiple Myeloma Blog
p81
sa(dp82
g3
V... also known as multiple myeloma, is a type of bone marrow cancer ... Plasma cells form part of ... (hence multiple myeloma) places in the body where ...
p83
sg5
VWhat Is Myeloma - MY Home
p84
sa(dp85
g3
V... each with an important job in the body. ... Cancer is a disorder characterized by transformation of ... The symptoms of multiple myeloma can vary greatly ...
p86
sg5
VMyeloma
p87
sa(dp88
g3
VWhat is Multiple Myeloma? ... In cancer, new cells form when the body doesn\u2019t ... They may damage the solid part of the bone. When myeloma cells collect in ...
p89
sg5
VWhat is Myeloma? | Blood Cancer Research Fund
p90
sa(dp91
g3
VIncreasingly accepted as a part of multiple myeloma ... with many different types of cancer. ... used to kill myeloma cells that are within the body.
p92
sg5
VMultiple Myeloma: International Myeloma Foundation : Questions and ...
p93
sa(dp94
g3
VMultiple myeloma is cancer that ... Plasma cells help your body fight ... It is therefore recommended to use certain treatments only as part of ...
p95
sg5
VMultiple myeloma - National Library of Medicine - PubMed Health
p96
sa(dp97
g3
VAutologous Bone Marrow and Stem Cell Transplantation For Multiple Myeloma, part 2. ... product and thereby reducing cancer cells in the transplant. Total Body ...
p98
sg5
VMultiple Myeloma: International Myeloma Foundation : Autologous ...
p99
sa(dp100
g3
VMultiple myeloma is a cancer of your plasma cells, ... they can populate bone marrow in other parts of your body, even far from where they began.
p101
sg5
VMultiple myeloma - MayoClinic.com - Mayo Clinic
p102
sa(dp103
g3
VMultiple myeloma is a form of cancer that begins in plasma ... cells grow and divide to form new cells as the body needs them ... Collect in the solid part of ...
p104
sg5
VMultiple Myeloma - Cancer Home Page
p105
sa(dp106
g3
VWhat is multiple myeloma? Multiple myeloma is cancer that affects certain white blood ... A CT scan shows detailed images of any part of the body, including the ...
p107
sg5
VMultiple Myeloma | Johns Hopkins Medicine Health Library
p108
sa(dp109
g3
VMultiple myeloma is a cancer of the plasma cells, ... The disease can affect several parts and systems of the body including, the bones, kidneys, ...
p110
sg5
VMultiple Myeloma Stages - Buzzle
p111
sa(dp112
g3
VMultiple Myeloma is a cancer which affects a type ... until an antigen appears in the body. ... that you may be eligible to take part in. Multiple Myeloma and ...
p113
sg5
VBone Marrow Transplant for Multiple Myeloma
p114
sa(dp115
g3
V... currently, and (iii) populate bone marrow in other parts of your body, ... start developing multiple myeloma or a related cancer. MGUS, like multiple myeloma, ...
p116
sg5
VMyeloma | de Gunzburg Myeloma Research Foundation
p117
sa(dp118
g3
V... it begins to affect the bone and other parts of the body. ... As in many types of cancer, people with multiple myeloma may experience fatigue and weight loss.
p119
sg5
VAdvances in the Treatment of Multiple Myeloma - Connect Booklet ...
p120
sa(dp121
g3
V... are located in the soft central parts of ... the body generates large number of ... can help detect the cancer. As multiple myeloma worsens ...
p122
sg5
VMyeloma Cancer Life Expectancy - Buzzle
p123
sa(dp124
g3
VMultiple myeloma symptoms include bone and rib pain, ... Antibodies are part of the immune system. ... In cancer, new cells form when the body doesn't need them, ...
p125
sg5
VMultiple Myeloma Symptoms, Treatment, Stages, Causes and Diagnosis ...
p126
sa(dp127
g3
VLearn to recognize myeloma cancer symptoms, ... They are located in the soft part of the bones, ... Stage II multiple myeloma has spread through the body a little bit.
p128
sg5
VMultiple Myeloma - Multiplemyeloma - Myeloma Cancer
p129
sa(dp130
g3
VWhat is multiple myeloma? Multiple myeloma is a blood cancer (malignancy) ... Plasma cells are normally a very important part of the body\u2019s immune system.
p131
sg5
VColorado Blood Cancer Institute - Multiple Myeloma
p132
sa(dp133
g3
VThe process of aging leads to degenerative changes in several parts of the body. ... multiple myeloma \u2013 a cancer of bone marrow affecting multiple sites ! Related ...
p134
sg5
VMultiple Myeloma - Bone Cancer | Healthhype.com
p135
sa(dp136
g3
VTo understand the multiple myeloma cancer information on this site, ... In addition, they can spread from one part of the body to another. Myeloma Cells .
p137
sg5
VMultiple Myeloma Cancer Information \u2013 What is Multiple Myeloma?
p138
sa(dp139
g3
VMultiple Myeloma Cancer Information plus the Latest News on Multiple Myeloma Cancer Treatments ... they can spread from one part of the body to another. Myeloma Cells .
p140
sg5
VMultiple Myeloma Cancer - Treatment, Causes & Symptoms
p141
sa(dp142
g3
VMyeloma Bone Disease / Multiple Myeloma. Myeloma bone disease is cancer that affects certain white blood cells called plasma cells. It represents about 1 percent of ...
p143
sg5
VMultiple Myeloma - Baylor Health Care System
p144
sa(dp145
g3
V... they can populate bone marrow in other parts of your body, ... about 1 percent of people with MGUS develop multiple myeloma or a related cancer.
p146
sg5
VMultiple myeloma: Causes - MayoClinic.com
p147
sa(dp148
g3
VMultiple myeloma is a rare cancer of the bone marrow. ... which can invade nearby tissue and spread to other parts of the body.
p149
sg5
VLahey Hospital & Medical Center | Health Info - Multiple Myeloma
p150
sa(dp151
g3
VMultiple myeloma is a type of cancer that occurs when plasma cells in the body start to overgrow in the bone marrow. ... as part of the immune system, ...
p152
sg5
VMultiple Myeloma - Causes, Symptoms, Treatment, Diagnosis ...
p153
sa(dp154
g3
VThursday the Myeloma Beacon ran my monthly column, ... make it more difficult to build one\u2019s body back-up? ... My Cancer Store; My Multiple Myeloma; Myeloma Beacon;
p155
sg5
VTips to help myeloma survivors keep their bodies strong (Part One ...
p156
sa(dp157
g3
VTo understand the multiple myeloma cancer information on this site, ... In addition, they can spread from one part of the body to another. Myeloma Cells .
p158
sg5
VMultiple Myeloma Cancer Information \u2013 What is Multiple Myeloma?
p159
sa(dp160
g3
VMultiple Myeloma Cancer Information plus the Latest News on Multiple Myeloma Cancer Treatments ... they can spread from one part of the body to another. Myeloma Cells .
p161
sg5
VMultiple Myeloma Cancer - Treatment, Causes & Symptoms
p162
sa(dp163
g3
VMyeloma Bone Disease / Multiple Myeloma. Myeloma bone disease is cancer that affects certain white blood cells called plasma cells. It represents about 1 percent of ...
p164
sg5
VMultiple Myeloma - Baylor Health Care System
p165
sa(dp166
g3
V... they can populate bone marrow in other parts of your body, ... about 1 percent of people with MGUS develop multiple myeloma or a related cancer.
p167
sg5
VMultiple myeloma: Causes - MayoClinic.com
p168
sa(dp169
g3
VMultiple myeloma is a rare cancer of the bone marrow. ... which can invade nearby tissue and spread to other parts of the body.
p170
sg5
VLahey Hospital & Medical Center | Health Info - Multiple Myeloma
p171
sa(dp172
g3
VThe most common form is multiple myeloma, in which the cancer ... in which the cancer affects several areas of the body. ... may be part of the treatment for myeloma ...
p173
sg5
VMyeloma: One-size cancer treatment does not fit all, expert says
p174
sa(dp175
g3
V... also known as myeloma, is a hematologic cancer, ... hard outer part of the bone and then spread ... on the Body. The primary effect of multiple myeloma is on ...
p176
sg5
VWhat is multiple myeloma
p177
sa(dp178
g3
VMultiple myeloma (MM) is a cancer of the ... important part of the immune system because they ... of areas inside the body. Stages of Multiple Myeloma ...
p179
sg5
VHuntsman Cancer Institute - Multiple Myeloma
p180
sa(dp181
g3
VMany people with multiple myeloma want to take an active part in ... treat myeloma. Each type kills cancer ... or the part of the body where myeloma ...
p182
sg5
Vmultiple myeloma - The Worlds of David Darling
p183
sa(dp184
g3
VMultiple myeloma occurs when immune cells called plasma cells multiply out of ... Home>Cancer>Multiple Myeloma. About ... Antibodies are part of the normal ...
p185
sg5
VAbout Multiple Myeloma | Roswell Park Cancer Institute
p186
sa(dp187
g3
VMultiple myeloma is a type of cancer formed by cancerous plasma cells in the blood. Normal plasma cells are an important part of the body\u2019s immune system.
p188
sg5
VFacts about MULTIPLE MYELOMA - Illinois Department of Public ...
p189
sa(dp190
g3
V... Multiple myeloma is cured or should we go ... What is multiple myeloma? Multiple myeloma is a cancer formed by ... that help the body attack and ...
p191
sg5
VInformation needed on Multiple Myeloma | Cancer Survivors Network
p192
sa(dp193
g3
V... a NCI-designated Comprehensive Cancer Center. Multiple Myeloma ... any cancer cells remaining in the body. ... part of a transplant regimen for myeloma, ...
p194
sg5
VMultiple Myeloma Treatment Options - Cancer Research Hospital and ...
p195
sa(dp196
g3
VNutrition for multiple myeloma patients focuses on keeping your body fueled ... Bone marrow--the spongy part of the bone ... Multiple myeloma is cancer of ...
p197
sg5
VMultiple Myeloma - How To Information | eHow.com
p198
sa(dp199
g3
VWhat is multiple myeloma? Multiple myeloma is cancer that affects certain white blood ... A CT scan shows detailed images of any part of the body, including the ...
p200
sg5
VMultiple Myeloma - Online Medical Encyclopedia - University of ...
p201
sa(dp202
g3
VNormal plasma cells are found in the bone marrow and are an important part of the body's ... called Dexamethasone to treat multiple myeloma (bone marrow cancer).
p203
sg5
VMultiple Myeloma - Physiopedia, universal access to physiotherapy ...
p204
sa(dp205
g3
VWhat is myeloma / multiple myeloma? Myeloma is a cancer of certain white blood cells called plasma cells. ... accumulates in various parts of the body.
p206
sg5
VMyeloma | Health | Patient.co.uk - Health Information and Advice ...
p207
sa(dp208
g3
VMyeloma Bone Disease / Multiple Myeloma ... are part of the immune system. ... When cancer occurs, the body overproduces plasma cells, ...
p209
sg5
VMyeloma Bone Disease / Multiple Myeloma
p210
sa(dp211
g3
VSymptomatic multiple myeloma Staging a cancer means determining its extent. ... or has the cancer spread to other parts of the body like the bones?
p212
sg5
VMultiple Myeloma - Blood Cell Cancer - What is Multiple Myeloma
p213
sa(dp214
g3
VWhen cancer involves plasma cells, the body keeps producing more and more of these cells. ... The complications of multiple myeloma can affect many parts of the body.
p215
sg5
VMultiple Myeloma - Cancer Concerns Us Home Page
p216
sa(dp217
g3
VHome / Cancers We Treat / Multiple Myeloma Cancer Program / Multiple ... An advanced form of total body ... Your multiple myeloma care team at CTCA will ...
p218
sg5
VMultiple Myeloma Total Marrow Irradiation (TMI) | CTCA
p219
sa(dp220
g3
VMultiple myeloma is a cancer of plasma cells, which are a special type of white blood cell that are part of the body\u2019s immune system.
p221
sg5
VImproved Survival with Zometa in Multiple Myeloma : CancerConnect News
p222
sa(dp223
g3
VMultiple myeloma \u2013 a deadly blood cancer ... abnormal antibody-like protein in the blood can cause problems with blood flow to the kidney and other parts of the body.
p224
sg5
VThe Stages of Multiple Myeloma | Lifescript.com
p225
sa(dp226
g3
VMultiple myeloma is a cancer that begins in plasma cells, a type of white blood cell. These cells are part of your immune system, which helps protect the body from ...
p227
sg5
VMultiple Myeloma: MedlinePlus
p228
sa(dp229
g3
V... the body tries to rid itself of the excess dysfunctional protein by excretion through the kidneys. ... Plasmacytoma could be part of multiple myeloma, ...
p230
sg5
VMultiple Myeloma
p231
sa(dp232
g3
VTreatment for multiple myeloma may cause unpleasant side effects. ... it may spread to other parts of your body. Once cancer spreads, ...
p233
sg5
VMultiple Myeloma (Inpatient Care) - Care Guide
p234
sa(dp235
g3
VMyeloma Bone Disease / Multiple Myeloma ... are part of the immune system. ... When cancer occurs, the body overproduces plasma cells, ...
p236
sg5
VMyeloma Bone Disease / Multiple Myeloma - New York Presbyterian ...
p237
sa(dp238
g3
VMultiple myeloma is a type of cancer that occurs when plasma cells in the body start to overgrow in the bone marrow. ... as part of the immune system, ...
p239
sg5
VMultiple Myeloma - Causes, Symptoms, Treatment, Diagnosis ...
p240
sa(dp241
g3
VLearn more information about multiple myeloma from the Winship Cancer Institute at Emory ... Symptoms of macroglobulinemia depend on the part of the body ...
p242
sg5
VMultiple Myeloma: About | Winship Cancer Institute | Atlanta ...
p243
sa(dp244
g3
VMultiple myeloma is a hematologic cancer composed of many ... they spread from the bone marrow into the hard part of ... How do hematologic cancers affect the body?
p245
sg5
VHow does multiple myeloma affect the body? - Sharecare
p246
sa(dp247
g3
VMultiple myeloma is a relatively rare cancer of the bone marrow. ... which can invade nearby tissue and can spread to other parts of the body.
p248
sg5
VMultiple myeloma - What Is It, Symptoms, Causes | Lifescript.com
p249
sa(dp250
g3
VCancer Information; Multiple Myeloma; Follow Up & Recovery; Multiple Myeloma ... The complications of multiple myeloma can affect many parts of the body.
p251
sg5
VMultiple Myeloma - CTCA CancerCompass - Empowering Cancer Patients ...
p252
sa(dp253
g3
VMultiple myeloma is a rare cancer of the bone marrow. ... which can invade nearby tissue and spread to other parts of the body.
p254
sg5
VMultiple Myeloma - Department of Medicine
p255
sa(dp256
g3
VMultiple Myeloma is a type of blood cancer that affects the plasma cells. ... to fight off disease. These antibodies are part of the body\u2019s defense system
p257
sg5
VMyeloma Kidney
p258
sa(dp259
g3
VMultiple myeloma (from Greek myelo- ... is a cancer of plasma cells, ... (four parts) of multiple myeloma is CRAB: C = Calcium (elevated), R = Renal failure, ...
p260
sg5
VMultiple myeloma - Wikipedia, the free encyclopedia
p261
sa(dp262
g3
VMultiple myeloma is treated as part of the Hematologic ... they have multiple myeloma, a cancer of ... has multiple myeloma, the body keeps making ...
p263
sg5
VMultiple Myeloma Treatments at Greenebaum Cancer Center
p264
sa(dp265
g3
VLearn about multiple myeloma, a cancer that occurs when ... More advanced disease with more myeloma cells in the body. ... myeloma cells wear away the solid part of ...
p266
sg5
VWhat is Multiple Myeloma
p267
sa(dp268
g3
VWhat is myeloma? Myeloma is a type of cancer that ... in multiple areas of the body (e.g ... people who have myeloma. Part of this antibody can ...
p269
sg5
VUnderstanding Multiple Myeloma - Home | Cancer Council NSW
p270
sa(dp271
g3
VChemotherapy is the use of powerful drugs to kill cancer ... and affects almost all parts of the body. ... investigation for the treatment of multiple myeloma.
p272
sg5
VMyeloma Causes, Symptoms, Treatment - Medical Treatment on ...
p273
sa(dp274
g3
V... proteins that help the body rid itself of ... bone marrow and the hard outer part of the ... at the Cancer Center not only treat multiple myeloma, ...
p275
sg5
VClinical Services - Multiple Myeloma - Stanford Clinical Cancer ...
p276
sa(dp277
g3
VIt even becomes more serious when attacked by a multiple myeloma, ... type of cancer, myeloma starts in cells, then spreads gradually to other parts of the body.
p278
sg5
VMultiple Myeloma Prognosis | Multiple Myeloma Prognosis
p279
sa(dp280
g3
VMultiple myeloma is a cancer that develops in plasma cells, ... Plasma cells are part of the immune system, the body\u2019s natural defense against infections.
p281
sg5
V.:: Patient Resource Publishing : Multiple Myeloma Overview ::.
p282
sa(dp283
g3
VThis eMedTV resource describes the signs and symptoms of multiple myeloma, ... forming tumors in many bones of the body. ... Multiple Myeloma Cancer.
p284
sg5
VSymptoms of Multiple Myeloma
p285
sa(dp286
g3
VMultiple myeloma is a cancer of plasma cells, ... Plasma cells are a part of the immune system, ... Myeloma tumors weaken the body\u2019s defenses against infection.
p287
sg5
VMultiple Myeloma Diagnosis - Diseases and Conditions - PDR Health
p288
sa(dp289
g3
VMultiple myeloma is a cancer of your plasma cells, ... These cells provide a variety of antibodies that function as part of the body's immune system.
p290
sg5
Vdreddyclinic.com - Multiple myeloma - DrEddyClinic Leading ...
p291
sa(dp292
g3
VMultiple Myeloma is a cancer of plasma cells, found primarily in the bone marrow. Myeloma interferes with the production of an important part of the body's natrual ...
p293
sg5
VMultiple Myeloma - University of Arkansas Medical Sciences
p294
sa(dp295
g3
VThis means that there is no sign of active myeloma in your body. ... Relapsed multiple myeloma. ... looks at the results of 2 blood tests as part of staging.
p296
sg5
VThe stages of myeloma : Cancer Research UK : CancerHelp UK
p297
sa(dp298
g3
VMultiple myeloma recurrence is a high ... chances are high that the rogue cancer cells may be hidden in your body. ... This means some part of bone marrow may ...
p299
sg5
VWhat is Multiple Myeloma Recurrence - Learn About Types of Cancer ...
p300
sa(dp301
g3
VCancer Stages for Multiple Myeloma. The National Cancer Institute describes ... that help rid the body of infections. The severity of multiple myeloma is ...
p302
sg5
VCancer Stages For Multiple Myeloma | LIVESTRONG.COM
p303
sa.