(lp1
(dp2
S'description'
p3
VThe Leaning Tower of Pisa (Italian: ... The tower's tilt began during construction, ... the engineers built upper floors with one side taller than the other.
p4
sS'title'
p5
VLeaning Tower of Pisa - Wikipedia, the free encyclopedia
p6
sa(dp7
g3
VDiscover all about the history of the leaning tower of Pisa. ... The construction of the Tower of Pisa began on August 9, ... After the 100 year hiatus, ...
p8
sg5
VHistory of The Leaning Tower of Pisa
p9
sa(dp10
g3
VThe leaning tower of Pisa leans ... it was built on unstable soil. The building began to lean ... tower leans a little bit more each year and ...
p11
sg5
VWhy did leaning tower of pisa start leaning? - Yahoo! Answers
p12
sa(dp13
g3
VAlthough Pisa is known worldwide for its leaning tower ... Pisa began in this way its rise to the ... and consequently against Pisa too. One year later he ...
p14
sg5
VPisa - Wikipedia, the free encyclopedia
p15
sa(dp16
g3
VThe tower began to sink after construction had ... The tower leans a little bit more each year and was closed for ... The Leaning Tower of Pisa leans at about a 3 ...
p17
sg5
VHow did the Leaning Tower of Pisa lean - The Q&A wiki
p18
sa(dp19
g3
VThe Leaning Tower of Pisa. History of The Tower of Pisa; Timeline; Construction; Leaning Tower of Pisa Facts; Piazza Dei Miracoli. ... Ready to begin your learning ...
p20
sg5
VThe Leaning Tower of Pisa | Travel Guide, History And Facts
p21
sa(dp22
g3
VThe Leaning Tower of Pisa is one of the world's most recognizable structures. Each year, ... The Leaning Tower of Pisa was built to be a freestanding bell tower for ...
p23
sg5
VThe History of Leaning Tower of Pisa | eHow.com
p24
sa(dp25
g3
VThe Leaning Tower of Pisa was built as a part of Piazza dei Miracolli ... In year 1272, the construction of the Leaning Tower ... the tower began to lean in ...
p26
sg5
VLeaning Tower of Pisa, Pisa - Worldsiteguides.com - Travel ...
p27
sa(dp28
g3
VAbout Leaning Tower of Pisa. ... , was built. Piazza dei Miracoli of Pisa is the most splendiferous ... The construction of Tower of Pisa began in ...
p29
sg5
VLeaning Tower of Pisa
p30
sa(dp31
g3
VThe ground floor was built using beautiful white ... the same time the Tower of Pisa began to ... over 1,000,000 tourists visit the Leaning Tower of Pisa each year.
p32
sg5
VLeaning Tower of Pisa - The Wonders of the World
p33
sa(dp34
g3
VOfficially known as the Torre pendente di Pisa, the leaning tower is a freestanding bell tower of the of the cathedral of the Italian city of Pisa.
p35
sg5
VWhy Does The Leaning Tower Of Pisa Lean? | Did You Ever Wonder?
p36
sa(dp37
g3
VLearn why the tower leans, and why it was built. SITE ... buildings is surely the Leaning Tower of Pisa. ... marble tower began to tilt even before its ...
p38
sg5
VTLC Family "The Leaning Tower of Pisa"
p39
sa(dp40
g3
VThe Pisa Tower, otherwise known as the Leaning Tower of Pisa, ... Construction on the Pisa Tower began in August of 1173. ... This was the year the lean first became ...
p41
sg5
VLeaning Tower of Pisa - Pisa, Tuscany - Wikiveler
p42
sa(dp43
g3
VTickets to climb the Leaning Tower of Pisa cost ... but I suspect it\u2019s the same each year): \u201cThe start of the race is near the bridge used by trains to cross the ...
p44
sg5
VLeaning Tower of Pisa | Italy Travel Guide
p45
sa(dp46
g3
VThe leaning tower of Pisa began tilting 5 years after it was built. This is because it had been built on a dense clay mixture that was not strong enough to hold
p47
sg5
VFacts on the Leaning Tower of Pisa? - Ask.com
p48
sa(dp49
g3
VThe Leaning Tower of Pisa is the famous bell tower, in Italy, that began to lean in the year 1173. It was built to display the wealth of the people of Pisa.
p50
sg5
VThe Leaning Tower of Pisa - ThinkQuest
p51
sa(dp52
g3
V- The Leaning Tower of Pisa - ... imposing mass was started in the year 1174 by ... who desire to imagine that great tower was built inclined is entirely ...
p53
sg5
VItalyGuides.it: The Leaning Tower of Pisa - Pisa, Italy
p54
sa(dp55
g3
V... its construction began. The leaning happened due to the Pisa tower location when ... of tourists every year leave ... Leaning tower of Pisa built?
p56
sg5
VPisa Italy Attractions - Travel to Tuscany? Make it Special!
p57
sa(dp58
g3
V... but poor foundations and unstable ground caused it to start leaning ... The Leaning Tower of Pisa is almost 56 metres high and has 294 steps. It was built in ...
p59
sg5
VPisa, Italy
p60
sa(dp61
g3
VOK i have to look up information on the leaning tower of pisa and i can't find ... the tower began leaning to the southeast ... It was built by ...
p62
sg5
VThe Leaning Tower of Pisa? - Yahoo! Answers
p63
sa(dp64
g3
VWhy did the Leaning Tower of Pisa start leaning? It was built on clay, not stone. ... What year did the leaning tower of pisa start leaning?
p65
sg5
VWhat caused the Leaning Tower of Pisa to start leaning - The Q&A wiki
p66
sa(dp67
g3
V... three stories were built. Leaning Tower of Pisa ... year. Engineers hope to stabilize the tower's foundation and ... tower began leaning to the southeast ...
p68
sg5
VLeaning Tower of Pisa, Pisa, Italy Tourist Attractions and Travel
p69
sa(dp70
g3
VThe leaning tower of Pisa was begun in 1173, and after the first three stories were built, the ground started to sink, and the tower began to lean. It has continued
p71
sg5
VLeaning Tower of Pisa? - Ask.com
p72
sa(dp73
g3
VConstruction of this bell-tower began in the year ... the time when the third floor had been built. ... in the year 1350, the Leaning Tower of Pisa had a full ...
p74
sg5
VLeaning Tower Of Pisa, The Leaning Tower of Pisa, History of ...
p75
sa(dp76
g3
VThe Leaning Tower of Pisa is one of ... is actually the bell tower for the Cathedral of Pisa. It was built in ... The tower began leaning within a ...
p77
sg5
VClimbing the Leaning Tower of Pisa - Yahoo! Voices - voices.yahoo.com
p78
sa(dp79
g3
VIt took centuries to construct the Leaning Tower of Pisa. The construction began on ... floor of the Leaning Tower of Pisa was built. In the same year, ...
p80
sg5
VYahoo! Answers - History of the leaning tower of piza?
p81
sa(dp82
g3
VSolving the 800-year mystery of Pisa's Leaning Tower ... the city elders built a ... co spent the end of 1995 and start of 1996, an election year, ...
p83
sg5
VSolving the 800-year mystery of Pisa's Leaning Tower - Telegraph
p84
sa(dp85
g3
VFacts About the Leaning Tower of Pisa. ... Construction of the Tower of Pisa began in 1173, ... The Tower's tilt is the result of being built on a soft soil bed.
p86
sg5
VFacts About the Leaning Tower of Pisa | eHow
p87
sa(dp88
g3
V177 years.== Wikipedia: Leaning Tower of Pisa== The Leaning Tower of Pisa (Italian: ... Please start with words like "Who, What, Where, When, Why, How, etc ...
p89
sg5
VHow many years did it take to build the Leaning Tower of Pisa ...
p90
sa(dp91
g3
VThe tower began to sink ... the engineers built higher ... real identity of the architect of the Leaning Tower of Pisa. For many ...
p92
sg5
VMedieval World Wonders-Leaning Tower of Pisa
p93
sa(dp94
g3
VThe Leaning Tower of Pisa: Flawed Beauty. The ... Bell Tower for the Cathedral at Pisa, Italy: Built ... In 1911 engineers began careful measurements ...
p95
sg5
VSeven Wonders of the Medieval World: Leaning Tower of Pisa
p96
sa(dp97
g3
VIt then became visibly clear that the Tower of Pisa is leaning, ... Since regular measuring of the tower began in ... that the 800-year old tower will remain leaning.
p98
sg5
VLeaning Tower of Pisa has never been straight - Did you know?
p99
sa(dp100
g3
VFew sites are more universally known than Italy's Leaning Tower of Pisa Due to ... the tower shifted and began ... All are built in in the Pisa Romanesque ...
p101
sg5
VPisa
p102
sa(dp103
g3
VWhat is now known as the Leaning Tower of Pisa, was built to be a bell ... in Pisa. Construction began in 1173 ... the year 1250 and attempts ...
p104
sg5
VBryce - Building the Leaning Tower of Pisa - Mulawa Dreaming
p105
sa(dp106
g3
VThe leaning tower of Pisa ... As its power as a naval base began to decline, Pisa ... Carnevale/Mardi Gras season is gearing up to be another spectacular year ...
p107
sg5
VPisa Italy - Online Travel Guides of Travel Destinations - Las ...
p108
sa(dp109
g3
VThe Leaning Tower of Pisa, ... who built the Tower? ... Before the restoration work began in 1990, the tower leaned at an angle of 5.5 degrees.
p110
sg5
VLeaning Tower of Pisa Facts - Buzzle
p111
sa(dp112
g3
V... the Leaning Tower of Pisa leaned an inch less than it had at the beginning of the year. ... But we'd start getting complaints, ...
p113
sg5
VNOVA Online | Fall of the Leaning Tower | Where it Stands Today
p114
sa(dp115
g3
VWHO built the leaning tower of Pisa? ... began. Thanks to the soft ... one to two millimetres per year. Today, the Leaning Tower of Pisa is more than five metres off ...
p116
sg5
VTower of Pisa Historical Facts - Leaning Tower of Pisa
p117
sa(dp118
g3
VThe leaning Tower of Pisa is one of the ancient Seven Wonders ... and shells that the tower is built on. ... the Tower of Pisa stopped sinking and began to ...
p119
sg5
VTower of Pisa: The Leaning Tower of Pisa - Construction Industry ...
p120
sa(dp121
g3
VThe history of the Leaning Tower of Pisa is ... of the Tower was constructed in 1178 when it began to ... when the last floor was built. In the same year, ...
p122
sg5
VThe Leaning Tower of Pisa & History of Leaning Tower of Pisa
p123
sa(dp124
g3
VThe Leaning Tower of Pisa ... The next four floors were built then diagonally, ... Near the entrance are carved month and year of start of construction: ...
p125
sg5
VLeaning Tower of Pisa - Paradise in the World
p126
sa(dp127
g3
VFind information on the Leaning Tower Of Pisa and learn the ... it wasn"t until five years later that began to ... the tower was built upon a dense clay ...
p128
sg5
VLeaning Tower Of Pisa - Online Travel Guides of Travel ...
p129
sa(dp130
g3
VLeaning Tower of Pisa ... It was intended to stand vertically but began to lean soon ... This is a religious building in Pisa, which was built in the year 1152 ...
p131
sg5
VLeaning Tower of Pisa Pisa - Monuments and Historic Buildings
p132
sa(dp133
g3
V... on how to save the renowned Leaning Tower of Pisa from ... began on the Leaning Tower, ... year, a concrete foundation was built around the tower in ...
p134
sg5
VLeaning Tower needs help \u2014 History.com This Day in History \u2014 2 ...
p135
sa(dp136
g3
VAs the mercantile fortunes of the citizens of Pisa faded the famous tower began to settle on its unstable foundation ... Leaning Tower of Pisa in ...
p137
sg5
VThe Leaning Tower of Pisa - History & Pictures
p138
sa(dp139
g3
VLeaning Tower of Pisa, Italian Torre Pendente di Pisa , medieval structure in Pisa, Italy, ... (1.2 mm) per year, and was in danger of collapse.
p140
sg5
VLeaning Tower of Pisa (tower, Pisa, Italy) -- Encyclopedia Britannica
p141
sa(dp142
g3
VLeaning Tower of Pisa, ... the tower began leaning to the southeast soon after the onset of ... N 43 43 23 E 10 23 47 in Pisa, Tuscany, Italy Inscription Year: ...
p143
sg5
VLeaning Tower of Pisa, Italy World Heritage Site
p144
sa(dp145
g3
V... The Leaning Tower of Pisa. ... Before we start our virtual tour above the famous Falling Tower of Pisa ... who believe that ancient Greeks or Ligures built Pisa.
p146
sg5
VLeaning Tower of Pisa, Tuscany, Central Italy | 360 Degree Aerial ...
p147
sa(dp148
g3
VThe four most notable Pisan buildings are the Leaning Tower of Pisa ... is dominated by the nearly 1,000-year-old Duomo di Pisa ... the tower began leaning ...
p149
sg5
VPISA, ITALY - Leaning Tower - Duomo - Camposanto Monumentale
p150
sa(dp151
g3
V'The Leaning Tower of Pisa' is one of the world's most ... It took 177 years for the tower to be built into full ... the tower began to sink due to weak three -meter ...
p152
sg5
VWhy does 'Leaning Tower of Pisa' lean ? - mightylearning on HubPages
p153
sa(dp154
g3
V... The Leaning Tower of Pisa. ... Before we start our virtual tour above the famous Falling Tower of Pisa ... who believe that ancient Greeks or Ligures built Pisa.
p155
sg5
VLeaning Tower of Pisa, Tuscany, Central Italy | 360 Degree Aerial ...
p156
sa(dp157
g3
VThe four most notable Pisan buildings are the Leaning Tower of Pisa ... is dominated by the nearly 1,000-year-old Duomo di Pisa ... the tower began leaning ...
p158
sg5
VPISA, ITALY - Leaning Tower - Duomo - Camposanto Monumentale
p159
sa(dp160
g3
V'The Leaning Tower of Pisa' is one of the world's most ... It took 177 years for the tower to be built into full ... the tower began to sink due to weak three -meter ...
p161
sg5
VWhy does 'Leaning Tower of Pisa' lean ? - mightylearning on HubPages
p162
sa(dp163
g3
VThe work on the construction of the tower began on August 9, ... waited a whole year. ... There is a version that the Leaning Tower of Pisa was built by Gerardi, ...
p164
sg5
VThe Leaning Tower of Pisa - The Most Famous Towers in the World
p165
sa(dp166
g3
VThis ecclesiastical city began its life as a seaside settlement around ... (cathedral) - built almost ... The Leaning Tower of Pisa isn't the only edifice that ...
p167
sg5
VPisa Travel Guide and Tourist Information: Pisa, Tuscany, Italy
p168
sa(dp169
g3
VGIARDINO Tower Inn Hotel*** is located near the Leaning Tower ... 50 meters away from the Hotel and 100 from the Tower of Pisa. ... The land reclamation that began ...
p170
sg5
VHotel Pisa Giardino - Pisa hotels - hotels Station Pisa - Pisa ...
p171
sa(dp172
g3
VThe Leaning Tower of Pisa or simply ... Tower began leaning soon after ... the first three stories were built. Construction of the tower occurred in three ...
p173
sg5
VTower of Pisa , Italy - The best places to visit, travel ...
p174
sa(dp175
g3
VThe Leaning Tower of Pisa is a building in Pisa, ... After the third floor was built in 1178, the tower started to lean, ... Simple start; Simple talk; New changes ...
p176
sg5
VLeaning Tower of Pisa - Simple English Wikipedia, the free ...
p177
sa(dp178
g3
VConstruction began in 1173 and the tower started leaning soon afterwards ... they are built on, there are other 2 towers in Pisa: ... the leaning tower of Pisa.
p179
sg5
VPisa \u2013 Travel guides at Wikivoyage
p180
sa(dp181
g3
V... try to stabilize the tower. 5. Leaning Tower of Pisa, ... Built on soft clay, however, the tower began to list ... year of the Song Dynasty. The tower rises ...
p182
sg5
VTHE WORLD GEOGRAPHY: 11 Leaning Towers From Around the World
p183
sa(dp184
g3
VConstruction began in 1173 and the tower started leaning soon afterwards due to ... Curiosity: the famous Pisa leaning tower is not ... one year after Italian ...
p185
sg5
VPisa travel guide - Wikitravel
p186
sa(dp187
g3
VThe Romans built Porto Pisano, ... Work began on the city's infamous Leaning Tower in around ... work began on strengthening and preserving the Leaning Tower of Pisa.
p188
sg5
VPisa History Facts and Timeline: Pisa, Tuscany, Italy
p189
sa(dp190
g3
VAlthough the Leaning Tower of Pisa has been ... No problems were experienced with the tendons and the soil removal began in February of this year with almost ...
p191
sg5
VTower of Pisa
p192
sa(dp193
g3
V"..The Leaning Tower of Pisa was built as a part of Piazza dei Miracolli and is the piazza's third oldest structure, ... JJBeatsOfficial 1 year ago
p194
sg5
VLeaning Tower of Pisa, Pisa [HD] - YouTube
p195
sa(dp196
g3
VWhen did the leaning tower of pisa start to lean? ... How much does the Leaning Tower of Pisa lean each year? ... In which city was the Leaning Tower of Pisa built?
p197
sg5
VWhen did the leaning tower of pisa start to lean? | Answerbag
p198
sa(dp199
g3
VLeaning Tower of Pisa for Kids ... So the architects built it on soft ground, ... and as soon as they were done it began to slowly tilt over sideways.
p200
sg5
VLeaning Tower of Pisa - Medieval Architecture for Kids!
p201
sa(dp202
g3
VLeaning Tower of Pisa, ... it began to sink right from the first stages of the building work. ... then decreased again to about one millimeter a year.
p203
sg5
VLeaning Tower of Pisa Tickets | Weekend in Italy
p204
sa(dp205
g3
V\u0628\u0631\u062c \u0628\u064a\u0632\u0627 \u0627\u0644\u0645\u0627\u0626\u0644 Leaning Tower of Pisa ... the Tower began Leaning to the southeast soon after the onset of ... the engineers built upper floors ...
p206
sg5
V\u0628\u0631\u062c \u0628\u064a\u0632\u0627 \u0627\u0644\u0645\u0627\u0626\u0644 Leaning Tower of Pisa
p207
sa(dp208
g3
VThe Leaning Tower of Pisa is the famous tower, ... that began to lean in the year 1173. The leaning Tower of Pisa is a medieval arhitecture, ... When Was Big Ben Built?
p209
sg5
VWhy is The Tower of Pisa Leaning - Woondu - Best News and Funny ...
p210
sa(dp211
g3
VLeaning Tower of Pisa is one of the forgotten ... When the first three floors were built he began to sink slowly to ... Each year its vertical gradient increased ...
p212
sg5
VThe Leaning Tower of Pisa - lolbull.com -
p213
sa(dp214
g3
VLeaning Tower of Pisa, Pisa, ... The Bell Tower of Saint Mary Built: 1173-1350 Renovated: 1373 ... I was in Italy for march break this year ...
p215
sg5
VThe Leaning Tower of Pisa (Torre Pendente di Pisa) : Piazza dei ...
p216
sa(dp217
g3
VThere are 294 steps on the leaning tower of Pisa. ... The construction of the tower began in 1173 and continued for almost 200 ... Who Built the Leaning Tower of Pisa?
p218
sg5
VHow Long Did It Take to Build the Leaning Tower of Pisa? - Ask Jeeves
p219
sa(dp220
g3
VBells ring out as tourists once again climb the leaning Tower of Pisa, after an 11-year operation ... developed a tilt almost from the start because it was built on ...
p221
sg5
VBBC News | EUROPE | Pisa's leaning tower reopens
p222
sa(dp223
g3
VLeaning Tower of Pisa, ... the tower began leaning to the southeast soon after the onset of ... N 43 43 23 E 10 23 47 in Pisa, Tuscany, Italy Inscription Year: ...
p224
sg5
VLeaning Tower of Pisa, Italy | World Greatest Sites
p225
sa(dp226
g3
VConstruction on the Leaning Tower of Pisa began in A.D. 1173, but its legacy wasn't complete for another 779 years when the Leaning Tower ... Built by Digital ...
p227
sg5
VHistory | Leaning Tower
p228
sa(dp229
g3
VConstruction of leaning tower of Pisa on the cathedral began in ... which are built at different angles ... 5 m and increases by 1 mm each year.
p230
sg5
VLeaning Tower of Pisa - Online Travel Guide
p231
sa(dp232
g3
V... photos of travel and tours to Pisa and The Leaning Tower Of ... This time of Pisa's history is celebrated each year ... Bottom Of Leaning Tower It Began ...
p233
sg5
VPisa, Italy, & Leaning Tower Of Pisa, Travels & Tours Pictures ...
p234
sa(dp235
g3
V... pg. 72) The Tower was built ... it began to shift. Also like the Tower of Pisa, ... Winter is the most dangerous time of year for the Leaning Tower of Pisa ...
p236
sg5
VFailures - Tower of Pisa
p237
sa(dp238
g3
VThe Leaning Tower of Pisa is a bell tower in Pisa, ... The tower began to lean even during construction, after the first three stories were built, ...
p239
sg5
VLeaning Tower of Pisa, Italy - Location, Facts, Picture - World Map
p240
sa(dp241
g3
VThe Leaning Tower of Pisa no longer leans quite so ... in an entire year," said ... that the tower at Pisa, which was similarly built and on ...
p242
sg5
VLeaning Tower of Pisa is saved from collapse - Telegraph
p243
sa(dp244
g3
VThe Leaning Tower of Pisa. By. Robert W. Shearer. Footer. About; Contact; Activity; Support ...
p245
sg5
VThe Leaning Tower of Pisa | Suite101
p246
sa(dp247
g3
VYes, you need to buy a timed ticket to climb the Leaning Tower of Pisa. No, I can't begin to describe how it feels to walk downhill to climb up the tower, ...
p248
sg5
VPisa, Italy - Why You Should Visit Pisa, Italy
p249
sa(dp250
g3
VConstruction on the Leaning Tower of Pisa began in 1173 and stopped in ... year of war, the tower began to lean and ... power at the time the tower was built.
p251
sg5
VInformation on the Leaning Tower of Pisa in Italy | USA Today
p252
sa(dp253
g3
VA tower is built that's meant to be ... the tower began leaning to the southeast soon after it's construction in 1173 due to a ... Pisa (Leaning Tower of Pisa) ...
p254
sg5
VThe Leaning Tower of Pisa - Pisa - Reviews - TravBuddy
p255
sa(dp256
g3
VTorre pendente di Pisa, ang. Leaning Tower of Pisa) \u2013 jedna ... the tower began leaning to the southeast soon after the onset of ... year 1174 with Bonanno as ...
p257
sg5
VLeaning Tower of Pisa - Nethelper
p258
sa(dp259
g3
VHISTORY OF THE TOWER The Leaning Tower of Pisa is built in ... the tower. There are 293 steps which start on ... tower stands was used once a year to ...
p260
sg5
VLeaning Tower of Pisa - Home Phone & Broadband from eircom Ireland
p261
sa(dp262
g3
VThe History of Pisa . The history of Pisa began 180 years before ... The famous Leaning Tower of Pisa had not yet been constructed, but in this year the ...
p263
sg5
VHistory of Pisa, Italy
p264
sa(dp265
g3
VA half-size replica of Italy's famous Leaning Tower of Pisa, ... A plaque at its base says it was built to honor the outstanding scientist Galileo ... Start here. Use ...
p266
sg5
VLeaning Tower of Niles, Niles, Illinois - Roadside America - Guide ...
p267
sa(dp268
g3
VLeaning Tower of Pisa is one of the forgotten ... When the first three floors were built he began to sink slowly to ... Each year its vertical gradient increased ...
p269
sg5
VThe Leaning Tower of Pisa | Dumage
p270
sa(dp271
g3
V... that is, the Leaning Tower of Pisa, ... The Cathedral or Duomo is a good start. ... The tower was built between 1173 and the end of the 14th century.
p272
sg5
VThe Leaning Tower of Pisa | Field of Miracles of Pisa | Campo dei ...
p273
sa(dp274
g3
VYou can file each list away until it\u2019s time to start planning your ... less than it had prior to the ten year ... Leaning Tower of Pisa on your ...
p275
sg5
VFun Facts About Italy - The Leaning Tower of Pisa
p276
sa(dp277
g3
V... Italy's Leaning Tower of Pisa reopens after a team of experts spent 11 years and $ ... the tower's foundation began to sink ... In the year before its ...
p278
sg5
VLeaning Tower of Pisa reopens \u2014 History.com This Day in History ...
p279
sa(dp280
g3
VReview of the Leaning Tower in Pisa, Italy. What to see, ... The tower was built to house the bells for the lovely cathedral and construction began in 1173.
p281
sg5
VLeaning Tower of Pisa Review - Tickets, Opening Times & Map | Free ...
p282
sa(dp283
g3
VThe Leaning Tower of Pisa Mike Bartusiewicz, ... Tower was built would not ... \u2022 Main soil extraction began in the year 2000, ...
p284
sg5
VThe Leaning Tower of Pisa - Iowa State University
p285
sa(dp286
g3
VPisa's landmark the Leaning Tower attracts millions of visitors each year. Despite this fact the tower is only part of ... Work began in 1173 and it is believed that ...
p287
sg5
VPisa, Tuscany Region, Italy - The Leaning Tower Of Pisa, Duomo ...
p288
sa(dp289
g3
VThe crack in the base below the 2,000-year-old arena may explain why the north and ... Will the Leaning Tower of Pisa ... which should begin in ...
p290
sg5
VLike the Tower of Pisa, Rome's Colosseum is starting to lean | Fox ...
p291
sa(dp292
g3
VThe Leaning Tower of Pisa is a free standing bell ... The Tower Of Pisa was built over a period spanning from 1173 ... if the tower did fall next year do you know ...
p293
sg5
VLeaning Tower of Pisa History, Facts & Location \u2013 Italy
p294
sa(dp295
g3
VTo compensate for the tilt of the tower one side of each floor was built taller than the ... Picture of the Leaning Tower of Pisa. ... Every year over 5000 new ...
p296
sg5
VLeaning Tower of Pisa | Pisa Pictures Photos Images & Fotos ...
p297
sa(dp298
g3
VStart of main content. Read on from here or press tab to access the next link. Hotels. ... B&B Pisa Tower is close to Leaning Tower, Cathedral of Pisa, ...
p299
sg5
VB&B Pisa Tower - Pisa - Hotels.com
p300
sa(dp301
g3
V2001: Italy's Leaning Tower of Pisa reopens its doors to tourists after a $27 million effort to keep it from tilting so much it might fall over.
p302
sg5
VDec. 15, 2001: Leaning Tower of Pisa Reopens With New Angle
p303
sa.