(lp1
(dp2
S'description'
p3
VThe Church of Jesus Christ of Latter-day Saints ... itself to be a restoration of the church founded by Jesus Christ. ... the Latter-day Saints, and the Mormons.
p4
sS'title'
p5
VThe Church of Jesus Christ of Latter-day Saints - Wikipedia, the ...
p6
sa(dp7
g3
VOfficial website of The Church of Jesus Christ of Latter-day Saints (Mormons). Scriptures, general conference addresses, Church magazines, temple information, stake ...
p8
sg5
VThe Church of Jesus Christ of Latter-day Saints
p9
sa(dp10
g3
VThe Church of Christ was the original name of the Latter Day Saint church founded by ... Mormons. ) Beginning in 1834 ... Church of Jesus Christ of Latter Day Saints ...
p11
sg5
VChurch of Christ (Latter Day Saints) - Wikipedia, the free ...
p12
sa(dp13
g3
VDiscover Mormons who share your personal ... The Church of Jesus Christ of Latter-day Saints is God's one true church on ... Joseph Smith founded the LDS Church.
p14
sg5
VWho founded Mormonism and The Church of Jesus Christ of Latter-day ...
p15
sa(dp16
g3
VWhy is The Church of Jesus Christ of Latter-day Saints called Mormons or Mormonism? ... prior President of The Church of Jesus Christ of Latter-day Saints, ...
p17
sg5
VWhy is The Church of Jesus Christ of Latter-day Saints called ...
p18
sa(dp19
g3
V... clearly shows that it is the same Church, and that it is founded on the ... Mormons; Reflections on the ... The Church of Jesus Christ of Latter-day Saints ...
p20
sg5
VThe Church of Jesus Christ of Latter-day Saints (Mormons or LDS ...
p21
sa(dp22
g3
VThe Church of Jesus Christ of Latter-day Saints is often ... LDS Today - news related to The Church of Jesus Christ of Latter-day Saints Lightplanet: Mormons - over ...
p23
sg5
VThe Church of Jesus Christ of Latter-day Saints - Mormonism, The ...
p24
sa(dp25
g3
VThe Church of Jesus Christ of Latter-Day Saints, ... Latter-day Saints (Mormons) ... members of the Church founded the Territory of Deseret.
p26
sg5
VThe Church of Jesus Christ of Latter-Day Saints - Conservapedia
p27
sa(dp28
g3
VThe Church of Jesus Christ of Latter-day Saints is the official name of the Church established on April ... and members are often called Mormons or Latter-day Saints.
p29
sg5
VChurch of Jesus Christ of Latter-Day Saints, the - The ...
p30
sa(dp31
g3
VIntroduction Latter-day Saints, Church of Jesus Christ of, ... Church of Jesus Christ of, name of the church founded (1830) ... are commonly called Mormons.
p32
sg5
VLatter-day Saints, Church of Jesus Christ of: Introduction ...
p33
sa(dp34
g3
VThis movement was founded by ... Church of Jesus Christ of Latter-day Saints (LDS Church). ... The Church of Jesus Christ of Latter-day Saints (or Mormons) ...
p35
sg5
VThe Church of Jesus Christ of Latter-Day Saints: The Mormons ...
p36
sa(dp37
g3
VMormons in Wisconsin: Baptism ... Church of Jesus Christ of Latter Day Saints Mormon Road and Hwy. 11 Burlington, Wisconsin (800) 862-5667 . One example of our
p38
sg5
VChurch of Jesus Christ of Latter Day Saints - Mormons - Strang
p39
sa(dp40
g3
VChurch of Jesus Christ of Latter-Day Saints. ... whose adherents are known as Latter-day Saints or Mormons, ... In 1830 Smith founded the Church of Christ, ...
p41
sg5
VNew Georgia Encyclopedia: Church of Jesus Christ of Latter-Day Saints
p42
sa(dp43
g3
VThe Mormons are the members of a Christian Millenarian movement, also known as the Church of Jesus Christ of Latter Day Saints
p44
sg5
VThe Church of Jesus Christ of Latter Day Saints: The Mormons ...
p45
sa(dp46
g3
V... is the meeting house for members of The Church of Jesus Christ of Latter-Day Saints; ... church, founded by ... the Mormons believe in God and in His Son Jesus ...
p47
sg5
VThe Church of Jesus Christ of Latter-Day Saints
p48
sa(dp49
g3
V... (Church of Jesus Christ of Latter-Day Saints) are resolute followers of our Lord & Sa ... The Church of Jesus Christ of Latter-day Saints (the Mormons) ...
p50
sg5
VMormons & Christianity: How can members of the Church of Jesus ...
p51
sa(dp52
g3
VOfficial website of The Church of Jesus Christ of Latter-day Saints (Mormons). Scriptures, general conference addresses, Church magazines, temple information, stake ...
p53
sg5
VThe Church of Jesus Christ of Latter-day Saints
p54
sa(dp55
g3
VThe Church of Jesus Christ of Latter-day Saints ... was founded upon an inspired declaration ... of Jesus Christ of Latter-day Saints, LDS, or \u201cMormons\u201d as ...
p56
sg5
VThe Church of Jesus Christ of Latter-day Saints | The Family
p57
sa(dp58
g3
VLatter-day Saints, Church of Jesus Christ of ... Founding of the Church. The history of the Mormons began with ... itself as the successor of the church founded by ...
p59
sg5
VLatter-day Saints, Church of Jesus Christ of definition of Latter ...
p60
sa(dp61
g3
VThe members of the Church of Jesus Christ of Latter-day Saints (Mormons) ... Jesus Christ founded the Church and restored it through Joseph Smith Jr. (B) ...
p62
sg5
VThe members of the Church of Jesus Christ of Latter-day Saints ...
p63
sa(dp64
g3
VThe LDS Restorationist churches including The Church of Jesus Christ of Latter-day Saints ... founded in 1830. The Church of Christ was ... to as "Mormons " by the ...
p65
sg5
VThe LDS Restorationist movement, including The Church of Jesus ...
p66
sa(dp67
g3
VWho founded the Mormons church? God ... The Church of Jesus Christ of Latter-day Saints (the correct name for what is nicknamed the Mormon. Related topics:
p68
sg5
VWho founded the Mormon Church - The Q&A wiki
p69
sa(dp70
g3
VThe socially and politically conservative Church of Jesus Christ of Latter-day Saints ... Church, queer Mormons ... the Latter Day Saint Movement founded ...
p71
sg5
VChurch of Jesus Christ of Latter-day Saints (Mormons)
p72
sa(dp73
g3
VMormonism, Mormon, The Church of Jesus Christ of Latter-day Saints is not Christian. It is a false religion. ... Hinckley says Mormons believe in a different Jesus.
p74
sg5
VMormonism, LDS, Church of Jesus Christ of Latter-day saints ...
p75
sa(dp76
g3
VLDS Information About The Church of Jesus Christ of Latter-day Saints, Mormon Resources, LDS Life, Scriptures, and LDS Church Beliefs. ... What Do Mormons Believe?
p77
sg5
VLDS - Church of Jesus Christ of Latter-day Saints - Mormons - LDS ...
p78
sa(dp79
g3
VMormons first arrived in Texas in November of 1845 when Lyman Wight, along with 150 other Church members, founded ... Church of Jesus Christ of Latter-day Saints, ...
p80
sg5
VProfile of The Church of Jesus Christ of Latter-day Saints in Texas
p81
sa(dp82
g3
VMormons: The Church of Christ, ... So, also, when Jesus said, "I will build my church; ... LDS Latter Day Saints (main line Mormons)
p83
sg5
VMormons: The Church of Christ, Temple Lot 1830
p84
sa(dp85
g3
VThe Church of Jesus Christ of Latter-day Saints ... Members of the church, who are often called Mormons, ... The church was founded by Joseph Smith in 1830 in upstate ...
p86
sg5
VThe Church of Jesus Christ of Latter-day Saints - Simple English ...
p87
sa(dp88
g3
VThe Church of Jesus Christ of Latter-day Saints, ... by the LDS church. Mormons are counseled ... of the church founded by Jesus Christ and the sole ...
p89
sg5
VChristianity: Details about 'Church Of Jesus Christ Of Latter Day ...
p90
sa(dp91
g3
VThe Fundamentalist Church of Jesus Christ of Latter Day Saints ... was founded in 1935 by two Mormons who had been excommunicated from The Church of Jesus Christ ...
p92
sg5
VTHE FUNDAMENTALIST CHURCH OF JESUS CHRIST OF LATTER DAY SAINTS
p93
sa(dp94
g3
V... The Truth Behind the Church of Jesus Christ Latter Day Saints. ... Founded in 1830, ... indoctrinated Mormons are kept so busy with church work; ...
p95
sg5
VMormonism - The Truth Behind the Church of Jesus Christ Latter Day ...
p96
sa(dp97
g3
V... there are more than 5 million Mormons. The church is headquartered in Salt Lake City. ... The Church of Jesus Christ of Latter-day Saints was founded by Joseph ...
p98
sg5
VWho Are the Mormons? Beliefs and history of Latter-day Saints ...
p99
sa(dp100
g3
VIt was founded by Joseph Smith, Jr ... Most people do not know us as "Latter-day Saints," but as "Mormons," a ... So remember that it's The Church of Jesus Christ of ...
p101
sg5
VMormons and Mormon Beliefs: An Introduction to The Church of Jesus ...
p102
sa(dp103
g3
VJesus Christ is central to The Church of Jesus Christ of Latter-day Saints, which bears His name. JesusChrist.lds.org is an official Web site of The Church of Jesus ...
p104
sg5
VJesus Christ, The Son of God
p105
sa(dp106
g3
VThe Church of Jesus Christ of Latter-day Saints (the Mormons): Why are Mormons secretive about their religion?
p107
sg5
VThe Church of Jesus Christ of Latter-day Saints (the Mormons): Why ...
p108
sa(dp109
g3
VThe Church Of Jesus Christ Of Latter-day Saints is a Church of Jesus Christ of Latter Day ... Year Founded: Bible ... Mormons are united by a commitment to Jesus ...
p110
sg5
VThe Church Of Jesus Christ Of Latter-day Saints Church of Jesus ...
p111
sa(dp112
g3
VThe Church of Jesus Christ of Latter Day Saints, ... should the Mormons be forced to abandon their ... Bennett also founded a Strangite fraternal society known ...
p113
sg5
VChristianity / the church of jesus christ of latter-day saints ...
p114
sa(dp115
g3
VFounded in Fayette, ... Another Testament of Jesus Christ (hence the nickname \u201cMormons\u201d), ... Church of Jesus Christ of Latter-day Saints.
p116
sg5
VChurch of Jesus Christ of Latter-day Saints - Encyclopedia of Arkansas
p117
sa(dp118
g3
VReorganized Church of Jesus Christ of Latter Day Saints. ... of Latter-day Saints (commonly called the Mormons). ... founded the precursor to the Church of Christ ...
p119
sg5
VReorganized Church of Jesus Christ of Latter Day Saints
p120
sa(dp121
g3
VChurch Of Jesus Christ Of Latter-day Saints is a Church of Jesus Christ Of Latter Day ... Year Founded: Bible ... Mormons are united by a commitment to Jesus ...
p122
sg5
VChurch Of Jesus Christ Of Latter-day Saints Church of Jesus Christ ...
p123
sa(dp124
g3
VMormons at a glance. The Church of Jesus Christ of Latter-day Saints was founded in 19th century America and has 13.5 million members world-wide (LDS 2008 Statistical ...
p125
sg5
VBBC - Religions - Mormon: Mormons at a glance
p126
sa(dp127
g3
VIf you know very little or a lot about this church this show ... known also as Jesus Christ of Latter Day Saints and Mormons. ... He has founded and run small ...
p128
sg5
VBACKYARD BEREAN: Jesus Christ of Latter Day Saints-MORMONISM 11/06 ...
p129
sa(dp130
g3
VMormons in Wisconsin: Baptism ... Church of Jesus Christ of Latter Day Saints Mormon Road and Hwy. 11 Burlington, Wisconsin (800) 862-5667 . One example of our
p131
sg5
VChurch of Jesus Christ of Latter Day Saints - Mormons - Scriptures
p132
sa(dp133
g3
VTHE MORMONS (The Church of Jesus Christ of Latter-day Saints) Hebrews 1:1-2 God, who at various times and in different ways spoke in time past to the fathers by ...
p134
sg5
VThe Church of Jesus Christ of Latter-day Saints or Mormons
p135
sa(dp136
g3
VMembers of the Church of Jesus Christ of Latter-day Saints (Mormons) ... was founded as a church outpost on the Spanish Trail leading to southern California.
p137
sg5
VChurch of Jesus Christ of Latter-day Saints
p138
sa(dp139
g3
VThe Church of Jesus Christ of Latter-day Saints was founded in 19th ... The Church of Jesus Christ of Latter-Day Saints; Teachings of Jesus Christ; All About Mormons;
p140
sg5
VBBC - Religion: Mormonism
p141
sa(dp142
g3
V3 Church of Jesus Christ of Latter-day Saints (Mormon Church) Companies in Rochester, New York. ... Church of Jesus Christ of Latter Day Saints Mormons;
p143
sg5
VRochester, NY Church of Jesus Christ of Latter-day Saints (Mormon ...
p144
sa(dp145
g3
VChurch of Jesus Christ of Latter-Day Saints: ... For devout Mormons, the name of The Church of Jesus Christ of Latter-day Saints results from divine revelation, ...
p146
sg5
VThe Church of Jesus Christ of Latter Day Saints: Origins of the name
p147
sa(dp148
g3
VThe Church of Jesus Christ of Latter Day Saints, Christ, love, truth, ... JFK on The History of the Church of Jesus Christ of Latter Day Saints (Mormons)
p149
sg5
VJFK on The History of the Church of Jesus Christ of Latter Day ...
p150
sa(dp151
g3
VThe Church of Jesus Christ of Latter-day Saints (LDS) was founded by Joseph Smith, Jr., in 1830. LDS members are often referred to as Mormons, a nickname taken from ...
p152
sg5
VChurch of Jesus Christ of Latter-Day Saints : The Humane Society ...
p153
sa(dp154
g3
VThe Church of Jesus Christ of Latter-day Saints (LDS) was founded by Joseph Smith, Jr., in 1830. LDS members are often referred to as Mormons, a nickname taken from ...
p155
sg5
VChurch of Jesus Christ of Latter-Day Saints : The Humane Society ...
p156
sa(dp157
g3
V2 Church of Jesus Christ of Latter-day Saints (Mormon Church) Companies in Murrieta, California. ... Church of Jesus Christ of Latter Day Saints Mormons;
p158
sg5
VMurrieta, CA Church of Jesus Christ of Latter-day Saints (Mormon ...
p159
sa(dp160
g3
VThe Church of Jesus Christ of Latter-day Saints is a Christian ... What supplies did the Mormons use? ... Who founded the church of Jesus Christ of latter day ...
p161
sg5
VWho founded the church of Jesus Christ - The Q&A wiki
p162
sa(dp163
g3
VMembers of The Church of Jesus Christ of Latter-day Saints ... God still speaks to humankind. Mormons believe in the Holy Bible, ... which was founded in 1842.
p164
sg5
VWho are the Mormons? - LDS News | Mormon News - Official Newsroom ...
p165
sa(dp166
g3
V"Mormon" is an informal name for "Church of Jesus Christ of Latter-day Saints" ... Then in 1847 a group of Latter-day Saints (Mormons) founded Salt Lake City.
p167
sg5
VThe Mormons, (Church of Latter Day saints) or Church of Latter Day ...
p168
sa(dp169
g3
VMormonism - The Church of Jesus Christ of Latter-Day Saints. Read about history, theology, ... Mormons & Mormonism: The Church of Jesus Christ of Latter-Day Saints.
p170
sg5
VMormons & Mormonism: The Church of Jesus Christ of Latter-Day Saints
p171
sa(dp172
g3
VChurch of Jesus Christ of Latter-Day Saints - church founded by Joseph Smith in ... Mormon Church, Mormons. ... by the Church of Jesus Christ of Latter-day Saints ...
p173
sg5
VChurch of Jesus Christ of Latter-day Saints - definition of Church ...
p174
sa(dp175
g3
VAlso called the Church of Jesus Christ of Latter-Day Saints. ... Mormons (Also called the Church of Jesus Christ of Latter-Day Saints.) ... several towns founded, ...
p176
sg5
VMormons - NEW ADVENT: Home
p177
sa(dp178
g3
VChurch of Jesus Christ of Latter Day Saints (Mormons)claim to be the only true church of Jesus Christ. The mere claim should make one to be skeptical, since Jesus ...
p179
sg5
VChurch of Jesus Christ of Latter Day Saints (Mormons)
p180
sa(dp181
g3
VChurch of Jesus Christ of Latter-day Saints Museum of Church ... of Latter-day Saints has the shortest history. Founded on ... of the Mormons throughout ...
p182
sg5
VChurch of Jesus Christ of Latter-day Saints Museum of Church ...
p183
sa(dp184
g3
VWhat Latter-day Saints (Mormons) Believe Central tenets of this faith, ... More on the Church of Jesus Christ of Latter-day Saints. Mormon Section; Mormon Discussions
p185
sg5
VWhat Latter-day Saints (Mormons) Believe - Beliefnet.com
p186
sa(dp187
g3
VMormons believe that their church is "the only true and living ... declared that baptisms in the Church of Jesus Christ of Latter-day Saints are "not the ...
p188
sg5
VMormon Church : Apologetics research resources
p189
sa(dp190
g3
V... The Church of Jesus Christ of Latter-day Saints was founded in 1830 ... The Church of Jesus Christ of Latter-day Saints. ... Mormons Worship the Lord Jesus Christ.
p191
sg5
VChurch Of Jesus Christ Of Latter-day Saints | Hartford Mormon Temple
p192
sa(dp193
g3
V... on the big events of The Church of Jesus Christ of Latter-day Saints and its people in the year ... Mormons in Italy rejoice: Church granted country's 'official ...
p194
sg5
VTimeline: The Church of Jesus Christ of Latter-day Saints in 2012
p195
sa(dp196
g3
VWould there be \u201cdry\u201d state dinners, since faithful Mormons don\u2019t do alcohol? ... Utah, member of The Church of Jesus Christ of Latter-day Saints, ...
p197
sg5
VChurch of Jesus Christ of Latter-day Saints \u2013 CNN Belief Blog ...
p198
sa(dp199
g3
VJesus Christ & Joseph Smith ... History of Latter Day Saints / LDS / Church of Jesus Christ / Mormons ... Latter Day Saints founded by Freemsons by ...
p200
sg5
VJesus Christ & Joseph Smith - History of Latter Day Saints / LDS ...
p201
sa(dp202
g3
VThe rise and expansion of the Church of Jesus Christ of Latter-day Saints, or the Mormons, constitute a unique chapter in the study of world religions.
p203
sg5
VThe Church of Jesus Christ of Latter-day Saints (Mormons) - Eileen ...
p204
sa(dp205
g3
VPlease Note: \u201cChurch of The Latter Rain\u201d is a non-denominational, ... We are not affiliated with \u201cThe Church of Jesus Christ Latter Day Saints\u201d (Mormons).
p206
sg5
VChurch of The Latter Rain
p207
sa(dp208
g3
VCHURCH OF JESUS CHRIST OF LATTER-DAY SAINTS. ... to as the Mormons or Latter-day Saints, ... followers founded the Church of Latter-day Saints in ...
p209
sg5
VCHURCH OF JESUS CHRIST OF LATTER-DAY SAINTS
p210
sa(dp211
g3
VBrief Mormon overview of the historical beginnings of The Church of Jesus Christ of Latter-day Saints, ... History Of The Mormons - Church Of Jesus Christ Of Latter ...
p212
sg5
VHistory Of The Mormons - Church Of Jesus Christ Of Latter-Day Saints
p213
sa(dp214
g3
VHistory Of The Church Of Jesus Christ Of Latter-day Saints ... where they founded Salt ... and transgendered Mormons, some Church members have formed a ...
p215
sg5
VHistory Of The Church Of Jesus Christ Of Latter-day Saints
p216
sa(dp217
g3
VOther Mormons have prophets that are like fig trees, that do not ... Church of Jesus Christ of Latter Day Saints Mormon Road and Hwy. 11 Burlington, Wisconsin
p218
sg5
VChurch of Jesus Christ of Latter Day Saints - Mormons - Prophets
p219
sa(dp220
g3
VMormons in Wisconsin: Baptism ... Church of Jesus Christ of Latter Day Saints Mormon Road and Hwy. 11 Burlington, Wisconsin (800) 862-5667 . One example of our
p221
sg5
VChurch of Jesus Christ of Latter Day Saints
p222
sa(dp223
g3
VThe Church of Jesus Christ of Latter-day Saints is a religious ... where the Church has had significant influence since Mormons founded it in 1847 after gathering ...
p224
sg5
VChurch of Jesus Christ of Latter-day Saints - Issuepedia
p225
sa(dp226
g3
VThe Church of Jesus Christ of Latter-day Saints ... Mormons embrace all truth, and believe that many Christian denominations share true doctrines in common.
p227
sg5
VThe Church of Jesus Christ of Latter-day Saints
p228
sa(dp229
g3
VCategory: Church of Jesus Christ of Latter-day Saints; Title: The Mormons
p230
sg5
VThe Mormons :: Church of Jesus Christ of Latter-day Saints
p231
sa(dp232
g3
V... of Mormonism or Church of Jesus Christ of Latter-Day Saints. ... followers or Mormons or Latter Day Saints. Mormonism was founded by ... Mormons respect ...
p233
sg5
VRELIGION INFO - Mormonism (Church of Jesus Christ of Latter-Day ...
p234
sa(dp235
g3
VChurch of Jesus Christ of Latter-day Saints. ... successor of the church founded ... also referred to as "Latter Day Saints" and "Mormons" and because ...
p236
sg5
VChurch of Jesus Christ of Latter-day Saints
p237
sa(dp238
g3
VMormons believe in God, ... The Church of Jesus Christ of Latter-day Saints: Newsroom; Google News: ... Founded. April 6, 1830. Founder.
p239
sg5
VThe Church of Jesus Christ of Latter-day Saints - Mahalo.com
p240
sa(dp241
g3
VA Church founded in 1830 by Joseph Smith, ... The Church of Jesus Christ of Latter-day Saints ... Mormons are members of The Church of Jesus Christ of Latter-day Saints.
p242
sg5
VUrban Dictionary: The Church of Jesus Christ of Latter-day Saints
p243
sa(dp244
g3
V... Church of Jesus Christ of Latter Day Saints, ... Christ of Latter-day Saints. A Church founded in ... Mormons are members of The Church of Jesus Christ ...
p245
sg5
VUrban Dictionary: church of jesus christ of latter day saints
p246
sa(dp247
g3
VSeveral Dissimilarities Between The Church of Jesus Christ of Latter Day Saints (LDS) ... symbolizes Jesus' death, while Mormons worship the risen Christ.
p248
sg5
VChurch of Jesus Christ of Latter Day Saints and the Church of God
p249
sa(dp250
g3
V... key beliefs of The Church of Jesus Christ of Latter Day Saints ... Latter Day Saints (Mormons) ... of Jesus Christ of Latter Day Saints was founded by Joseph ...
p251
sg5
VLatter Day Saints (Mormons): Key facts | That Religious Studies ...
p252
sa(dp253
g3
VQuestion: "Why do Mormons refer to themselves as Latter Day Saints?" ... an organization formed and was named The Church of Jesus Christ of Latter Day Saints.
p254
sg5
VWhy do Mormons refer to themselves as Latter Day Saints?
p255
sa(dp256
g3
V... The Church of Jesus Christ of the Latter Day Saints ... Christianity is founded by Jesus who ... Christ of the Latter Day Saints (Mormons), since the church was ...
p257
sg5
VMormons \u2013 The Church of Jesus Christ of the Latter Day Saints
p258
sa(dp259
g3
VThe Family History Library of the Church of Jesus Christ of Latter-day Saints Address The Family History Library of the Church of Jesus Christ of Latter-day ...
p260
sg5
VThe Family History Library of the Church of Jesus Christ of Latter ...
p261
sa(dp262
g3
VMormons on a mission: the Church of Jesus Christ ... of the Latter-day Saints. Founded by ... Church of Jesus Christ of Latter-day Saints ...
p263
sg5
VMormons on a mission: the Church of Jesus Christ of Latter-day ...
p264
sa(dp265
g3
VThe Reorganized Church of Jesus Christ of Latter Day Saints ... Church of Jesus Christ of Latter-day Saints (Mormons) ... States was founded as a ...
p266
sg5
VReorganized Church of Jesus Christ of Latter Day Saints | Roger ...
p267
sa(dp268
g3
VThe Church of Jesus Christ of Latter-day Saints ... The church was legally founded on ... about The Church of Jesus Christ of Latter-day Saints (Mormons): ...
p269
sg5
VChurch of Jesus Christ of Latter-day Saints
p270
sa(dp271
g3
VWhat do Mormons believe? Are Mormons Christians? ... This website is not owned by or affiliated with The Church of Jesus Christ of Latter-day Saints ...
p272
sg5
VMormonism - Basic Mormon Beliefs
p273
sa(dp274
g3
VThe Church of Jesus Christ of Latter-day Saints is the official ... is founded in identical ... by many Mormons as the true earthy deity. JESUS CHRIST ...
p275
sg5
VWhy Mormonism (The Church of Jesus Christ of Latter-Day Saints) IS ...
p276
sa(dp277
g3
VWorld Religions - Mormonism. Mormonism What do the Mormons believe? The Mormon Church, also called the Church of Jesus Christ of Latter Day Saints (LDS) was founded ...
p278
sg5
VWorld Religions Forum - Faith of Choice - The Church of Jesus ...
p279
sa(dp280
g3
VThe Church of Jesus Christ of Latter-day Saints ... "How can Mormons claim to believe in Christ if they are not represented by the cross, ...
p281
sg5
VThe Church of Jesus Christ of Latter-day Saints (Mormon ...
p282
sa(dp283
g3
VWhile Mormons worship Jesus Christ, ... The specific doctrinal differences that are cited to condemn the Church of Jesus Christ of Latter-day Saints as a cult would ...
p284
sg5
VLDS FAQ: Do Latter-day Saints Belong to a Cult? The Mormon Cult ...
p285
sa(dp286
g3
VThe official history website of The Church of Jesus Christ of Latter-day Saints
p287
sg5
VChurch History
p288
sa(dp289
g3
VThis is the meetinghouse for members of The Church of Jesus Christ of Latter-day Saints (commonly known as Mormons) in the New Canaan area. The history of Mormons in ...
p290
sg5
VChurch of Jesus Christ of Latter Day Saints \u2014 New Canaan Patch ...
p291
sa(dp292
g3
VOn October 19th, 2011, the Christian Post web site ran Dan Delzell\u2019s essay, \u201cThe Church of Joseph Smith of Latter-day Saints. The original article ...
p293
sg5
VA Reply to: \u2018The Church of Joseph Smith of Latter-day Saints ...
p294
sa(dp295
g3
VThe Church of Jesus Christ of Latter-day Saints is a Christian primitivist church that considers itself to be a restoration of the church founded by Jesus Christ.
p296
sg5
VLatter-day Saint | Facebook
p297
sa(dp298
g3
VThe Church of Jesus Christ of Latter-day Saints began in Michigan in the 1830s. It did not have an organized presence in the state from the late 1850s into the 1870s.
p299
sg5
VThe Church of Jesus Christ of Latter-day Saints in Michigan ...
p300
sa(dp301
g3
VLearn about the Mormon Church (The Church of Jesus Christ of Latter-day Saints) what Mormons believe, and Mormonism doctrine
p302
sg5
VMormon Beliefs and Mormon Church Doctrine
p303
sa.