(lp1
(dp2
S'description'
p3
VExplore the pyramids of ancient Egypt through diagrams, photos, and facts; plus get related links, kids content, ... The largest pyramid ever built, ...
p4
sS'title'
p5
VNational Geographic: Egypt--Great Pyramid of Khufu at Giza
p6
sa(dp7
g3
VThe Egyptian pyramids are ancient pyramid-shaped masonry structures located in ... Several of the Giza pyramids are counted among the largest structures ever built.
p8
sg5
VEgyptian pyramids - Wikipedia, the free encyclopedia
p9
sa(dp10
g3
VThese are the largest and sturdiest pyramids that were ever built in ancient Egypt. The first and largest pyramid was built for ... the Giza pyramids were built.
p11
sg5
VThe Giza pyramids - Beit el-Wali cast
p12
sa(dp13
g3
VSo in the end, after reviewing all the biggest pyramids the Great Pyramid of Khufu remains the largest pyramid ever built. Explore Egypt;
p14
sg5
V8 Largest Pyramids in the World | Touropia
p15
sa(dp16
g3
VPyramids have been built by civilizations in ... The largest Egyptian pyramids are the ... This pyramid is considered the largest monument ever constructed ...
p17
sg5
VPyramid - Wikipedia, the free encyclopedia
p18
sa(dp19
g3
VThe Great Pyramid is the largest of all the pyramids, ... was the first pyramid ever built. ... and is the third-largest of the Egyptian pyramids behind the Great ...
p20
sg5
VWorld's Top Wonders
p21
sa(dp22
g3
VWhen you hear the word, pyramid, you probably think of the ancient Egyptian burial sites along the Nile River. Other cultures built pyramids as well, including ...
p23
sg5
VWhere Is the Biggest Pyramid in the World? | eHow
p24
sa(dp25
g3
VThey planned a large pyramid- the largest one ever built in ancient Egypt. The outlines of the pyramid were measured and marked in the desert sand.
p26
sg5
VPyramid
p27
sa(dp28
g3
VEgypt's pyramids and temples serve as a lasting reminder of ... which historians consider the first true pyramid. The largest pyramids ever built are the 4th ...
p29
sg5
VPyramids & Temples of Egypt | USA Today
p30
sa(dp31
g3
VA pictorial Guide for younger viewers to demonstrate why the Ancient Egyptians built their pyramids. ... It is also the second largest pyramid ever built in Egypt.
p32
sg5
VThe Pyramids of Egypt - Astarte Resources
p33
sa(dp34
g3
VThis is believed to be the first pyramid ever built in Egypt. ... built the largest of all the pyramids, on the Giza Plateau, north of Saqqara and 15 km ...
p35
sg5
VThe Pyramids of Ancient Egypt - Answers in Genesis
p36
sa(dp37
g3
VThe first of these, the Great Pyramid, is the largest ever built. It ... At least 80 royal pyramids have been found in Egypt, ...
p38
sg5
VEgypt Ancient, PYRAMIDS - World History International: World ...
p39
sa(dp40
g3
VThe Great Pyramid of Giza is the biggest pyramid ever made and also one of the biggest buildings ever. It stands with some other pyramids in the area known as the ...
p41
sg5
Vh2g2 - The Great Pyramid, Giza, Egypt
p42
sa(dp43
g3
VWe all have heard a lot about Egyptian Pyramids and ... equaled amongst the largest constructions ever ... Nile were built for Khufu\u2019s wives. Pyramid of ...
p44
sg5
VPyramids and Sphinx of Giza in Egypt : Boom Visits
p45
sa(dp46
g3
VThe ancient Egyptians built pyramids as tombs for pharaohs and their queens. Ancient Egyptian pyramids are among the largest structures ever built.
p47
sg5
VEgyptian Pyramids - Buzzle
p48
sa(dp49
g3
VLearn everything you\u2019ve ever wanted to know about pyramids with ... Most Ancient Egyptian pyramids were built as ... The world\u2019s largest pyramid by ...
p50
sg5
VFun Pyramid Facts for Kids - Egyptian, Mayan, Aztec, Modern ...
p51
sa(dp52
g3
VThe Egyptian pyramids are ancient pyramid-shaped ... Several of the Giza pyramids are counted among the largest structures ever built. The Pyramid of Khufu ...
p53
sg5
VEgyptian pyramids | AMAZING PLACES TO SEE
p54
sa(dp55
g3
VLargest Of The Egyptian Pyramids No trip to Egypt ... tallest man-made structure to ever exist and it held ... Build The Pyramids; Egyptian Pyramid ...
p56
sg5
VLargest Of The Egyptian Pyramids - World travel guides, travel ...
p57
sa(dp58
g3
VThe first pyramid was built by King Djoser during Egypt's ... The largest and most well-known pyramids in Egypt are the ... and has no history what so ever, ...
p59
sg5
VBiggest Mystery Of Human History: How Were The Egyptian Pyramids ...
p60
sa(dp61
g3
VThe Egyptian pyramids are ancient pyramid-shaped ... Several of the Giza pyramids are counted among the largest structures ever built. The Pyramid of Khufu at ...
p62
sg5
VEgypt Pyramids | Famous Buildings
p63
sa(dp64
g3
VAn Encyclopedia article about Egyptian pyramids - Academic Kids ... The pyramids of Egypt, some of which are among the largest man-made constructions ever conceived ...
p65
sg5
VEgyptian pyramids - Academic Kids
p66
sa(dp67
g3
V... though not much larger than most pyramids, is in fact the largest pyramid ever built. ... the pyramids are a symbol of Egypt and its rich history and culture.
p68
sg5
VThe Great Pyramid of Giza - www.personal.psu.edu
p69
sa(dp70
g3
VThe ancient pyramids were built without modern tools and machinery. ... It is also the largest and grandest pyramid ever built. It is 479 feet tall (146 meters).
p71
sg5
VDiscovery Kids :: Tell Me - Which is the largest pyramid in the world?
p72
sa(dp73
g3
VWhat was the largest pyramids ever built? The ... See the largest pyramid ever built, ... Not Egypt! What was the largest battleship ever built?
p74
sg5
VWhat is the largest pyramid ever built - The Q&A wiki
p75
sa(dp76
g3
VThe Pyramids of Egypt are among the largest structures ever built and are one of the most important examples of Ancient Egyptian civilization. Most were built during ...
p77
sg5
VEgyptian pyramids - Simple English Wikipedia, the free encyclopedia
p78
sa(dp79
g3
VThe Egyptian pyramids are ancient pyramid-shaped ... Several of the Giza pyramids are counted among the largest structures ever built.The Pyramid of ...
p80
sg5
VWorld Tour's & Travel: Egyptian Pyramids
p81
sa(dp82
g3
VEgypt has well over a lot of pyramids, ... The captial of Egypt and the largest city in Africa, ... Pyramid of Egypt How the pyramdis we built .
p83
sg5
VEgyptian Pyramids | Great Pyramid of Egypt at Giza, Saqqara
p84
sa(dp85
g3
VThe pyramids were built for the rulers of Egypt. ... The Pyramid of Khufu at Giza is said to be the largest Egyptian pyramid ever made in the history.
p86
sg5
VPyramids of Giza, Egypt - YouTube
p87
sa(dp88
g3
VJP Houdin. 2011 must see.PART -1- "How were the Great Pyramids of Egypt built ... The Great Pyramid of Giza is the largest pyramid ever built, ...
p89
sg5
VPyramids Of The Old Kingdom - Ancient Egypt on a Comparative Method
p90
sa(dp91
g3
VThe 3 best Egyptian pyramids are the Pyramids of Giza. ... The Pyramid of Khufu at Giza is said to be the largest Egyptian pyramid ever made in the history.
p92
sg5
VThe Pyramids of Giza - Famous places - \u039b\u03bf\u03c5\u03c3\u03b9\u03ba\u03ac \u03c4\u03bf ...
p93
sa(dp94
g3
VEgyptian pyramids. infoplease. Atlas; Encyclopedia; Dictionary; Thesaurus; ... was designated one of the Seven Wonders of the World and is the largest pyramid ever built.
p95
sg5
Vpyramid, structure | Infoplease.com
p96
sa(dp97
g3
VWho Built the Pyramids of Egypt? ... several of which are still among the largest structures ever built, ... The \u201clast\u201d pyramid built used a special technique ...
p98
sg5
VWho Built the Egyptian Pyramids? Giza Pyramid Builders
p99
sa(dp100
g3
VThe pyramids of Egypt, among the largest ... is the largest pyramid in Egypt and was the tallest man-made structure ... society ever to experience ...
p101
sg5
VWho really built the pyramids? - Yahoo! Answers
p102
sa(dp103
g3
V(The names refer to which king it was made for.) ... Are the pyramids at Giza the biggest pyramids ever? They are the biggest in Egypt Is the pyramid of Giza the ...
p104
sg5
VIs Giza the biggest pyramid - The Q&A wiki
p105
sa(dp106
g3
VThere are about eighty pyramids known today from ancient Egypt. ... They planned a large pyramid- the largest one ever built in ancient Egypt.
p107
sg5
Vpyramids - Miss Egypt Travel
p108
sa(dp109
g3
VThe pyramids were built by Egyptian farmers during the flood season. ... The largest pyramid was built for King Khufu. It is the largest stone building ever built.
p110
sg5
VAncient Egypt: Pyramids - The Ruth Patrick Science Education Center
p111
sa(dp112
g3
VJust how many Egyptian Pyramids are there? ... this is the largest pyramid ever built. Until the Eiffel Tower was constructed in Paris, ...
p113
sg5
VEgyptian Pyramids - Which is the Most Famous?
p114
sa(dp115
g3
VThe Pyramids of Egypt were built as tombs for Kings. ... The largest pyramids of Egypt, The Great Pyramid of Khufu, ... The Funniest Pictures Ever. ...
p116
sg5
VThe Great Pyramids of Giza, Egypt - Woondu - Best News and Funny ...
p117
sa(dp118
g3
VIt is the second biggest Pyramid so far discovered in Egypt. ... the pyramid of Menkaura is one of the finest built pyramids ever. It shows extensive use of ...
p119
sg5
VPyramids of Giza | Egypt.net.in - All about Egypt
p120
sa(dp121
g3
VSeveral of the Giza pyramids are counted among the largest structures ever built. The Pyramid of Khufu at Giza is ... All Egyptian pyramids were built on the west ...
p122
sg5
V- UFO Casebook Files
p123
sa(dp124
g3
VThe Egyptian pyramids are ancient pyramid-shaped ... Several of the Giza pyramids are counted among the largest structures ever built. The Pyramid of Khufu at ...
p125
sg5
VEgyptian pyramids on Fotopedia
p126
sa(dp127
g3
VThe Egyptian pyramids are ancient pyramid-shaped ... Several of the Giza pyramids are counted among the largest structures ever built.[9] The Pyramid of ...
p128
sg5
VThe Pyramids - YouTube
p129
sa(dp130
g3
VThe Giza pyramids were built during the fourth dynasty by King Khufu who built the biggest pyramid ... Egyptian temples ever ... pyramids of Egypt were built ...
p131
sg5
VPyramids Of Egypt \u2014 Secrets of the great pyramids of Egypt.
p132
sa(dp133
g3
VHence, major pyramids were not built throughout Egypt's ancient history. ... In fact, the first Pyramid we believe that was built in Egypt, that of Djoser, ...
p134
sg5
VEgyptian Pyramids: The Great Pyramids and More
p135
sa(dp136
g3
VThe Pyramids of Egypt are among the largest structures ever built[1] ... his building is the first pyramid ever and he built the first columns in history.
p137
sg5
VYahoo! Answers - Pyramids of egypt?
p138
sa(dp139
g3
VWho built the egyptian pyramids? ... Who built the pyramids depends on which pyramid you want to know ... The largest of these pyramids was built by Khufu.
p140
sg5
VWho built the egyptian pyramids? - Yahoo! Answers
p141
sa(dp142
g3
VWho Built the Pyramids? ... at Giza have you ever once questioned whether humans built the ... that can be seen around every pyramid in Egypt, ...
p143
sg5
VNOVA | Who Built the Pyramids? - PBS: Public Broadcasting Service
p144
sa(dp145
g3
VKing Khufu's great pyramid, is the largest ... built the step pyramids, the first pyramid constructed in a true pyramid shape. The ancient Egyptian pyramids served ...
p146
sg5
VEgyptian Pyramids - ThinkQuest
p147
sa(dp148
g3
VThe First Step Pyramid in Egypt. ... Before the Saqqara pyramid or the Step pyramid was ever built, ... our tour guide explained that the Pharoahs\u2019 pyramids had ...
p149
sg5
VThe Step Pyramid, the First Pyramid Ever Built
p150
sa(dp151
g3
VAbout Egyptian Pyramids. ... It was the largest pyramid ever built at Nuri, and is unique among the Nubian pyramids in having been built in two stages.
p152
sg5
VEgypt: The Nubian Pyramids
p153
sa(dp154
g3
VAbout Egyptian Pyramids. ... It was the largest pyramid ever built at Nuri, and is unique among the Nubian pyramids in having been built in two stages.
p155
sg5
VEgypt: The Nubian Pyramids
p156
sa(dp157
g3
VIf you have ever looked at a picture of the Egyptian pyramids, ... The pyramid of Khufu is the largest ... Four narrow shafts have been built into the pyramid ...
p158
sg5
VThe Pyramids of Giza, Egypt: Pyramids of Khufu, Khafre and Menkaure
p159
sa(dp160
g3
VPyramids of Egypt continue to fascinate and inspire wonder and awe in the minds of not only ... The largest pyramid ever built is the Great Pyramid ...
p161
sg5
VEgyptian Pyramids - a Brief History - Yahoo! Voices - voices.yahoo.com
p162
sa(dp163
g3
VThe Pyramids of Egypt, among the largest constructions ever built, constitute one of the most potent and enduring symbols of Ancient Egyptian civilization.
p164
sg5
VGiza Pyramids map,giza pyramids,egypt pyramids,great pyramid ...
p165
sa(dp166
g3
VTemplate:Hiero. The Pyramids of Egypt are among the largest constructions ever built and constitute one of the most potent and enduring symbols of Ancient Egyptian ...
p167
sg5
VEgyptian Pyramids - 2012 Wiki
p168
sa(dp169
g3
VThe Pyramid of Khufu at Giza is the largest Egyptian pyramid ever built. These pyramids are included as one of the Seven Wonders of the World.
p170
sg5
VThe Pyramids of Giza Pictures, Photos & Facts \u2013 Cairo,
p171
sa(dp172
g3
V... at Giza, near Memphis, Egypt. The Pyramids of Giza, Egypt, built for the ... Called the Great Pyramid, it is the largest of the ... single building ever erected ...
p173
sg5
VThe Great Pyramids of Giza > ENGINEERING.com
p174
sa(dp175
g3
VThe Great Pyramid of Giza is the largest pyramid in Egypt and one of ... To the south of Egypt the Nubians also built pyramids. ... the largest monument ever ...
p176
sg5
VPyramids and Mounds - Crystalinks - Crystalinks Home Page
p177
sa(dp178
g3
V... and links about the pyramids of Giza, Egypt Giza Pyramids : Largest ... The pyramid of Cheops is the largest pyramid in Egypt. ... After being built, ...
p179
sg5
VGiza Pyramids (BiblePlaces.com)
p180
sa(dp181
g3
VThe Egyptian pyramids are ancient pyramid-shaped ... Several of the Giza pyramids are counted among the largest structures ever built. The Pyramid of Khufu at ...
p182
sg5
VPyramid - The Kane Chronicles Wiki
p183
sa(dp184
g3
VThe Egyptian pyramids are ancient pyramid-shaped masonry structures located in ... Several of the Giza pyramids are counted among the largest structures ever built.
p185
sg5
VEgypt Pyramids | Facebook
p186
sa(dp187
g3
VIt was the largest pyramid ever built. It is so large that it can be seen from the moon. ... Altogether there were about 80 pyramids built for kings of Egypt.
p188
sg5
VPyramids - ThinkQuest
p189
sa(dp190
g3
V... Title: The Egyptian Pyramids as a Form of Art. ... and the biggest pyramid. ... in True Pyramid form.King Zoser's pyramid was the first pyramid ever built.
p191
sg5
VThe Egyptian Pyramids as a Form of Art :: Egypt Pyramids
p192
sa(dp193
g3
VThe Pyramids of Egypt are among the largest structures ever built[1] ... unique among Egyptian pyramids. The hill that the pyramid sits atop is not a ...
p194
sg5
VWhy were the pyramids built? - Yahoo!7 Answers
p195
sa(dp196
g3
V... the Great Pyramid, is the largest ever built. ... Pyramids were also built south of Egypt in ancient Nubia (the northern part of today's Sudan), ...
p197
sg5
VPyramids - Egypt Hotel Reservation Centre
p198
sa(dp199
g3
VThe pyramid of Khufu (Cheops), second ruler of the 4th Dynasty, is the largest known pyramid ever built, ... Egyptian Pyramids & the Sphinx at Night; Have Feedback?
p200
sg5
VEgyptian Pyramids & the Sphinx at Night | USA Today
p201
sa(dp202
g3
VThat\u2019s where the largest pyramid ever built emerged. ... i am studing these days about pyramids,now i wish i go to egypt to see these wonders.one day i will ...
p203
sg5
VWorld's highest pyramids - Cheap Vacations, Cheap Flights - Open ...
p204
sa(dp205
g3
VThe oldest known pyramid in Egypt was built around 2630 B.C. at Saqqara, ... The oldest and largest of the three pyramids at Giza, known as the Great Pyramid, ...
p206
sg5
VEgyptian Pyramids - History.com \u2014 History Made Every Day ...
p207
sa(dp208
g3
VNeedless to say it is still one of the most fascinating pieces of architecture ever built by man. The pyramids ... largest Pyramid ... Pyramids; Best Tailor Made ...
p209
sg5
VEgyptian Pyramids & Sphinx - Best of Egypt
p210
sa(dp211
g3
VThe pyramids of Egypt, among the largest constructions ever built by humankind, [The Great Pyramid of Khufu]. Retrieved April 12, 2005.
p212
sg5
VEgyptian pyramids - Who or What is Egyptian pyramids? Find out more
p213
sa(dp214
g3
VThe first large Egyptian pyramid was the Step Pyramid at Saqqara, ... The Great Pyramid of Khufu at Giza is the largest of the ... How were the pyramids built?
p215
sg5
VCULTUREFOCUS: Ancient Egypt. Pyramids of Giza, pictures and history.
p216
sa(dp217
g3
VThe valley of Giza has the three largest pyramids: Pyramid of ... the world\u2019s largest structures ever ... far the largest pyramid in Egypt. Built in ...
p218
sg5
VFacts and information about Pyramids and sphinx - What To Do In Egypt
p219
sa(dp220
g3
VThe Pyramid of Cheops in Egypt is the world's ... River and Why Was the Aswan Dam In Egypt Built? Where Is the World\u2019s Largest ... Ever Really Exist and ...
p221
sg5
VIs the World\u2019s Largest Pyramid in Egypt? | Big Site of Amazing ...
p222
sa(dp223
g3
VThe pyramids of Egypt, some of which are amongst the largest man-made constructions ever conceived, constitute one of the most potent and enduring symbols of Ancient ...
p224
sg5
VEgyptian pyramids - Definition | WordIQ.com
p225
sa(dp226
g3
VSeveral of the Giza pyramids are counted among the largest structures ever built.[4] The Pyramid of Khufu at Giza is ... All Egyptian pyramids were built on the west ...
p227
sg5
VEgyptian pyramids : Egyptian Pyramids - The Pyramid Power
p228
sa(dp229
g3
VThe biggest ancient egyptian pyramid ever built was The Great Pyramid of ... The Sphinx and the Ancient Egyptian Pyramids of Giza are a breathtaking spectacle of ...
p230
sg5
VThe Ancient Pyramids of Egypt and the Mystery of the Sphinx
p231
sa(dp232
g3
V... was designated one of the Seven Wonders of the World and is the largest pyramid ever built. ... Pyramids were built as tombs for Egyptian pharaohs from the ...
p233
sg5
VPyramids Facts, information, pictures | Encyclopedia.com articles ...
p234
sa(dp235
g3
VIt is believed that the Great Pyramid of Giza was built ... largest) pyramids of Egypt are the Pyramids at Giza which are said to be the largest ever built.
p236
sg5
VThe pyramid of giza facts The Real Story of Pyramids and Lates ...
p237
sa(dp238
g3
V... it is the largest and oldest of the pyramids in the Giza pyramid ... and is the largest pyramid ever constructed. ... of the fourth dynasty of Egypt, ...
p239
sg5
VGreat Pyramid of Giza - encyclopedia article - Citizendium
p240
sa(dp241
g3
V... exact manner in which the Egyptian pyramids were built. ... is the largest pyramid. ... items ever discovered on the inside of the Egyptian pyramids came ...
p242
sg5
VAncient Egyptian Pyramids
p243
sa(dp244
g3
V... The Pyramids of Egypt are most definitely a ... Being made up of approximately 2.3 ... this was the first ever Pyramid to be constructed and was intended to ...
p245
sg5
VThe Pyramids of Egypt | Egypt View
p246
sa(dp247
g3
VThe Egyptian pyramids are ancient pyramid-shaped masonry structures located in ... Several of the Giza pyramids are counted among the largest structures ever built.[6]
p248
sg5
VGreat Pyramids of Egypt in Al Jizah, Egypt
p249
sa(dp250
g3
VI tried to imagine my first visit to the pyramids of ... I have seen some of the tallest buildings ever built. ... is the tallest and greatest pyramid ever built.
p251
sg5
VThe Pyramids of Giza - Ancient Egypt
p252
sa(dp253
g3
V... (the 3rd largest in Egypt). \u2014 BENT PYRAMID ... them if you are ever in Egypt. ... of King Khufu\u2019s perfect pyramid. Other pyramids had been built ...
p254
sg5
VWhy you should visit the "OTHER" pyramids in Egypt & how.
p255
sa(dp256
g3
VPYRAMIDS IN ANCIENT EGYPT. Stepped pyramid at ... is still one of the largest buildings ever ... is the second largest pyramid by only a few feet. Built in ...
p257
sg5
VPYRAMIDS IN ANCIENT EGYPT - World Topics | Facts and Details
p258
sa(dp259
g3
VThe first series of Nubian pyramids were built at the site of el-Kurru ... the Egyptian edifices: they are built of ... largest pyramid ever built ...
p260
sg5
VThe New Pyramid Age - Philip Coppens.com
p261
sa(dp262
g3
V... the layout for the greatest pyramid ever built. ... pyramid is the largest of the 3 pyramids at ... world that the pyramids of Egypt were built as tombs ...
p263
sg5
VSecrets Of The Pyramids
p264
sa(dp265
g3
VOne of the largest pyramids ever built was the Pyramid of Cheops, in Giza, Egypt. It is thought to have been built around 5,000 years ago. But the question of how it ...
p266
sg5
VHidden Secrets Of The Great Pyramid - JY3502 on HubPages
p267
sa(dp268
g3
V... built the ancient Egyptian pyramids ... built in ancient Egypt is called the Pyramid of Djozer. The best-known pyramids in Egypt are the Giza pyramids and they ...
p269
sg5
VThe Great Pyramid Of Giza Facts - Pyramids in Ancient Egypt
p270
sa(dp271
g3
V... as the largest and most fascinating structures ever constructed Most of these pyramids were actually built in the ... Egypt?s 3rd largest pyramid.
p272
sg5
VThe Exciting Pyramids of Egypt - Free Online Library
p273
sa(dp274
g3
VThe pyramids of Egypt, some of which are among the largest man-made constructions ever conceived , constitute one of the most potent and enduring symbols of Ancient ...
p275
sg5
VEgyptian pyramids - from the 2006 Schools Wikipedia CD
p276
sa(dp277
g3
V... Pyramids of Egypt are among the largest constructions ever built [1] ... known pyramids built in Egypt and ... who is exploring an Egyptian pyramid.
p278
sg5
VPyramids. - Free Online Library - Free News, Magazines, Newspapers ...
p279
sa(dp280
g3
VThe Great Pyramid of Giza is the largest ancient ... that the Giza plateau pyramids were built and utilized by fourth ... Giza Pyramids after sunset, Egypt
p281
sg5
VThe Great Pyramid of Giza, Egypt - Sacred Sites: Places of Peace ...
p282
sa(dp283
g3
VThe Pyramid of Cheops is still the most colossal pyramid ever built. ... His pyramid, the largest of all the pyramids in Egypt ...
p284
sg5
VPyramids of Giza - Dream Travel Agent
p285
sa(dp286
g3
VAlthough this is only the second true pyramid which was ever built, ... pyramid ever built, behind the two largest ... pyramids were deliberately made to ...
p287
sg5
VDahshur Pyramids, Egypt - Flying Kiwi
p288
sa(dp289
g3
V... these monuments ever built. One of the must-know Egyptian pyramids ... Egyptian pyramids is that the biggest of all ... Pyramid: Built under ...
p290
sg5
VEgyptian Pyramids Facts - Buzzle
p291
sa(dp292
g3
VPurpose of the Pyramids Egyptian pyramids served as tombs for kings and queens, ... Pyramids at Giza The largest pyramid ever built, King Khufu's, ...
p293
sg5
Vtrinicenter.com - Who Built the Pyramids and Why?
p294
sa(dp295
g3
V... tombs were made ever larger and stronger, ... It was the largest of the Egyptian pyramids\u2014756 feet (230 m) ... The pyramid was built of 2 1/2-ton ...
p296
sg5
VHowStuffWorks "Pyramids In Egypt"
p297
sa(dp298
g3
Vthe great pyramid in Giza is the largest stone monument ever built it took 2000 men 20 years to build one pyramid upper and lower Egypt each had a ... -pyramids of ...
p299
sg5
VEgyptian Mummies: (egypt)
p300
sa(dp301
g3
VNubia rivaled Egypt in wealth and ... and it is the biggest pyramid ever built at the ... These pyramids were built by the Kushite people of ancient Sudan to house ...
p302
sg5
VNubian Pyramids - HiddenMysteries Information Central
p303
sa.