(lp1
(dp2
S'description'
p3
VUpon his return to Britain, Edward matriculated ... The Prince Edward Antony ... upon Prince Edward's nephew Prince William, when he married Catherine ...
p4
sS'title'
p5
VPrince Edward, Earl of Wessex - Wikipedia, the free encyclopedia
p6
sa(dp7
g3
V... young Edward and his siblings stayed in Britain with their ... God that my eldest son [Edward] will never marry and have ... a Prince: Edward to Mrs Freda ...
p8
sg5
VEdward VIII - Wikipedia, the free encyclopedia
p9
sa(dp10
g3
VPrince Edward to marry ... production company, Ardent Productions and last year presented a series called Crown and Country about the history of Britain.
p11
sg5
VBBC News | UK | Prince Edward to marry
p12
sa(dp13
g3
VOttawa is the start of a 12-day visit to North America which will take in some of the more remote areas of the country such as Prince Edward Island, Yellowknife and ...
p14
sg5
VOttawa is the start of a 12-day visit to North America which will ...
p15
sa(dp16
g3
VPrince Edward married Sophie Rhys-Jones at St George's Chapel in Windsor. At the couple's request, the ceremony was primarily for family and friends and did not ...
p17
sg5
VBBC - History - Prince Edward's wedding (pictures, video, facts ...
p18
sa(dp19
g3
VGreat Britain. Prince Edward. ... Prince Edward, Earl of Wessex ... and they were married at St George\u2019s Chapel, Windsor Castle, ...
p20
sg5
VPrince Edward - British Royal Family History
p21
sa(dp22
g3
VWINDSOR, England (CNN) -- It was a modern day fairy tale -- the prince and the commoner. And one with a happy ending, as Britain's Prince Edward married public ...
p23
sg5
VCNN - Britain's Prince Edward, Sophie Rhys-Jones marry as royals ...
p24
sa(dp25
g3
VAlexandra of Denmark Marries Albert Edward, Prince of ... to Great Britain's Prince of Wales, later King Edward ... Prince of Wales were married at St ...
p26
sg5
VAlexandra of Denmark Marries Albert Edward, Prince of Wales
p27
sa(dp28
g3
V... (Elizabeth Woodville, married Edward ... After the RMA was passed the last prince to marry ... The marriage was never considered legal in Britain, ...
p29
sg5
VShoudnt prince William have to give up his royal title after he ...
p30
sa(dp31
g3
VPrince William has been named Britain's Most Influential Man.The 29-year-old search and rescue pilot - who married Duchess Catherine in April - topped a survey of ...
p32
sg5
VPrince William | Prince William Is Britain's Most Influential Man ...
p33
sa(dp34
g3
VPrince Edward is legally married, ... To our friends in Great Britain.....? Ready to Participate? Get Started! Categories. All Categories. Society & Culture.
p35
sg5
VWill Prince Edward of England bring his "wife" to the Royal ...
p36
sa(dp37
g3
VYet, in order to marry the woman he loved, King Edward was willing to give up the British throne - and he did. ... Prince Edward's Struggle Between Royal and Common
p38
sg5
VKing Edward VIII Abdicated to Marry Mrs. Wallis Simpson
p39
sa(dp40
g3
V... that got Prince Edward to the church on time. Once inside St. George's Chapel, he and his supporters, ... married commoner Sophie Rhys-Jones, ...
p41
sg5
VEdward & Sophie - Weddings, The British Royals, Prince Edward ...
p42
sa(dp43
g3
VYet, for some reason, Prince Edward preferred married women. In 1918, Prince Edward met Mrs ... by the glamor and power of being close to the heir of Britain's ...
p44
sg5
VKing Edward VIII Abdicated for Love - Page 2 - 20th Century History
p45
sa(dp46
g3
VThe marriage of King Edward VII of Great Britain, "Bertie," and Princess Alexandra of Denmark was a happy and popular royal union that produced six children.
p47
sg5
VThe Marriage of King Edward VII of Great Britain | Suite101
p48
sa(dp49
g3
VThey married in 1947, ... Prince Edward and Sophie Rhys-Jones, ... britain; royal family; royal wedding; house of windsor; prince charles;
p50
sg5
VRoyal Wedding - The Royal Marriages - How Royal Marriages Have Fared
p51
sa(dp52
g3
VMeet the women who could bag Britain's last eligible prince. By ... to get married, Prince Harry is Britain's most ... struggling with her son Edward ...
p53
sg5
VWho will marry Prince Harry: The women who could bag Britain's ...
p54
sa(dp55
g3
VEdward VIII abdicated his throne to marry ... These were expectations he did not want. As the Prince ... including Britain's secrets of state. Edward not only ...
p56
sg5
VThe Abdication Of King Edward VIII - Essortment Articles: Free ...
p57
sa(dp58
g3
VWhom did he marry? Edward abdicated the throne ... Whom did he marry? Prince Albert married ... event at the 1972 Munich Olympics where Britain won the ...
p59
sg5
VMake a Royal Match: Match the royal brides and grooms to make the ...
p60
sa(dp61
g3
VFollowing the divorces of his older brothers and sister, there was ample reason for Great Britain's Prince Edward and his girlfriend of six years, commoner Sophie ...
p62
sg5
VGreat Royal Weddings: Prince Edward and Sophie Rhys-Jones
p63
sa(dp64
g3
VLondon, England (CNN)-- Britain's Prince William asked his girlfriend Kate Middleton to marry him, ... (married to Prince Charles' brother, Edward), ...
p65
sg5
VPrince William gives Diana's ring to fiancee Kate Middleton - CNN.com
p66
sa(dp67
g3
VWho did prince edward marry? ChaCha Answer: Not sure I understand the question! ....Prince Edward married Sophie Reece-Jones. If this...
p68
sg5
VWho did prince edward marry? | ChaCha
p69
sa(dp70
g3
VPrince Edward married Sophie Reece-Jones.
p71
sg5
VWho did Prince Edward marry - The Q&A wiki
p72
sa(dp73
g3
VKing Edward VII of Great Britain and his wife Queen Alexandra had six ... Princess Maud of Great Britain married her maternal cousin Prince Carl of Denmark, ...
p74
sg5
VThe Children of King Edward VII of Great Britain | Suite101
p75
sa(dp76
g3
VWho Else Is Getting Married On Prince William & Kate's Big Day? First Posted: 11/29/2010 12:45 pm Updated: 05/25/2011 ...
p77
sg5
VWho Else Is Getting Married On Prince William & Kate's Big Day?
p78
sa(dp79
g3
VPrince Edward has the full name of Edward Anthony Richard Louis and the official title of the Earl of Wessex. ... Married: 1999, to Sophie, Countess of Wessex;
p80
sg5
VPrince Edward | BritishRoyalFamily.com - British Royal Family and ...
p81
sa(dp82
g3
V... the war continued and independence from Britain was not achieved ... and if Edward married against the advice ... when Prince Edward's ...
p83
sg5
VBritish Royal Family History - Frequently Asked Questions
p84
sa(dp85
g3
VBritain's Prince Andrew has hinted he'd like to marry again. The royal - who was married to Sarah Ferguson between 1986 and 1996 - said although there is no romance ...
p86
sg5
VPrince Andrew's marriage hopes - Monsters and Critics
p87
sa(dp88
g3
V... Prince Charles will ... As of 1994, Britain's Marriage ... A small affair compared when compared with the 3,000 guests who attended when Princess Diana married.
p89
sg5
VWhy do Prince Charles and Camilla have permission to marry ...
p90
sa(dp91
g3
V"A friend and I have questioned for some time why the only child of Prince Edward is never shown or brought to public royal ... when her parents married, ...
p92
sg5
VLiving in England: Prince Edward's Daughter
p93
sa(dp94
g3
VFor example, Prince Edward, William's uncle, married PR executive Sophie Rhys-Jones in 1999. ... How is Britain preparing for the royal wedding?
p95
sg5
VPrince William's royal wedding: An instant guide - The Week
p96
sa(dp97
g3
VKing Edward VIII was the eldest child of Britain's King George V and Queen Mary. ... which began when he was Prince of Wales and she was still married to Ernest Simpson.
p98
sg5
VRoyalty.nu - Edward VIII and Wallis Simpson, the Duke and Duchess ...
p99
sa(dp100
g3
VPrince William: Britain's most popular royal weds Kate Middleton. ... heir to the throne of England who today married his girlfriend of eight years, ...
p101
sg5
VPrince William: Britain's most popular royal weds Kate Middleton ...
p102
sa(dp103
g3
V... Britain's Prince William and Kate Middleton leave the wedding of their friends ... (married to Prince Edwardm youngest of the ... Edward VII, George V ...
p104
sg5
VPrince William and Kate Middleton engagement
p105
sa(dp106
g3
V... Royal wedding in Luxembourg as Prince Guillaume marries ... and Britain, which sent Prince Edward, ... prince in Europe to get married.
p107
sg5
VPrince Guillaume marries Countess Stephanie de Lannoy in ...
p108
sa(dp109
g3
VPrince Albert was the husband of Queen Victoria of Britain. He was born as a prince in Germany, and when he married one of the most powerful people on earth he was ...
p110
sg5
VBiography of Prince Albert | Husband of Queen Victoria
p111
sa(dp112
g3
VPrince Andrew and Sarah Ferguson have married at Westminster ... Prince Edward was best man to his 26-year-old brother and Prince Charles read the lesson in a ...
p113
sg5
VBBC ON THIS DAY | 23 | 1986: Prince Andrew weds Sarah Ferguson
p114
sa(dp115
g3
VPrince Edward who is married to Sophie does not appear to have any job. ... or through longer visits to strengthen Britain's diplomatic and economic ...
p116
sg5
VWhat job does Prince edward do? - Yahoo! UK & Ireland Answers
p117
sa(dp118
g3
VBritain's Prince William will reportedly marry in 2012. The prince and long-term girlfriend Kate Middleton, both 27, have an "understanding" that they will walk down ...
p119
sg5
VPrince William And Girlfriend Kate Middleton To Marry In 2012
p120
sa(dp121
g3
V... and Britain\u2019s Prince Edward and his wife, ... The 30-year old hereditary Grand Duke of Luxembourg is the last hereditary Prince in Europe to get married, ...
p122
sg5
VLuxembourg Wedding Pictures: Princess Stephanie and Prince ...
p123
sa(dp124
g3
VVictoria was the only child of Prince Edward ... a German Prince. They married on the 10th February 1840 at the Chapel Royal ... How did Britain change whilst ...
p125
sg5
VQueen Victoria for kids - Woodlands Junior School, Tonbridge, Kent UK
p126
sa(dp127
g3
V... Edward stepped down in 1936 to marry the American ... George V and Edward, prince of ... unemployment and deprivation in Britain during the economic ...
p128
sg5
VBBC - History - Edward VIII
p129
sa(dp130
g3
VPrince Edward is the Queen's youngest son, has the title of Earl of Wessex, is married to Sophie, and has two children, Lady Louise and Viscount Severn.
p131
sg5
VWho is Prince Edward - The Q&A wiki
p132
sa(dp133
g3
V... Prince Philip married the heiress ... HRH The Prince Edward, Earl of ... The Duke is particularly known in Britain for occasional controversial ...
p134
sg5
VPrince Philip, Duke of Edinburgh - Hellenica, Information about ...
p135
sa(dp136
g3
VThey fell in love and wanted to get married, ... Prince Edward Antony Richard Louis, ... Has visited the sets of Britain's most popular soap operas "Coronation ...
p137
sg5
VQueen Elizabeth II - Biography
p138
sa(dp139
g3
VNo, it's not the story of Britain's Edward VIII and Wallis Simpson. ... In and -- ornate ceremony prince Edward married his longtime sweetheart.
p140
sg5
VWallis Simpson News, Photos and Videos - ABC News
p141
sa(dp142
g3
VThe prince consort of Queen Victoria of Great Britain and father of King Edward ... Albert, and they were married on ... prince consort of Great Britain and ...
p143
sg5
VAlbert, prince consort of Great Britain and Ireland (British ...
p144
sa(dp145
g3
VEdward was married to Isabella 'the She-Wolf of ... the king then suddenly stabbed Prince Edward with their swords.He ... Augusta of Great Britain, ...
p146
sg5
VPrinces of Wales
p147
sa(dp148
g3
VEdward the Black Prince (1330-1376) Born: 15th June 1330 at Woodstock Palace, Oxfordshire Prince of Wales ... who had married the knight's widow.
p149
sg5
VBritannia Biographies: Edward the Black Prince, Prince of Wales
p150
sa(dp151
g3
VThe Prince of Wales and The Duchess of Cornwall The Duke and Duchess of Cambridge Prince Harry. Realms and Commonwealth; The Prince's Charities; Speeches and Articles;
p152
sg5
VThe Prince of Wales
p153
sa(dp154
g3
VQueen will protect Kate Middleton says Prince Edward . ... Edward, who married ... The Royal posting came as tensions mounted between Britain and Argentina in the run ...
p155
sg5
VQueen will protect Kate Middleton says Prince Edward - UK & World ...
p156
sa(dp157
g3
VPrince Edward first encountered the woman who ... Edward, Duke of Windsor, married Wallis Simpson ... The couple found themselves exiled from Britain and shunned by ...
p158
sg5
VKing Edward VIII And Wallis Simpson - Essortment Articles: Free ...
p159
sa(dp160
g3
VThe dogs were married just after Prince William and Kate Middleton were wed ... Prince Edward's wife matched her outfit with a ... Britain's Prince William ...
p161
sg5
Vroyal wedding photos - USATODAY.com Photos
p162
sa(dp163
g3
VHe was nine when he was given the title Prince of Wales. Edward VII was born the heir apparent on 9 ... Prince Charles becomes Britain's longest-serving ...
p164
sg5
VPrince Charles becomes Britain's longest-serving heir to throne ...
p165
sa(dp166
g3
V... 66 years to the day after Adolf Hitler married Eva Braun in a Berlin bunker, Prince ... that between Prince Albert Edward ... He is said to be one of Britain's ...
p167
sg5
VThe Royal Wedding: Trees, tiaras and trestle tables - This Britain ...
p168
sa(dp169
g3
VMedieval Britain Reformation ... He has lived his entire married life walking one step ... Prince Edward at least had the courage to face up to Philip and ...
p170
sg5
VPrince Philip - Britannia.com - British History Travel
p171
sa(dp172
g3
VThe news that Prince William of Wales is to marry Miss Kate Middleton next year will delight true ... daughter of the politician Edward Hyde, married James, ...
p173
sg5
VPrince William and Kate Middleton Engaged: Commoner\u2019s Touch ...
p174
sa(dp175
g3
VWho did King Edward VII's daughter, ... Princess Helena Augusta Victoria Saxe-Coburg-Gotha of Great Britain was married to Prince Frederick Christian Schleswig-Holstein.
p176
sg5
VThe Royal House of Saxe-Coburg-Gotha - Fun Facts, Questions ...
p177
sa(dp178
g3
VWhen Edward, Prince of Wales met M... ... Britain's next king. Wallis Simpson was a married American woman who had been previously married and divorced ...
p179
sg5
VMovies About King Edward and Wallis Simpson
p180
sa(dp181
g3
V... just after the prince had left it to ... the German Ambassador to Britain, ... to the British government that they refused to permit Edward to marry her and ...
p182
sg5
VEdward VIII : Biography - Spartacus Educational
p183
sa(dp184
g3
V... should those of us following the engagement of Britain's Prince William to ... only Prince Edward is still ... If married the income of both partners is ...
p185
sg5
VPostPartisan - Prince William, Kate Middleton and 'obsolete' marriage
p186
sa(dp187
g3
VHow can Prince Charles - married to a divorcee ... Edward proposed an alternative solution of ... He will become King of The United Kingdom of Great Britain ...
p188
sg5
VHow can Prince Charles - married to a divorcee - be the future ...
p189
sa(dp190
g3
VPrince's wife, Manuela Testolini ... Edward Winer. "She is seeking a ... and Testolini Nelson, 29, a former employee at Prince's charitable foundation ...
p191
sg5
VPrince's Wife, Manuela, Filed for Divorce - Divorced, Manuela ...
p192
sa(dp193
g3
VRoyal wedding: Prince William to marry Kate Middleton; ... So the opportunity for a royal rapprochement with Britain\u2019s middle class is perfect: ...
p194
sg5
VWhat Kate Middleton\u2019s wedding to Prince William could do for Britain
p195
sa(dp196
g3
VGrace Kelly Kate Middleton isn\u2019t the only commoner who married a prince. ... The royal family was angered by Simpson\u2019s involvement with Edward, Prince of Wales.
p197
sg5
VSeven Americans Who Married Royalty | ThirdAge
p198
sa(dp199
g3
VPrince William and Kate Middleton are to marry at ... to marry on April 29 Prince William and Kate ... classic example of what Britain ...
p200
sg5
VRoyal Wedding Date: Prince William and Kate Middleton to marry on ...
p201
sa(dp202
g3
V... (like that of his predecessor Prince Edward, ... The Prince of Wales married Lady Diana Spencer in St Paul's Cathedral who became HRH The Princess of Wales.
p203
sg5
VThe Royal Family - The Prince of Wales - Background
p204
sa(dp205
g3
VBritain's royalty and nobility fascinate the rest ... Prince Edward did become King Edward VIII when George V died ... married for the second time and the ...
p206
sg5
VWho are the Duke of York, Duke of Kent, etc., and how did they get ...
p207
sa(dp208
g3
V... were married in Westminster Abbey on 20 November 1947. The event was fairly simple, as Britain was still recovering from the war, ... Prince Edward, in 1964.
p209
sg5
VMarriage and Family
p210
sa(dp211
g3
VIn the 1930's the British Royal family was rocked by a crisis when King Edward VIII abdicated his throne to marry a ... the Prince and married. ... Great Britain.
p212
sg5
VRoyal Scandal: King Abdicates to Marry Mistress
p213
sa(dp214
g3
VBritain's Prince Edward is to marry his longtime girlfriend, Sophie Rhys-Jones, who confessed to being stunned when Queen Elizabeth II's youngest son ...
p215
sg5
VArticles about Sophie Rhys Jones - Los Angeles Times
p216
sa(dp217
g3
VPrince Albert Edward Wettin Saxe-Coburg-Gotha was born on November 9, 1841 to Queen Victoria and Prince Albert of Great Britain. ... this time that Bertie got married.
p218
sg5
VKing Edward VII - Biography
p219
sa(dp220
g3
V... when she marries Prince William, ... the age he once said he'd consider getting married ... considered Britain's top royal correspondent, ...
p221
sg5
VPrince William's girlfriend, Kate Middleton, is a patient future ...
p222
sa(dp223
g3
VBritain: Edward VII. ... After the death of Prince Albert Edward took his seat in the House of Lords as the Duke of Cornwall. ... In 1863 Edward married Alexandra, ...
p224
sg5
VEdward VII : Biography - Spartacus Educational
p225
sa(dp226
g3
VEdward Hadas; Hugo Dixon; Ian ... Britain's Prince William made sure his mother Princess Diana in his own ... Charles's second wife Camilla who he married ...
p227
sg5
VPrince William pays tribute to Diana at wedding | Reuters
p228
sa(dp229
g3
V... but his uncle Prince Andrew became the Duke of York when he married while Prince Edward became the Earl of Wessex. ...
p230
sg5
VRoyal wedding: Prince William and Kate Middleton become Duke and ...
p231
sa(dp232
g3
VThe French press even compared the nuptials to Britain\u2019s ... 103 Responses to \u201cCharlene Wittstock & Prince Albert are married: did ... Prince Edward has a ...
p233
sg5
V103 Responses to \u201cCharlene Wittstock & Prince Albert are married ...
p234
sa(dp235
g3
VPrince Edward is one of the main ... Marries Nancy in Andalasia while ... After rescuing Giselle from a troll he declares that they "will be married in the ...
p236
sg5
VPrince Edward - Disney Wiki
p237
sa(dp238
g3
VThe tradition of investing the heir of the monarch of Britain with the title of "Prince of ... Prince Edward is the youngest ... Who is the Queen married to?
p239
sg5
VMembers of Royal Family
p240
sa(dp241
g3
VHe was married in 1863 to the beautiful and ... wife of Edward VII. Click to enlarge. PRINCE OF ... which the Queen did not approve of. The Prince was involved in ...
p242
sg5
VEdward VII
p243
sa(dp244
g3
V... to his subjects in Britain, Edward VIII, ... Edward had been determined to marry Mrs. Simpson, ... The Prince's genuine friendliness, ...
p245
sg5
VThe Duke of Windsor Dies at 77 - The New York Times - Breaking ...
p246
sa(dp247
g3
VFamily Tree of Britain's Queen Victoria and Prince Albert. ... married Prince Frederick Charles of Hesse-Kassel; Albert Edward, ...
p248
sg5
VQueen Victoria's Children and Grandchildren
p249
sa(dp250
g3
VPrince Edward, Earl of Wessex (born ... On 9 April 2005, Prince Charles married Camilla Parker-Bowles, ... Queen of The United Kingdom of Great Britain and Northern ...
p251
sg5
VElizabeth II - Simple English Wikipedia, the free encyclopedia
p252
sa(dp253
g3
VPrince Albert Edward Wettin ... Prince Alfred married the Grand Duchess Marie, ... The only condition was that they should always live with her in Britain.
p254
sg5
VPBS : Empires : Queen Victoria : Her Majesty : Her Children
p255
sa(dp256
g3
VDetails have been released of a private conversation in which Britain's Prince of Wales expressed his desire to see the Church of ... Prince Edward Married on ...
p257
sg5
VUSURPER TO THE THRONE OF ENGLAND - DREAMS OF THE GREAT EARTH CHANGES
p258
sa(dp259
g3
VNew Report Claims Britain\u2019s Kate Middleton Is Pregnant ... who captivated people around the world when she married Prince William in ... \u201cEdward ...
p260
sg5
VNew Report Claims Britain\u2019s Kate Middleton Is Pregnant - ABC News
p261
sa(dp262
g3
VAskville Question: What year did Prince Charles and Camilla get married? : Other
p263
sg5
VWhat year did Prince Charles and Camilla get married?
p264
sa(dp265
g3
VPrince Edward Photos and News May 6, 2013. Prince Edward Photo Gallery. ... Britain's Queen Elizabeth opened the London 2012 Paralympics tonight (29.08.12).
p266
sg5
VPrince Edward Photos and Celebrity Gossip at ExpoSay
p267
sa(dp268
g3
VAiming at a united Britain, ... Edward, Prince of Wales was killed at the battle of Tewkesbury one day before ... Edward married the beautiful Alexandra of Denmark in ...
p269
sg5
VKings and Queens of England & Britain - Historic UK - heritage ...
p270
sa(dp271
g3
VThe Duke of Windsor marries American divorcee Mrs. Wallis ... the Prince and Wallis took a cruise ... Edward and Wallis were married in a quiet ceremony ...
p272
sg5
VThe Duke of Windsor and Wallis Warfield Simpson -- The Marriage of ...
p273
sa(dp274
g3
VPrince Charles and his beautiful bride share their long ... With a 'just married' sign attached to the landau by the groom's younger brothers Andrew and Edward, ...
p275
sg5
VIconic weddings: Prince Charles and Lady Diana Spencer ...
p276
sa(dp277
g3
V... Princess Royal, the Prince of Wales did not excel in ... her son to marry Princess ... of Anglo-French rivalry and Britain's "splendid isolation ...
p278
sg5
VEdward VII of the United Kingdom
p279
sa(dp280
g3
VMAIN People in the News Prince William. Most recently ... and the future of Britain's centuries-old ... the newly-married couple whisked away to the English ...
p281
sg5
VPrince William, Kate Middleton, Baby News, Biography, Quotes
p282
sa(dp283
g3
VKate Middleton married her prince in front of 1,900 guests today at Westminster Abbey. ... Prince Edward. Camilla Parker Bowles. Comments. View Prince Andrew Pictures ...
p284
sg5
VPrince Andrew Royal Wedding Pictures, Sarah Ferguson Divorce Info ...
p285
sa(dp286
g3
VEdward the Black Prince. Born: 15-Jun-1330 Birthplace: Woodstock, England Died: 8-Jun-1376 ... In October 1361 Edward married his cousin Joan, Countess of Kent ...
p287
sg5
VEdward the Black Prince - NNDB: Tracking the entire world
p288
sa(dp289
g3
V... Princess Anne, born in 1950, and two younger brothers, Prince Andrew and Prince Edward, ... in the war with Britain over ... prince married Lady ...
p290
sg5
VPrince of Wales Charles Facts, information, pictures ...
p291
sa(dp292
g3
VWatch live-streaming video: Prince William and Kate Middleton getting married. ... Britain's Prince William kisses his wife Kate, Duchess of Cambridge, ...
p293
sg5
VWatch live-streaming video: Prince William and Kate Middleton ...
p294
sa(dp295
g3
VPrince Harry. The Royal Foundation; Life in Pictures; Charities; 1; 2; 3; Pause. Warner Bros. View the photos; Read about the Charities Forum; Visit to Manchester ...
p296
sg5
VRoyal Wedding
p297
sa(dp298
g3
VDid You Know? Prince Philip is compelled "to walk 'two steps behind' his wife ... Edward married Sophie Rhys-Jones. They have a daughter, Lady Louise Windsor and a ...
p299
sg5
VQueen Elizabeth II and Prince Philip - Marriage -- Free Advice and ...
p300
sa(dp301
g3
V... for Britain's planned geopolitical war between Germany ... Juliana married an SS man (Prince Bernhard); ... like his brothers Prince Edward (later Edward ...
p302
sg5
VRoyal Nazis and the Scottish connection - Welcome back to The ...
p303
sa.