(lp1
(dp2
S'description'
p3
V... stone circles have also been ... avenues or circular banks on which the stones are set. Burials have been found ... There are approximately 1,000 stone circles ...
p4
sS'title'
p5
VStone circle - Wikipedia, the free encyclopedia
p6
sa(dp7
g3
VWith approximately 1,000 stone circles in the ... Many stone circles have been shown to have strong associations ... A stone circle was found near ...
p8
sg5
VStone-circles Homepage - Ancient-Wisdom - Online Guide to Prehistory.
p9
sa(dp10
g3
V... the other sections - Pre-Raphaelite Artwork and Celtic Artwork - have however been left here in case they ... stone circles and standing stones found in the UK."
p11
sg5
Vstone-circles.org.uk - The Prehistoric sites of Great Britain
p12
sa(dp13
g3
VStone circles exist in many locations around Europe and the rest of the ... and several have been found in France as well. ... Salisbury, UK - Is Stonehenge Worth a ...
p14
sg5
VStone Circles - Paganism & Wicca - Pagan and Wiccan Religion
p15
sa(dp16
g3
VCastlerigg stone circle could have been the space in which ... An early description of Castlerigg stone circle can be found in the 1843 book ... United Kingdom: England:
p17
sg5
VCastlerigg stone circle - Wikipedia, the free encyclopedia
p18
sa(dp19
g3
VI was walking the other day and came across part of a fragment of a stone circle ... CISTERNS where I found there are approximately 150 ... have been taken in San ...
p20
sg5
VSearch Challenge: What, Why, and Where are These Stone Circles?
p21
sa(dp22
g3
VIn approximately 3500 BC a large ... Two previously undiscovered pits have been found at Stonehenge which point to it once being ... An ancient stone circle, ...
p23
sg5
VStonehenge - Crystalinks
p24
sa(dp25
g3
VIt lies approximately midway ... Only 27 stones of the Outer Circle survive and many of these ... that its form may have been different. Gray found few ...
p26
sg5
VMysterious Stone Circles - Crystalinks Home Page
p27
sa(dp28
g3
V... of enough stones to indicate that it may have been a ... circle is filled with many large stones along with earth ... stone head found at this site ...
p29
sg5
VBeltany Stone Circle - Ancient Ireland
p30
sa(dp31
g3
VThe romance has been repeated so many ... "a great variety of the stones found in ... ever thought to have special powers. There are stone circles ...
p32
sg5
VStonehenge and the Ice Age: Stonehenge: How did the stones get there?
p33
sa(dp34
g3
VThe giant sarsen stones (which form the outer circle), ... They are much smaller than the Sarsen stones. It has been suggested they may ... It was found that the ...
p35
sg5
VThe stones that make Stonehenge have a story of their own to tell.
p36
sa(dp37
g3
VModern estimates place the largest stone at approximately 75 tons. ... largest stone-circle in ... is believed to have been found on the Orkneys at the ...
p38
sg5
VThe largest stones of all time - Ancient-Wisdom - Online Guide to ...
p39
sa(dp40
g3
V... which may have been a socket for one of the GC stones in former ... Great Circle (GC) has an ... may have been found ...
p41
sg5
V101 Facts About Newgrange - The Great Circle
p42
sa(dp43
g3
VAvebury is the largest stone circle in ... and three silver coins were found next the poor skeleton, and the stone is ... and the Repaired Stone, which has been ...
p44
sg5
VStones of England - Avebury stone circles and earthworks
p45
sa(dp46
g3
VCircle designs have been found ... it was found in the heart of crop circle country in the United Kingdom. ... it has traveled approximately 160 trillion ...
p47
sg5
VWelcome... Beings of Light - Crop Circles
p48
sa(dp49
g3
VStone Circles of The SeneGambia. ... Stone circles of many types are found throughout ... A lot of explanations have been given about the shape of the Senegambia ...
p50
sg5
VStone Circles of The Gambia
p51
sa(dp52
g3
VSeveral rune stones have been found in the United States, most notably the Kensington Runestone in Minnesota and the Heavener Stone in Oklahoma.
p53
sg5
VNorth American Rune Stones - Sunnyway.com
p54
sa(dp55
g3
V... other ancient sites and stone circles in Britain, ... These stones or sarsens were found on the ... It has been estimated that as much as 1.5 million man ...
p56
sg5
VStonehenge.co.uk - Your guide to Stonehenge, the World's Favourite ...
p57
sa(dp58
g3
VPrehistoric people were building stone circles 4,000 years ago, and you have ... circle. In recent times they have been ... many of our other activities can be found ...
p59
sg5
VCircles, Circles Everywhere : nrich.maths.org
p60
sa(dp61
g3
VIt's the first time that an exact source has been found for any of the stones ... This suggests that there may have been other stone circles or ... BMF is the UK \u2019s ...
p62
sg5
VScientists discover source of rock used in Stonehenge's first circle
p63
sa(dp64
g3
VThe prehistoric stone circle of Stonehenge has ... The area has many springs, which may have been ... Oldest US dinosaur of its kind found; 9: ...
p65
sg5
VBBC News - Tomb found at Stonehenge quarry site
p66
sa(dp67
g3
VApproximately how many people in ... wiccan im 16 and have been a wiccan for 2 weeks and i know much of wicca i have dun about 4 circles so fare good bye ...
p68
sg5
VApproximately how many people in the world practice the Wiccan ...
p69
sa(dp70
g3
V... itself encloses two smaller stone circles. ... Various conjectures have been made but it is premature to speak with any ... United Kingdom. Sacred Sites Map of ...
p71
sg5
VStone Ring(Circle) of Avebury - Sacred Sites: Places of Peace and ...
p72
sa(dp73
g3
VThe sarsen circle: 2012-04-21: From Firdous: I found the ... how far apart wold the centres of the stones have been ... The edging will be approximately 2 ...
p74
sg5
VQuandaries & Queries at Math Central
p75
sa(dp76
g3
VUnfortunately, the causewayed camps, most of which have been found in south and ... though not all henges have stone circles within ... (approximately 700 B.C ...
p77
sg5
VStone circles, barrows, and henges in Britain
p78
sa(dp79
g3
VThe bluestone is a mixture of rocks found on ... In its complete form the outermost stone setting consisted of a circle ... but many have fallen, dissolved or been ...
p80
sg5
VStones of England - Stonehenge - Stone Pages \u2022 Web guide to ...
p81
sa(dp82
g3
VThe exact method of transporting the giant stones to Stonehenge, approximately ... circle. It has been ... so many of the other ancient sanctuaries found ...
p83
sg5
VStonehenge, England - Sacred Sites: Places of Peace and Power, General
p84
sa(dp85
g3
VUK United Kingdom ... which could be known as the U.K.'s other stone circle, has been designated the second best World Heritage Site ...
p86
sg5
VAvebury Stone Circle Named World's Second Best Heritage Site (PHOTOS)
p87
sa(dp88
g3
VDuring this stage a double circle of 80 ... Whenever Thom discovered stones aligned he found they had been set up ... It has pretty much been established that ...
p89
sg5
VStonehenge - the MYSTICA.ORG
p90
sa(dp91
g3
VIn the UK bent stalks have been noticed that ... Crop circles were found on fenced off military grounds and some ... Approximately 5500 years ago aliens who ...
p92
sg5
VWorld Mysteries - The Crop Circles
p93
sa(dp94
g3
VThis question has been asked in another form on Ask Mefi previously and a few other entries in writing deal with the subject, ...
p95
sg5
VHow many copies a book has sold? - publishing sales | Ask MetaFilter
p96
sa(dp97
g3
VWhere it was found. ... [see below] mostly consist of stone circles. Most have been buried in the sand and are only observable by satellite or aircraft.
p98
sg5
VAmazing Metropolis Discovered in Africa is 200,000 years old!
p99
sa(dp100
g3
V... circle E is the only single circle and also has the tallest stones, ... Circle C was found to contain ... were discovered and have been carbon ...
p101
sg5
VBeaghmore - Ancient Ireland
p102
sa(dp103
g3
VThis question is too generalized. Even a guess is unlikely to come close because of the sheer number of songs that have actually been produced, let alone published ...
p104
sg5
VApproximately how many songs have been produced in the US and UK ...
p105
sa(dp106
g3
VNo measuring or surveying tools have been found from this period, ... View a slide show of stone circles and other prehistoric ceremonial sites stretching from ...
p107
sg5
VNOVA | Stonehenge: Expert Q&A - PBS: Public Broadcasting Service
p108
sa(dp109
g3
VScarcely any human remains have been found at ... in a region long known for its intriguing stone circles, ... the approximately 80 original bluestones\u2014the ...
p110
sg5
VNational Geographic Magazine - NGM.com
p111
sa(dp112
g3
VCurrently the heel stone leans inward toward the circle at an ... which stand approximately on the circle of ... Cremation burials have been found cut into ...
p113
sg5
VStonehenge Construction Periods, Phases, and History ...
p114
sa(dp115
g3
VApproximately how much does the Great Wall of China weigh? between ... Stone can hold under its own ... the height of the wall has been reduced from more ...
p116
sg5
VApproximately how much does the Great Wall of China weigh? | Answerbag
p117
sa(dp118
g3
V... which dates to approximately 3100-2300 BCE., ... must have been fundamental to the design and placement ... stone circles and horseshoe arrangements ...
p119
sg5
VSacred Places: Stonehenge - Sweet Briar College
p120
sa(dp121
g3
VSince Buckland's original discovery in 1819, approximately 330 different ... billions of fossils have been found. Up to as many as 1,200 ... as the Ica Stones, ...
p122
sg5
VDinosaur Fossils
p123
sa(dp124
g3
VBrazilian archaeologists have found an ancient stone structure in a remote ... The stones appear to have been laid out to ... the ancient stone circle in ...
p125
sg5
VBBC NEWS | Americas | 'Brazilian Stonehenge' discovered
p126
sa(dp127
g3
VThe evidence for crop circles as a genuine phenomenon is found in Freddy ... sites such as stone circles ... have been discovered in crop circles, ...
p128
sg5
VCrop circles secrets
p129
sa(dp130
g3
VWhat do the natives of Mystery Island call the stone circle at the top ... Approximately how many times a ... What is the Ghost Lupe's name believed to have been ...
p131
sg5
VGrungierr got their homepage at Neopets.com
p132
sa(dp133
g3
VThere are approximately 74 figures that can be made ... The 40 stones are placed in a circle on the ... These games of chance use stones as dice have been found in ...
p134
sg5
VGames That Navajo Children Play | eHow
p135
sa(dp136
g3
VAn English man asked me if we have stone circles in ... at Carnac have by now approximately ... have found three holes that may have been three high ...
p137
sg5
VMegalith stone circle and stone row - RootsWeb: Freepages
p138
sa(dp139
g3
VMany of the original stones have fallen or been removed by previous ... constructed approximately 5,000 ... as they had been before, in a great circle ...
p140
sg5
VStonehenge - Britannia.com - British History Travel
p141
sa(dp142
g3
VSymbolism of the Circle. The circle has many ... (approximately) the perimeter of a circle ... , then the outline must have been flattened, like some neolithic stone ...
p143
sg5
VGeometry in Art & Architecture Unit 9 - Dartmouth College
p144
sa(dp145
g3
VTwo types of spheres have been found: ... each had a circle cut into the center and was etched with a ... dozens of stone balls, many of which were perfectly ...
p146
sg5
VThe 10 Most Puzzling Ancient Artifacts - AncientX.com - Ancient ...
p147
sa(dp148
g3
VThe drawing shows the sensational discovery of "Blue Stonehenge" by a team led by UK ... found in the stone circle ... stones like those at Stonehenge has been ...
p149
sg5
V'Blue Stonehenge' Discovered By UK Archaeologists
p150
sa(dp151
g3
VWhat movies have been filmed in Philadelphia? In: Movies Asked: ... but these five celebrities have found a way to express how they feel about being moms.
p152
sg5
VWikiAnswers - The Q&A wiki
p153
sa(dp154
g3
VA "new" cup and ring carving has been created by ... The symbols are also found carved on standing stones and at stone circles, - places thought to have been used ...
p155
sg5
VWhat are Cup and Rings? - Yorkshire Rock Art
p156
sa(dp157
g3
V... may once have been a school of astronomy. ... being open to the East and composed of like circles of stones within ... I have found a number of ...
p158
sg5
VBallynahattin/Carnbeg - Ireland's Stonehenge - Stonehenge wallpaper
p159
sa(dp160
g3
V... most of the stone circles are ovals which appear to be based on right-angle ... approximately 15,000 stones, ... Much evidence has been found ...
p161
sg5
VAncient Mysteries, Lost Human History, Mysterious Origins.
p162
sa(dp163
g3
VThere are many other Stone Circles in Britain which are known to date to the late Neolithic and ... The Welsh Stone must have been dragged down to the sea and ...
p164
sg5
VStonehenge - Castles
p165
sa(dp166
g3
VHow many others have been found & reported ... 9:13 Origins of circles: Stone Circles 5000 ... 0:41 Crop Circle 2011: Innage near Chepstow, Wales, UK 22 ...
p167
sg5
VCrop Circle in Madisonville, Tennessee 12 May 2011 - YouTube
p168
sa(dp169
g3
V... located approximately ... Marine Corps and Navy with the following inscription going around in full circle: ... When this step has been completed, the stone ...
p170
sg5
VWall Information
p171
sa(dp172
g3
VBecause the interior of the Ring o' Brodgar has never been fully excavated ... The stone circle is practically in ... Scattered pieces of the stone were found up ...
p173
sg5
VThe Ring of Brodgar, Stenness, Orkney
p174
sa(dp175
g3
VThe weight of the two stones has been estimated at 45 tons ... have been found near megalithic ... the Gungywamp site has a double circle of stones near its ...
p176
sg5
VEvidence of Sophisticated, Ancient, Unknown Cultures in North ...
p177
sa(dp178
g3
VTraders also found that ... have been used for comparison since at ... 1600 B.C.E. Earlier timber and stone circles were built in the British ...
p179
sg5
Vephemeris.com Early History of Astronomy - Prehistoric
p180
sa(dp181
g3
V... dun and stone circle can all be found ... a small road leads east to the remains of a stone circle which has been ... Available from Amazon.com and Amazon UK:
p182
sg5
VStanding stones and ancient monuments - The Internet Guide to Scotland
p183
sa(dp184
g3
VI've been looking everywhere but I'm ... but I'd like to know approximately how many celebrity gossip ... Is Rolling Stones Magazine sold in the UK?
p185
sg5
VHow many magazines, approximately, are sold each year? - Yahoo! UK ...
p186
sa(dp187
g3
VWhat is known is that medicine wheels have been found relative ... The oldest stony wheels date back approximately ... is the 'Many worlds' stone that ...
p188
sg5
VMedicine Wheels, Native American Medicine Wheels, What are ...
p189
sa(dp190
g3
VIn all some 300 Passage cairns have been identified, with many found along a line ... of stone circles is found in central and ... sites in the UK ...
p191
sg5
VAncient Ireland - Prehistory, Archaeology, Paleogeography, Geology
p192
sa(dp193
g3
VAll circles are found near to burial mounds. ... Paul Tanner (UK): ... Have you been to Stone Circles of Senegambia?
p194
sg5
VStone Circles of Senegambia - World Heritage Site - Pictures, info ...
p195
sa(dp196
g3
VFrom the Stone Age to the Dark Ages- learn all about ancient British life and history.
p197
sg5
VStonehenge | Suite101
p198
sa(dp199
g3
VThis map of Chile shows the Monte Verde site outlined by a red circle. ... had been found there: artifacts made of stone, ... of geologic time to approximately ...
p200
sg5
VThe mystery of the first Americans - North Carolina Digital History
p201
sa(dp202
g3
VAvebury stone circles are thought to have been constructed in ... there may have once been as many as ... can be found the remains of a ...
p203
sg5
VAvebury - the Mysterious Stone Circles - Avebury Wiltshire
p204
sa(dp205
g3
V... have been used and reused for thousands of years. ... Examples are found at Drizzlecombe in the UK, ... Stone circles, ...
p206
sg5
VMegalithic Monuments - Types and Locations
p207
sa(dp208
g3
V- UK Travel Info - London Guide - ... totem' poles have been found, ... as an astronomical observatory and to have a circle of standing stones polished to such a ...
p209
sg5
VSecrets of the Preseli Bluestones - Britannia.com - British ...
p210
sa(dp211
g3
VAt least 50 have been discovered in Orkney although ... a large circle of stones, found mostly in the ... Top UK Destinations for Stone Circles and Ancient Sites ...
p212
sg5
VWhat is a Dolmen? - A Glossary of Prehistoric Monuments in Britain
p213
sa(dp214
g3
VThere were also circles ... What makes Stonehenge so special is the sheer size of the stones. The smaller could have been found on the ... United Kingdom;
p215
sg5
VWhere did Stonehenge and Easter Island come from? - Yahoo! Answers
p216
sa(dp217
g3
VStones have been removed to make way ... there is a stone circle which has 39 stones. ... long and leads to a large chamber where numerous artifacts were found, ...
p218
sg5
VCarnac stones - Simple English Wikipedia, the free encyclopedia
p219
sa(dp220
g3
VRead this Article in UK English; ... Have Diamonds Been Found in Arizona? ... Although many precious gems and stones can be found in Arizona, ...
p221
sg5
VHow to Tell If You Have a Rough Diamond | eHow
p222
sa(dp223
g3
VThese types of timber enclosures have been found ... a circle is unknown, they could have ... stone and its companion would then have been a ...
p224
sg5
VStonehenge Paper - Sweet Briar College
p225
sa(dp226
g3
V... http://www.knowledge.co.uk/sis/abstract ... Many of these graves have been found with ... Henges are also found in Britain. Stone Circles: ...
p227
sg5
VBronze Age Ireland - Wesley Johnston
p228
sa(dp229
g3
VThe circle has been ... and many believed that there was something intrinsically "divine" or "perfect" that could be found in circles. ... United Kingdom;
p230
sg5
VI have to do a project on history of mathematics and circles....n ...
p231
sa(dp232
g3
VWhy do I argue that the 'center erratics' found in so many of the stone circles ... stones inside a circle would have been a ... the UK during the ...
p233
sg5
VStonehenge and the Ice Age: The Altar Stone - where the glacier ...
p234
sa(dp235
g3
VThe stone circles of Gobekli Tepe are just in front, ... But the site is devoid of the fertility symbols that have been found at other Neolithic sites, ...
p236
sg5
VTurkey: Discovery of 12,000-year-old Temple Complex Could Alter ...
p237
sa(dp238
g3
V... and in the centre of the mound this stone was found, ... is approximately 1.8 meters in length ... have been claimed to exist at the circle, ...
p239
sg5
VShadowsandStone.com Blog | by Ken Williams
p240
sa(dp241
g3
VAnd Pembrokeshire's own ancient stone circle is to be found in the same area at Gors Fawr, ... These circles are believed to have been places for religious rituals, ...
p242
sg5
VBBC - Wales - History of religion: before the Romans
p243
sa(dp244
g3
VAt one time it covered approximately ... During this time there may have been as many as ... This is the third cache of stone projectile points. It was found in ...
p245
sg5
VCahokia Mounds Site Mound 72 Excavation - Stone Age Artifacts of ...
p246
sa(dp247
g3
VMuch speculation has surrounded the site and detailed arguments can be found in both Burl\u2019s \u2018Prehistoric ... the field has been ... Down Stone Circle ...
p248
sg5
VThe Sanctuary. Stone Circle : The Megalithic Portal and Megalith Map:
p249
sa(dp250
g3
V... other ancient sites and stone circles in Britain, ... It has been estimated that the construction took more than thirty ... at Stonehenge.co.uk. Welcome ...
p251
sg5
VStonehenge.co.uk - Your guide to Stonehenge, the World's Favourite ...
p252
sa(dp253
g3
V348 12-31-11 COGGED STONES & CACTUS SLICES, Most cogged stones are found in only 2 or 3 ... objects have been found in ... Found 1975, Fairfax Circle, ...
p254
sg5
VStone Age Artifacts Pictures and Descriptions
p255
sa(dp256
g3
VThe Merry Maidens stone circle, ... From this peak many a struggling ship has been watched by a malignant crone, ... where they found many human corpses.
p257
sg5
VStone Monument Legends - Home | University of Pittsburgh
p258
sa(dp259
g3
VThe so-called "licking-stones", ... The Memorial has been outside for many years and has some interesting algae and moss growing on it ...
p260
sg5
VImages of Alba | Facebook
p261
sa(dp262
g3
VThe Recumbent Stone Circle (RSC) ... (cup-shaped hollows between 10 and 50 mm in diameter) have been found, clustering at points (the recumbent, ...
p263
sg5
VAberdeenshire Council - Recumbent Stone Circles
p264
sa(dp265
g3
VUK United Kingdom ... There's some debate about what exactly has been found. ... researchers said they had found a small circle of stones on the ...
p266
sg5
VStonehenge Discovery: Wooden Structure Found Near Famous Monument
p267
sa(dp268
g3
VAs a prehistoric stone circle, ... Stonehenge has long been the subject of historical ... England, United Kingdom) United Kingdom; Wiltshire (county, England ...
p269
sg5
VStonehenge (ancient monument, Wiltshire, England, United Kingdom ...
p270
sa(dp271
g3
VStonehenge is composed of a circle of sarsen stones, ... the most impressive of the vast megalithic constructions that have been ... each weighing approximately ...
p272
sg5
VAncient Engineering: Unexplained Mysteries of Stonehenge and Great ...
p273
sa(dp274
g3
VOriginally there was a circle of 22 stones. Three of these stones have been carved: ... Post holes from another stone circle were found just a little way from the ...
p275
sg5
VAncient Scotland - Temple Wood
p276
sa(dp277
g3
V... in which he has been closely involved over many ... crop circle phenomenon. The team found ... the UK Crop Circles and ancient stone ...
p278
sg5
VCrop Circle DVDs and Videos
p279
sa(dp280
g3
VApproximately 700 species have been ... Circle, where food supply would have been seasonal. Grouped hadrosaur nest sites have been found which ...
p281
sg5
VWalking with Dinosaurs - FAQ
p282
sa(dp283
g3
V... could the other lengths be found if I wanted to have a ... The area of a trapezoid is approximately ... I have been given a circle inscribed in a ...
p284
sg5
VQuandaries & Queries at Math Central
p285
sa(dp286
g3
VMy endeavor has been to understand something of the mind of ... Many of the stone ... The area of a circle created from the extended arris edge is two times ...
p287
sg5
VThe Washington National Monument in Perspective
p288
sa(dp289
g3
VIn a great swathe of death around the edge of the Artic Circle the remains ... techniques and were found to be approximately ... stones have been measured ...
p290
sg5
VHistorical Timeline - 1page Mirror Intro
p291
sa(dp292
g3
VGlebe West Stone Circle in Cong, Mayo. One of many ... but the second script has never been positively identified and many ... An archaeologist says he has found ...
p293
sg5
VAncient Stones - Pinterest
p294
sa(dp295
g3
VThis service is available in the UK ... SX 25837 71298 An early Bronze Age monument comprising three circles aligned approximately ... The granite stones have been ...
p296
sg5
VThe Michael Alignment - David Furlong's Home Page
p297
sa(dp298
g3
VOnly rarely are any of these found in \u201cpure\u201d form, and this fact has led to mistaken notions in many ... This terminology has been widely applied ... United Kingdom
p299
sg5
VStone Age (anthropology) -- Encyclopedia Britannica
p300
sa(dp301
g3
VDiameter of the solar system is approximately: ... Pluto has been demoted to a group of now six dwarf planets. ... United Kingdom; United States; Vietnam;
p302
sg5
VDiameter of the solar system is approximately: 7,500,000,000 miles ...
p303
sa.