(lp1
(dp2
S'description'
p3
VJanet Wood Reno (born July 21, ... she accepted a position with the Dade County State's Attorney's Office. ... Janet Reno (1993\u20132001)
p4
sS'title'
p5
VJanet Reno - Wikipedia, the free encyclopedia
p6
sa(dp7
g3
VGovernment and Regulatory Bodies ... from 1993 to 2001. She was nominated by President of the ... What Jobs Did Janet Reno and Madeleine Albright Hold during Bill ...
p8
sg5
VWhat Is Janet Reno Doing Now? - Ask.com
p9
sa(dp10
g3
V... and pictures about Janet Reno at Encyclopedia ... She was drawn back into government service in 1978 ... In 1993 Reno was nominated to the position of U.S ...
p11
sg5
VJanet Reno Facts, information, pictures | Encyclopedia.com ...
p12
sa(dp13
g3
VJanet Reno is an impelling attorney. She was the first woman to serve as a ... 1993. She served ... she accepted a position with the Dade County State ...
p14
sg5
VWhat did Janet Reno accomplish? - Yahoo! Answers
p15
sa(dp16
g3
VJanet Reno is the first woman Attorney ... 1993. She was again appointed in 1997 by President Clinton ... In 1973 she accepted a position with the Dade County ...
p17
sg5
VWIC Biography - Janet Reno - Women\u2019s International Center ...
p18
sa(dp19
g3
VSmith did not rule on the motion. "Our position remains as ... the government $6 million. Reno said she does not ... Janet Reno in August 1993 says they ...
p20
sg5
VReno says she ordered firefighting equipment to be present at ...
p21
sa(dp22
g3
VPresident bill clinton appointed Janet Reno to be U.S. attorney general on February 11, 1993. She was his ... She was drawn back into government service in 1978 when ...
p23
sg5
VJanet Reno legal definition of Janet Reno. Janet Reno synonyms by ...
p24
sa(dp25
g3
VIn 1973 Janet Reno accepted a position with the Dade County State ... 1993 Janet Reno became Attorney General of ... It represents the Government in legal matters ...
p26
sg5
VJanet Reno's bio
p27
sa(dp28
g3
VReno held the position for 15 years until nominated ... power of the federal government is harnessed in a way that ... Janet Reno," Vogue (August 1993); ...
p29
sg5
VJanet Reno Facts - Biography
p30
sa(dp31
g3
VWhy did Attorney General Janet Reno approve the ... 1993.) And Reno ... International Affairs and Criminal Justice Subcommittee of the House Government ...
p32
sg5
VFAQs | Waco - The Inside Story | FRONTLINE | PBS
p33
sa(dp34
g3
VNominated by President Bill Clinton in 1993, Reno was ... of Janet Wood Reno. graduates. How did a ... the fact she Self Government ...
p35
sg5
VFormer Attorney General Janet Reno - America's First Female ...
p36
sa(dp37
g3
VJanet Reno in 1993 became the first ... the authors simply assumed that the ... Not much was made about the government killing 28 children. Janet Reno got ...
p38
sg5
VJanet Reno - First thoughts about
p39
sa(dp40
g3
VJanet Reno, the 78th attorney ... 1993. In this position she saw to ... She argued that the Justice Department must see that the power of the federal government is ...
p41
sg5
VJanet Reno biography, birth date, birth place and pictures
p42
sa(dp43
g3
VHow many cabinet minsters help your country for premier run the government? ... (1993-2001. Is Janet Reno dead ... Did Janet Reno have a boyfriend? She doesnt have ...
p44
sg5
VWho did Janet Reno marry - The Q&A wiki
p45
sa(dp46
g3
VJanet Reno Attorney Office Florida ... In 1973 she accepted a position with the Dade ... Ensure that the Department of Justice reflects a diverse government, ...
p47
sg5
VJanet Reno Attorney Office Florida General Miami Dade Harvard
p48
sa(dp49
g3
VWho is the prime minister and government of Antigua and Barbuda? ... (1993-2001. Is Janet Reno dead? Not at of 9/3/2010. ... Jobs & Education;
p50
sg5
VWho is Janet Reno - The Q&A wiki
p51
sa(dp52
g3
V... 1993. It was on ... She has experience in national government. ... Good health should be a prerequisite to any official position. Therefore, I ask, Janet Reno, ...
p53
sg5
VFeatured Articles about Janet Reno - Page 2 - Sun Sentinel
p54
sa(dp55
g3
V... and archival information about Janet Reno ... the federal government disclosed ... About 350 jobs to be slashed, aides say. Janet Reno ...
p56
sg5
VFeatured Articles about Janet Reno - Page 2 - Los Angeles Times
p57
sa(dp58
g3
VJanet Reno \u2014 the former U.S. attorney general and four ... government and other fields. This ... Janet Reno was nominated for Attourney General in February of 1993 ...
p59
sg5
VJanet Reno spins America's greatest hits - Helena Andrews ...
p60
sa(dp61
g3
V... 1993: 1st Female Attorney General Janet Reno Confirmed ... she accepted a position with the Dade County State ... The government's unsuccessful defense of the ...
p62
sg5
VJanet Reno - Mashpedia, the Real-Time Encyclopedia
p63
sa(dp64
g3
VPositions that Janet Reno has held: ... Attorney General Janet Reno is sworn into office. She is immediately ... 4/14/1993; House Committee on Government Reform ...
p65
sg5
VJanet Reno - History Commons
p66
sa(dp67
g3
VJANET RENO; QUOTES. ... the law is weakened. If people are left out, if they can't get jobs, ... They did, and the court sided with the government.
p68
sg5
VJanet Reno's History and Quotes.
p69
sa(dp70
g3
VJanet Reno, Janet Wood Reno (born July 21, ... (1993\u20132001). She was nominated by President Bill Clinton on ... said that the government had turned over four million ...
p71
sg5
VJanet Reno - Politician, Lawyer... - Yatedo: Free People Search
p72
sa(dp73
g3
VAttorney General Janet Reno angrily rejected suggestions ... Jobs; Deals; Blogs; Topics; Lists; ... to the safety of government agents and to those within the ...
p74
sg5
VRENO DEFENDS ASSAULT ON CULT | Deseret News
p75
sa(dp76
g3
VThat she was suddenly thrust into the position of resolving ... So in mid-April of 1993 Janet Reno was ... at some point since the F.B.I. had assumed command ...
p77
sg5
VReadings | Waco - The Inside Story | FRONTLINE | PBS
p78
sa(dp79
g3
VIn 1993,] within months of Janet Reno\u2019s ... the position taken by Attorney General Janet Reno is that the ... \u2014 \u201cJudicial Watch Battles Government in ...
p80
sg5
VWhere's Janet Reno when you need her? - American Patriot Friends ...
p81
sa(dp82
g3
VIn 1993, the Justice ... janet reno; David Koresh ... Beck claims there's a government cover-up surrounding bombings. His most outrageous statements; 19 ...
p83
sg5
VThe Waco Siege: April 19, 1993 - National American history ...
p84
sa(dp85
g3
VIn may 1993, the Clinton White House sent Janet Reno to the Senate in ... Her critics say it is because her position is ... be assumed that in some respects she is a ...
p86
sg5
VThe Mystery of Janet Reno - Jeffrey Goldberg
p87
sa(dp88
g3
VIn 1995 Janet Reno revealed that she has Parkinson's ... 1993. Reno was responsible for ... Ms Reno has never wavered from the position that Elian belongs with ...
p89
sg5
VJanet Reno - Factbites
p90
sa(dp91
g3
V... citing different ``operating and management styles'' from Attorney General Janet Reno. ... Jobs; Deals; Blogs; ... his long federal government ...
p92
sg5
VDEPUTY ATTORNEY GENERAL RESIGNS | Deseret News
p93
sa(dp94
g3
VJanet Wood Reno (born July 21, 1938 ... (1993\u20132001). She was nominated by President Bill Clinton on February 11, ... Eric Holder, Political positions of Barack ...
p95
sg5
VJanet Reno - Allvoices - Breaking News, Current Events, Latest ...
p96
sa(dp97
g3
VMs. Reno has been heavily involved in the making of computer security policy of interest to China since 1993. She has ... Huang's position ... Janet Reno 's door to ...
p98
sg5
VSIGHTINGS - rense.com
p99
sa(dp100
g3
V... known as the U.S. government\u2019s ... then-Attorney General Janet Reno ... Hogan told The Miami Herald he encouraged Ferrer early on to pursue the position.
p101
sg5
VJanet Reno | Main Justice
p102
sa(dp103
g3
V... but vengeance is not something I think a government can take comfort in," she says regarding her position ... 1993. What she says ... Janet Reno. She ...
p104
sg5
VJanet Reno Is Innocent - Esquire
p105
sa(dp106
g3
VThere are more women senators and more women in executive-level positions of ... Janet Reno shouldn\u2019t have to play into these stereotypes in 1993. Reno\u2019s image ...
p107
sg5
VHillary\u2019s girlfriends: out of the closet. | Hillary Clinton ...
p108
sa(dp109
g3
VIn 1993, Reno was nominated and ... The government's unsuccessful ... we have a State Attorney by the name of Janet Reno. She locks brothers ...
p110
sg5
VJanet Reno - The Archangel Michael [Religion, Theology, relevant ...
p111
sa(dp112
g3
V... unfit to assume the position of prophet. Instead, she groomed ... Janet Reno's reason for approving the final gas ... 1993. Subsequent government-funded ...
p113
sg5
VWaco siege - Wikipedia, the free encyclopedia
p114
sa(dp115
g3
Vto position explosives ... Maliciously killed April 19th 1993. Mayanah Schneider after the government came to ... , clinton,janet,reno,government,tanks ...
p116
sg5
VCS/Cyanide gas and explosions kill 41 women and children, two of ...
p117
sa(dp118
g3
V... check criminal records of people applying for positions in ... Reno's response was to assume high ... she had never met Janet Reno until after she had ...
p119
sg5
VThe public was shocked. Country Walk parents demanded action. An ...
p120
sa(dp121
g3
VWhy did the FBI murder so many children at WACO,Texas on April 19th 1993 ... good point that Janet Reno thing she should ... on the government is not ...
p122
sg5
VWhy did the FBI murder so many children at WACO,Texas on April ...
p123
sa(dp124
g3
VI\u2019m not going to defend everything Janet Reno did, ... 1993 burndown of ... of the government\u2019s position, though. The US did not claim \u201cHoriuchi was ...
p125
sg5
VJanet Reno Honored\u2026Again | The Agitator
p126
sa(dp127
g3
V... when the government-sponsored enterprise ... then-Attorney General Janet Reno from ... more CRA loans,\u201d she said. \u201cSome people have assumed we don ...
p128
sg5
VFormer Clinton Official Paid $26 Million by Fannie Mae Before ...
p129
sa(dp130
g3
VBut then President Clinton and Attorney General Janet Reno did not rush to judgment ... 20 April 1993: Washington denies ... and took full responsibility for the ...
p131
sg5
VJanet Reno Topics Page - USATODAY.com - USA TODAY: Latest World ...
p132
sa(dp133
g3
VJanet Reno is a hard case, which is okay. She's the law in a town filled ... Lawton Chiles appointed Reno to his 37-member commission on government for the ... 1993 ...
p134
sg5
VJanet Reno - Orlando Sentinel - Featured Articles From The Orlando ...
p135
sa(dp136
g3
V\u201cThe question is whether Janet Reno will go to Congress and ... It has become a consensus Democratic\u2011party position. ... Most estimates assume somewhere around ...
p137
sg5
VROLLING STONE - CAN JANET RENO BUST THE WAR ON DRUGS - 920S-000-008
p138
sa(dp139
g3
V... in 1993 which resulted in burning to ... because of the government policies which Janet Reno as attorney ... I can only assume that any White man ...
p140
sg5
VKilling Little Children -- Free Speech, September 1999
p141
sa(dp142
g3
VThe 1993 Waco Disaster and Government ... and a sizable number did not, but it is fair to assume that much of what ... Janet Reno said she approved the ...
p143
sg5
VTen years after the federal government\u2019s siege just outside of ...
p144
sa(dp145
g3
VDid the government lie to us ... Janet Reno should be tried and sent to prison as soon as we determine ... I guess I must be one of those nut jobs, ...
p146
sg5
VWhy did the FBI murder at least 75 people, (including 20 children ...
p147
sa(dp148
g3
V... MARLON PRIMES, PLAINTIFF-APPELLANT,v.JANET RENO, ... in both 1992 and 1993, ... assured that she would receive the next available position at ...
p149
sg5
V190 F3d 765 Marlon Primes v. Janet Reno US Attorney General ...
p150
sa(dp151
g3
V... 1993. Attorney General Janet Reno on ... FBI and Justice officials have been in the awkward position of ... That's a dark question. Did the government ...
p152
sg5
VThe Waco controversy, then and now - The Ross Institute Internet ...
p153
sa(dp154
g3
V... 1993. Attorney General Janet Reno on ... FBI and Justice officials have been in the awkward position of ... That's a dark question. Did the government ...
p155
sg5
VThe Waco controversy, then and now - The Ross Institute Internet ...
p156
sa(dp157
g3
V... represent gunfire from government positions into the Branch ... "She assumed there would be an ... Janet Reno testified that she never gave approval ...
p158
sg5
VCESNUR - Updates on Waco: March 28-29, 2000
p159
sa(dp160
g3
VThe Israeli government never ... since the FBI had assumed command and ... agents in sniper positions. On April 28, 1993 Janet Reno told the House ...
p161
sg5
VDavid Koresh | The Davidian massacre | Chapter 9 | Murderpedia ...
p162
sa(dp163
g3
VSmith did not rule on the motion. "Our position remains as ... the government $6 million. Reno said she does not ... Janet Reno in August 1993 says they ...
p164
sg5
VApocalypse Forever
p165
sa(dp166
g3
VJanet Reno's only mistake was in ... that has raged since April 1993 when 74 ... are urging the federal government to refrain from using its investigation ...
p167
sg5
VArticles about Waco Tragedy - Los Angeles Times
p168
sa(dp169
g3
Vto position explosives at the ... Maliciously killed April 19th 1993. Mayanah Schneider after the government came to "rescue ... E-mail Janet Reno *When she ...
p170
sg5
VCS/Cyanide gas and explosions kill 41 women and children, two of ...
p171
sa(dp172
g3
VShe maintained this position ... we would never get to the questioning of Janet Reno. ... He apparently has close ties to the government of Paraguay. Id. Since 1993, ...
p173
sg5
VU.S. Department of Justice - The United States House of ...
p174
sa(dp175
g3
VJanet RENO, Attorney General of ... The Government's position is equivalent to arguing that a statute could ban leaflets on certain subjects ... 5-27-224 (1993) (no ...
p176
sg5
VJanet RENO, Attorney General of the United States, et al ...
p177
sa(dp178
g3
V... Plaintiff-Appellant,v.JANET RENO, ... We also reject the government's suggestion that Anderson did not ... In 1993, Coulter told Anderson that if she ...
p179
sg5
V190 F3d 930 Kathleen Anderson v. Janet Reno | OpenJurist
p180
sa(dp181
g3
V... in November of 1993. ... If we assume that they are both males and have equal salaries, ... Janet Reno and other government regulators in the 1990\u2019s ...
p182
sg5
VCommunity Reinvestment Act \u2013 Mattonomics | Website Design ...
p183
sa(dp184
g3
VFrom Janet Reno. And where did Janet Reno ... 1993 she publicly accused the ... Is it the U.S. federal government's official position that "dangerous cult groups ...
p185
sg5
VWaco, the Branch Davidians, and Government Mind Manipulation
p186
sa(dp187
g3
V... head an inquiry into the government's 1993 ... the FBI's position that the tear gas did not ... Janet Reno has said she made it clear to ...
p188
sg5
VTHE WACO FIRE INVESTIGATION - DREAMS OF THE GREAT EARTH CHANGES
p189
sa(dp190
g3
VThey told Janet Reno Janet Reno ... (1993\u20132001). She was nominated by ... and didn't change her position. She did promise several times that she would ...
p191
sg5
VRENO WEATHERS STORM OF QUESTIONS OVER FUND RAISING. - Free Online ...
p192
sa(dp193
g3
VJanet Napolitano is the next Janet Reno she and other ... Already back in 1993 the US government demonstrated ... but later took up hidden defensive positions.
p194
sg5
VHappy Annirversary April 19 Waco /Ruby Ridge (DHS)
p195
sa(dp196
g3
V... 1953-1993 Epilogue, 1993 ... and Janet Reno, Attorney General. ... Neither the State of Florida nor the federal government entered to protect the Florida clinics ...
p197
sg5
VThe Feminist Chronicles, 1953-1993 - Epilogue, 1993 - Feminist ...
p198
sa(dp199
g3
V... during 1992 and early 1993. The government's "conspiracy theory" is ... to assume that because their names ... Janet Reno, Other High Government Officials ...
p200
sg5
VThe federal prosecution of eleven Branch Davidians began January ...
p201
sa(dp202
g3
V... 1993. She was again appointed in 1997 by ... entrepreneurs who have prominent party or government positions, ... Did Janet Reno's Justice Department drag its ...
p203
sg5
VWilliam Perry - DOWNSIDE LEGACY at two degrees of Bill Clinton
p204
sa(dp205
g3
VFrom Janet Reno. And where did Janet Reno ... 1993 she publicly accused the ... Is it the U.S. federal government's official position that "dangerous cult groups ...
p206
sg5
VWaco Branch Davidians: Is Your Church BATF Approved?
p207
sa(dp208
g3
VFederal Judges Rule That CDA is Unconstitutional. In this federal court case, the ACLU convinced a three judge panel that the indecency policy in the Communications ...
p209
sg5
VACLU vs. Janet Reno - Computer Repair Services | IT Support ...
p210
sa(dp211
g3
V1991-1993: George Bush: Janet Reno: 1993 ... in a number of contradictory legal positions for the federal government. ... assumed that they themselves were ...
p212
sg5
VAttorney General Facts, information, pictures | Encyclopedia.com ...
p213
sa(dp214
g3
VJanet Reno admits she gave little thought to the possibility ... The government eventually did pay ... 1993 Attorney General Janet Reno told the House ...
p215
sg5
VThe Davidian Massacre -- Chpt. 10 - CarolMoore.Net
p216
sa(dp217
g3
V1991-1993: George Bush: Janet Reno: 1993 ... in a number of contradictory legal positions for the federal government. ... assumed that they themselves were ...
p218
sg5
Vattorney general legal definition of attorney general. attorney ...
p219
sa(dp220
g3
VRENO, 509 U.S. 630 (1993) ... ET AL., APPELLANTS v. JANET RENO, ATTORNEY GENERAL ET AL. ... awarding government contracts on a racial basis excludes certain firms ...
p221
sg5
VFindLaw | Cases and Codes
p222
sa(dp223
g3
VJANET RENO, ATTORNEY GENERAL, et al., ... in the same position he did before he applied: ... Congress may well have assumed that, ...
p224
sg5
VReno v. Catholic Social Servs., 509 U.S. 43 (1993).
p225
sa(dp226
g3
VAnd I think it's very sad that Janet Reno did not have the courage ... that was Lazaro's position, because the only ... the government said, but she did not ...
p227
sg5
VCNN Transcript - Breaking News: Janet Reno Addresses the INS ...
p228
sa(dp229
g3
V... state of Arizona as Janet Reno\u2019s puppet in ... doubt and assume that what you say she is ... She was promised a high ranking position in Washington by Obama ...
p230
sg5
VSecretary of Homeland Security Janet Napolitano Needs to Be Fired ...
p231
sa(dp232
g3
V... the OFFICIAL view of the U.S. Federal Administrative Government under ... Other parents said they assumed the ... When in 1993 Janet Reno was ...
p233
sg5
VHiddenMysteries Conspiracy Archive - HiddenMysteries Information ...
p234
sa(dp235
g3
Vjobs ; home :: wmd ... congressional republicans are calling on u-s attorney general janet reno to resign in the wake of ... /// reno act. /// when government asks ...
p236
sg5
VRENO UNDER FIRE - GlobalSecurity.org - Reliable Security Information
p237
sa(dp238
g3
VThe FBI yesterday reversed a six-year-old position that it never ... such as Attorney General Janet Reno, ... Reno testified in 1993 that she "wanted and ...
p239
sg5
VWashingtonpost.com: FBI Reverses Its Stand on Waco
p240
sa(dp241
g3
VLAST SPRING JANET RENO BECAME THE STAR OF THE ... Of course this is merely a balder version of what routinely happens when the government tries ... Jobs; Advertise ...
p242
sg5
VThe Buck Stops Where? - Newsweek and The Daily Beast
p243
sa(dp244
g3
V... to Janet Reno Dated May 21, 1993 ... A new study by the Cato Institute says that the final official government report on the 1993 ... He said he assumed ...
p245
sg5
VREMEMBER WACO! - APFN
p246
sa(dp247
g3
VThese excerpts from Limbaugh\u2019s book discuss how Janet Reno thwarted any ... In 1993, shortly after she was ... \u201cIt is reasonable to assume that she is under ...
p248
sg5
V\u2018Absolute power\u2019 of Clinton Justice Department
p249
sa(dp250
g3
V... 1993). By 6:00 a.m., the FBI has assumed formal ... Attorney General Janet Reno discusses tear ... 4/14/1993; House Committee on Government Reform ...
p251
sg5
VWilliam S. Sessions - History Commons
p252
sa(dp253
g3
VAttorney General Janet Reno would later admit she had ... 1993 briefing book given to Janet Reno which ... (He reveals that the government did not send him ...
p254
sg5
VReport on House Waco Hearings - CarolMoore.Net
p255
sa(dp256
g3
VJanet Reno, U.S. Attorney General. 10 Dec 1993. Remove this ad ... Now I'd like to see the charts and position of where this is. ... Janet Reno, U.S. Attorney ...
p257
sg5
VUS Navy minesweeper runs aground in The United States Navy Forum
p258
sa(dp259
g3
V... "Janet Reno's prosecution of ... internal fabric of government." ... "The FBI will assume responsibility for follow-up on the allegations of criminal ...
p260
sg5
VJanet Reno's Greatest Hits - - News - Miami - Miami New Times
p261
sa(dp262
g3
VThe "B'nai B'rith" speech by "Janet Reno" ... espouse and advocate a position that would effectively repeal the ... Early in 1993, after Reno was nominated to ...
p263
sg5
VGunCite - Gun Control: Bogus gun control quotes
p264
sa(dp265
g3
V... and the government's position is ... General Janet Reno said yesterday that the FBI repeatedly had assured her that weapons used in the final 1993 assault ...
p266
sg5
VReno Livid Over FBI's Admission It Used Incendiary Device at Waco ...
p267
sa(dp268
g3
VThe Government's position is equivalent to arguing that a statute could ban leaflets on certain ... JANET RENO, ATTORNEY GENERAL OF ... (1993), among other cases ...
p269
sg5
VFindLaw | Cases and Codes
p270
sa(dp271
g3
VOn the other side are those who want to turn the Christian church into the government ....Our ... Janet Reno's choice ... create jobs. Compare that record to 1993.
p272
sg5
VMediaWatch - May 1993 -- Media Research Center
p273
sa(dp274
g3
V11 Feb 1993: President Clinton nominates the beautiful Janet Reno to be US Attorney General. ... You'll never have a socialist government where everybody's Christian."
p275
sg5
VBill Clinton
p276
sa(dp277
g3
VJanet Reno, Attorney ... The concurrence by Justice Scalia, joined by Justice Thomas, assumed she had ... which agreed with the government's position here ...
p278
sg5
V226 F.3d 141: Frederick A. Lake, Petitioner, v. Janet Reno ...
p279
sa(dp280
g3
V... Attorney General Janet Reno revealed that she had discussed with ... during the 1993 standoff ... position that the government intentionally ...
p281
sg5
VBRANCH DAVIDIANS (STUDENTS OF THE SEVEN SEALS)
p282
sa(dp283
g3
V\u201cWe\u2019ll ask Janet Reno for all of her ... Especially when we hear that the FBI has taken a clear position that they ... Government documents indicate there ...
p284
sg5
VWaco children lawsuit accelerates - WND - A Free Press for a Free ...
p285
sa(dp286
g3
VThe FBI years later reversed its position that it never used munitions capable of ... such as inept AG Janet Reno ... 1993 government tax raid by the Bureau ...
p287
sg5
VWaco Davidians, Ugly Truths and Evil Plans
p288
sa(dp289
g3
VFifty-one days later on Monday, April 19, 1993, the government's ... GAS Attorney General Janet Reno has said that she accepts "full ... their jobs, budgets, and ...
p290
sg5
VSubject: Waco: Biggest Cover-up Since JFK Assassination Date: Tue ...
p291
sa(dp292
g3
VI returned to D.C. that Friday to meet Janet Reno. She was ... civil rights position. Early in January 1993, ... assumed leadership positions in a ...
p293
sg5
VLife Every Voice - The New York Times - Breaking News, World News ...
p294
sa(dp295
g3
VPerhaps NBC network executives did not want to offend government officials by ... Janet Reno told the April 28, 1993, ... since the FBI had assumed command and ...
p296
sg5
VEXCESSIVE FORCE AND COVERUP
p297
sa(dp298
g3
VPoliticians and Government ... (FBI used pyrotechnic gas against the Branch Davidian compound in Waco in April 1993) ... EVER since Janet Reno, ...
p299
sg5
VThe Waco investigation.(FBI used pyrotechnic gas against the ...
p300
sa(dp301
g3
VJanet RENO, Attorney General ... The government then asserts that since Anderson did not ... * In 1993, Coulter told Anderson that if she wanted better ...
p302
sg5
VANDERSON v. RENO, No. 98-16458., September 08, 1999 - US 9th ...
p303
sa.