(lp1
(dp2
S'description'
p3
VMuch of the western Amazon River Basin is ringed by the Andes mountains, the world's second highest mountain range and the backbone of South America (see modern maps).
p4
sS'title'
p5
VAmazon Scenery - Mountain - Jungle Photos, Amazon, Galapagos ...
p6
sa(dp7
g3
VThe source of the amazon river is found in which mountain range? aisa In which mountain range does the Amazon river start? It starts as a trickle high in the snow ...
p8
sg5
VIn what mountain range is the source of the Amazon river
p9
sa(dp10
g3
VIt starts as a trickle high in the snow-capped Andes mountains and flows over 4000 miles across
p11
sg5
VIn which mountain range does the Amazon river start - The Q&A wiki
p12
sa(dp13
g3
VAmazon Basin: The Amazon Basin (Amazonia) is covered by the largest tropical rain forest in the world, and running through its heart is the Amazon River and its more ...
p14
sg5
VLandforms of South America, Mountain Ranges of South America ...
p15
sa(dp16
g3
V... with as its main headstream the Carhuasanta glacial stream flowing off the Nevado Mismi mountain. The width of the Amazon ... thus the Amazon does ... The rise of ...
p17
sg5
VAmazon River - Wikipedia, the free encyclopedia
p18
sa(dp19
g3
VThe Amazon River . The Amazon River ... The rise of the Negro branch is not synchronous; ... the second tallest mountain range on Earth, ...
p20
sg5
VUnique Facts About South & Central America: : The Amazon River
p21
sa(dp22
g3
VThey rise up as the crust collides ... A mountain range is a series or chain of mountains that are close ... Help Save the Colorado River. Quiz: Coal vs. Natural ...
p23
sg5
VMountains, Mountain Range Information, Facts, News, Photos ...
p24
sa(dp25
g3
VThe river is fed by mountain springs and snows, ... has its rise in the Juniper range, north-west of Prescott, while another branch rises at People's valley.
p26
sg5
VRIVERS AND MOUNTAINS - The University of Arizona Library's ...
p27
sa(dp28
g3
VThe Amazon River, according to many ... the Andes Mountains to the west; ... The width of the river ranges from one mile to 35 miles. The city at the ...
p29
sg5
VAmazon Basin Facts - National Zoo| FONZ
p30
sa(dp31
g3
VAmazon graphic The Amazon river once flowed out of a eastern mountain range. ... \u2014 The Amazon River originated as a transcontinental river around 11 million years ...
p32
sg5
VAmazon River Reversed Flow - Science Daily: News & Articles in ...
p33
sa(dp34
g3
VAmazon Arts Business Computers Consumer Electronics Education ... the volcanism that gives rise to the unusual geologic ... and consider one mountain range, ...
p35
sg5
Vare the rocky mountains rising today? if so how much do they grow ...
p36
sa(dp37
g3
VAmazon River (river, ... (mountain range, South ... continental South American Plate and the oceanic Nazca Plate\u2014gave rise to the orogenic (mountain ...
p38
sg5
VAndes Mountains (mountain system, South America) -- Encyclopedia ...
p39
sa(dp40
g3
VThis image is from a successful kayaking trip through the Amazon River in 1985, ... mountain in southern Peru. ... The river ranges in width from 1 to 6 miles ...
p41
sg5
VExplorers Pinpoint Source of the Amazon - Daily Nature and Science ...
p42
sa(dp43
g3
VThe rainforest biome is marked by the presence of different landforms such as mountains ... Amazon river originates ... give rise to a complex ecosystem ...
p44
sg5
VLandforms in Tropical Rainforests - Buzzle
p45
sa(dp46
g3
VThe mountain range, ... the mountains themselves are not particularly high since they rise from areas already at 4,000 ... with the Liard River in Canada serving as ...
p47
sg5
VFacts About the Rocky Mountain Range | USA Today
p48
sa(dp49
g3
VMaps of The Amazon River. In this one you can just make out the Amazon in the center. Just another photo. Back To Main Page ...
p50
sg5
VMaps of The Amazon River - :: MBarron.net ::
p51
sa(dp52
g3
VThe mountain range starts near the Mediterranean Seaon the border between France and Italy. ... rise = to go up or get higher; rye = grain that is used for making ...
p53
sg5
VThe Alps - Highest Mountain Range in Europe
p54
sa(dp55
g3
VThe great mountain range of South America ... a fresh layer of river silt when the Amazon ... that the sudden rise of the Andes Mountains on the coast ...
p56
sg5
VSouth America (World of Earth Science) Study Guide & Homework Help ...
p57
sa(dp58
g3
VMap of South America landforms including the Amazon rainforest, Andes mountains, ... its heart is the Amazon River, ... includes varied mountain ranges, ...
p59
sg5
VSouth America Landforms \u2013 Rivers of South America, Amazon ...
p60
sa(dp61
g3
VOrogenesis involves the formation of mountain ranges by means of ... river terraces, and ... The peaks of some of these mountains rise above the surface of the ...
p62
sg5
VMountains Facts, information, pictures | Encyclopedia.com articles ...
p63
sa(dp64
g3
VUnlike most other great mountain ranges, the Tetons rise steeply from the flat valley floor in a straight unbroken ... and northwestward from the Wind River Range ...
p65
sg5
VCreation of the Teton Landscape: The Geologic Story of Grand Teton ...
p66
sa(dp67
g3
VThe mountains rise high above the western ... along the southwestern and western coast north to the mouth of the Tapti River; their average elevations range from ...
p68
sg5
VTop 10 Mountain Ranges in the World - spliffic09 on HubPages
p69
sa(dp70
g3
VRecently formed mountains, called coastal ranges, rise near the western coasts of North and ... the Amazon River and its tributaries flow through the world\u2019s ...
p71
sg5
Vcontinent - National Geographic Education
p72
sa(dp73
g3
VThe greatest mountain range in South America and home to even bigger civilizations, ... the Andes's rise started much earlier than previously thought, ...
p74
sg5
VANDES MOUNTAINS - UNIQUE SOUTHAMERICA TRAVEL EXPERIENCE
p75
sa(dp76
g3
VThe Amazon River begins in the Peruvian Andes, and winds ... , the Andes Mountains slowly rose up and blocked the flow of the river. As the river ... and rise well ...
p77
sg5
VAmazon Rainforest - Blue Planet Biomes
p78
sa(dp79
g3
V... tons of sediment are washed into rainforest rivers from the mountains and ... the tributaries of the Rio Negro rise in ... Clearwater river in the upper Amazon ...
p80
sg5
VTHE FOREST RIVER\u2014RIVER TYPES - Rainforests: facts, figures, news ...
p81
sa(dp82
g3
VA mountain range is a series of mountains connected to each other in such a way that they end up ... Not only is the Amazon River the longest river in South ...
p83
sg5
VAbout the Mountain Ranges of South America | eHow
p84
sa(dp85
g3
VA mountain range is a succession of many closely spaced mountains covering a particular region of the Earth. ... slopes, and rise.
p86
sg5
VMountain - Encyclopedia of Earth
p87
sa(dp88
g3
VThe Eastern Plains rise from 3,500 feet above sea level at the eastern border to ... shallow river valleys, ... This mountain range, ...
p89
sg5
V8750-Rocky Mountains: History, Information and Stories
p90
sa(dp91
g3
VThe rivers rise from snowmelt at the edges of the snowcapped peaks or from ... The Napo ranges in width from 500 ... All of these rivers flow into the Amazon River.
p92
sg5
VEcuador - Rivers - Country Studies
p93
sa(dp94
g3
VThese mountain ranges rise above 24,000ft with peaks that are over 10,000ft. ... River valleys throughout Europe are of very high importance.
p95
sg5
VLandforms of Europe and Russia - Yahoo! Voices - voices.yahoo.com
p96
sa(dp97
g3
VThe ranges of the Andes Mountains, ... between the Oriental and the Central ranges, and the valley of the Cauca River, ... rise to an average elevation of about ...
p98
sg5
VSouth America : The Andes Mountains -- Encyclopedia Britannica
p99
sa(dp100
g3
VAmazon List Price: $14.95. ... When air encounters a mountain range, for example, air is forced to rise up and over the mountains and if enough lifting occurs, ...
p101
sg5
VWhy do clouds consistentlhy gather around mountain tops instead of ...
p102
sa(dp103
g3
VThe Amazon River is the world's second ... The width of the Amazon ranges from about 1 to 8 ... From its source in the mountains not far from the ...
p104
sg5
VStream and River - The shape of the land, Forces and changes ...
p105
sa(dp106
g3
VTHE AMAZON RIVER. The Amazon River in ... The Andean mountain range and the Amazon jungle are home to more than half of the world's species of flora and fauna and one ...
p107
sg5
VThe Amazon River - Aquarium plants, and aquascape plant packages
p108
sa(dp109
g3
VOn this range rise some of the loftiest mountain peaks in the world ... Unlike the main Himalayas, the Trans Himalayan mountains are not divided by deep river ...
p110
sg5
VHimalaya - Himalaya Photos- Gallery - Himalaya Info - Himalaya Tours
p111
sa(dp112
g3
VColumbia River, Deschutes, ... Much of these low mountain ranges are forested with evergreens such as ... the Cascade Mountains rise to 11,239 feet above ...
p113
sg5
VOregon Geography from NETSTATE - 50 States - State Symbols ...
p114
sa(dp115
g3
VWith 80 recognized mountain ranges, ... slopes of the Blackfoot Mountains climb roughly 2,400 feet above the Snake River. On the east, the slopes rise only 600 feet ...
p116
sg5
VIdaho Geography from NETSTATE - 50 States - State Symbols ...
p117
sa(dp118
g3
VThe river level can rise ... the small mountain across the river from the trail is ... Schools of striped bass in the 8- to 14-pound range ...
p119
sg5
VSherpa Guides | Virginia | Mountains | River Valleys | The New River
p120
sa(dp121
g3
VColorado river and the use of its water has shaped the history of the states ... The forested Wasatch Mountain Range of southern Utah is visible north of the Kaibab ...
p122
sg5
VColorado River - Water in the desert - DesertUSA
p123
sa(dp124
g3
VMost of the Rivers in Venezuela rise in the northern mountains and flow towards ... Cuyuni River; Rio Negro Amazon ... rida - This mountain range extends ...
p125
sg5
VVenezuela Geography - Map of River and Mountains
p126
sa(dp127
g3
VThe Idaho part of the range does not quite reach the same elevation as Utah side but it is more ... There is one roadless area in the Snake River Range. Sublett Mountains
p128
sg5
VSoutheast Idaho Ranges : Climbing, Hiking & Mountaineering ...
p129
sa(dp130
g3
VThe range covers about 8,850 ... the Brazilian Highlands are made up of low mountains and plateaus that rise to an average ... The Amazon River basin has an area of ...
p131
sg5
VSouth America: Physical Geography - National Geographic Education
p132
sa(dp133
g3
VThe sun does rise in winter but doesn't ... See my Mountain Ranges page for more information on Alaskan mountain ranges. Why does snow ... any lake or river of ...
p134
sg5
VGreat Land of Alaska - Alaskan FAQ
p135
sa(dp136
g3
VTHE RISE OF CIVILIZATION Early River Valley Civilizations: ... and Bangladesh Himalayas World\u2019s tallest mountain ranges separate it from rest of Asia Rivers, ...
p137
sg5
VTHE RISE OF CIVILIZATION Early River Valley Civilizations: 3500 B ...
p138
sa(dp139
g3
V... (from which they rise abruptly for most of their length) ... Beartooth, Owl Creek, and Uinta Mts., and the Wind River Range (all broad folded mountains).
p140
sg5
VRocky Mountains Facts, information, pictures | Encyclopedia.com ...
p141
sa(dp142
g3
V... rises abruptly from the shore in northern Humboldt County and extend 400 miles south to the Santa Ynez River ... Mountains and the northern Coast Ranges.
p143
sg5
VCalifornia's Coastal Mountains - CERES
p144
sa(dp145
g3
VSince the Andes is a volcanically active mountain range, ... The mountains that cause the Amazon to be the largest river from collecting all the rainfall are also ...
p146
sg5
VDriest Desert | Atacama Desert, Chile - Extreme Science | Science ...
p147
sa(dp148
g3
VWhen moist air blows perpendicular to a mountain range, the air is forced to rise; as it does, ... A similar situation exists in the Hood River Valley of Oregon, ...
p149
sg5
VMountain Climate - University of Colorado Boulder
p150
sa(dp151
g3
VIf a typical mountain range is cut by a fault with large ... giving rise to what is often called a faceted ... The Teton River is also considered a Blue ...
p152
sg5
VThe Grand Teton Mountain Range - Greater Yellowstone Resource ...
p153
sa(dp154
g3
VWhen moist air blows perpendicular to a mountain range, the air is forced to rise; as it does, ... A similar situation exists in the Hood River Valley of Oregon, ...
p155
sg5
VMountain Climate - University of Colorado Boulder
p156
sa(dp157
g3
VIf a typical mountain range is cut by a fault with large ... giving rise to what is often called a faceted ... The Teton River is also considered a Blue ...
p158
sg5
VThe Grand Teton Mountain Range - Greater Yellowstone Resource ...
p159
sa(dp160
g3
VNot all rivers have deltas. There are famous deltas on the Nile River, the Amazon River, ... Mountain; Mountain range; Flood; Drought; Erosion; References
p161
sg5
VRiver - Simple English Wikipedia, the free encyclopedia
p162
sa(dp163
g3
V... , the highest mountain system in ... more than 30 Himalayan peaks rise to heights ... Mount Rainier in the Cascade Range of the ...
p164
sg5
VMountains - Pacific Island Travel
p165
sa(dp166
g3
VRussia's topography includes the world's deepest lake and Europe's highest mountain and longest river. ... Russia's mountain ranges ... the Caucasus Mountains rise ...
p167
sg5
VRussia - GEOGRAPHY - Environmental news and information - mongabay.com
p168
sa(dp169
g3
V... the Bear River Range, the Wellsville Mountains, Monte Cristo Range, ... The mountains rise over 4,500 feet above the valley floor with very few foothills.
p170
sg5
VNorthern Utah Ranges : Climbing, Hiking & Mountaineering : SummitPost
p171
sa(dp172
g3
VGenerally, mountains are those pieces of land that rise above 2000 feet. ... Soil also has a great affect, as does the latitude of the mountain range.
p173
sg5
VFacts About Mountains - Essortment Articles: Free Online Articles ...
p174
sa(dp175
g3
V... broken by a number of low mountain ranges and cut by deep valleys. The highlands ascend steeply in the east forming an escarpment, ... The Amazon River, ...
p176
sg5
VBRAZIL - Land
p177
sa(dp178
g3
VThe Amazon River has the largest watershed ... Streams that begin in the Andes Mountains are the starting sources for the Amazon River. 5.
p179
sg5
VAmazon River - Overview of the Amazon River
p180
sa(dp181
g3
VLots of facts and photos of the Amazon River. I have made a web site about the Amazon River in South America.
p182
sg5
VThe Amazon River
p183
sa(dp184
g3
VAmong the world's great mountain ranges, ... the base-to-summit rise and ... The Southern Appalachians are often said to begin south of the Potomac River, ...
p185
sg5
VAppalachian Mountains - Peakbagger.com
p186
sa(dp187
g3
V... , and is located in the Southern Rocky Mountains and Basin and Range ... river in the area and has ... table to rise so near land surface ...
p188
sg5
VHA 730-C Rio Grande aquifer system text - Welcome to the USGS - U ...
p189
sa(dp190
g3
V... W. E. Reed, and P. M. Davis, \u201cThe Rise and Fall of Mountain Ranges,\u201d in Exploring Earth: An Introduction to Physical Geology (Upper Saddle River, New Jersey: ...
p191
sg5
VHigh & Dry Sea Creatures - Answers in Genesis
p192
sa(dp193
g3
VThe Amazon is a gigantic system of rivers and forests, covering almost half of Brazil and extending into neighboring countries. The wide stretch of river, known as ...
p194
sg5
VAmazon River in Brazil - M&D Weil Travel & Family
p195
sa(dp196
g3
VRise and Fall of Joseph Estrada; Social Issues in the Philippines; Sun Broadband; Superduo; Tallest bridge in the Philippines; Text News; The Perfect Sacrifice ...
p197
sg5
VLongest in the Philippines - Txtmania.com | Find and Connect with ...
p198
sa(dp199
g3
VMountain Ranges : While new ocean crust is constantly being created at mid-ocean ridges, old crust must ...
p200
sg5
VPlate Tectonics : Mountain Ranges
p201
sa(dp202
g3
VThe Amazon rainforest is very important to the South American economy. ... Amazon River. Destruction. Economic Importance. Recommended sites. News. Home| Contact |
p203
sg5
VAmazon Rainforest Economic Importance
p204
sa(dp205
g3
VAlong with the Sangre de Cristo range, ... volcanoes which now rise to ... at an NFS campground near the river. Most of the Jemez Mountains area is within ...
p206
sg5
VThe Jemez Mountains, near Santa Fe, New Mexico
p207
sa(dp208
g3
Vdebrawinters: The headwaters of the Amazon river begin high in the Andes Mountains of South America. The river snakes through the entire norther half of the continent.
p209
sg5
VWhere does the Amazon River Begin? - Answers.Ask.com
p210
sa(dp211
g3
VThese cats have a wide range throughout the ... held a symposium in 1991 specifically addressing the rise in mountain lion ... near the spring or river.
p212
sg5
VMOUNTAIN LION FACT SHEET - Abundant Wildlife Society of North America
p213
sa(dp214
g3
VIt is 6825 km or 4100 miles long and is the longest river on earth. Only the Amazon River of ... the snow-clad mountains of ... the rise and retreat of ...
p215
sg5
VThe River Nile Homepage - The University of Texas at Dallas
p216
sa(dp217
g3
VIn the Cascade Range example, ... View of Columbia River from Dog Mountain image by Duc Ly from Fotolia.com) Topographic uplifts can also affect wind concentration ...
p218
sg5
VHow Landforms Affect Weather | eHow.com
p219
sa(dp220
g3
VThe the Amazon River ... but generally areas outside the basin are included when people speak about "the Amazon." The biogeographic Amazon ranges ... The rise of the ...
p221
sg5
VThe Amazon Rainforest - Rainforests: facts, figures, news, and ...
p222
sa(dp223
g3
VThe Rocky Mountains are a majestic American mountain range. Learn more about the Rocky Mountains at ... The mountains rise abruptly from the ... The Lackawanna River;
p224
sg5
VHowStuffWorks "The Rocky Mountains"
p225
sa(dp226
g3
VI am the source of the famous Amazon river and most of its tributaries. ... I am a system of mountain ranges and plateaus in eastern Australia, ...
p227
sg5
VMighty Mountain Ranges: Who Am I? - Fun Facts, Questions, Answers ...
p228
sa(dp229
g3
VDoes it mean: a fool or simpleton; ninny. an extraordinary or unusual thing, person, or event; an ... Mountain range. Gander mountain. Mountain lion. Mountain facts.
p230
sg5
VMountain | Define Mountain at Dictionary.com
p231
sa(dp232
g3
VEnjoy our awesome range of Earth facts for kids. Check out the cool trivia and have fun learning about some of our planet's most amazing features. Amazon River Facts.
p233
sg5
VAmazon River Facts for Kids - Interesting Facts about the Amazon River
p234
sa(dp235
g3
VThe rivers draining the young ranges of the ... Self-Sculpting Mountains. As mountains rise, ... Some researchers argue that as a river erodes an area of rocks ...
p236
sg5
VThe Rise of Erosion - How Erosion Returned to the Cutting Edge of ...
p237
sa(dp238
g3
VThe Blue Ridge Mountains in northeast Georgia make up the state's highest mountain range. ... counties. The Etowah River, ... a barely discernible rise in ...
p239
sg5
VNew Georgia Encyclopedia: Blue Ridge Mountains
p240
sa(dp241
g3
VAmazon could shrink by 85% due to climate change, scientists say \u2022 Scientists say 4C rise would kill 85% of the Amazon rainforest \u2022 Even modest ...
p242
sg5
VAmazon could shrink by 85% due to climate change, scientists say ...
p243
sa(dp244
g3
VThe Appalachian Mountains, the largest range in the ... least 40 mountains that rise to 6,000 feet and ... United States east of the Mississippi River.
p245
sg5
VGeography of North Carolina
p246
sa(dp247
g3
VIt is less in length only to the Amazon and ... well describes the river\u2019s range of picturesque ... of them will have to relocate as dam waters rise. ...
p248
sg5
VThe Water Page - Yangtze River
p249
sa(dp250
g3
VAmazon Basin, Andes Mountains, ... and running through its heart is the Amazon River, ... The magnificent landscape includes varied mountain ranges, ...
p251
sg5
VLearning Latin America - SouthAmericaGeography
p252
sa(dp253
g3
V... the Auvergne Mountains, of volcanic origin, rise from the plateaus of the Massif Central. ... The Jura, a mountain range on the Swiss ... France" from Amazon.com ...
p254
sg5
VFrance's Land and Topography - Discover France - French Arts ...
p255
sa(dp256
g3
VAmazon, the largest river in the world is also situated in the South American continent. ... The Andes is the most prominent mountain range of South America.
p257
sg5
VSouth America Mountains - World Map
p258
sa(dp259
g3
VThey nest on mountain ledges in the Andean Range and have a low reproductive rate as they lay eggs every other year. ... Andean camels and Amazon River ecosystem and ...
p260
sg5
VDiscover Peru \u2013 Endangered Animals in the Andes
p261
sa(dp262
g3
VIn these web pages the alpine "biome" will be considered to be the upper altitudes of mountains, where cooler climates give rise ... the global mountain ranges ...
p263
sg5
VThe Alpine Biome - Marietta College
p264
sa(dp265
g3
VMount Whitney has a huge vertical rise, towering 10,778 feet (3,285 meters) ... a long row of high peaks in the north-south trending Sierra Nevada mountain range.
p266
sg5
VMount Whitney \u2014 Highest Mountain in California \u2014 Facts About ...
p267
sa(dp268
g3
VThe principal mountain ranges of North Island extend along the eastern side. ... (210 miles), the longest river of the island, rise in the Southern Alps.
p269
sg5
VPhysical Geography - University of Hawaii System
p270
sa(dp271
g3
VWithin each area there is a wide range of options. ... creeks and small lakes running off the Amazon River and it's ... This gives rise to the numerous black water ...
p272
sg5
VDiscus Fish Care Guide for Setting up the Discus Fish Aquarium and ...
p273
sa(dp274
g3
VAs for Andes Mountains facts, no mountain range ... Combining treks and visits to ruins in the Andes Mountains is a perfect compliment to exploring Peru\u2019s Amazon ...
p275
sg5
VAndes Mountains Peru - Peruvian Andes - Online Travel Guides of ...
p276
sa(dp277
g3
VThe most prominent geographical features of Brazil are the Brazilian Highlands or Brazilian Plateau and the basin of the Amazon River: The Principle Mountain Ranges ...
p278
sg5
VBrazil's Land and Resources
p279
sa(dp280
g3
VCascade Range: One of nearly 500 mountain ranges or regions profiled on Peakware.com. ... which generally rise in isolation and are separated by great intervening ...
p281
sg5
VCascade Range - Peakware.com - Peakware World Mountain Encyclopedia
p282
sa(dp283
g3
VAmazon River Dolphin; ... disrupt river connectivity; block the range of many aquatic ... An important milestone was the creation of Tumucumaque Mountains National ...
p284
sg5
VAmazon | Places | WWF
p285
sa(dp286
g3
VThe Basin and Range Province is characterized by numerous mountain ranges that rise abruptly from broad ... Colorado River downcutting was accompanied ...
p287
sg5
VGeologic Framework of - The University of Arizona Library's ...
p288
sa(dp289
g3
VThey rise steeply in an area so compact ... the Blue Mountain range sprawls across the eastern ... A swinging bridge across the river connects Ginger House to ...
p290
sg5
VBlue Mountains, Jamaica - breathtaking views, bird watching and ...
p291
sa(dp292
g3
VThe Cascades were among the world's greatest mountain ranges. ... dams on the river. Mountains do not stop at ... North Pacific must rise to get over the mountains.
p293
sg5
VNorth Cascades National Park Information Page
p294
sa(dp295
g3
VNortheast winds behind the front pile cold air up against the mountains, ... ranges do not occur during the ... the Mississippi River Valley ...
p296
sg5
V50 Degree Temperature Ranges
p297
sa(dp298
g3
VIt originates from a Glacier on the west of Geladandong Mountain towards the east of Tibetan Plateau. ... Where Does The Amazon River Start And End?
p299
sg5
VWhere Does The Chang Jiang (yangtze) River Start And End? - Blurtit
p300
sa(dp301
g3
VThe Andes Mountains are located in South America, running ... The Andes Mountains are the longest and one of the highest mountain ranges in the world. They ...
p302
sg5
VAndes Mountain Range
p303
sa.