(lp1
(dp2
S'description'
p3
VThroughout his career, Bing Crosby often credited Mildred Bailey for getting him his first ... "there's only one singer you ought to listen to and his name is Crosby.
p4
sS'title'
p5
VBing Crosby - Wikipedia, the free encyclopedia
p6
sa(dp7
g3
VBest Answer: In 1910, Crosby was forever renamed. The six-year-old Harry Lillis discovered a full-page feature in the Sunday edition of the Spokesman ...
p8
sg5
VHow did "Bing" Crosby acquire that nickname- his given names were ...
p9
sa(dp10
g3
VBing Crosby was the fourth of seven children of Tacoma, Washington, brewery bookkeeper Harry Lowe Crosby and Kate Harrigan Crosby. He studied law at Gonzaga ...
p11
sg5
VBing Crosby - Biography
p12
sa(dp13
g3
VBing Crosby's 1945 broadcast featured on 'Star Spangled Radio Hour' (Photos) radio; May 9, 2013; ... Jenner has made a name for herself by being an attention hog.
p14
sg5
VBing Crosby's 1945 broadcast featured on 'Star Spangled Radio Hour ...
p15
sa(dp16
g3
VBing Crosby biography: American actor/singer Bing Crosby acquired his nickname as a child in Washington state. As the...
p17
sg5
VBing Crosby - Biography - MSN Movies
p18
sa(dp19
g3
VBest Answer: "In 1906, the Crosby family moved to Spokane, Washington. There, Bing became a friend of a neighbor boy, Valentine Hobart. The two had a ...
p20
sg5
VHow did harry crosby get the name "bing"-no Wiki answers please ...
p21
sa(dp22
g3
VIn 1910, Crosby was forever renamed. The six-year-old Harry Lillis discovered a full-page feature in the Sunday edition of the Spokesman-Review , "The Bingville Bugle ...
p23
sg5
VWhere did Bing Crosby get his name - The Q&A wiki
p24
sa(dp25
g3
VIt should be noted that Bing Crosby had no birth certificate and ... released the baptismal records that revealed his date of birth. The nickname "Bing" was ...
p26
sg5
VBing Crosby Biography - RootsWeb: Freepages
p27
sa(dp28
g3
VBing Crosby was born in 1903 in Tacoma, Washington. ... Name * Email * Website . 30 second news. Click HERE for seven channels of West Cork Television. Contact the ...
p29
sg5
VWest Cork roots for Bing Crosby
p30
sa(dp31
g3
VThe proliferation of Crosby references in films and other mass media attests to the fact that his name was a ... The Bing Crosby Show, his first TV ...
p32
sg5
VBING CROSBY - Sam Houston State University - Texas - Carnegie ...
p33
sa(dp34
g3
VAmerican actor/singer Bing Crosby acquired his nickname as a child in Washington state. As the legend goes, little Harry Lillis Crosby's favorite comic strip was "The ...
p35
sg5
VBing Crosby - Rotten Tomatoes - Movies | Movie Trailers | Reviews ...
p36
sa(dp37
g3
VCrosby earned his famous nickname around the age of 7; "Bing" comes from a comic strip he adored, ... 9262159 profile name: Bing Crosby profile occupation: ...
p38
sg5
VBing Crosby Biography - Facts, Birthday, Life Story - Biography.com
p39
sa(dp40
g3
VCrosby's nickname "Bing" grew out of his childhood interest in a comic strip titled The Bingville Bugle ... Bing Crosby and Bob Hope both started golf tournaments; ...
p41
sg5
VBing Crosby Biography - Birthday, Photos - Who2.com
p42
sa(dp43
g3
VIn 1929 a friend introduced Dixie to Bing Crosby. Bing recounted in his autobiography Call Me ... His middle name was given in tribute to Bing\u2019s close friend, ...
p44
sg5
VTHE CROSBY FAMILY | Bing Crosby
p45
sa(dp46
g3
VAmerican actor/singer Bing Crosby acquired his nickname as a child in Washington state. As the legend goes, little Harry Lillis Crosby's favorite comic strip was "The ...
p47
sg5
VBing Crosby | Celebrities | Hollywood.com
p48
sa(dp49
g3
VLimited-run holiday channel features vintage Bing Crosby holiday radio programs. ... First Name * * indicates required. Close. FACEBOOK. TWITTER. GONZAGA UNIVERSITY.
p50
sg5
VBing Crosby | The Official Home of Bing Crosby.
p51
sa(dp52
g3
VIs bing Crosby david Crosby's father? from a website I found: . "Extra credit : Crosby's nickname "Bing" grew out of his childhood interest in a comic
p53
sg5
VWhat was Bing Crosby's nickname - The Q&A wiki
p54
sa(dp55
g3
VReal Name. Harry Lillis Crosby; Marriages / Children. Dixie Lee (1930-52) Gary (1933-95) ... When the manager docked his pay Bing walked out in protest, ...
p56
sg5
VSolid! -- Bing Crosby
p57
sa(dp58
g3
VBing Crosby Birthday May 2, 1903. Bio: American actor/singer Bing Crosby acquired his nickname as a child in Washington state. As the legend goes, little Harry Lillis ...
p59
sg5
VBing Crosby - Buy, Rent, and Watch Movies & TV on Flixster
p60
sa(dp61
g3
VBut it is his recordings for which Bing Crosby will be best remembered. ... From then on, Bing Crosby was the name by which he was known.
p62
sg5
VBing Crosby | spclarke.com
p63
sa(dp64
g3
VBiography: American actor/singer Bing Crosby acquired his nickname as a child in Washington state. As the legend goes, little Harry Lillis Crosby's favorite comic ...
p65
sg5
VBing Crosby - Overview - MSN Movies
p66
sa(dp67
g3
VIn early 1931, Bing landed his first hit under his own name with "I Surrender, Dear." ... Nathaniel Crosby, his youngest son from his second marriage, ...
p68
sg5
VPeopleQuiz - Biographies - Bing Crosby
p69
sa(dp70
g3
VThroughout his career, Bing Crosby often credited Mildred Bailey for getting him his first ... "there's only one singer you ought to listen to and his name is Crosby.
p71
sg5
VBing Crosby - Always Victorian
p72
sa(dp73
g3
VNot only did Bing Crosby make a name for himself as a first-class performer, ...
p74
sg5
VBing Crosby on The Ed Sullivan Show | Ed Sullivan Show
p75
sa(dp76
g3
VBing Crosby movies, photos, biography and complete filmography on AllMovie. Find information on Bing Crosby. - American actor/singer Bing Crosby acquired his nickname ...
p77
sg5
VBing Crosby movies, photos, movie reviews, filmography, and ...
p78
sa(dp79
g3
VBing Crosby From Wikipedia Birth name: Harry Lillis Crosby Bing Crosby IMBD Bing Bio. Bing Crosby: A Who2 Profile Though he is sometimes now forgotten, Bing Crosby ...
p80
sg5
VBing Crosby - Squidoo : Welcome to Squidoo
p81
sa(dp82
g3
VThroughout his life Crosby went by the nickname's "Der Bingle" and "The ... Bing Crosby bought his first thoroughbred in 1935 and helped to create the famed ...
p83
sg5
VBing Crosby, SuperStar - MovieActors.com
p84
sa(dp85
g3
VThe boys' mother, Dixie Lee (real name: Wilma Wyatt), ... Bob Crosby acknowledges that his brother Bing was "a disciplinarian" but adds, ...
p86
sg5
VThe Sad Ballad of Bing and His Boys - Child Abuse, Kids & Family ...
p87
sa(dp88
g3
V... WA, on May 3, 1903. (Bingo was a childhood nickname from one of his favorite comic strips.) ... Bing Crosby entered the peak of his career.
p89
sg5
VBing Crosby: Once And For Always - Welcome to Shazam
p90
sa(dp91
g3
VHis eldest son Gary Crosby was vocal in criticizing Bing's violent ways as a father. He wrote a sensationalist tell-all biography titled "Going My Own Way" in 1983 ...
p92
sg5
VBing Crosby - Trivia - IMDb
p93
sa(dp94
g3
VBing Crosby Original name: Harry Lillis Crosby: Memorial; Photos; Flowers; Edit; Share; Birth: May 2, 1904: ... and his own sitcom "The Bing Crosby Show" (1964 to 1965).
p95
sg5
VBing Crosby (1904 - 1977) - Find A Grave Memorial
p96
sa(dp97
g3
VAmerican actor/singer Bing Crosby acquired his nickname as a child in Washington state. As the legend goes, little Harry Lillis Crosby's favorite comic strip was "The ...
p98
sg5
VBing Crosby Biography and Filmography - Actors of Hollywood
p99
sa(dp100
g3
VA biography and related information. ... About This Person. From All Movie Guide: American actor/singer Bing Crosby acquired his nickname as a child in Washington state.
p101
sg5
VBing Crosby - About This Person - Movies & TV - NYTimes.com
p102
sa(dp103
g3
VBing Crosby Movies American actor/singer Bing Crosby acquired his nickname as a child in Washington state. As the legend goes, little Harry Lillis Crosby's favorite ...
p104
sg5
VBing Crosby Movies
p105
sa(dp106
g3
VBing Crosby was one of the most popular singing stars in the history of show business ... Comic Strip Spawned Nickname. Crosby always gave the year of his birth as ...
p107
sg5
VCrosby, Bing Study Guide & Homework Help - eNotes.com
p108
sa(dp109
g3
VBecause his own Bing Crosby Enterprises produced the show, ... Although he made his name as a singer, vaudeville performer, and silver screen luminary, ...
p110
sg5
VBing Crosby | Biography - Lyrics, Song Lyrics \u2013 LyricsFreak.com
p111
sa(dp112
g3
VThrow out Jones and Palmer, and Bing Crosby may be the person most responsible for popularizing the game of golf. ... Although he made his name as a singer, ...
p113
sg5
VWorld Golf Hall of Fame Member Profile
p114
sa(dp115
g3
VA Bing Crosby biography that shows his many brushes with jazz. Swing Music Forum | Big Bands ... already making a name for herself in jazz circles.
p116
sg5
VBing Crosby Biography - Swing Music Net - Jazz Music And Jazz History
p117
sa(dp118
g3
VBing Crosby biography on Moviefone.com ... American actor/singer Bing Crosby acquired his nickname as a child in Washington state.
p119
sg5
VBing Crosby Biography - Moviefone - Movies | Movie Times | Tickets ...
p120
sa(dp121
g3
VGet the scoop on Bing Crosby with fun facts, ... that Bing Crosby (who's real name is Harry) got his nickname from the comic strip "The Bingville Bugle" that was ...
p122
sg5
VBing Crosby Career and Biography Facts and Features | Destination ...
p123
sa(dp124
g3
VThe last vowel was dropped and the name shortened to Bing, which stuck. ... Nathaniel Crosby, Bing's youngest son from his second marriage, ...
p125
sg5
VBing Crosby's grave - Hollywood - Movie Capital of the World
p126
sa(dp127
g3
VGet the answer to "What was Bing Crosby's real name?" at Answers Encyclopedia, where answers are verified with credible reference sources like Encyclopedia.com.
p128
sg5
VWhat was Bing Crosby's real name? | Answers Encyclopedia: Facts ...
p129
sa(dp130
g3
VSoundtrack: White Christmas (1954)  L.A. Confidential (1997)  Catch Me If You Can (2002)  Big Fish (2003). Bing Crosby was the fourth of seven children of ...
p131
sg5
VBing Crosby - IMDb
p132
sa(dp133
g3
VKathryn Crosby; Bing and Kathryn on his 1976 Christmas special. Born: ... is an American actress and singer who also performed under the stage-name Kathryn Grant ...
p134
sg5
VKathryn Crosby - Wikipedia, the free encyclopedia
p135
sa(dp136
g3
VBing Crosby was one of the biggest music and movie stars of ... asserted that his name came from the fact that when he played cowboys and Indians as a child he ...
p137
sg5
VHarry Lillis Crosby (1903 - 1977) - Genealogy
p138
sa(dp139
g3
VAmerican actor/singer Bing Crosby acquired his nickname as a child in Washington state. As the legend goes, little Harry Lillis Crosby's favorite comic strip was "The ...
p140
sg5
VBarnes & Noble - Bing Crosby Biography
p141
sa(dp142
g3
VBing Crosby and his buddy Bob Hope made a number of very funny and entertaining ... His real name is Harry, Bing is a nickname he got from his neighbor. Movie. Year.
p143
sg5
VMovie Lists -Bing Crosby Filmography - Organizer Software by Duck ...
p144
sa(dp145
g3
V... Bing Crosby was also an Academy Award-winning actor. Crosby started his career as a singer and ... but is buried under her real name, Wilma W. Crosby ...
p146
sg5
VBing Crosby - Hollywood Remains to Be Seen
p147
sa(dp148
g3
VBiography of Bing Crosby, The singer of "White Christmas" ... Name at birth: Harry Lillis Crosby Though he is sometimes now forgotten, Bing Crosby was one of the ...
p149
sg5
VBing Crosby Biography (Singer/Actor) | Infoplease.com
p150
sa(dp151
g3
V... (Bing) Crosby. Bing was born ... he received the nickname "Bing", a shortened name of his favorite comic strip character "Bingo" from the "Bingville Bugle," a ...
p152
sg5
VBing Crosby and Gonzaga University: 1903 - 1925 - Gonzaga University
p153
sa(dp154
g3
VBiography of Bing Crosby, The singer of "White Christmas" ... Name at birth: Harry Lillis Crosby Though he is sometimes now forgotten, Bing Crosby was one of the ...
p155
sg5
VBing Crosby Biography (Singer/Actor) | Infoplease.com
p156
sa(dp157
g3
V... (Bing) Crosby. Bing was born ... he received the nickname "Bing", a shortened name of his favorite comic strip character "Bingo" from the "Bingville Bugle," a ...
p158
sg5
VBing Crosby and Gonzaga University: 1903 - 1925 - Gonzaga University
p159
sa(dp160
g3
VMSN Music presents complete Bing Crosby information including Albums, Music Videos, ... (Bingo was a childhood nickname from one of his favorite comic strips.)
p161
sg5
VBing Crosby - Biography on MSN Music
p162
sa(dp163
g3
VName : Bing Crosby: Bing Crosby : Bing Crosby with golfballs for the scrap rubber drive during World War Two Background information : Birth name
p164
sg5
VBing Crosby Biography, Bio, Profile, pictures, photos from ...
p165
sa(dp166
g3
VThere\u2019s only one way to understand why Bing Crosby was the most successful popular vocalist of his time: ... Your Pen Name is your unique identity on BN.com.
p167
sg5
VBARNES & NOBLE | Bing! His Legendary Years, 1931 to 1957 by Mca ...
p168
sa(dp169
g3
VHe Got His Name from a Comic. Skip to main content area. Get a RISK-FREE issue Give a Gift iPad Subscription ... 5 Things You Didn't Know About Bing Crosby
p170
sg5
V5 Things You Didn't Know About Bing Crosby | Mental Floss
p171
sa(dp172
g3
VThough the Musicaladers broke up soon after his graduation in 1925, Bing Crosby was ready to stick with the ... Birth Name: Harry Lillis Crosby. Born: 03 May 1903 in ...
p173
sg5
ViTunes - Music - Bing Crosby - Apple
p174
sa(dp175
g3
V"Bing Crosby" Biography, ... He received his nickname during childhood when friends began calling him after the lead character in the comic strip ''The Bingville ...
p176
sg5
VBING CROSBY BIOGRAPHY - Lyrics
p177
sa(dp178
g3
VFind out a lot of information about Bing Crosby at Celebrina ... aired 6 1/2 weeks after his death. Bing got his famous nickname at age six when a neighbor called ...
p179
sg5
VBing Crosby Quotes, Trivia and Photos at Celebrina.com
p180
sa(dp181
g3
VBing: What\u2019s in a Name? (Updated) By John C Abell; 05.28.09; ... to the extent that it fits in with his other duties. ... How about the estate of Bing Crosby ...
p182
sg5
VBing: What's in a Name? (Updated) | Wired Business | Wired.com
p183
sa(dp184
g3
VTher are many, many Bing Crosby links, Just type his name into Google to find them : Dorothy Lamour Dottie signed this vintage 8" x 10" photo for me in person
p185
sg5
VBING CROSBY - Movietreasures -- Autographs and Memorabilia
p186
sa(dp187
g3
VBing Crosby Biography Overview. ... One of the most popular vocalists of all time, Crosby picked up his nickname through a childhood love of a strip-cartoon ...
p188
sg5
VBing Crosby Biography : OLDIES.com
p189
sa(dp190
g3
VCrosby made his screen debut as a band singer in "King of Jazz" (1930), ... Acquired nickname, "Bing-o" when he was seven or eight years old, ...
p191
sg5
VOverview for Bing Crosby
p192
sa(dp193
g3
V... "there's only one singer you ought to listen to and his name is Crosby. ... Because his own Bing Crosby Enterprises produced the show, ...
p194
sg5
VBing Crosby - Music Articles, Music News, Free Music Software ...
p195
sa(dp196
g3
VHarry Lillis "Bing" Crosby (May 3, 1903 -- October 14, ... - Jasper is his name and\ufeff he sits on the desk and watches everything I do on the computer.
p197
sg5
VBing Crosby - His Legendary Years (1/6) - YouTube
p198
sa(dp199
g3
VAskville Question: What was Bing Crosby's real name and where was he born? : Popular News
p200
sg5
VWhat was Bing Crosby's real name and where was he born?
p201
sa(dp202
g3
VOne of the most popular vocalists of all time, Crosby picked up his nickname through a childhood love of a strip-cartoon ... Match Bing Crosby; 100% Perry Como; 91% ...
p203
sg5
VBing Crosby : OLDIES.com
p204
sa(dp205
g3
VBing Crosby \u2013 The First Crooner Part One of Two: The early years ... The name stuck with him all his life. Bing\u2019s parents loved music and loved to sing, ...
p206
sg5
VBing Crosby - The First Crooner - Hole in the Wall Books
p207
sa(dp208
g3
VPreview songs from Bing Crosby & Friends by Bing Crosby on the iTunes Store. Preview, ... Name Album Time ...
p209
sg5
ViTunes - Music - Bing Crosby & Friends by Bing Crosby
p210
sa(dp211
g3
VGeorge Robert "Bob" Crosby (1913-93) Bing got his name from a Sunday supplement included in the Spokane Spokesman-Review called the "Bingville Bugle", ...
p212
sg5
VKnow Old Time Radio: Bing Crosby (1903?-77)
p213
sa(dp214
g3
VThe estate of Bing Crosby\u2019s first wife may have a community property interest in Crosby \u2019s ... days leave to amend to name and serve Kathryn Grant Crosby ...
p215
sg5
VCrosby Estate Loses Bid to Toss Claim by First Wife\u2019s Heirs
p216
sa(dp217
g3
V144 "Bing Crosby Lyrics", including Baia; Amor; Danny Boy; Blue Skies; Blue Hawaii; Around The World; ... his nickname during childhood when friends began calling
p218
sg5
VBING CROSBY LYRICS
p219
sa(dp220
g3
VThe name Bing Crosby will be familiar to most Elvis ... on the singles charts throughout his career. While Bing Crosby's chart ...
p221
sg5
VElvis vs. Bing - The Elvis Information Network home to the best ...
p222
sa(dp223
g3
VBecause his own Bing Crosby Enterprises produced the show, ... Although he made his name as a singer, vaudeville performer, and silver screen luminary, ...
p224
sg5
VBing Crosby : Wikis (The Full Wiki) - Students, get citable ...
p225
sa(dp226
g3
VDuring his lifetime, Bing Crosby was one of the most loved entertainers of the twentieth century. He made his name as a singer with a distinctive and innovative style ...
p227
sg5
VBing Crosby: Day by Day: Malcolm Macfarlane: 9780810841451: Amazon ...
p228
sa(dp229
g3
VHis other books include Bing Crosby: A Pocketful of Dreams: The Early Years, 1903-1940, which won the Ralph J. ... Your Pen Name is your unique identity on BN.com.
p230
sg5
VBing Crosby: A Pocketful of Dreams - The Early Years, 1903-1940 ...
p231
sa(dp232
g3
VListen to music by Bing Crosby on Pandora. Discover new music you'll love, listen to free personalized radio.
p233
sg5
VBing Crosby - Listen to Free Music by Bing Crosby on Pandora ...
p234
sa(dp235
g3
VBing\u2019s name is almost synonymous with family ... The annual Bing Crosby Christmas Show aired during the 1960s and 70s when he was often joined by his wife and ...
p236
sg5
VKathryn Crosby & Her Lovely Christmas Dresses | Edelweiss Patterns ...
p237
sa(dp238
g3
VFind Bing Crosby bio, songs, credits, awards related and video information on AllMusic ... (Bingo was a childhood nickname from one of his favorite comic strips.)
p239
sg5
VBing Crosby - Music Biography, Credits and Discography : AllMusic
p240
sa(dp241
g3
VAnswer (1 of 1): Harry Lillis 'Bing' Crosby is Bing Crosby's real name. Born in the May of 1903, he is still considered on of America's top singers, performers and ...
p242
sg5
VWhat Was Bing Crosby's Real Name? - Blurtit
p243
sa(dp244
g3
VThroughout his career, Bing Crosby often credited Mildred Bailey for getting him his first ... "there's only one singer you ought to listen to and his name is Crosby.
p245
sg5
VRadio Swiss Jazz - Bing Crosby - Biography
p246
sa(dp247
g3
VThe nickname "Der Bingle" for him was understood to have become current among Crosby's German listeners, ... 1:56 Bing Crosby - His Legendary Years (6/6) ...
p248
sg5
VBing Crosby - His Legendary Years (4/6) - YouTube
p249
sa(dp250
g3
VBing Crosby was born on 03 May 1903 in Tacoma, Washington,United States. His birth name was Harry Lillis Crosby. His is also called Bing Crosby.
p251
sg5
VBING CROSBY - LyricsPond
p252
sa(dp253
g3
VBing Crosby. 82,618 likes  3,070 talking about this. ... April 8th, 1936 - Bing places his prints and name in cement at Grauman's Chinese Theater, in Hollywood!
p254
sg5
VBing Crosby | Facebook
p255
sa(dp256
g3
VHe recieved the nickname Bing from a friend, ... he made a few more albums and his yearly television special. Bing Crosby died of a heart attack on a golf course in ...
p257
sg5
VClass Act: Bing Crosby
p258
sa(dp259
g3
VBing Crosby, an American singer and actor, will be remembered as ... Bing got his famous nickname at age six when a neighbor called him Bingo after a character in a ...
p260
sg5
VBing Crosby - TV.com
p261
sa(dp262
g3
VWhat are the names of Bing Crosby kids? ChaCha Answer: The names of Bing Crosby's children are: Gary, Philip, Dennis, Lindsay, Harry,...
p263
sg5
VWhat are the names of Bing Crosby kids? | ChaCha
p264
sa(dp265
g3
VThe Bing Crosby voice was nostalgia and his frequent...important, Bing - his real name was Harry Lillis Crosby - had in spades. "For 40 years... Bing Crosby: ...
p266
sg5
VHarry Lillis Crosby \u2013 FREE Harry Lillis Crosby information ...
p267
sa(dp268
g3
VBing Crosby new music, concerts, photos, and official news updates directly from Bing Crosby's Twitter and Facebook.
p269
sg5
VBing Crosby | New Music And Songs | MTV - New Music Videos ...
p270
sa(dp271
g3
VKathryn Crosby, Bing's widow, said the Crosby name was being withdrawn from the event because of "attempts to turn it into another corporate sideshow."
p272
sg5
VBing Crosby, sportsman -- Bing Crosby Internet Museum ...
p273
sa(dp274
g3
VIt's a little annoying that so many people only associate Bing Crosby with Christmas music, given his monumental and ... to Look Like Christmas" to name a ...
p275
sg5
VAmazon.com: White Christmas: Bing Crosby: Music
p276
sa(dp277
g3
V... WA, on May 3, 1903. (Bingo was a childhood nickname from one of his favorite comic strips.) ... Bing Crosby entered the peak of his career.
p278
sg5
VBing Crosby: Welcome To My Dreams
p279
sa(dp280
g3
VBing Crosby . Born : May 3, 1903 ... wrote in his biography of Crosby in his early ... idler who never dresses up or removes his hat was portended by his odd name."
p281
sg5
VVIP Bing Crosby - VeryImportantPotheads
p282
sa(dp283
g3
V(Bingo was a childhood nickname from one of his favorite ... Though the Musicaladers broke up soon after his graduation in 1925, Bing Crosby was ready to stick with ...
p284
sg5
VBing Crosby Bio | Bing Crosby Career | MTV
p285
sa(dp286
g3
VBing Crosby - So Rare: Treasures From The Crosby Archive (2-CDs) SOURCE. Posted by ... She changed her last name to Stevens about the time she graduated, ...
p287
sg5
VTHE BING CROSBY NEWS ARCHIVE
p288
sa(dp289
g3
VBing Crosby main on Moviefone.com ... American actor/singer Bing Crosby acquired his nickname as a child in Washington state.
p290
sg5
VBing Crosby Main | All About Bing Crosby - Moviefone
p291
sa(dp292
g3
VThe nickname \u201cBing\u201d came at an early age and is really short for \u201cBingo,\u201d a character in the comic ... Bing Crosby was also a pioneer in the use of new ...
p293
sg5
VBing Crosby @ All About Jazz
p294
sa(dp295
g3
VThe nickname Bing that he would carry with him throughout his life is attributable to two of his earliest ... Bing Crosby and his friend Bob Hope made seven of ...
p296
sg5
VBing Crosby Artistfacts
p297
sa(dp298
g3
VNationality: American. Born: Harry Lillis Crosby in Tacoma, Washington, 2 May 1901 (year of birth also given as 1903 and 1904 in various sources); nickname "Bing ...
p299
sg5
VBing Crosby Facts, information, pictures | Encyclopedia.com ...
p300
sa(dp301
g3
VThis is a one stop place to find news and stories about the greatest singer of all-time, Bing Crosby. From his days with Paul Whiteman to his final ...
p302
sg5
VTHE BING CROSBY NEWS ARCHIVE: WHAT BING'S FAMILY SAID ABOUT BING
p303
sa.