(lp1
(dp2
S'description'
p3
V... as did "John Prine Live ... to have the painless lump removed. ... it-his focus was more on beating the cancer than preserving his voice. A year ...
p4
sS'title'
p5
VJohn Prine - The Oral Cancer Foundation - Information, Support ...
p6
sa(dp7
g3
VJohn wrote this letter to his fans exclusive to Oh Boy records and the John Prine ... The doctors removed a small tumor taking ... It's been almost a year since the ...
p8
sg5
VJohn Prine personal letter to his fans about his cancer
p9
sa(dp10
g3
VIn the late 1960s now-legendary folk musician John Prine was ... removed a tumor from the side of ... many years. I prefer the old, post-cancer voice ...
p11
sg5
VJohn Prine, Iconic Folk Singer, Takes Everything In Stride
p12
sa(dp13
g3
VThe association between breast feeding and breast cancer has not been ... whether or not the tumor has spread ... has improved the 5-year disease ...
p14
sg5
VBreast cancer - Wikipedia, the free encyclopedia
p15
sa(dp16
g3
VJohn Prine I had 40 names ... You took off a year and a half after you were diagnosed with cancer. Did that affect ... You had a tumor removed from your neck and ...
p17
sg5
VThe Prine of Life | EW.com
p18
sa(dp19
g3
V... who has suffered from skin cancer in the past, had a spot removed from his ... John McCain has had 4 tumors treated ... he is cancer free 8 years later is a ...
p20
sg5
VDid John McCain have skin cancer - The Q&A wiki
p21
sa(dp22
g3
VDoes John McCain have a tumor in his left cheek? In: ... Doctors removed the melanoma, ... (malignant skin cancer) on his cheek 5 years ago.
p23
sg5
VDoes John McCain have a tumor in his left cheek - The Q&A wiki
p24
sa(dp25
g3
VJohn Prine (born October 10, 1946) is an American country / folk singer-songwriter. He has been active as a composer, recording artist and live performer since the ...
p26
sg5
VJohn Prine - Wikipedia, the free encyclopedia
p27
sa(dp28
g3
VHas anyone tried to have tumors removed on their dog with a local anesthetic ans sedatives instead of general ... I lost my last one to cancer at 5 years old.
p29
sg5
VBoxers prone to tumors? - Yahoo! Answers
p30
sa(dp31
g3
VHer surgeon at California Pacific Medical Center removed what was left of the tumor ... patient needs five years of cancer-free living to beat ...
p32
sg5
V\u201cMiracle\u201d Cannabis Oil: May Treat Cancer, But Money and the ...
p33
sa(dp34
g3
VA benign tumor does not contain cancer ... once removed, rarely re-grows. However, the tumor may cause ... months or even years after the surgery has ...
p35
sg5
VBrain Tumor Surgery After Effects | LIVESTRONG.COM
p36
sa(dp37
g3
VHe was thought to be the highest medical authority for over a thousand years. Galen viewed cancer ... and John Warren ... tumor removed (lumpectomy), and then have ...
p38
sg5
VEvolution of cancer treatments: Surgery - American Cancer Society ...
p39
sa(dp40
g3
VJohn P. Di Saia, MD. ... There are other types of fatty tumors that are cancerous but they differ ... Most benign tumors are usually removed simply because of the ...
p41
sg5
VLipoma Tumor - Risk of Cancer from Lipomas
p42
sa(dp43
g3
VMarian Cooper was alerted to a cancerous tumor after her dog ... it to be successfully removed. ... 27-year-old convicted felon has been charged ...
p44
sg5
VDog who sniffed out owner's breast cancer: Meet Flo the 'wonder ...
p45
sa(dp46
g3
VComedian wields laughter as weapon against cancer... Comic has had four brain tumors. ... entire brain tumor has been removed. ... every year in the U.S., said John ...
p47
sg5
VDedicated in Memory of Jennifer Swartz Danna 1973-2006
p48
sa(dp49
g3
V... Cancer has spread ... system to attack prostate cancer cells. Immune cells are removed from ... A 5-year study of selenium and vitamin E did not show a ...
p50
sg5
VProstate Cancer Pictures: Symptoms, Treatments, PSA Test, and More
p51
sa(dp52
g3
VMy friend has survived five years, having had Stage III colon cancer ... Dr. Bert Vogelstein of John's Hopkins is the ... & will have a benign colon tumor removed Jan ...
p53
sg5
VColon Cancer Forum - Colon Tumor found during colonoscopy ...
p54
sa(dp55
g3
VCardinal O'Connor Has Tumor Removed From ... New York for more than 15 years and is regarded as Pope John Paul II ... did not necessarily mean that he had cancer.
p56
sg5
VCardinal O'Connor Has Tumor Removed From Surface of Brain
p57
sa(dp58
g3
VLike his father and grandfather before him 60-year-old John Coddou knows ... "I was diagnosed with cancer, ... "I had a tumor that had to be removed and ...
p59
sg5
VBoss Sues 60-Year-old Employee While he's Recovering from Cancer ...
p60
sa(dp61
g3
VJunior forward Kyara Galindo, right, of Fredericksburg High School is recovering from two brain tumors. She missed the 2012 season to have one removed and undergo ...
p62
sg5
VCancer survivor back in game after year off - San Antonio Express-News
p63
sa(dp64
g3
VMast Cell Tumors are very common in Dog Cancer. Most Dog Tumors can be removed and treated ... him go- especially as we have an 11 year old dog that ... John, I don't ...
p65
sg5
VMast Cell Tumors | Dog Cancer | Dog Tumors | Tumor Dog
p66
sa(dp67
g3
VRecent studies from John Hopkins Hospital has shown that there is ... visible tumor has to be removed with the cancer to ... than one year.The goal ...
p68
sg5
VTreatment of pancreatic cancer
p69
sa(dp70
g3
VSometimes when you fear a brain tumor is cancer, ... children with the same type of medulloblastoma John has are still alive five years after their ...
p71
sg5
VWhen a headache really is a brain tumor - CNN.com
p72
sa(dp73
g3
V... are removed and checked for ... year and every 6 months after that for up to 5 years. Results. Tumor characteristics ... cancer centers have already ...
p74
sg5
VALND for Women with Breast Cancer Micrometastases - National ...
p75
sa(dp76
g3
VShe had one large tumor removed last year and several other brain surgeries. ... Lynn and John at cloedogs@yahoo.com ... She been cancer free for two years now.
p77
sg5
Vpilocytic astrocytoma (brain tumors) - Cancer \u2013 CarePages ...
p78
sa(dp79
g3
VThe sample removed from the biopsy is analyzed by ... The treatment of gallbladder cancer depends on the size and location of the tumor, whether the cancer has ...
p80
sg5
VJohns Hopkins Liver Tumor Center: Gallbladder Cancer
p81
sa(dp82
g3
V(John Prine reference) The fact ... I am a five year survivor of head/neck cancer, ... I remember how anxious we were to have the tumor in her neck removed by surgery ...
p83
sg5
VI just found out I have cancer | Cancer Survivors Network
p84
sa(dp85
g3
VBuy John Prine tickets from the official Ticketmaster.com site. Find John Prine tour schedule, concert details, reviews and photos.
p86
sg5
VJohn Prine Tickets | John Prine Concert Tickets & Tour Dates ...
p87
sa(dp88
g3
VJohn Prine has always had a ... but there was a noticeable change after he had a tumor removed from ... 6:18 John Prine : Jesus The Missing Years by ...
p89
sg5
VJohn Prine Souvenirs - YouTube
p90
sa(dp91
g3
V... important to determine the size of the tumor, ... cancerous bladder has been removed, ... It has even been used in more recent years in conjunction with ...
p92
sg5
VUrologic Surgeons of Washington
p93
sa(dp94
g3
Vthis looks like 1980's. btw he didnt have throat cancer he had neck cancer.a tumor on the right side of his neck\ufeff was removed along with saliva glands ...
p95
sg5
VJohn Prine - Unwed Fathers - YouTube
p96
sa(dp97
g3
VThe overall kidney cancer survival rates are 44% for 5 years and 40% for ... a John Hopkins man, but I ... my left kidney has been removed due to 5.5 cm of tumor so ...
p98
sg5
VKidney Cancer Survival Rates| Cancer Survival Rates
p99
sa(dp100
g3
VMy name is Kay Kays and I have been fighting pancreatic cancer now for 17 years. ... removed and I was told that if my cancer came ... from John Hopkins say ...
p101
sg5
VKay Kays | A 17 Year Pancreatic Cancer Survivor
p102
sa(dp103
g3
V... dating back 2400 years ago, ... the study of cancer. John Hunter ... were able to tell the surgeon if the cooperative procedure had completely removed the tumor.
p104
sg5
VHistory of cancer from MedicineWorld.Org - Comprehensive medical ...
p105
sa(dp106
g3
VHad a mastectomy 2.5 years ago for lobular cancer. ... one would be half gone once the tumor was removed. I opted to have the second one removed due to high risk ...
p107
sg5
VBreast Cancer Blog - How did you decide between a lumpectomy and ...
p108
sa(dp109
g3
VMy Mother also passed away 20 years ago from lung cancer. Have you seen any ... all and all with this cancer...john ... Tumor in the bile conduct was removed ...
p110
sg5
VPancreatic Cancer Survivors | Cancer Survivors Network
p111
sa(dp112
g3
VIf you have severe back pain, ... Spinal Tumor. Spine Cancer; Types of Spinal Tumors; ... Article written by: John H. Schneider, MD.
p113
sg5
VCould My Back Pain Be Spine Cancer?
p114
sa(dp115
g3
VTumors that have spread from cancer in another part of the body (metastatic tumors) ... pituitary tumors can be removed through the nose and sinuses.
p116
sg5
VPituitary tumor - National Library of Medicine - PubMed Health
p117
sa(dp118
g3
VMore than 150 years had passed since clinician John Hill of London recognized tobacco as a ... Most women with breast cancer now have the primary tumor removed ...
p119
sg5
VThe History of Cancer - American Cancer Society | Information and ...
p120
sa(dp121
g3
VColon polyps and early cancer can have no ... of a cancerous tumor. ... it is detected early and completely removed before the cancerous cells ...
p122
sg5
VColon Cancer (Colorectal Cancer) Symptoms, Stages, Survival ...
p123
sa(dp124
g3
VJohn If they have been able to remove all of it then you need to be great. I had a single removed this year, ... But if it was does it suggest I have cancer or does ...
p125
sg5
VColon Polyps. How long does it take for them to grow? - Cancer ...
p126
sa(dp127
g3
VLarge tumor removed from pope's ... a large tumor from the colon of Pope John Paul II ... cancer, doctors over the years have focused on one ...
p128
sg5
VArticles about Tumor - Baltimore Sun - Featured Articles From The ...
p129
sa(dp130
g3
V... Scott Kennedy and John London. ... brain tumor , which has been previously treated ... over 60 years of age; Patients that have cancer ; ...
p131
sg5
VCancer Center - Everyday Health - Health Information, Resources ...
p132
sa(dp133
g3
VJohn Wayne Dead of Cancer on ... In more than 200 films made over 50 years, John Wayne saddled up to become the ... a malignant tumor was removed from his ...
p134
sg5
VJohn Wayne Dead of Cancer on Coast at 72 - The New York Times ...
p135
sa(dp136
g3
VHow Many Years Did Obama Smoke ... McCains skin cancer was removed and did not spread in 1993! 5 years ago. He just has a large jaw, its not a tumor! 5 ...
p137
sg5
VHow Many Years Did Obama Smoke Cigarettes For? - Yahoo! Answers
p138
sa(dp139
g3
VThat\u2019s the first question on the patient questionnaire at the John Wayne Cancer ... When I was six years old in ... He said I should have them removed \u201cto ...
p140
sg5
VMalignant Melanoma | Gamma Knife Surgery and Treatment Center ...
p141
sa(dp142
g3
VJohn's Brain at 7:00 AM. ... My uncle is having a brain tumor removed soon at an Oklahoma neurosurgery ... 7 Year Old Brain Cancer Victim Scores a ...
p143
sg5
VJohn's Tumor: Asparagus & Cancer
p144
sa(dp145
g3
VShould I have it removed? ... Some lumps are cancerous. ... i have a fatty tumor under my arm and its been hurting and growing into my bust area, ...
p146
sg5
VReader Question: Should I Have My Lipoma Removed? - Wellsphere
p147
sa(dp148
g3
V... six years after beating breast cancer. By ... I had that problem and had surgery to have one removed ... but Grace Coddington and John Galliano cut ...
p149
sg5
VSheryl Crow brain tumor: Singer shaken by new health scare 6 years ...
p150
sa(dp151
g3
V... that stimulate cancer growth is removed. ... stimulating tumor growth. Many breast cancer cells have proteins ... by Boston starter John Lackey to ...
p152
sg5
VHormonal therapy: Types and uses | WCVB Home - WCVB Home
p153
sa(dp154
g3
V... Cancer Update from John Hopkins * AFTER YEARS OF TELLING ... result in more tumor destruction. 9. When the body has too much toxic ... be removed from the ...
p155
sg5
VCancer Info From Johns Hopkins Hoax Email
p156
sa(dp157
g3
VColon polyps and early cancer can have no ... of a cancerous tumor. ... it is detected early and completely removed before the cancerous cells ...
p158
sg5
VColon Cancer (Colorectal Cancer) Symptoms, Stages, Survival ...
p159
sa(dp160
g3
VAlthough most meningiomas are not cancerous, these tumors can cause problems ... This risk depends upon how much tumor was removed and ... then once per year, ...
p161
sg5
VMeningioma
p162
sa(dp163
g3
VJohn McCain. The politician has had ... a tumor removed from her shin several years ... anderson-cooper-has-small-spot-of-skin-cancer-removed ...
p164
sg5
V10 Celebs Who've Been Touched By Skin Cancer
p165
sa(dp166
g3
VSome of these tumors cannot be removed surgically ... Spinal tumors can also be caused by cancer that has spread from ... every year approximately 1 ...
p167
sg5
VSpinal Tumors: Benign and Malignant Types
p168
sa(dp169
g3
V... Berle was told that he had a cancerous tumor in his colon, ... both were removed. He died in 2004 after 10 years of struggle against ... Pope John Paul II. 14.
p170
sg5
VFamous People & Colorectal Cancer | Cancer Survivors Network
p171
sa(dp172
g3
V... the body also attacks the cancer tumor ... this for about 3 years now. He has had his bladder scrapped out ... body parts are removed the cancer just ...
p173
sg5
VBladder Cancer in Men, Dark Black Spots, & BCG Infection / Treatment
p174
sa(dp175
g3
VThe 41-year-old sales representative, who lives in Fort Lauderdale, Fla., recently had an early cancerous tumor removed at Hopkins.
p176
sg5
VDoctors hope to stop pancreatic cancer before it forms - Baltimore Sun
p177
sa(dp178
g3
VMy tumor cannot be removed; I am not sure; ... AFTER YEARS OF TELLING PEOPLE CHEMOTHERAPY IS THE ... Cancer Update from John Hopkins. Every person has cancer cells in ...
p179
sg5
VPancreatic Cancer News - Johns Hopkins Pathology
p180
sa(dp181
g3
VThe Spanish state broadcaster reports golf great Seve Ballesteros has died from complications of a cancerous brain tumor ... had a car removed ... year ...
p182
sg5
VSeve Ballesteros dies from complications of a cancerous brain ...
p183
sa(dp184
g3
VEven when he was dignosed with cancer he never stopped smiling. John was the kind of man ... a tumor removed from ... cancer free for almost 10 years, ...
p185
sg5
VAmerican Melanoma Foundation > Memorial
p186
sa(dp187
g3
V... John, 65 -74 Male (Patient) ... another tumor so the remainder of the lobe in my right lung was removed; last year another tumor ... Although I have lung cancer ...
p188
sg5
VViewer Comments and Reviews: Lung Cancer - Symptoms and Signs ...
p189
sa(dp190
g3
VBut most come back as superficial tumours that can be removed ... about 3 out of 10 people will live longer than 5 years. If the cancer has ... 407 St John Street ...
p191
sg5
VBladder cancer statistics and outlook : Cancer Research UK ...
p192
sa(dp193
g3
VMore than 150 years had passed since clinician John Hill of London recognized tobacco as a ... Most women with breast cancer now have the primary tumor removed ...
p194
sg5
VThe History of Cancer - American Cancer Society | Information and ...
p195
sa(dp196
g3
VSmith and Newton-John: ... and HER2 negative is the "best" kind to have -- tumors with those genetic ... "The cancer has been there for years before it's ...
p197
sg5
VOlivia Newton-John, Jaclyn Smith on surviving breast cancer - CNN.com
p198
sa(dp199
g3
V... my lung has collapsed again and I recently had my third chest tube removed. My tumors ... 31 year old male, anonymous *John ... Cancer who have an ...
p200
sg5
VDiscover the Truth About Lung Cancer
p201
sa(dp202
g3
V... david beckham, david henrie, disney channel, dr, dr. john ... years we have supported Choc and ... the tumor had been removed, Emily was cancer ...
p203
sg5
VYour Daughter has Cancer: 4 Words You Never Expect to Hear-Plus ...
p204
sa(dp205
g3
VAnd the doctor diagnosed it as cancer, ... So Cleveland decided to have the tumor secretly removed. ... John F. Kennedy hid his Addison's disease; ...
p206
sg5
VA Yacht, A Mustache: How A President Hid His Tumor : NPR
p207
sa(dp208
g3
VJohn Prine has always had a ... but there was a noticeable change after he had a tumor removed from ... 6:18 John Prine : Jesus The Missing Years by ...
p209
sg5
VJohn Prine Souvenirs - YouTube
p210
sa(dp211
g3
V... My husband and I just learned he has a large tumor 16cm in his ... my surgeon said we would find out if it was cancer, when he removed it. ... -John. By Roger1;
p212
sg5
VLarge lung tumor - Discussion - Lung Cancer Survivors Support ...
p213
sa(dp214
g3
VTag Archives: Pelvic Tumors ... Dr. John Abraham Diagnosis: ... 23 Year of Diagnosis: 2000 Location: New York State Diagnosis: ...
p215
sg5
VPelvic Tumors | Adult Bone Cancer Survivors \u2013 bone sarcoma ...
p216
sa(dp217
g3
V... had similar tumors removed at Vanderbilt a couple ... glad cancer. We have common ... of \u201cpappy\u201d john mccoy. for years i hsve been telling my ...
p218
sg5
VTumors May Have Fueled Hatfield-McCoy Feud | Vanderbilt Magazine ...
p219
sa(dp220
g3
V... that stimulate cancer growth is removed. ... stimulating tumor growth. Many breast cancer cells have proteins ... by Boston starter John Lackey to ...
p221
sg5
VHormonal therapy: Types and uses | WCVB Home - WCVB Home
p222
sa(dp223
g3
VIf you have severe back pain, ... Spinal Tumor. Spine Cancer; Types of Spinal Tumors; ... Article written by: John H. Schneider, MD.
p224
sg5
VCould My Back Pain Be Spine Cancer?
p225
sa(dp226
g3
VToday marks six months since I had a skin cancerous tumor removed ... I am forty years old and have only seen ... John said... Hi, great blog! I have a ...
p227
sg5
VTraveling Memories: Skin Cancer - as it happened to my nose
p228
sa(dp229
g3
VIt continues to explain what happens to cancer cells and how the cells can create a mass called a tumor ... have cancer, you are probably ... bowel cancer per year ...
p230
sg5
VFamous People With Colon Cancer
p231
sa(dp232
g3
V... Precancerous & Cancerous Tumors; Oral Health ... in children as seven episodes in one year, or five ... Question: Did you have your tonsils removed?
p233
sg5
VTonsillitis Symptoms, Causes, Treatment - When should the tonsils ...
p234
sa(dp235
g3
V... shares the story of how his family is coping with his son's cancerous brain tumor and the important ... Birth year Zip ... have been removed by ...
p236
sg5
VNews anchor's son battles brain tumor | Video Library | Stevens ...
p237
sa(dp238
g3
VThe 51-year-old daughter of the late Sen. Edward M ... Their father died of a brain tumor in ... For cancer patients who have aggressive ...
p239
sg5
VKara Kennedy's Heart Attack May Have Been Related to Cancer ...
p240
sa(dp241
g3
V... John- Most your questions are difficult to ... the vet recommended that we have the masses removed and spay her at the same time ... Cancer and Tumors ...
p242
sg5
VSurgical Risk - VetInfo - Veterinary Medical Information for Dogs ...
p243
sa(dp244
g3
VMy wife has pancreatic cancer for four years as of last ... (which turned out to be a cancerous tumor) ... The cancer was completely removed and was not in my lymph ...
p245
sg5
VPancreatic Cancer Survival Rates| Cancer Survival Rates
p246
sa(dp247
g3
V... Cancer has spread ... system to attack prostate cancer cells. Immune cells are removed from ... A 5-year study of selenium and vitamin E did not show a ...
p248
sg5
VProstate Cancer Pictures: Symptoms, Treatments, PSA Test, and More
p249
sa(dp250
g3
V... failed to detect any tumors. Doctors removed some cancerous cells from Osborn's tongue and her ... to be diagnosed with head and neck cancers this year.
p251
sg5
VWoman reportedly coughs up cancerous tumor - HealthPop - CBS News
p252
sa(dp253
g3
VI have done 1.5 years of research on the type of tumor that ... Neuroendocrine tumors are relatively mild forms of cancer. ... These 25% had polyps removed, ...
p254
sg5
VSteve Jobs: Why did Steve Jobs choose not to effectively treat his ...
p255
sa(dp256
g3
V... depending upon the growth rate of the tumor. ... 47 years old and have had a PSA of 1.5 for many ... it looks as if all the cancer has been removed, ...
p257
sg5
VURF - The Site for Prostate Cancer Information
p258
sa(dp259
g3
VMy tumor cannot be removed; I am ... while 8.7 percent of the patients age 80 to 89 years had a ... mucinous neoplasm without an associated invasive cancer have an ...
p260
sg5
VBasics of Pancreatic Cancer
p261
sa(dp262
g3
VMy name is Charlene and my husband John has been disabled for the last 6 years. ... the tumor, he still has the cancer. ... on John and said they removed it ...
p263
sg5
VRare Cancer : Cholangiocarcinoma Klatskin's Tumor
p264
sa(dp265
g3
VThe stories you might have heard about a friend's dog sniffing out her cancerous tumors - well before she was diagnosed with the disease ...
p266
sg5
VColon Cancer -- Symptoms, Diagnosis, Prevention and Treatment
p267
sa(dp268
g3
V"If they did remove [the tumor] ... "Justice Ginsburg's success in beating back a diagnosis of colon cancer nearly 10 years ago has inspired and given ...
p269
sg5
VGinsburg's Cancer May Have Been Caught Early Enough - ABC News
p270
sa(dp271
g3
V... the words TUMOR and CANCER are used interchangeably. ... John- I would probably be ... and it needs to be removed. It has grown over the past year since I had it ...
p272
sg5
VTumors and Cancer in Cats - Veterinary Medical Information for ...
p273
sa(dp274
g3
V... she undergoes surgery to have the tumors removed. ... John Diamond, M.D. Getting the Cure ... Our whole cancer research in the past 20 years has been a failure.
p275
sg5
VChapter 4: Remission, Cure Rates and Other Deceptions
p276
sa(dp277
g3
VI had the bottom 1/3 of my esophagus removed along with a non-cancerous tumor a year and a half ago ... I want the cancer removed before it has a chance ... JOHN ...
p278
sg5
VEsophageal Resection - procedure, recovery, test, blood, tube ...
p279
sa(dp280
g3
VFOX 10's John Hook sat down with ... Deputies have arrested an 18-year-old man in ... doctors at Phoenix Children's Hospital removed a two pound tumor ...
p281
sg5
VPrayers for Angelica makes rounds on Facebook - Philadelphia News ...
p282
sa(dp283
g3
VMy 17 year old shih tzu has a benign melanoma tumor on the ... not cancerous, so we went with his belief and did ... to have it removed I found ...
p284
sg5
VHistiocytoma: The benign canine tumor with a not-so-friendly look ...
p285
sa(dp286
g3
VMore than half of all people with cancer are treated with radiation therapy, a type of cancer treatment that is used to shrink tumors and stop the growth of cancer cells.
p287
sg5
VRadiation Therapy - KidsHealth - the Web's most visited site about ...
p288
sa(dp289
g3
VValerie Harper has been diagnosed with terminal brain cancer. The 73-year ... cancer that had to be removed ... John used her bout with cancer ...
p290
sg5
VValerie Harper diagnosed with brain cancer: Stars who have battled ...
p291
sa(dp292
g3
V... she had 3/4 of her pancreas removed in July of 2004. She also did Gemzar for ... I have read that once a year, ... We have also been to John Hopkins which I ...
p293
sg5
VAll Cancer in the Tail of Pancreas messages
p294
sa(dp295
g3
VThe tumor can\u2019t be cut out because the cancer ... \u201cI tell them there was no window of opportunity when the tumor could have been removed. ... John, who has the ...
p296
sg5
VSuperheroes - 2009 SUMMER - Stanford Medicine Magazine - Stanford ...
p297
sa(dp298
g3
V... the 5-year survival rate ... such as breast cancer, has been to perform smaller ... Radiotherapy may be applied to shrink a tumor that is later removed by ...
p299
sg5
VLung Cancer - NetWellness Homepage
p300
sa(dp301
g3
VWTHR.com is the news leader for Indianapolis and Central Indiana. Get the best news, weather, sports and traffic information from Channel 13.
p302
sg5
VKennedy called 'singular figure' in America's life - 13 WTHR ...
p303
sa.