(lp1
(dp2
S'description'
p3
VWilliam Shakespeare (26 April 1564 (baptised) \u2013 23 April 1616) [nb 1] was an English poet and playwright, widely regarded as the greatest writer in the English ...
p4
sS'title'
p5
VWilliam Shakespeare - Wikipedia, the free encyclopedia
p6
sa(dp7
g3
VAlso on This Day Lead Story William Shakespeare born, 1564 American Revolution John Paul Jones burns Whitehaven, England, 1778
p8
sg5
VWilliam Shakespeare born \u2014 History.com This Day in History \u2014 4 ...
p9
sa(dp10
g3
V"Some are born great, some achieve greatness, and some have greatness thrust upon them." ... William Shakespeare married Anne Hathaway on November 28, 1582, ...
p11
sg5
VWilliam Shakespeare Biography - Facts, Birthday, Life Story ...
p12
sa(dp13
g3
VWilliam Shakespeare, the greatest English poet and playwright, was born at Stratford-upon-Avon on April 23, 1564. The poet\u2019s birthplace is getting ready to ...
p14
sg5
VRecalling William Shakespeare | The Daily Star
p15
sa(dp16
g3
V1564 - William Shakespeare is born in April (probably the 23rd) in Stratford-On-Avon (94 miles from London.) 1582 - Marries Anne Hathaway on November 27.
p17
sg5
VWilliam Shakespeare - Complete Works of Shakespeare, Biography ...
p18
sa(dp19
g3
VThey argue that William Shakespeare the grain hoarder has been has been 'redacted from history so that Shakespeare the creative genius could be born.'
p20
sg5
VWilliam Shakespeare: tax dodger, shady businessman? - CSMonitor.com
p21
sa(dp22
g3
VTHE BEST SHAKESPEARE LIFE FACTS AND TIMELINE: where and when he was born, plus all the crucial dates and events. Learn more now.
p23
sg5
VWhere And When Was William Shakespeare Born? Timeline And Life ...
p24
sa(dp25
g3
VAs Dennis Kay proposes in his book Shakespeare: If Shakespeare was indeed born on Sunday, April 23, ... How was William Shakespeare's date of birth determined?
p26
sg5
VDate of birth and death of william shakespeare
p27
sa(dp28
g3
VMaybe many people ask Where Was Shakespeare Born? here the answer. William Shakespeare was a playwright and actor who has appeared in England in the latter part of ...
p29
sg5
VWhere Was Shakespeare Born
p30
sa(dp31
g3
VShakespeare Presentation Transcript. Deanna HinmanSecondary English EducationGrades 9-12Ages 14-18 ; William Shakespeare was born onApril 26, 1564.
p32
sg5
VShakespeare
p33
sa(dp34
g3
VVisit this site dedicated to William Shakespeare including information about When & Where was he was born.Fast and accurate details about When & Where was William ...
p35
sg5
VWhen & Where was William Shakespeare born
p36
sa(dp37
g3
VWilliam Shakespeare is a great poet and playwrite. He has written many famous poems in English. He is often referred to as national poet of England because of the ...
p38
sg5
VWhen Was William Shakespeare Born
p39
sa(dp40
g3
VWhere was Shakespeare Born? William\u2019s father, John Shakespeare, owned a large family house in the town center which is presumed to be the birthplace of the Bard.
p41
sg5
VWhere was Shakespeare Born?
p42
sa(dp43
g3
VWhere was William Shakespeare born? Stratford-upon-Avon, Warwickshire was birthplace of William Shakespeare. Now known as Shakespeare Counrty, come and v isit the ...
p44
sg5
VBirthplace of William Shakespeare
p45
sa(dp46
g3
VWilliam Shakespeare Biography describes the life of William Shakespeare. From birth to death, Shakespeare ... William was born in 1564.
p47
sg5
VShakespeare Biography at AbsoluteShakespeare.com
p48
sa(dp49
g3
VFollow the journey of William Shakespeare's life in this series of 13 videos addressing commonly asked questions. 1. How do we know when Shakespeare was born? Read
p50
sg5
VAbout Shakespeare - Shakespeare Birthplace Trust
p51
sa(dp52
g3
VWilliam Shakespeare was born on April 23, 1564 to John Shakespeare and Mary Arden in Stratford-upon-Avon who by today's standards would be considered middle-class.
p53
sg5
VWelcome To the William Shakespeare Home Page!
p54
sa(dp55
g3
VWilliam Shakespeare William Shakespeare was born, lived and lies buried in Stratford-upon-Avon. William Shakespeare, 1564-1616 William Shakespeare ...
p56
sg5
VWilliam Shakespeare
p57
sa(dp58
g3
VThis is where the Shakespeare story began. Shakespeare's Birthplace has been welcoming visitors for over 250 years. William Shakespeare was born, grew up and he ...
p59
sg5
VShakespeare's Birthplace - Shakespeare Birthplace Trust
p60
sa(dp61
g3
VYoung William was born of John Shakespeare, a glover and leather merchant, and Mary Arden, a landed local heiress. William, according to the church register, was the ...
p62
sg5
VShakespeare Resource Center - Shakespeare's Biography
p63
sa(dp64
g3
VPlaywright and poet. Born in 1564, in Stratford-upon-Avon, Warwickshire, England (historians believe Shakespeare was born on ...
p65
sg5
VWilliam Shakespeare - WilliamShakespeare.net
p66
sa(dp67
g3
VWithin the class system of Elizabethan England, William Shakespeare did not seem destined for greatness. He was not born into a family of nobility or significant wealth.
p68
sg5
VThe Life of William Shakespeare (1564\u20131616) | Shakespeare in ...
p69
sa(dp70
g3
VWhen & Where was William Shakespeare born? Where was he baptised? Why is there confusion regarding his date of birth? 1558 - 1580:
p71
sg5
VWilliam Shakespeare Biography
p72
sa(dp73
g3
VWilliam Shakespeare, the best-known figure in Renaissance literature, if not all of literature, was born April 23, 1564 in Stratford-upon-Avon ...
p74
sg5
VWilliam Shakespeare - Yahoo! Voices - voices.yahoo.com
p75
sa(dp76
g3
VWilliam, the eldest son, was born in 1564, probably on April 23, several days before his baptism on April 26, 1564. ... William Shakespeare died on April 23, ...
p77
sg5
VWilliam Shakespeare Shakespeare Biography
p78
sa(dp79
g3
V1564 The Bard is born. The baptism of a child that may or may not be similar in appearance to one William Shakespeare Somewhere around April 23rd, in Stratford-upon ...
p80
sg5
VIn Search of Shakespeare . The Bard is born | PBS
p81
sa(dp82
g3
VBest Answer: William Shakespeare (baptised 26 April 1564; died 23 April 1616)[nb 1] was an English poet and playwright, widely regarded as the greatest ...
p83
sg5
V(a) When was William Shakespeare born ? (b) Where was he buried ...
p84
sa(dp85
g3
VWilliam Shakespeare was born in Stratford-upon-Avon, a bustling market town 100 miles northwest of London, and baptized there on April 26, 1564.
p86
sg5
VWilliam Shakespeare \u2014 History.com Articles, Video, Pictures and ...
p87
sa(dp88
g3
VWilliam Shakespeare Biography - The Parents of William Shakespeare JOHN SHAKESPEARE ( FATHER ) - THE EARLY YEARS John Shakespeare was born in 1531.
p89
sg5
VThe Parents of William Shakespeare
p90
sa(dp91
g3
VAs Dennis Kay proposes in his book Shakespeare: If Shakespeare was indeed born on Sunday, April 23, ... William Shakespeare of Stratford: Shakespeare's Birth.
p92
sg5
VShakespeare's Birth
p93
sa(dp94
g3
VWilliam Shakespeare's Life. FILM: William Shakespeare Biography QUESTIONS: Who Was ... it was customary for babies to be baptized three days after they were born.
p95
sg5
VWilliam Shakespeare's Life
p96
sa(dp97
g3
VWilliam Shakespeare was born on 23rd of April 1564. His birthday is celebrated in thousands of places around the world every year. Next year will be the four hundred ...
p98
sg5
VHappy Birthday William Shakespeare! Born 23rd April 1564
p99
sa(dp100
g3
VIn his will Shakespeare left his wife the 'second-best bed'. Pencils were invented about the time Shakespeare was born. In winter rich people watched plays indoors by ...
p101
sg5
VBBC - Primary History - Famous People - William Shakespeare
p102
sa(dp103
g3
VWilliam Shakespeare (1564-1616), ... the first of the four sons born to John Shakespeare (c1530-1601) and Mary Arden (c1540-1608), who also had four daughters.
p104
sg5
VWilliam Shakespeare - Biography and Works. Search Texts, Read ...
p105
sa(dp106
g3
VWhen Was William Shakespeare Born And When Did He Die - This article is based on When Was William Shakespeare Born And When Did He Die. An English playwright and poet ...
p107
sg5
VWhen Was William Shakespeare Born
p108
sa(dp109
g3
VComprehensive facts about the Children and Grandchildren of William Shakespeare. Page Back. Biography Index: ... twins, Hamnet and Judith Shakespeare, were born
p110
sg5
VWilliam Shakespeare - his children, Susanna, Hamnet and Judith and ...
p111
sa(dp112
g3
VWilliam Shakespeare was born in Stratford-upon-Avon in Warwickshire and was baptised a few days later on 26 April 1564. His father, John Shakespeare, was a glove ...
p113
sg5
VBBC History - William Shakespeare
p114
sa(dp115
g3
VWilliam Shakespeare was an English playwright and poet, ... born: April 23 1564 died: April 23 1616 Mom: Mary Arden Dad: John Shakespeare Baptized: April 26 1564
p116
sg5
VWho was William Shakespeare - The Q&A wiki
p117
sa(dp118
g3
VBlog posts mentioning William Shakespeare. Dick Francis, Reliable 'Jeopardy!' Answer, Dead at 89; ... Their daughter Susannah was born in 1583, ...
p119
sg5
VWilliam Shakespeare Biography - Birthday, Photos - Who2.com
p120
sa(dp121
g3
VWhat is WHAT TOWN AND COUNTRY WAS WILLIAM SHAKESPEARE BORN I? Mr What will tell you the definition or meaning of What is WHAT TOWN AND COUNTRY WAS WILLIAM SHAKESPEARE ...
p122
sg5
VWhat is WHAT TOWN AND COUNTRY WAS WILLIAM SHAKESPEARE BORN I?
p123
sa(dp124
g3
VShakespeare was born and raised in Stratford-upon-Avon. ... \u2015 William Shakespeare, A Midsummer Night's Dream. tags: love. 15,020 people liked it.
p125
sg5
VWilliam Shakespeare (Author of Romeo and Juliet)
p126
sa(dp127
g3
VWilliam Shakespeare was born on April 23, 1564, in Stratford-on-Avon. The son of John Shakespeare and Mary Arden, he was probably educated at the King Edward IV ...
p128
sg5
VWilliam Shakespeare- Poets.org - Poetry, Poems, Bios & More
p129
sa(dp130
g3
V1564 April 23 William Shakespeare was born; 1582 November 28, A Marriage Bond on the episcopal register records issue to William Shagspeare and Anne Hathwey of ...
p131
sg5
VWilliam Shakespeare - ELIZABETHAN ERA
p132
sa(dp133
g3
VWilliam Shakespeare (1564 - 1616) has a reputation reveled, ... After Shakespeare\u2019s children were born, the historical record becomes sketchy from 1585 through 1592.
p134
sg5
VWilliam Shakespeare - English Author - Biography
p135
sa(dp136
g3
VShakespeare, William, 1564\u20131616, English dramatist and poet, b. ... They had three children: Susanna, born in 1583, and twins, Hamnet and Judith, born in 1585.
p137
sg5
VShakespeare, William definition of Shakespeare, William in the ...
p138
sa(dp139
g3
VWilliam Shakespeare (1564-1616) was born in Stratford-upon-Avon, a small country town. Stratford was famous for its malting. The black plague killed in 1564 one out ...
p140
sg5
VWilliam Shakespeare - Books, Biography, Quotes - Read Print
p141
sa(dp142
g3
VThe English playwright, poet, and actor William Shakespeare was a popular dramatist. He was born six years after Queen Elizabeth I (1533\u20131603) ascended the ...
p143
sg5
VWilliam Shakespeare Biography - life, family, children, story ...
p144
sa(dp145
g3
VOut damned 'snobs'! William Shakespeare wasn't born great, but he achieved greatness. Today's news, tomorrow's lesson - 23 April 2013 . All the world may be a stage ...
p146
sg5
VOut damned 'snobs'! William Shakespeare wasn't born great, but he ...
p147
sa(dp148
g3
VSmart, fresh history of William Shakespeare Biography by PhDs and Masters from Stanford, Harvard, Berkeley. ... Shakespeare was born during the Renaissance, ...
p149
sg5
VWilliam Shakespeare: Biography - Shmoop: Homework Help, Teacher ...
p150
sa(dp151
g3
VQuote of the Day William Shakespeare:" When we are born... William Shakespeare (baptised 26 April 1564; died 23 April 1616)[nb 1] was an English poet and ...
p152
sg5
VQuote of the Day William Shakespeare:" When we are born... - YouTube
p153
sa(dp154
g3
VQuote of the Day William Shakespeare:" When we are born... William Shakespeare (baptised 26 April 1564; died 23 April 1616)[nb 1] was an English poet and ...
p155
sg5
VQuote of the Day William Shakespeare:" When we are born... - YouTube
p156
sa(dp157
g3
VI recently read that William Shakespeare was born and died on the same day of the month, April 23 (1564 -1616). It piqued my interest and made me wonder what ...
p158
sg5
VI recently read that William Shakespeare was born and died on the ...
p159
sa(dp160
g3
VTopic: William Shakespeare. Question: Where and when was Shakespeare born?I need to know alot about him - Question #78093
p161
sg5
VWhere and when was Shakespeare born?I need to know alot about him ...
p162
sa(dp163
g3
VShakespeare was born and raised in Stratford-upon-Avon. At the age of 18, ... William Shakespeare's Works: List of Works Classification of The Plays
p164
sg5
VThe biography of William Shakespeare
p165
sa(dp166
g3
VWilliam was born to John Shakespeare, a glover and leather merchant, and Mary Arden, a landed heiress. William was the third of eight children the Shakespeare family.
p167
sg5
VWilliam Shakespeare - Free Online Library
p168
sa(dp169
g3
VWilliam Shakespeare\u2019s purse must have made a considerable difference. The prosecutions for debt ceased, ... of Sir William D~venant, who was born in February 1606.
p170
sg5
VBiography of William Shakespeare
p171
sa(dp172
g3
VGROUP 1: The Life of William Shakespeare 1. Where was Shakespeare born? http ... 7. What is the name of William Shakespeare\u2019s first published poem? 8.
p173
sg5
VGROUP 1: The Life of William Shakespeare - Dufferin-Peel CDSB - Home
p174
sa(dp175
g3
VIt is a superstition, but some believe people die close to their birthday. Some people die within days of their birthday. And some people die on their ...
p176
sg5
VWilliam Shakespeare was born on April 23; William Shakespeare died ...
p177
sa(dp178
g3
VThe most well known of Stratford-upon-Avon citizens is William Shakespeare, born in 1564 exact date unknown but he was baptised on 26th April 1564.
p179
sg5
VStratford-upon-Avon's William Shakespeare
p180
sa(dp181
g3
V1000 William Shakespeare - Known during his lifetime as a gifted actor, ... and under that was I born." \u2014 William Shakespeare Add Category or Author. Add Category.
p182
sg5
VWilliam Shakespeare - 1000 quotes - Famous Quotes - Over 2.5 ...
p183
sa(dp184
g3
VWilliam Shakespeare. Born: 23-Apr-1564 Birthplace: Stratford-upon-Avon, England Died: 23-Apr-1616 Location of death: Stratford-upon-Avon, England Cause of death ...
p185
sg5
VWilliam Shakespeare
p186
sa(dp187
g3
VWilliam Shakespeare was supposedly born on April 23, 1564, the third of eight children. According to a parish register, he ...
p188
sg5
VAbout Shakespeare
p189
sa(dp190
g3
VShort Biography Of William Shakespeare - William Shakespeare is truly a well known person where lots of people are truly impressed by his work particularly when it ...
p191
sg5
VWhere Was Shakespeare Born
p192
sa(dp193
g3
VSome heaven-born goddess said to be their mother: Rose-cheeked Adonis, ... Mr. William Shakespeare was wont to goe into Warwickshire once a yeare, ...
p194
sg5
VShakespeare's Life and Times
p195
sa(dp196
g3
VWILLIAM SHAKESPEARE. A story by Jonathan Henshaw - E-mail ... was William, was born, and grew up in a place called Stratford-upon-Avon in England.
p197
sg5
VWILLIAM SHAKESPEARE - Explorations...
p198
sa(dp199
g3
VRead facts about William Shakespeare including information on Shakespeare life and Stratford upon Avon where Shakespeare was born.
p200
sg5
VWilliam Shakespeare Facts - Life, History, Achievements, Timeline ...
p201
sa(dp202
g3
VWilliam Shakespeare born, Stratford-upon-Avon. The traditional "April 23" part is a guess. 27 Nov 1582: William Shakespeare and Anne Hathaway marry. 1585: The Hidden ...
p203
sg5
VWilliam Shakespeare - rotten.com: This is rotten dot com
p204
sa(dp205
g3
VWilliam Shakespeare. Born: April 23, 1564 Stratford-upon-Avon, England Died: April 23, 1616 Stratford-upon-Avon, England English dramatist and poet.
p206
sg5
VWilliam Shakespeare Facts, information, pictures | Encyclopedia ...
p207
sa(dp208
g3
VA biography of William Shakespeare and analysis of his poetic ... John and Mary Arden Shakespeare were his parents. He was born in the little town of Stratford ...
p209
sg5
VWilliam Shakespeare
p210
sa(dp211
g3
VWilliam Shakespeare is regarded as the greatest writer and poet ever known in the English language who authored world's ... son Hamnet and daughter Judith were born.
p212
sg5
VWilliam Shakespeare Biography - William Shakespeare Childhood ...
p213
sa(dp214
g3
VWilliam Shakespeare is the most widely taught playwright in the English language. By 1588, Shakespeare had left his wife and children to live in London as an actor.
p215
sg5
VIn 1564, William Shakespeare was born on this day. - ReadWriteThink
p216
sa(dp217
g3
VWhen was William Shakespeare born - trivia question /questions answer / answers
p218
sg5
VWhen was William Shakespeare born? - Fun Trivia Quizzes - World's ...
p219
sa(dp220
g3
VEnglish playwright and poet William Shakespeare was born on this date in 1564.
p221
sg5
VEnglish playwright and poet William Shakespeare was born on this ...
p222
sa(dp223
g3
VWilliam Shakespeare was born on April 23, 1564, in Stratford-upon-Avon, England. He was born to John Shakespeare and Mary Arden, a glover/leather merchant ...
p224
sg5
VWilliam Shakespeare: A Short Biography - Yahoo! Voices - voices ...
p225
sa(dp226
g3
VWilliam Shakespeare was born in Stratford-upon-Avon, a small country town. Stratford was famous for its malting. The black plague killed in 1564 one out of seven ...
p227
sg5
VWilliam Shakespeare - www.kirjasto.sci.fi
p228
sa(dp229
g3
VWilliam Shakespeare\u2014born April 1564; baptised April 26, 1564; died April 23, 1616 ( O.S.), May 3, 1616 ( N.S.)\u2014has a reputation as the greatest writer the English ...
p230
sg5
VWilliam Shakespeare Plays Shakespeare's Part Henry John
p231
sa(dp232
g3
VEpic Theatre Ensemble presents Richard III: Born With Teeth, a contemporary take on William Shakespeare's Richard III, beginning April 16, prior to an official ...
p233
sg5
VBorn With Teeth, Contemporary Take on Shakespeare's Richard III ...
p234
sa(dp235
g3
VWilliam Shakespeare was born in April, 1564 in Stratford-upon-Avon, Warwickshire, about 100 miles northwest of London. According to the records of Stratford's Holy ...
p236
sg5
VWilliam Shakespeare Biography - Books & Literature Classics
p237
sa(dp238
g3
VWilliam Shakespeare was born in Stratford-upon-Avon, baptized on 26 April 1564, according to the parish register of the Holy Trinity Church. His birthday is popularly ...
p239
sg5
VShakespeare - www.watson.org
p240
sa(dp241
g3
VSusanna was born in May of 1583, twins Hamnet and Judith in January of 1585. ... William Beeston, son of Shakespeare's friend actor Charles Beeston, ...
p242
sg5
VWilliam Shakespeare (I) - Biography
p243
sa(dp244
g3
VWilliam Shakespeare's works are celebrated on Shakespeare Day. ... where Shakespeare was born and where thousands of tourists go each year to see his plays performed.
p245
sg5
VShakespeare Day in United Kingdom
p246
sa(dp247
g3
VBrief Bio William Shakespeare was born to John Shakespeare and mother Mary Arden some time in late April 1564 in Stratford-upon-Avon.
p248
sg5
Vwilliam shakespeare, william shakespeare poem, william shakespeare ...
p249
sa(dp250
g3
VINTRODUCTION Shakespeare was known as the greatest dramatist and finest poet who has written in the English language. BACKGROUND. Shakespeare was born April 23, 1564 ...
p251
sg5
VWILLIAM SHAKESPEARE - Yukon Education Student Network
p252
sa(dp253
g3
VWilliam Shakespeare is born in Stratford upon Avon to local tanner John and Mary Shakespeare. His actual birthday is unknown but assumed and celebrated ...
p254
sg5
VWilliam Shakespeare Timeline at AbsoluteShakespeare.com
p255
sa(dp256
g3
VWelcome to the latest edition of Mr. William Shakespeare and the Internet. ... William Warburton (1698 - 1779) was born the son of a Newark attorney.
p257
sg5
VMr. William Shakespeare and the Internet
p258
sa(dp259
g3
Vshakespeare.com - also known as The Shakespeare Web - has returned to its original home, after an absence of several years. It is undergoing a sea change, into ...
p260
sg5
VShakespeare
p261
sa(dp262
g3
VWilliam Shakespeare ... He was born in Stratford to John Shakespeare and Mary Arden, somewhere around April 23, 1564. When he was 18, ...
p263
sg5
VWILLIAM SHAKESPEARE - BOOK HELP WEB PROFILE
p264
sa(dp265
g3
VWilliam Shakespeare William Shakespeare - born April 1564; baptised April 26, 1564; died April 23, 1616 (O.S.), May 3, 1616 (N.S.)\u2014has ...
p266
sg5
VWilliam Shakespeare - William Shakespeare Biography, Novels, Plays ...
p267
sa(dp268
g3
VToday is the 448th birthday of William Shakespeare -- that is, if you believe the widely held assumption that the Bard was born on April 23. Like many ...
p269
sg5
VHappy Birthday, William Shakespeare ... maybe - Los Angeles Times
p270
sa(dp271
g3
VWhat year was shakespeare born? ChaCha Answer: William Shakespeare was born in Stratford-upon-Avon in April 1564. Some scholars disag...
p272
sg5
VWhat year was shakespeare born? | ChaCha - Questions & Answers ...
p273
sa(dp274
g3
VWilliam Shakespeare (biography) ... Richard Shakespeare was born, William\u2019s second brother. He died sometime later and was buried February 4, 1613.
p275
sg5
VWilliam Shakespeare (biography) - Upload & Share PowerPoint ...
p276
sa(dp277
g3
VWilliam Shakespeare was born in Stratford-on-Avon in Warwickshire located in the heart of England on April 23 or 24, 1564. His mother, ...
p278
sg5
VWilliam Shakespeare :: essays research papers
p279
sa(dp280
g3
VThis Shakespeare biography reveals the life and times of William Shakespeare. ... Shakespeare Biography: The Basics. Born: April 23, 1564; Died: April 23, 1616;
p281
sg5
VShakespeare Biography - A Comprehensive Shakespeare Biography
p282
sa(dp283
g3
VShakespeare was born under the old Julian calendar, ... William Shakespeare: A Compact Documentary Life. New York: Oxford University Press e Weis, Rene. 2007.
p284
sg5
V51 Random Facts about William Shakespeare
p285
sa(dp286
g3
VWilliam Shakespeare (baptised April 26 1564, died April 23 1616) ... was born in Stratford-upon-Avon in April 1564, the son of John Shakespeare, ...
p287
sg5
VWilliam Shakespeare - encyclopedia article - Citizendium
p288
sa(dp289
g3
VBelow is a range of 30 little known facts about William Shakespeare. ... Their first child was born six months after the wedding. William Shakespeare Facts: 4.
p290
sg5
VShakespeare Facts: 30 Interesting Facts About William Shakespeare
p291
sa(dp292
g3
VEasier - William Shakespeare was born in 1564 into a middle-class family. His father was a glove maker in the small ...
p293
sg5
VWilliam Shakespeare - 42explore: Thematic Pathfinders for All Ages
p294
sa(dp295
g3
VWilliam Shakespeare: The Complete Works, The Complete Pelican Shakespeare, general editor Alfred Harbage ... Whether Shakespeare was born on 23 April, ...
p296
sg5
VWilliam Shakespeare Biography - Brandeis Users' Home Pages
p297
sa(dp298
g3
VYoung William was born of John Shakespeare, a glover and leather merchant, and Mary Arden, a landed heiress. William, according to the church register, ...
p299
sg5
VWilliam Shakespeare Biography - Famous Poets and Poems - Read and ...
p300
sa(dp301
g3
VBorn, Stratford-on-Avon, 1564 Died, Stratford, 1616. This document was originally published in Minute History of the Drama. ... "William Shakespeare, Gent."
p302
sg5
VWilliam Shakespeare - TheatreHistory.com
p303
sa.