(lp1
(dp2
S'description'
p3
VAt Grand Cayman we did a jet ski trip out to the ... as Norwegian Cruise Line (NCL) ... positive than my first NCL cruise. The ship was of course ...
p4
sS'title'
p5
VNorwegian Cruise Line - Miami, FL
p6
sa(dp7
g3
VDon't have as much free time as you like?Try an NCL 3 or 4 day cruise. ... just a few of the highlights of the Jewel class ship, Norwegian Pearl. ... Grand Cayman ...
p8
sg5
VEastern Caribbean, Western Caribbean & Southern Caribbean Cruise ...
p9
sa(dp10
g3
VCruise Ship Turned Away: Norwegian Epic Not Allowed to Dock in Bahamas, ... \u2192 Cruise News \u2192 Norwegian Cruise Line ... Grand Cayman Grand Turk
p11
sg5
VCruise Ship Turned Away: Norwegian Epic Not Allowed to Dock in ...
p12
sa(dp13
g3
VThe old NCL vs the new Norwegian Cruise Line ... NCL Norwegian Jewel 11/14-11/21/10 ... (Cozumel & Grand Cayman)
p14
sg5
VThe old NCL vs the new - Cruise Critic Message Board Forums
p15
sa(dp16
g3
VCruise Lines "A - O" > Norwegian Cruise Line ... What is your favorite ship in the NCL fleet, and why you like it? My hubby and I are ... Quote: Originally Posted by ...
p17
sg5
VFavorite ship in the NCL fleet and why? - Cruise Critic Message ...
p18
sa(dp19
g3
V... we found everything to be as expected from NCL. The ship ... more beach time,grand cayman pirates were cute ... cruise with Norwegian cruise line, ...
p20
sg5
VNCL Norwegian Pearl Customer Stories - Cruise Deals | Vacations ...
p21
sa(dp22
g3
VThis was our first cruise with NCL on the Norwegian Pearl ... I liked the fact that the cruise ship was better taken ... It's not the Norwegian Cruise Line fault its ...
p23
sg5
VNorwegian Cruise Lines - Belltown - Seattle, WA
p24
sa(dp25
g3
VGrand Cayman Cruise Ship Excursion Information. ... Weekly Cruise Lines are ... pay a visit to the Blue Iguana Souvenir Outlet a few steps away from the terminal ...
p26
sg5
VGrand Cayman cruise ship guide and info, Cayman Islands
p27
sa(dp28
g3
VWhere most at-sea children's programs turn their backs on the under-threes, NCL welcomes even ... Grand Cayman, and ... this one with Norwegian Cruise Lines, ...
p29
sg5
VNorwegian Pearl Information | Norwegian Cruise Line | Cruisemates
p30
sa(dp31
g3
VNorwegian Cruise Line's CEO ... we're here in New York City welcoming our newest ship, Norwegian ... But the grand slam on the Norwegian Epic was her design where ...
p32
sg5
VNorwegian Cruise Line's CEO Discusses Q1 2013 Results - Earnings ...
p33
sa(dp34
g3
VNorwegian Cruise Line ripoff Hidden ... norwegian cruise lines ncl cruise line night mare cabin ... I sailed NCL not long after the storms damaged Grand Cayman.
p35
sg5
VRipoff Report | Norwegian Cruise Line | Complaint Review: 185276
p36
sa(dp37
g3
VOur best advice to Cruise Critic Members is to stay away from NCL as they ... They said fly to Grand Cayman & meet the ship ... Beware of Norwegian Cruise Line ...
p38
sg5
VNorwegian Dawn Reviews | Norwegian Cruise Line Reviews | Cruisemates
p39
sa(dp40
g3
VGreek Isles- NCL Jade 7/13/2012 review Norwegian Cruise Line ... the ship did a 180 turn so it could then pull ... Grand Mediterranean (Review w/ pics) NCL Epic ...
p41
sg5
VGreek Isles- NCL Jade 7/13/2012 review - Cruise Critic Message ...
p42
sa(dp43
g3
VThe Freedoms were in turn overtaken by RCI's Oasis-class ... (which owns 50% of Norwegian Cruise Line, NCL in its own right ... and Star Cruises/Norwegian Cruise Lines.
p44
sg5
VCruise ship - Wikipedia, the free encyclopedia
p45
sa(dp46
g3
VNorwegian Cruise Lines does NOT ... but NCL did fix it on the 4th day. Also, the ship supplied ... What I really want to know is what Norwegian Cruise line is ...
p47
sg5
V183 Complaints and Reviews about Norwegian Cruise Lines
p48
sa(dp49
g3
Vnorwegian cruise lines ncl cruise line night ... Norwegian Cruise Line NCL Corporation Ltd. lost our luggage ... We sailed out of Miami to Grand Cayman and ...
p50
sg5
VRipoff Report | Norwegian Cruise Line | Complaint Review: 588522
p51
sa(dp52
g3
VNorwegian Cruise Line's Jewel ... job as a barmaid on Norwegian Cruise Lines' Norwegian ... near the shore line of Grand Cayman, dead. When NCL contacted ...
p53
sg5
VNorwegian Cruise Line's Jewel - February 7, 2006 - Cruise Ship Deaths
p54
sa(dp55
g3
VNorwegian Cruise Line ... (06,09,10) ~ Ruby(08) ~ Grand(12) Norwegian (Silver ... Helpful NCL documents http://www2.ncl.com/downloads/docs NCL ship Virtual ...
p56
sg5
VPrincess = A; NCL = F - Page 5 - Cruise Critic Message Board Forums
p57
sa(dp58
g3
VI have cruised on another cruise line but did not experience ... friendly ship out of Charleston, I hope NCL ... The first was Mar/Apr '07, to Grand Cayman, ...
p59
sg5
VNCL Norwegian Majesty Customer Stories - Cruise Deals | Vacations ...
p60
sa(dp61
g3
VWhat is the major differences between carnival and NCL Norwegian Cruise Line ... (Cozumel & Grand Cayman) ... M.V. Norwegian Sun 2010 (Norwegian Cruise Line)
p62
sg5
VWhat is the major differences between carnival and NCL - Cruise ...
p63
sa(dp64
g3
VI wanted to go on a Norwegian Cruise, the NCL ... Problems with a Norwegian Cruise Line ... that point I was told that the ship that we were sailing did ...
p65
sg5
VProblems with a Norwegian Cruise Line - The Spirit that... - New ...
p66
sa(dp67
g3
VEscape completely on a cruise vacation to destinations such as the Caribbean, ... Royal Princess Cruise Ship Atrium ... Princess Cruise Lines, ...
p68
sg5
VCruise Vacations & Deals from Princess Cruises | Cruise Line
p69
sa(dp70
g3
VCelebrity Grand Cayman ... Cruise Lines: Carnival Grand Cayman ... America Grand Cayman Cruises \u2022 Msc Cruises Grand Cayman Cruises \u2022 Norwegian NCL Grand ...
p71
sg5
VCelebrity Grand Cayman Cruises - Cruise Reviews, Cruise Deals and ...
p72
sa(dp73
g3
V... it's the big-ship, mass-market cruise lines that have embraced full-service ... Grand Cayman, for instance, can be ... Norwegian Cruise Line Why? NCL offers a ...
p74
sg5
VBest Cruises for Weddings - Cruises - Cruise Critic
p75
sa(dp76
g3
V... who had booked a cruise aboard the Norwegian Jewel for her family and grand ... ship employees at every turn. ... Norwegian Cruise Line's (NCL) Norwegian ...
p77
sg5
V: NCL : Cruise Law News
p78
sa(dp79
g3
VGrand Bahama Island; Grand Cayman; Great Stirrup Cay; ... It may turn out to be cheaper than carrying ... the current wine prices on the ship (Norwegian Jewel ...
p80
sg5
VNCL Norwegian Jewel : Questions, Answers, How To, FAQs, Tips ...
p81
sa(dp82
g3
VNorwegian Cruise Line ... NCL Star to Alaska 8/2006-inside ... we'll be happy to give you the grand tour...especially at sail-away with champagne!
p83
sg5
V10006 on the Dawn--I finally did it! - Cruise Critic Message Board ...
p84
sa(dp85
g3
VHoliday Reviews Cruise Norwegian Cruise Line Norwegian ... by ncl because the ship had been ... Barbados,Cosoma,and Grand Cayman all nice islands and only ...
p86
sg5
VNorwegian Pearl Reviews | Norwegian Cruise Line | Cruise Reviews ...
p87
sa(dp88
g3
VGrand Bahama Island; Grand Cayman; Great ... I turn 18 two months before my cruise is ... you can pre-book all of your requirements through your on-line ncl account ...
p89
sg5
VNCL Norwegian Epic : Questions, Answers, How To, FAQs, Tips ...
p90
sa(dp91
g3
VNorwegian Kids Cruise from New York City ... After you book your NCL cruise, ... Stop in at Grand Central Terminal while you're nearby ...
p92
sg5
VNCL - Norwegian Kids Cruise From New York City
p93
sa(dp94
g3
VWe are considering booking a cruise on Norwegian to Alaska cause we ... on the front of the ship might turn into ... on Norwegian Cruise Line ...
p95
sg5
VCruises Forum: Penthouse suites on Norwegian Cruise Line ships ...
p96
sa(dp97
g3
VAs the SS Norway she was the flagship of the Norwegian Cruise Line from ... Grand Cayman, Cayman Islands; Roatan and NCL's ... been cut away, and the ship's ...
p98
sg5
VSS France (1961) - Wikipedia, the free encyclopedia
p99
sa(dp100
g3
VCruise Line: Norwegian. Ship: Norwegian Sky. ... While many cruise lines have gotten away from the gala midnight buffets, ... Golf at Grand Cayman Resort.
p101
sg5
VFind a Cruise - Norwegian Sky review - Western Caribbean by Tom Ogg
p102
sa(dp103
g3
VPage 2- NCL Bonus Rewards Program Norwegian Cruise Line ... Forums > Cruise Lines "A - O" > Norwegian Cruise Line: NCL Bonus ... the bottom of a cruise ship, ...
p104
sg5
VNCL Bonus Rewards Program - Page 2 - Cruise Critic Message Board ...
p105
sa(dp106
g3
VCruise Line: Norwegian. Ship: Norwegian Star. ... The Norwegian Star was the first ship in NCL\u2019s fleet that was designed ... Tucked away in a corner this space was ...
p107
sg5
VFind a Cruise - Norwegian Star review - Alaska by Nancy Norris
p108
sa(dp109
g3
VCruise Line: Norwegian Cruise Line Ship ... (after the turn down ... variety of choices unlike many other cruise lines. That impressed me. NCL offers a fairly ...
p110
sg5
VCruise Review - The Norway
p111
sa(dp112
g3
VCruise Review of Norwegian Cruise Line-Norwegian Sun by jerry hoehn. ... Ship: Norwegian Sun Itinerary: \u201cExotic\u201d Western Caribbean. Miami, Grand Cayman, Roatan ...
p113
sg5
VCruise Review - Norwegian Sun - Norwegian Cruise Line ...
p114
sa(dp115
g3
VBook your thrilling cruise vacation aboard the Norwegian Dawn ship today with Cruise Network and ... With Norwegian Cruise Lines ... like Grand Cayman, ...
p116
sg5
VNorwegian Dawn Cruise Ship, Norwegian Dawn Ship, NCL Dawn - Cruise ...
p117
sa(dp118
g3
VHawaiian Island cruise review of the NCL Norwegian Star to Oahu, Kauai, ... Norwegian Cruise Line Ship: Norwegian Star ... Grand Cayman and Cozumel;
p119
sg5
VHawaii Cruise Review - Norwegian Star - Cruises - Vacation ...
p120
sa(dp121
g3
VNorwegian Cruise Line; Oceania ... asked how my meal was I told him the soup was cold and he walked away. > > GRAND ... 8 Why did pick a certain cruise line? by ...
p122
sg5
VNCL GEM 11/29/09-The Good Bad and the Ugly-Review | Cruises Forum ...
p123
sa(dp124
g3
VExplore Jamaica and Grand Cayman ... If you can pull yourself away ... Half Moon Cay is a destination on most Holland America Line Caribbean and Panama Canal cruise ...
p125
sg5
VWestern Caribbean Cruise Vacations: Grand Cayman, Belize & Mexico ...
p126
sa(dp127
g3
VNCL's FOOD Norwegian Cruise Line ... Grand Bahama Norwegian ... LIFE IS NOT MEASURED BY THE BREATHS WE TAKE~~BUT BY THE MOMENTS THAT TAKE OUR BREATH AWAY NCL ...
p128
sg5
VNCL's FOOD - Cruise Critic Message Board Forums
p129
sa(dp130
g3
V... turning around and walking away. Cruise ship security ... Seven Mile Beach on Grand Cayman. ... other ship" Norwegian Cruise Line pled guilty to on ...
p131
sg5
VEvents at Sea by Norwegian Cruise Line - cruisejunkie.com Cruise Page
p132
sa(dp133
g3
VNCL product reviews and customer ratings ... Grand Cayman. Great Stirrup ... why dock in cozumel when tulum is so far away in the mainland mexico? almost 1 hour ...
p134
sg5
VProduct Reviews - Cruise Deals | Vacations | Norwegian Cruise Line
p135
sa(dp136
g3
VClick here for Environmental Events and Fines by Norwegian Cruise Line ... swimming at Seven Mile Beach on Grand Cayman. ... the ship to turn away from ...
p137
sg5
VEvents by Norwegian Majesty - cruisejunkie.com Cruise Page
p138
sa(dp139
g3
VNorwegian Cruise Line; Oceania Cruises; ... We were bouncing going into Grand Cayman and I thought well heck if we ... Each cruise line (and to some degree each ship) ...
p140
sg5
VBad experience on Carnival!!!!!!! | Cruises Forum | Fodor's Travel ...
p141
sa(dp142
g3
V... Cruise Line Information > Norwegian Cruise Lines > Feb 10, 2011 NCL ... the ship sailing away!!! The ship finally ... cruise, we missed Grand Cayman due ...
p143
sg5
VFeb 10, 2011 NCL Dawn Nightmare Cruise - Norwegian Cruise Lines ...
p144
sa(dp145
g3
V... just exchange but when you turn in your last bucket/helmet make ... M.V. Norwegian Sun 2010 (Norwegian Cruise Line) ... NCL Breakaway - August 2013 (Tour of Ship) 11.
p146
sg5
V"Bucket" beer on the dawn... - Cruise Critic Message Board Forums
p147
sa(dp148
g3
VWe just finished a delightful Panama Canal Cruise on the Norwegian ... below NCL is our favorite cruise line. ... papers from flying away. Another days I did.
p149
sg5
VNorwegian Star Aft Facing Penthouse - Cruise News, Cruise Reviews ...
p150
sa(dp151
g3
V... but she like norwegian and never did ... Compare the cost of the two cruise lines and decide which cruise line the ... I've been on a Carnival and an NCL.
p152
sg5
Vfamily reunion cruise-carnival or( norwegian-boo!! )
p153
sa(dp154
g3
VNorwegian Cruise Line Read thousands of Norwegian Cruise Reviews from real cruisers and compare the best Norwegian Cruise ... ncl.com/downloads/docs NCL ship ...
p155
sg5
VUnderage Gambling on Epic (isolated) - Page 3 - Cruise Critic ...
p156
sa(dp157
g3
VHome > Cruises > Cruise Lines > Norwegian Cruise Line > About Your Ship: Norwegian Pearl: ... George Town, Grand Cayman ... Norwegian Cruise LIne is a fun ...
p158
sg5
VCruise Customer Reviews - BJ's Travel - Vacation Packages, Hotels ...
p159
sa(dp160
g3
VNorwegian Cruise Line's CEO ... we're here in New York City welcoming our newest ship, Norwegian ... But the grand slam on the Norwegian Epic was her design where ...
p161
sg5
VNorwegian Cruise Line's CEO Discusses Q1 2013 Results - Earnings ...
p162
sa(dp163
g3
VNCL did a good job of stretching this ship so that the new areas flowed into the ... Grand Cayman, Roatan ... The cruise line representative was standing right ...
p164
sg5
Vncl-windwardlc052598 - CruiseOpinion - #1 cruise review site on ...
p165
sa(dp166
g3
V... Cruise Line Information > Norwegian Cruise Lines > Feb 10, 2011 NCL ... the ship sailing away!!! The ship finally ... cruise, we missed Grand Cayman due ...
p167
sg5
VFeb 10, 2011 NCL Dawn Nightmare Cruise - Norwegian Cruise Lines ...
p168
sa(dp169
g3
VI requested an upgrade to an area of the ship away from ... Honduras, and Grand Cayman went as scheduled. NCL gave ... Norwegian Wind (NCL, Norwegian Cruise Line) ...
p170
sg5
V180 Complaints and Reviews about Norwegian Cruise Lines | Page 6
p171
sa(dp172
g3
VNorwegian Cruise Line Cruise Reviews ... O" > Norwegian Cruise Line: CHARTERED??? NCL Pearl ... We did a family cruise in Christmas on that ship and we had a ...
p173
sg5
VCHARTERED??? NCL Pearl...aka Reservations Dumped!!! - Page 4 ...
p174
sa(dp175
g3
VWe just finished a delightful Panama Canal Cruise on the Norwegian ... below NCL is our favorite cruise line. ... papers from flying away. Another days I did.
p176
sg5
VNorwegian Star Aft Facing Penthouse - Cruise News, Cruise Reviews ...
p177
sa(dp178
g3
V... but she like norwegian and never did ... Compare the cost of the two cruise lines and decide which cruise line the ... I've been on a Carnival and an NCL.
p179
sg5
Vfamily reunion cruise-carnival or( norwegian-boo!! )
p180
sa(dp181
g3
V... Grand Cayman, for instance, can be ... Norwegian Cruise Line. Why? NCL offers a vast array of options, ... includes a shipboard ceremony performed by your ship's ...
p182
sg5
VThe 9 best cruise lines for weddings - travel - TODAY.com
p183
sa(dp184
g3
VWe would like to show you a description here, but the site you\u2019re looking at won't allow us.
p185
sg5
Vwww.frommers.com
p186
sa(dp187
g3
VNorwegian Cruise Line in Europe, Alaska, Bahamas, Caribbean ... Related More from author
p188
sg5
VNorwegian Cruise Line - Issuu - You Publish
p189
sa(dp190
g3
VMs. Keating appealed to Norwegian Cruise Line (NCL) ... to cancel a scheduled stop in Grand Cayman in order to ... to demand that the cruise ship stay away from ...
p191
sg5
VMaritime Lawyer & Attorney : James M. Walker : Walker & O'Neill ...
p192
sa(dp193
g3
VShe was built to serve the \u2018Norwegian Cruise Line ... However this is still small by mega-ship standards. \u2018The Grand ... Norwegian Jade Ship Review; NCL ...
p194
sg5
VNorwegian Jade Ship Review | Malcolm Oliver's Cruiseblog
p195
sa(dp196
g3
VHere's the best way to get away cheap ... Virtual Ship Tour Want to see examples of what a cruise ship has to ... Brand New Norwegian Breakaway Cruise. May ...
p197
sg5
VWhy Choose Cruise Deals?
p198
sa(dp199
g3
V... on a cruise ship? ... Germany which recently completed construction of Norwegian Breakaway for rival cruise line NCL. ... Turn them on and we'll update the ...
p200
sg5
VQuantum of the Seas: Royal Caribbean cruise ships to offer sky ...
p201
sa(dp202
g3
VWhen she boarded a recent cruise, the ship\u2019s security ... and that they were hoping we could get to Grand Cayman ... I took a Norwegian Cruise Line trip to see ...
p203
sg5
VCrazy cruise: 7 absurdities of the seas - Consumer advocate ...
p204
sa(dp205
g3
VAft of the pool area is situated the Norwegian Jewel's Garden Cafe, the ship's buffet venue, ... Ocho Rios, Grand Cayman and ... NCL - Norwegian Cruise Line ...
p206
sg5
VNorwegian Jewel - The Cruise site with news, articles, list of ...
p207
sa(dp208
g3
VSo it is very frustrating when we hear clients telling us that they were the only people to turn ... ship to be added to the Norwegian Cruise Line ... away \u201d for a ...
p209
sg5
VCruise With John
p210
sa(dp211
g3
VTo be a classied as one of the best cruise ship, the cruise line should not only look for ... till very late that evening at turn ... stayed away from NCL.
p212
sg5
VWhat\u2019s the Worst Cruise Line? \u2014 Cruise Talk Central
p213
sa(dp214
g3
VWe tried another cruise line and having to sign up for an ... Our room was spotless every day and at turn down ... Norwegian Jewel Cruise Ship Find Norwegian ...
p215
sg5
VThe Norwegian, Jewel: A Gem of a Ship and Trip - Norwegian Jewel ...
p216
sa(dp217
g3
VBut I think everyone should try the Le Bistro on any NCL ship. ... 7-night cruise on Norwegian Cruise Line's Norwegian ... We did miss a port (Grand Cayman) ...
p218
sg5
VFreestyle Cruising 2
p219
sa(dp220
g3
VMissing Norwegian Dawn Cruise Ship ... Woman\u2019s fall from cruise ship caught on tape . The line ... Two Passengers Rescued after Fall from Princess Cruise\u2019s Grand ...
p221
sg5
VMissing Norwegian Dawn Cruise Ship Passenger Mindy Jordan Went ...
p222
sa(dp223
g3
VBook a Cruise - CruiseServer - Search Caribbean - Search Alaska ... Book Online: Cruise: Air: Hotel: Car
p224
sg5
VLatest Cruise News
p225
sa(dp226
g3
V\u2022 Piloting a major cruise ship into a bow on collision ... , Norwegian Cruise Line ... and she carried away three ...
p227
sg5
V2008 Nightmare M/V NCL.Dream
p228
sa(dp229
g3
V... while on passage between Grand Cayman and ... NCL\u2019s Norwegian Dawn In Dramatic Sea Rescue Of Sailing Ship Norwegian ... Norwegian Cruise Line (NCL) ...
p230
sg5
VWelcome to Ships and Cruises - Special Cruises - Cruise News
p231
sa(dp232
g3
VGrand Cayman is a tender port, that ... Norwegian Cruise Line's Norwegian Sun will call Port Canaveral ... NCL ship positioning: Norwegian Star to Tampa on seven-day ...
p233
sg5
VCruise News - Aaron's Cruise Chatter
p234
sa(dp235
g3
VNorwegian Cruise Line: ... try your luck on the slot machines in the casino and party the night away in ... Falmouth, Jamaica : George Town, Grand Cayman : Cozumel ...
p236
sg5
VRoyal Caribbean Cruises 2013 & 2014 - - Cruises, Cruise Deals and ...
p237
sa(dp238
g3
VNorwegian Cruise Line; Ocean Adventures; ... A cruise ship is really just a segregated marketplace on the sea. ... On other cruise lines, such as Norwegian, ...
p239
sg5
VCruise Review - Carnival Legend - Carnival Cruise Line ...
p240
sa(dp241
g3
VCayman Islands Reinstates Ban On Cruise Ship Dockings ... Norwegian Cruise Line (NCL) ... Norwegian Cruise Line (NCL) announced that Norwegian Dawn will be entering a ...
p242
sg5
VWelcome to Ships and Cruises - Special Cruises - Cruise News
p243
sa(dp244
g3
V... gave away the bride. Tonight the ship hosts a \u201cRuby Red Tie\u201d gala and sets sail on a two-night ... Jamaica; Grand Cayman, ... Norwegian Cruise Line (NCL) ...
p245
sg5
VCruise News - Part 2
p246
sa(dp247
g3
VBook a Cruise - CruiseServer - Search Caribbean - Search Alaska ... Book Online: Cruise: Air: Hotel: Car
p248
sg5
VCruise Ship Profiles Cruise Lines - Premier
p249
sa(dp250
g3
VNorwegian Cruise Line: Disney ... then combat the post yuletide celebration blues with a trip away. ... Town, Grand Cayman : Falmouth, Jamaica : Labadee, Haiti ...
p251
sg5
VChristmas Cruises, Cruises at Christmas, Festive Cruises
p252
sa(dp253
g3
VNew ship to have huge water park; Hotels. Blog; Archives; Forum; Hotel Brands; Hotel Chains; Shop Hotels; ... Are cruise lines allowed to break into locked luggage?
p254
sg5
VUSA TODAY Travel - - USATODAY.com
p255
sa(dp256
g3
VThe launch of Holland America Line's newest ship Nieuw Amsterdam is only a week away and the ... Grand Cayman and ... for Norwegian Cruise Line\u2019s Norwegian ...
p257
sg5
VCruise Diva: June 2010
p258
sa(dp259
g3
VNorwegian Cruise Line's Norwegian Pearl returned to the Port of Miami yesterday with one less ... representing the largest ship in NCL\u2019s ... GRAND CAYMAN, Cayman ...
p260
sg5
VCruise Diva: December 2008
p261
sa(dp262
g3
VFreestyle Cruising Accommodations to suit every type of guest are revealed for Norwegian Cruise Line's Norwegian Epic. ... Cruise Line's largest \u201cFun Ship ... away ...
p263
sg5
VCruise Diva's Cruise Planner
p264
sa(dp265
g3
V... on cruise ship that ... kitchen & wait staff - the grand majority of jobs on board - will turn away most ... Cruise lines cannot afford to ...
p266
sg5
VWhy are the vast majority of cruise ship employees foreign ...
p267
sa(dp268
g3
V\u2018Cake Boss\u2019 bakery sets up shop on the new Norwegian Breakaway cruise ship. ... and NCL's turn to TLC star ... weekend by Norwegian Cruise Line and celebrity ...
p269
sg5
VCruise Lines International Association - Fort Lauderdale, FL ...
p270
sa(dp271
g3
V... Squarepants aboard Norwegian Cruise Line. ... NCL Cruise Deals. See all Norwegian ... the cruise line or cruise ship to better ...
p272
sg5
VHot family cruise travel ideas for 2013-2014|Family Cruises Deals ...
p273
sa(dp274
g3
V... Reminder that I am attending a Cruise Planners Convention in NYC and sailing on the brand new ship the Norwegian ... Disney Cruise Line ship. ... NCL Cruise ...
p275
sg5
VCruise Planners~ Kathleen Pohl, MCC - Brandon, FL - Local Business ...
p276
sa(dp277
g3
V... on an 11-day TransAtlantic cruise from Miami to Barcelona on NCL\u2019s Epic. ... Juliussen kept trying to move the ship away ... and muggy as Norwegian Cruise Lines ...
p278
sg5
VGarrett On The Road | Travel, Transportation and Anything Else ...
p279
sa(dp280
g3
VNorwegian Cruise Line ... bleeding and cruiseline denies request for airlift to hospital in Grand Cayman ... to accident away from cruise ship ); ...
p281
sg5
VTHE CRUISE PASSENGER'S RIGHTS AND REMEDIES 2006
p282
sa(dp283
g3
VYou can take a cruise to hell on many cruise ships that have Grand Cayman ... NCL's new ship, Norwegian ... During a shore excursion with Norwegian Cruise Lines, ...
p284
sg5
VDebbie Gavazzi's Contributor Profile - Yahoo! Contributor Network ...
p285
sa(dp286
g3
VWhen the Royal Princess makes its grand entrance next month in ... Guess which cruise line? Norwegian. ... All packed for the cruise ship \u2014 all my nicest ...
p287
sg5
VCruising Done Right by Bob and Nancy Dunn
p288
sa(dp289
g3
V... Grand Cayman; Puerto Limon, ... Cruise Ship Jobs with Cunard Line and P&O Cruises - Carnival UK\u2019s website, ... NCL - Norwegian Cruise Lines; Oceania Cruises;
p290
sg5
VGay Sail Away
p291
sa(dp292
g3
VNorwegian Cruise Line\u2019s ... the ship departs Miami on a four-day Bahamas cruise with stops in Grand ... tucked away near the top of the ship. Norwegian's ...
p293
sg5
VReview This...
p294
sa(dp295
g3
VAmerican Holidays know you\u2019re going to love Norwegian Cruise Line\u2019s new ship, ... Norwegian Breakaway Cruise! ... JAMAICA - GEORGE TOWN, GRAND CAYMAN ...
p296
sg5
VPackage Holidays, US Flights, Hotel Deals in USA & Canada ...
p297
sa(dp298
g3
VOwned by United Kingdom-based Fred Olsen Cruise Lines, the ship is ... based cruise line and visited Grand Cayman ... NCL plans to replace the Norwegian Spirit ...
p299
sg5
Vchef211's Cruise Line News
p300
sa(dp301
g3
VWe find that cruises offer a great opportunity to sail around and see various and often new ports of call. The new ports of call may eventually turn into ...
p302
sg5
VWhy we cruise to see new destinations (Photos) - Worldnews.com
p303
sa.