(lp1
(dp2
S'description'
p3
V... and the first mammal to be cloned from an adult ... Even though Dolly was not the first animal to be cloned, ... After cloning was successfully ...
p4
sS'title'
p5
VDolly (sheep) - Wikipedia, the free encyclopedia
p6
sa(dp7
g3
V... to have been successfully cloned from an adult cell--is born at the ... First successful cloning of a mammal ... the animal was cloned from a mammary cell.
p8
sg5
VFirst successful cloning of a mammal \u2014 History.com This Day in ...
p9
sa(dp10
g3
VThe first step is to collect the somatic cells from the animal that will be cloned. ... successfully cloned from an adult cell. ... first mammal being cloned ...
p11
sg5
VCloning - Wikipedia, the free encyclopedia
p12
sa(dp13
g3
VScientist Reports First Cloning Ever of Adult Mammal. ... egg with the adult cell. The fused cells, ... the cloned animals. Or they could use cloning to alter ...
p14
sg5
VScientist Reports First Cloning Ever of Adult Mammal
p15
sa(dp16
g3
V... or animal identical with one from which a cell or ... the first cloning of a mammal. Using cells ... from adult mice or other adult mammals, ...
p17
sg5
VFIRST CLONING OF MAMMALS PRODUCES 3 MICE - NYTimes.com
p18
sa(dp19
g3
VAll cloning experiments of adult mammals have used a variation of ... but it also proved that the cloning of adult animals could be ... First, a cell (the donor cell ...
p20
sg5
VThree ways to clone a mammal. - Human Cloning Foundation Home Page
p21
sa(dp22
g3
V... Cloning Mammals... July 5, 1996: First mammal cloned from ... cloned from an udder cell of an adult sheep born ... technologies of ES cells and animal cloning.
p23
sg5
VCloning Mammals - Biology @ IUPUI
p24
sa(dp25
g3
VBefore the creation of Dolly, the first mammal cloned from the cell of an adult animal ... Cloned Animals Cloning ... the first successfully cloned ...
p26
sg5
VCloning Fact Sheet
p27
sa(dp28
g3
V... because Dolly was the world's first mammal to be cloned from an adult cell. ... animal whose cells were ... of cloning. His work was the first ...
p29
sg5
VDolly, First Cloned Sheep - Northern Virginia Community College
p30
sa(dp31
g3
V... in bacteria or animal cells. In 1996, cloning ... Cloning Mammals... July 5, 1996: First mammal cloned ... a lamb cloned from an udder cell of an adult ...
p32
sg5
VCloning Mammals - Biology @ IUPUI
p33
sa(dp34
g3
V... was the first mammal to have been successfully cloned from an adult cell. ... cloning had actually ... first successfully cloned animal was ...
p35
sg5
VHas any animal or human ever been successfully cloned? - Yahoo ...
p36
sa(dp37
g3
V... have successfully cloned coyotes for the first ... cloned the first mammal from an adult somatic cell ... cloning an animal \u2013 and especially mammals, ...
p38
sg5
VFAQ: How Are Cloned Animals Made? | LifesLittleMysteries.com
p39
sa(dp40
g3
V... mammal to be cloned successfully using adult animal cells. ... cloning. The first cloned ... of Animals derived from Cloning by Somatic Cell ...
p41
sg5
V5 Most Cloned Animals : Discovery Channel
p42
sa(dp43
g3
V... it is now possible to create clones from non-embryonic cells. Now animal cloning can ... first cloned mammal, ... successfully cloned from an adult cell ...
p44
sg5
VAnimal Cloning - Pros and Cons Discussed - Manataka American ...
p45
sa(dp46
g3
VThe first reproducible cloning of a mammal from adult cells, ... mammals can be reproducibly cloned from adult ... in animal cloning. The world's first ...
p47
sg5
VScientists In Hawaii Report First Reproducible Cloning Of Mammals ...
p48
sa(dp49
g3
VThe first mammal to be cloned was Dolly, ... Once differentiated into adult cells, ... Cloning of animals may be important in the future for production of ...
p50
sg5
VDolly Sheep - The First Cloned Mammal - Biotech Articles - Publish ...
p51
sa(dp52
g3
VThe first cloned animals were created by Hans Dreisch ... many scientists began to claim that cloning of mammals was ... He chose to alter adult cells, ...
p53
sg5
VHistory of Cloning - ThinkQuest
p54
sa(dp55
g3
VThe first successfully cloned animal lived over a ... it came to cloning. The first animal ever cloned was ... first cloned mammal (from an adult somatic cell).
p56
sg5
VThe first cloned animals were cloned over a century ago
p57
sa(dp58
g3
VThe cloning of animals reached a new high when Dolly became the first mammal to be successfully cloned from an adult cell.
p59
sg5
VDolly the Cloned Sheep | Suite101
p60
sa(dp61
g3
VThe first mammals were cloned via nuclear transfer during the ... Mammals Cloned From Adult Cells ... Animal cloning--the route to new genomics ...
p62
sg5
VCloning - Department of Animal Science
p63
sa(dp64
g3
V... no other animals had been successfully cloned using ... in the nuclei of cells taken from an adult mammal. ... Cloning other mammals by somatic-cell ...
p65
sg5
VCan Humans Be Cloned? - RCN Boston | High-Speed Internet, Digital ...
p66
sa(dp67
g3
VFirst Reproducible Cloning of Mammals from Adult Cells Reported ... the first mammal cloned from an adult cell, ... derived cell of the sheep animal to be cloned was ...
p68
sg5
Vcloning - University of Hawaii System
p69
sa(dp70
g3
VDolly was the first mammal to be cloned from cells of an adult. She was created by cloning the stored and frozen udder cells ... Adult Mammalian Cells ...
p71
sg5
VFirst Mammal Clone Dies; Dolly Made Science History - New York Times
p72
sa(dp73
g3
V"Fibro" is also the first documented, live mammal cloned from ... adult animals can be cloned from any cell in ... cloning using adult somatic cells is not ...
p74
sg5
VAnimals cloned
p75
sa(dp76
g3
VHe considered his experiment a success even though an adult ... enucleated egg cells to make 29 cloned ... the first mammal ever cloned, but the first animal.
p77
sg5
VWhat was the first animal to be cloned - The Q&A wiki
p78
sa(dp79
g3
VThe first cloned animals were northern ... His use of adult cells disproved the prior ... Who Invented Cloning & When? The first mammals were cloned from ...
p80
sg5
VThe History of Cloning | eHow.com
p81
sa(dp82
g3
V... the first mammal cloned from an adult cell, ... Though scientists have cloned 10 other mammals ... created animal clones from embryonic cells, ...
p83
sg5
VDolly was world's hello to cloning's possibilities - USATODAY.com
p84
sa(dp85
g3
VDolly was the first mammal to be cloned from an adult cell, ... How Dolly was cloned. Animal cloning from an adult cell is ... Study of her cells also ...
p86
sg5
VCloning Dolly the sheep | Animal Research
p87
sa(dp88
g3
V... that researchers succeeded in cloning the first mammal ... cell taken from an adult animal. ... age of the cloned cell?s chromosomes. As cells go ...
p89
sg5
VCloning Fact Sheet - National Human Genome Research Institute ...
p90
sa(dp91
g3
VDolly is the first mammal to have been successfully cloned from an adult cell. ... animal from which the single cell ... first mammal to have been successfully cloned ...
p92
sg5
VBBC ON THIS DAY | 22 | 1997: Dolly the sheep is cloned
p93
sa(dp94
g3
VHis work was the first verified cloning of a mammal using ... the first animal cloned from adult cells, ... the first animal cloned from a cell taken from an adult ...
p95
sg5
VWhat is cloning
p96
sa(dp97
g3
VA sheep was the first mammal cloned using the ... Dolly was the first animal ever cloned from adult cells ... other mammals and were not successfully cloned until ...
p98
sg5
VSan Diego Museum of Man - Footsteps Through Time
p99
sa(dp100
g3
V... 2003), a ewe, was the first mammal to have been successfully cloned from an adult cell. ... cells. In mammals, ... animal cloning, proving instead that cells ...
p101
sg5
VDolly the Sheep - Science Daily: News & Articles in Science ...
p102
sa(dp103
g3
VThough Dolly was the first mammal to be cloned using adult cells, ... Scientists have been cloning animals ... While human beings have not been successfully cloned ...
p104
sg5
VAbout Dolly the Sheep | eHow.com
p105
sa(dp106
g3
VCloning an Animal Since ... the first mammal created using the nucleus from a cell of a mature adult mammal. ... have long been cloned from adult cells, ...
p107
sg5
VClone - Biology Encyclopedia - cells, body, human, animal ...
p108
sa(dp109
g3
VThe process of somatic cell transfer makes creating cloned animals ... first mammal to be successfully cloned. ... cloning humans and other complex mammals, ...
p110
sg5
VDolly the Sheep, Its Story and Cloned Animals
p111
sa(dp112
g3
VSheep and cows were the first mammals to be cloned from embryonic cells. ... The first mammal cloned from a cell of an adult animal ... successfully cloned calves ...
p113
sg5
VCloning - A new era in medical science - ThinkQuest
p114
sa(dp115
g3
V... scientists have been cloning animals. The first mammals ... Scotland, successfully cloned ... Dolly was the first mammal cloned from the cell of an adult ...
p116
sg5
VCloning - Reproductive Cloning - Cloned, Clone, Cell, and Dolly
p117
sa(dp118
g3
VWhat animals have been cloned? Scientists have been cloning animals ... the first mammal cloned from the cell of an adult ... can be cloned successfully.
p119
sg5
VGENE CLONING - Brookwood High School > Home
p120
sa(dp121
g3
VAnimal Cloning: Some Benefits, Many Drawbacks, and Next Steps. Stumble this E-mail this . Log in or register to post comments; Topics. Wildlife, Innovation ...
p122
sg5
VAnimal Cloning: Some Benefits, Many Drawbacks, and Next Steps
p123
sa(dp124
g3
V\u201cFibro\u201d is also the first documented, live mammal cloned ... adult animals can be cloned from any cell ... cloning using adult somatic cells ...
p125
sg5
VMales Get Cloned - ABC News - ABCNews.com - Breaking News, Latest ...
p126
sa(dp127
g3
VScientists have cloned an adult mammal for the first time, ... a book about cloning animals. ... Researchers thought that adult cells could not be used to produce new ...
p128
sg5
VOnline NewsHour: Cloning Mammals -- February 24, 1997
p129
sa(dp130
g3
V... the first successfully cloned male animal, ... cloned? Scientists have been cloning animals ... mammal cloned from the cell of an adult animal, ...
p131
sg5
VWhat was the first cloned animal? - Fun Trivia Quizzes - World's ...
p132
sa(dp133
g3
VFirst animal cloning: ... the first verified example of mammal cloning using the process of nuclear ... the first organism ever to be cloned from adult cells, ...
p134
sg5
VTimeline of Cloning History - Agnosticism / Atheism - Skepticism ...
p135
sa(dp136
g3
V... a ewe, was the first mammal to have been successfully cloned from an adult cell. ... adult mammary cells ... of cloning may not be appropriate for mammals, ...
p137
sg5
VCloning Sheep - Crystalinks Home Page
p138
sa(dp139
g3
V... 10th Aug 2005 - Human Cloning, Part 2 - The Process of Animal Cloning . ... cells. John Gurdon first successfully ... are cloned, whereas an adult cell ...
p140
sg5
VHuman Cloning, Part 2 - The Process of Animal Cloning - The Naked ...
p141
sa(dp142
g3
V-Cloning animals involves taking the nuclei of cells from an existing adult animal, ... was the first mammal cloned from an adult cell and was born in 1996.
p143
sg5
VFACTBOX: Timeline and facts about animal cloning | Reuters
p144
sa(dp145
g3
V... the first successfully cloned mammal, ... The announcement in February 1997 of the world\u2019s first clone of an adult animal ... the donor cell first had to ...
p146
sg5
VDolly (cloned sheep) -- Encyclopedia Britannica
p147
sa(dp148
g3
V... scientists have been cloning animals. The first mammals were ... first mammal cloned from the cell of an adult ... successfully using adult stem cells to ...
p149
sg5
Vcloning Facts, information, pictures | Encyclopedia.com articles ...
p150
sa(dp151
g3
VBefore the creation of Dolly, the first mammal cloned from the cell of an adult ... stem cells from it. A first in human cloning, ... cell taken from an adult animal.
p152
sg5
VWhat animals have been cloned? - Experts123 - Question and Answer ...
p153
sa(dp154
g3
V... first cloned animals in various species, ... Most cloned mammals now lead regular ... all attempts at cloning monkeys from adult donor cells have ...
p155
sg5
VCloner's Ark: Ten Notable Cloned Animals | Fox News
p156
sa(dp157
g3
VDolly was the first cloned mammal ever to be ... The development of the cloning technology was an ... The first cloned animal to be created from an adult cell.
p158
sg5
VDolly the sheep - National Museums Scotland
p159
sa(dp160
g3
VA Timeline of Cloning in Mammals. ... Despite her title as being the \u2018first animal cloned\u201d, ... the first mammal successively cloned using an adult donor cell.
p161
sg5
VHistory of Cloning - Welcome to the Department of Animal Sciences
p162
sa(dp163
g3
VI've decided to make cloning one of the first topics in ... grown from a cell taken from an ADULT animal! ... mammal, they got nowhere. The "new cells ...
p164
sg5
VThe cloning of Dolly, cell biology and developmental biology.
p165
sa(dp166
g3
VThe first trial of cloning done on animals was ... embryo into separate cells, then allowing each cell to ... the first mammal to be cloned from an adult ...
p167
sg5
VCloning Humans Myth or Fact Options and Applications | Dr Najeeb ...
p168
sa(dp169
g3
VDewey is a white-tailed deer and became the fifth animal the college had successfully cloned, ... first mouse to be cloned from an adult cell. ... for mammal cloning.
p170
sg5
VWhat Animals Have So Far Been Cloned? - Blurtit
p171
sa(dp172
g3
VSperm and egg are also called germ cells. In mammals, every somatic cell has ... She was the first-ever mammal to be cloned from an adult ... Cloning an animal, ...
p173
sg5
VWhat is Cloning? - Learn.Genetics\u2122
p174
sa(dp175
g3
V... human cells. Dolly the Sheep - First Cloned Mammal ... in cloning a sheep from an adult somatic cell by ... have been cloned successfully. Animal Cloning ...
p176
sg5
VCloning: History of Human Cloning - Buzzle
p177
sa(dp178
g3
Vsuccessfully created the first mammal ever cloned from an adult cell\u2014a sheep, ... cells. Cloning is a highly ... if a cloned animal survives birth and the first
p179
sg5
VCloning - GRACE Communications Foundation
p180
sa(dp181
g3
V... the first mammal successfully cloned from an adult cell, ... Dolly was simply the first mammal cloned from adult cells, ... Cloning animals that produce ...
p182
sg5
VReasons To Believe : To Clone or Not to Clone?
p183
sa(dp184
g3
V... two cells having the same DNA. So I'd say cloning, ... first animal to be successfully cloned. ... first MAMMAL to be cloned from an ADULT cell.
p185
sg5
VYahoo! Answers - What is the first animal to be cloned?
p186
sa(dp187
g3
V... 2003) was the first animal to be cloned from an adult ... somatic cells in an adult animal's body could ... cloning was successfully ...
p188
sg5
VThe Cloning Experiment Dolly the Sheep - Cloning Genetic Engineering
p189
sa(dp190
g3
VInterviewing laboratory leaders who have successfully cloned mammals, ... The cloning of an adult mammal from the transplanted ... of animal cloning and ...
p191
sg5
VDevelopmental Biology 9e Online: Cloning Mammals: What Does It Mean?
p192
sa(dp193
g3
VScientists have been effectively cloning animals since. ... The first cloned mammal, ... A cell line is the creating of individual cells; ...
p194
sg5
V20 Animals That Have Been Cloned - Business Pundit: Your daily ...
p195
sa(dp196
g3
V... (which is a clone from the Nucleus of an adult cell), it was performed successfully on ... first mammal cloned from adult cells, ... cloning mammals ...
p197
sg5
VCloning - Let Us Reason Ministries ON cults, Religions -- their ...
p198
sa(dp199
g3
VShe was the first mammal to be successfully cloned from the cell of an adult ... from mature mammal cells with no ... ,famous animals,cloning technology ...
p200
sg5
VBiography, Dolly: Send in the Clones
p201
sa(dp202
g3
Vtiny tadpole makes history as the first animal cloned via the ... world's the first sheep from adult cells. ... of all human cloning and embryonic stem cell ...
p203
sg5
V4. 5.
p204
sa(dp205
g3
V... scientists managed to produce clones of mammals. Again the cloned animals ... cells. Now animal cloning can be ... cloning from an adult animal ...
p206
sg5
VAnimal Cloning | Buzzle.com
p207
sa(dp208
g3
VDolly the sheep proved that it was possible to take a cell from a specific adult animal, ... the world's first cloned mammal ... mammals using cloning ...
p209
sg5
VHow Dolly the Sheep Changed the World : NPR
p210
sa(dp211
g3
VDolly was the first mammal to have been successfully cloned from an adult cell in ... and \u201cCan all adult cells be cloned?\u201d ... Cloning Animals and Plants: ...
p212
sg5
VActionbioscience | Animal Cloning: ...Old MacDonald's Farm Is Not ...
p213
sa(dp214
g3
VCloning requires an egg cell, and an adult ... who was the first mammal ... animals there are still some benefits of cloning. Cloned human cells could be used to ...
p215
sg5
VCloning :: Papers
p216
sa(dp217
g3
VHistory of Adult DNA Cloning; Every cell in the body ... , cloned the first mammal. ... was the first large cloned animal using DNA from another adult.
p218
sg5
VHuman embryo cloning and research - Codes in the Bible
p219
sa(dp220
g3
V... the clones of the animals. But first we need to take a ... mammal to be cloned using an adult somatic cell, ... used many times for cloning mammals ...
p221
sg5
VImmortal Line of Cloned Mice Created : Amazing List
p222
sa(dp223
g3
V... taboos by cloning a lamb from a single cell of an adult ... first report of cloning a mammal ... of cloning animals that uses embryonic cells ...
p224
sg5
VMAMMAL CLONED FOR THE 1ST TIME : POSSIBILITY OPEN TO HUMAN COPIES ...
p225
sa(dp226
g3
VCloning Timeline Back to ... she was the first mammal to have been successfully cloned from an adult cell.Dolly was ... that differentiated animal cells can give rise ...
p227
sg5
VCloning Timeline | Dolly the Sheep | Event view
p228
sa(dp229
g3
V... in which an adult cell is fused with an egg ... the first cloned mammal, ... the scientists were able to make human cloning about as efficient as animal cloning.
p230
sg5
VStem cells created from cloned human embryos - Health - Health ...
p231
sa(dp232
g3
V... embryo cells. First mammal, a sheep, is cloned via ... first endangered species cloned. The animal appears ... the first deer cloned from an adult cell.
p233
sg5
VTimeline on Cloning Highlights: 1984-2007 - Christian Life Resources
p234
sa(dp235
g3
V... 1996, was the first mammal successfully cloned from an adult cell. ... genes into the cells of a host. Cloning can also ... that animal cloning has ...
p236
sg5
VHow Things Work: Cloning - The Tartan Online
p237
sa(dp238
g3
V... before the embryo's cells have had ... original pregnant animal and the father). Fusion cell cloning ... was the first mammal to be cloned using adult cell ...
p239
sg5
VBBC - GCSE Bitesize: Cloning methods in animals
p240
sa(dp241
g3
VSo What Animals Have Been Cloned so Far? The first cloned animals ... She was the world's first cloned mammal. ... the nucleus of an adult donor cell is ...
p242
sg5
VWhat Animals Have Been Cloned? - Facts About Animal Cloning: A ...
p243
sa(dp244
g3
Vcloning producing genetic defects in animals ... the first mammal to be cloned from an adult cell, ... cells seem to become more prone to disease and death.
p245
sg5
VCloning Producing Genetic Defects in Animals
p246
sa(dp247
g3
V... but on the possible application of cloning technology to other mammals ... adult cells, thereby cloning an adult mammal. ... first animal to be successfully cloned?
p248
sg5
VCloning Essays and Articles at eNotes - Study Guides, Lesson Plans ...
p249
sa(dp250
g3
VSince the cloning of the sheep Dolly having acquired a break down of cells ... after the first cloned animal ... Animals are cloned by placing an adult cell ...
p251
sg5
VWhat was the second cloned animal - The Q&A wiki
p252
sa(dp253
g3
V... was the first mammal to have been successfully cloned from an adult cell. ... had successfully cloned the first mammal, ... Cloning extinct animals gives a ...
p254
sg5
VThe function and practices of Cloning - UK Essays, Dissertations ...
p255
sa(dp256
g3
V... the first mammal to be cloned from an adult. ... were the first mammals cloned from cultured cells. ... animals. Although cloning by ...
p257
sg5
VIslamset - Cloning for Medicine: How to Clone? Is Quiescence the ...
p258
sa(dp259
g3
VCloning an Animal. Since the nucleus of ... when he transferred cell nuclei from adult frog intestinal cells and injected them into ... first mammal to be cloned ...
p260
sg5
Vclone Facts, information, pictures | Encyclopedia.com articles ...
p261
sa(dp262
g3
VThe first mammals cloned by this process ... which allows cloning to be performed on an adult animal whose ... Donor cells are grown in tissue culture Donor cell ...
p263
sg5
VHow is livestock cloning accomplished? - Department of Animal Science
p264
sa(dp265
g3
VIt was created by scientists in Texas using a cell taken from an adult ... successfully producing animal organs and cells for ... first cloned adult animal.
p266
sg5
VCloned animals | Gallery | guardian.co.uk
p267
sa(dp268
g3
V... Scottish researchers announced that they had successfully cloned the first mammal, ... mammals have been cloned ... of adult stem cells in the animals ...
p269
sg5
VCloning Objectives Ppt Presentation - PowerPoint Presentations ...
p270
sa(dp271
g3
V... the first mammal successfully cloned from an adult cell, 1 my ... Dolly was simply the first mammal cloned from adult cells, ... cloning animals for ...
p272
sg5
VTo Clone Or Not To Clone - Leadership University
p273
sa(dp274
g3
VClones of adult animals are created by a process called somatic cell nuclear transfer. Cloned Animals ... cloning an adult mammal. ... of stem cells adult mammal ...
p275
sg5
VCloning - Biology
p276
sa(dp277
g3
V... human cloning had not been thought possible until the successful cloning of the first mammal, ... successfully cloned. ... cloned the first animal from adult cells.
p278
sg5
VHistory of Cloning | Basic Science Partnership at Harvard Medical ...
p279
sa(dp280
g3
V... which have been successfully cloned for years to duplicate ... cloning wild mammals using ... far larger animals using DNA from adult cells.
p281
sg5
VWill Cloning Ever Save Endangered Animals?: Scientific American
p282
sa(dp283
g3
VThis is the difficulty in cloning mammals from their matured cells. ... a nucleus can grow into an adult animal of ... the first mammal to be successfully cloned.
p284
sg5
VCloning - CreationWiki, the encyclopedia of creation science
p285
sa(dp286
g3
VA History of Cloning ... They allegedly are the first mammals to be cloned ... 50 mice are the first reproducible clones of a mammal, repeatedly cloned from adult cells.
p287
sg5
VA History of Cloning - Boston.com - Boston, MA news, breaking news ...
p288
sa(dp289
g3
VThe first cloning of animal cells took ... The first successful cloning of mammals was ... reported that he had cloned an adult mammal for the first ...
p290
sg5
VCloning Fact Sheet Human Cloning Fact Sheet cloned animals ...
p291
sa(dp292
g3
VDolly was the first ever mammal to be cloned from adult ... to date the only extinct animal successfully cloned. ... animal cloning, cloned animals ...
p293
sg5
V16 Most Notable Cloned Animal | Scienceray
p294
sa(dp295
g3
V... type of a specialized cell in the human body. Stem cells are ... first mammal cloned from the cell of an adult animal was ... animal cloning is ...
p296
sg5
VUntitled Document [www.as.wvu.edu]
p297
sa(dp298
g3
V1996 \u2013 Dolly the sheep becomes the first mammal cloned from an adult cell. Dolly (5 July 1996 \u2013 14 February 2003) was a female domestic sheep, and the first ...
p299
sg5
VPhotos: On this day \u2013 July 5, 1996 \u2013 Dolly the cloned sheep is ...
p300
sa(dp301
g3
VREPRODUCTIVE CLONING BACKGROUND INFORMATION \u201cHave you ever wished you could have a clone of yourself to do homework while you hit the skate park or went out with ...
p302
sg5
VREPRODUCTIVE CLONING BACKGROUND INFORMATION
p303
sa.