(lp1
(dp2
S'description'
p3
VPrince Edward to marry ... "Getting married is a very personal thing. ... He wrongly predicted they would get engaged on the prince's 30th birthday in March 1994.
p4
sS'title'
p5
VBBC News | UK | Prince Edward to marry
p6
sa(dp7
g3
VPrince Edward, Earl of Wessex KG GCVO ADC(P) (Edward Antony Richard Louis; born 10 March 1964) is the third son and fourth (and youngest) child of Elizabeth II and ...
p8
sg5
VPrince Edward, Earl of Wessex - Wikipedia, the free encyclopedia
p9
sa(dp10
g3
VWill you marry this person, ... FELL AND LOVE AND MARRIED. Prince Edward is the youngest son of Britain's Queen Elizabeth. He married Sophie Rhys-Jones on June 19, ...
p11
sg5
VPrince Edward and Sophie Rhys-Jones marriage
p12
sa(dp13
g3
VThis past Tuesday, April 24th, marked the 27th anniversary of the death of the most scandalous woman to ever marry into the British Royal family, American-born Wallis ...
p14
sg5
V27th Anniversary of Britain's most scandalous woman's death ...
p15
sa(dp16
g3
VPrince Edward married Sophie Rhys-Jones at St George's Chapel in Windsor. At the couple's request, the ceremony was primarily for family and friends and did not ...
p17
sg5
VBBC - History - Prince Edward's wedding (pictures, video, facts ...
p18
sa(dp19
g3
VBritain's Prince William asked his girlfriend Kate Middleton to marry him, ... (married to Prince Charles' brother, Edward), ...
p20
sg5
VPrince William gives Diana's ring to fiancee Kate Middleton - CNN.com
p21
sa(dp22
g3
V... there was ample reason for Great Britain's Prince Edward and his ... the June 1999 marriage of Queen Elizabeth II's youngest son to the public relations ...
p23
sg5
VGreat Royal Weddings: Prince Edward and Sophie Rhys-Jones
p24
sa(dp25
g3
V... "W.E.," which explores the relationship between commoner Wallis Simpson and Britain's King Edward ... Edward VIII wanted to marry ... prince Edward married ...
p26
sg5
VWallis Simpson News, Photos and Videos - ABC News
p27
sa(dp28
g3
VPrince William is engaged to kate Middleton. ... Britain's Prince William and his fiancee, ... are to be married April 29 at Westminster Abbey in London.
p29
sg5
VPrince William engaged to Kate Middleton; royal couple to marry in ...
p30
sa(dp31
g3
VNow she\u2019s engaged to marry Prince Rahim ... King Edward IV of England abdicated the throne in order to marry her. They remained married until Edward died ...
p32
sg5
VKendra Spears: from supermodel to princess \u2014 plus other ...
p33
sa(dp34
g3
VPrince William and his brother Harry are about gain a new cousin: Their uncle, Prince Edward, and his wife Sophie are expecting their second child in December. "The ...
p35
sg5
VPrince Edward, Wife Sophie Expecting Baby No. 2 - Pregnancy ...
p36
sa(dp37
g3
VThe wedding of Prince Edward, Earl of Wessex and Sophie Rhys-Jones took place on 19 June 1999 in St George's Chapel at Windsor Castle. The Queen's youngest child, The ...
p38
sg5
VWedding of Prince Edward, Earl of Wessex, and Sophie Rhys-Jones ...
p39
sa(dp40
g3
VAn interview with the newly-engaged couple: ... Prince Charles and Lady Diana married in St Paul's Cathedral watched by 3,500 invited guests and an ... Britain's big ...
p41
sg5
VBBC ON THIS DAY | 24 | 1981: Prince Charles and Lady Di to marry
p42
sa(dp43
g3
VYet, in order to marry the woman he loved, King Edward was willing to give up the ... but also a married woman already once ... Prince Edward's Struggle Between ...
p44
sg5
VKing Edward VIII Abdicated to Marry Mrs. Wallis Simpson
p45
sa(dp46
g3
VMeet the women who could bag Britain's last eligible prince. By ... to get married, Prince Harry is Britain's most ... struggling with her son Edward ...
p47
sg5
VWho will marry Prince Harry: The women who could bag Britain's ...
p48
sa(dp49
g3
V... should those of us following the engagement of Britain's Prince William to ... Prince Edward is still in his first marriage. ... was free to marry again in any ...
p50
sg5
VPostPartisan - Prince William, Kate Middleton and 'obsolete' marriage
p51
sa(dp52
g3
VBritain's Prince William will reportedly marry in 2012. The prince and long-term girlfriend Kate Middleton, ... ohh too bad u r gettng married soon.wish u r mine ha:)
p53
sg5
VPrince William And Girlfriend Kate Middleton To Marry In 2012
p54
sa(dp55
g3
V... Britain's Marriage Act allows ... King Edward VIII impending marriage to Wallis Simpson was ... The largest obstacle for Prince Charles and is Camilla is ...
p56
sg5
VWhy do Prince Charles and Camilla have permission to marry ...
p57
sa(dp58
g3
V3 Bethany Hamilton Is Engaged. ... the wedding of Prince Edward and Sophie Rhys-Jones went off with uncommonly common ... married commoner Sophie ...
p59
sg5
VEdward & Sophie - Weddings, The British Royals, Prince Edward ...
p60
sa(dp61
g3
VEdward VIII abdicated his throne to marry ... These were expectations he did not want. As the Prince ... including Britain's secrets of state. Edward not only ...
p62
sg5
VThe Abdication Of King Edward VIII - Essortment Articles: Free ...
p63
sa(dp64
g3
VThe Last Marriage of a Prince of ... the first of their children to marry, became the wife of Prince ... Highness Albert Edward Prince of Wales and Her Royal ...
p65
sg5
VThe Last Marriage of a Prince of Wales, 1863 | History Today
p66
sa(dp67
g3
VYet, for some reason, Prince Edward preferred married women ... and power of being close to the heir of Britain's ... Edward VIII Abdicated to Marry Mrs ...
p68
sg5
VKing Edward VIII Abdicated for Love - Page 2 - 20th Century History
p69
sa(dp70
g3
VKing Edward VIII was the eldest child of Britain's King George V ... and when she met the prince she was married to her ... The king was determined to marry ...
p71
sg5
VRoyalty.nu - Edward VIII and Wallis Simpson, the Duke and Duchess ...
p72
sa(dp73
g3
V... Britain's Prince William and Kate Middleton leave the ... Tuesday Nov. 16, 2010, the couple are engaged, and will be married in ... King Edward VIII ...
p74
sg5
VPrince William and Kate Middleton engagement
p75
sa(dp76
g3
VBritain's Prince William leaves the King Edward VII ... Britain's Prince William and his ... the first "commoner" to marry a prince in close ...
p77
sg5
VPrince William, wife Kate expecting a baby | Reuters
p78
sa(dp79
g3
VClarence House announced on 10 February 2005 that Charles and Camilla Parker-Bowles were engaged; the Prince ... Charles' parents did not attend the marriage ...
p80
sg5
VWhat year did Prince Charles and Camilla get married?
p81
sa(dp82
g3
VSimpson had been married ... Edward was officially invested as Prince of Wales in a ceremony at Caernarvon ... and expressed his plans to marry Wallis ...
p83
sg5
VEdward VIII of the United Kingdom - Simple English Wikipedia, the ...
p84
sa(dp85
g3
VThe heir to the British throne will marry Kate ... Prince Edward, William's uncle, married PR executive ... "Britain's Mr. Mean will have to learn to live ...
p86
sg5
VPrince William's royal wedding: An instant guide - The Week
p87
sa(dp88
g3
VThey fell in love and wanted to get married, ... Prince Edward Antony Richard Louis, ... Has visited the sets of Britain's most popular soap operas "Coronation ...
p89
sg5
VQueen Elizabeth II - Biography
p90
sa(dp91
g3
VPrince Edward's wedding. ... a clause omitted by Princess Diana in her 1981 marriage to Prince Charles. ... Britain's First Photo Album More History programmes on ...
p92
sg5
VBBC - History - Prince Andrew's wedding (pictures, video, facts ...
p93
sa(dp94
g3
VBritain's Prince William and his bride Catherine ... William married his fiance ... Sophie,The Countess of Wessex--wife of Prince Edward. Anne, The Princess ...
p95
sg5
VThe British Royal Family - The History Guy: A Resource for History ...
p96
sa(dp97
g3
VPrince William is finally engaged to his longtime girlfriend and will give Britain its biggest royal wedding since Prince Charles married Lady ... Edward ...
p98
sg5
VPrince William, Kate Middleton ENGAGED: Royal Wedding Next Year
p99
sa(dp100
g3
VBritain's Prince William is to marry his ... Prince Edward's wife ... 17 Nov Britain's Prince William and his girlfriend Kate Middleton are to get married ...
p101
sg5
VPrince William Kate Middleton engaged | Royal Wedding | reaction
p102
sa(dp103
g3
VWhat is the royal family of Britain's last name? 5 years ago; ... Prince Edward, ... other than female descendants who marry or who have married, ...
p104
sg5
VWhat is the royal family of Britain's last name? - Yahoo! Answers
p105
sa(dp106
g3
VEdward VIII abdicated after less than one year on the throne to marry twice ... Prince William (L ... Kendra Spears Engaged To Prince Rahim Aga Khan ...
p107
sg5
VKing Edward VIII's Abdication 76 Years Later: Could It Happen Today?
p108
sa(dp109
g3
VEdward was born in 1312. He was married to Philippa, ... Edward invaded France. He engaged the French forces near Crecy. ... in June 1330 Prince Edward, ...
p110
sg5
VEdward III, 1327-1377 - Camelot International: Britain's Heritage ...
p111
sa(dp112
g3
V... Prince William and Prince Harry. The marriage was soon a rocky one; both of them engaged in affairs and lived separately by ... Prince Edward and Sophie Rhys ...
p113
sg5
VRoyal Wedding - The Royal Marriages - How Royal Marriages Have Fared
p114
sa(dp115
g3
VFamily Tree of Britain's Queen Victoria and Prince Albert. ... married Prince Adolf of Schaumburg-Lippe and Alexander ... King of England as Edward VII ...
p116
sg5
VQueen Victoria's Children and Grandchildren
p117
sa(dp118
g3
VIt was finally arranged for Prince Eddy to marry his distant cousin Princess Mary of Teck. ... The Marriage of King Edward VII of Great Britain Emily Chauviere.
p119
sg5
VThe Children of King Edward VII of Great Britain | Suite101
p120
sa(dp121
g3
V... shark attack survivor Bethany Hamilton gets engaged; ... The baby expected by Britain's Prince ... The former Kate Middleton was admitted to London's King Edward ...
p122
sg5
VDuchess Kate's baby due in July, she 'continues to improve ...
p123
sa(dp124
g3
VWhy did Edward VIII have to give up the throne to marry a divorcee but Prince Charles is still in line to ... Edward VIII married Wallis Simpson but had already ...
p125
sg5
VBritish Royal Family History - Frequently Asked Questions
p126
sa(dp127
g3
VPrince Philip, the husband of Britain's Queen Elizabeth, ... in order to marry Wallis ... 1937 Edward and Wallis Simpson married in a secluded Chateau de Cande in the ...
p128
sg5
VPrince Philip back on UK royal duty after illness - TODAY News ...
p129
sa(dp130
g3
VHere is a biography on the life of Edward VIII. ... Coronated Prince of Wales in 1911 ... an American married to a British subject
p131
sg5
VEdward VIII - Biography of Edward VIII - King of England
p132
sa(dp133
g3
VTo Marry an English ... I would recommend this biography to any student of Britain's Royal Family or historian of ... The marriage of the Prince and Princess ...
p134
sg5
VEdward the Caresser: The Playboy Prince Who Became Edward VII ...
p135
sa(dp136
g3
VBritain's Prince William recently unveiled his "game plan" to become king. ... HRH The Prince Edward, ... Camilla was still married and not free to marry Charles.
p137
sg5
VWhy will Prince William become king and not Prince Charles?
p138
sa(dp139
g3
VBritain's royalty and nobility ... Prince Edward did become King Edward VIII ... Edward abdicated the throne because he wanted to marry a twice-divorced ...
p140
sg5
VWho are the Duke of York, Duke of Kent, etc., and how did they get ...
p141
sa(dp142
g3
VPrince Charles and his beautiful bride share their long-awaited ... Diana were engaged to be married. ... by the groom's younger brothers Andrew and Edward, ...
p143
sg5
VIconic weddings: Prince Charles and Lady Diana Spencer ...
p144
sa(dp145
g3
VWallis Warfield Simpson \u2014 Britain's King Edward VIII gave up his throne to marry "the woman I love ... While still crown prince, ... he married her, ...
p146
sg5
VWhen Commoners Marry Into Royal Families - ABC News
p147
sa(dp148
g3
VBritain's Duchess of Cambridge will spend her second anniversary of marriage to Prince ... is engaged to boyfriend Prince ... to marry Britain's Prince ...
p149
sg5
VKate Middleton News - Entertainment and World News on Monsters and ...
p150
sa(dp151
g3
VBRITAIN\u2019S Prince William will marry longtime love Kate ... \u201cWilliam has always said he will be ready for marriage after his 28th ... they aren\u2019t even engaged ...
p152
sg5
VPRINCE WILLIAM AND KATE MIDDLETON\u2019S WEDDING TO COST THE BRITISH ...
p153
sa(dp154
g3
VWhat happens if a Prince or a Princess marries a commoner ... to step down to marry,like Prince Michael of Kent did ... marriage.---Edward ...
p155
sg5
VWhat happens if a Prince or Princess marries a commoner? - Yahoo ...
p156
sa(dp157
g3
VPrince William and Kate Middleton are to marry at ... other newly engaged couple and they ... a family early in her marriage to Prince ...
p158
sg5
VRoyal Wedding Date: Prince William and Kate Middleton to marry on ...
p159
sa(dp160
g3
V... Prince Edward and Sophie Rhys-Jones did not marry in ... since the breakdown of Prince Charles\u2019 and Diana\u2019s marriage ... engaged on 10th ...
p161
sg5
VRoyal wedding history part 3 : Prince Andrew, Edward, Charles ...
p162
sa(dp163
g3
VWhen Edward, Prince of Wales met M... ... Britain's next king. Wallis Simpson was a married American woman who had been previously married and divorced ...
p164
sg5
VMovies About King Edward and Wallis Simpson
p165
sa(dp166
g3
V... Prince William, to get married ... young to marry. Mar 8, 2006, 16:12 GMT. Britain's Prince William and his girlfriend ... Marsiaj have named Edward. ...
p167
sg5
VPrince William of Wales News - Entertainment and World News on ...
p168
sa(dp169
g3
VHe was born as a prince in Germany, and when he married one of the most powerful people ... British political tradition decreed that a monarch could not marry a ...
p170
sg5
VBiography of Prince Albert | Husband of Queen Victoria
p171
sa(dp172
g3
VThe Queen, then Princess Elizabeth, was 21 years old when she married Prince Philip in 1947.
p173
sg5
VHow old was Queen Elizabeth when she married Prince Philip
p174
sa(dp175
g3
V... announced that Prince William became engaged to Kate Middleton while th ... but as she has done on the marriage of her sons, Andrew and Edward, ...
p176
sg5
VPrince William's Wedding - Squidoo : Welcome to Squidoo
p177
sa(dp178
g3
V"The Duchess was admitted this afternoon to King Edward VII Hospital in ... for the long-awaited marriage of Prince William and long ... Kate engaged. Pending the ...
p179
sg5
VPrince William, Kate Middleton, Baby News, Biography, Quotes
p180
sa(dp181
g3
V... 1981, for the marriage of Prince Charles ... Britain's Prince Edward and his bride Sophie ... after it was announced that she will marry Britain's Prince ...
p182
sg5
VRoyal weddings in history (Photos) | OregonLive.com
p183
sa(dp184
g3
V... while King Edward VIII was Prince of Wales, ... give up the idea of marriage; marry against the prime minister's wishes; ... after being engaged for two years.
p185
sg5
VBarely Regal: A Timeline of British Royal Scandals | Infoplease.com
p186
sa(dp187
g3
VThe couple will get married in either the Spring or Summer of next ... remote areas of the country such as Prince Edward ... Britain's Prince William ...
p188
sg5
VPHOTOS: Will and Kate | 9news.com
p189
sa(dp190
g3
VHe was a 31-year-old bachelor Swedish prince, a great-grandson of Britain\u2019s ... to marry a commoner. In 1947, Crown Prince ... her marriage, Lilian did not ...
p191
sg5
VPrincess Lilian Has Died, Sweden's Great Royal Love Story
p192
sa(dp193
g3
VBritain's Prince William and Kate Middleton leave the ... reportedly promised Middleton he would marry her in a secret pact made ... A Marriage & A Baby ...
p194
sg5
VPrince William to Reportedly Tie the Knot With Kate Middleton ...
p195
sa(dp196
g3
VThe prince asked Middleton to marry him during a private holiday in Kenya last month and has, ... since Anne Hyde married the future King James II in 1660.
p197
sg5
VPrince William and Kate Middleton engagement announced | UK news ...
p198
sa(dp199
g3
VHow old was Princess Diana when she married Prince Charles? ... no-charles was her only husband-future kings tend not to marry divorced women Related topics: princess ...
p200
sg5
VWhen did Princess Diana and Prince Charles get married - The Q&A wiki
p201
sa(dp202
g3
VMarried: Prince Philip on November 20, ... Britain\u2019s position in the world, ... Edward, Earl of Wessex, marries Sophie Rhys-Jones.
p203
sg5
VQueen Elizabeth II - British Royal Family History
p204
sa(dp205
g3
VEdward VIII chose to marry a two-times ... legally binding marriage that did not ... of his persona as Prince of Wales, she had been married ...
p206
sg5
VWhy did Edward VIII, abdicate? - Yahoo! UK & Ireland Answers
p207
sa(dp208
g3
V... family""when the infant prince made his ... He did, in fact, marry Elizabeth of Glamis and ... young couple about Edward's intentions of marriage to ...
p209
sg5
VKing George VI - Essortment Articles: Free Online Articles on ...
p210
sa(dp211
g3
VJust go out and get married for money. There's A LOT at ... there's little doubt that William will eventually marry long-time ... Prince William and Kate ...
p212
sg5
VPrince William and Kate Middleton: The $20 Billion Marriage! - The ...
p213
sa(dp214
g3
VHe received the title of His Royal Highness from George VI the day before he married Elizabeth on Nov. 20, ... she wanted to marry Peter ... The Prince Edward, ...
p215
sg5
VBritish Royal Family - Who's Who in the Royal Family
p216
sa(dp217
g3
VBritain's Prince Harry has moved into the ... The ability to engage with ... Prince William and his wife Catherine touched down in Prince Edward ...
p218
sg5
VPrince William of Wales: News & Videos about Prince William of ...
p219
sa(dp220
g3
V... King Edward VIII may be best known for giving up the throne to marry ... "The royal household took steps to make sure that the prince's name did ... on Britain's ...
p221
sg5
VSex, murder and conspiracy sheds new light on Edward VIII-Book ...
p222
sa(dp223
g3
VBefore they could marry, Prince Philip was required to convert from Greek ... HRH The Prince Edward, Earl of Wessex: 10 March 1964: married (19 June 1999) Sophie ...
p224
sg5
VPrince Philip, Duke of Edinburgh - Hellenica, Information about ...
p225
sa(dp226
g3
V... Britain's Prince William and his ... was in the King Edward VII Hospital in ... the first "commoner" to marry a prince in close proximity ...
p227
sg5
VUK's Prince William and wife Kate expecting a baby | Reuters
p228
sa(dp229
g3
VThe Duchess of Cambridge arrives in the province of Prince Edward ... to marry Prince William on April 29, 2011. Britain's ... engaged during a ...
p230
sg5
VPregnant Kate Middleton Enjoys Swiss Alps With Prince William ...
p231
sa(dp232
g3
VBritain's Prince William and his wife ... was in the King Edward VII Hospital in central ... the first "commoner" to marry a prince in close proximity to ...
p233
sg5
VUK's Prince William and Kate Expecting a Baby
p234
sa(dp235
g3
VShe married Prince Christopher of ... He has not been seen as the most engaged or understanding father. Prince ... Prince Edward is now in a London theatre company ...
p236
sg5
VPrince Philip, Duke of Edinburgh (1921- )
p237
sa(dp238
g3
VI think the marriage of Prince Charles and ... married Charles could not marry ... have a history of affairs.Edward VII was well known for ...
p239
sg5
VWhat do you think of the marriage of Prince Charles and Princess ...
p240
sa(dp241
g3
VSecretly Engaged: 1946. Married: ... First Marriage: Yes. Did You Know? Prince Philip is compelled "to walk 'two steps ... Edward married Sophie Rhys-Jones. They have ...
p242
sg5
VQueen Elizabeth II and Prince Philip - Marriage -- Free Advice and ...
p243
sa(dp244
g3
VEdward had been determined to marry Mrs ... In the absence of legislation that would permit the marriage, King Edward chose ... The Prince's genuine ...
p245
sg5
VThe Duke of Windsor Dies at 77 - The New York Times - Breaking ...
p246
sa(dp247
g3
VAlthough it was an arranged marriage George and May were deeply in ... Prince Edward in 1894, Prince ... She was engaged to marry Prince Albert Victor ...
p248
sg5
VQueen Mary - Biography
p249
sa(dp250
g3
V... King Edward VIII may be best known for giving up the throne to marry American ... that the prince's name did not come out in ... on Britain's Channel 4 ...
p251
sg5
VSex, murder and conspiracy sheds new light on Edward VIII-Book ...
p252
sa(dp253
g3
VWhat kind of ring did Prince William give ... Has he been saving it for the big day when he would get engaged? ... And it was the ring from a failed marriage, ...
p254
sg5
VDid Prince William Give Kate Middleton Princess Diana's Engagement ...
p255
sa(dp256
g3
VBrother of Edward Wessex, Princess Anne, and Prince Andrew. ... He is to marry his longtime lover ... Prince Charles is now officially engaged to his long time love ...
p257
sg5
VPrince Charles Windsor Biography, Bio, Profile, pictures, photos ...
p258
sa(dp259
g3
VThe couple will live in North Wales after they marry; ... Prince William and Kate Middleton ENGAGED; Reactions to Prince William ... Prince Edward & Sophie;
p260
sg5
VPrince William & Kate Middleton's Engagement: The Day After ...
p261
sa(dp262
g3
VBritain\u2019s Prince William and ... Charles and Andrew\u2019s younger brother Prince Edward married PR manager ... Prince Albert is now engaged to former South ...
p263
sg5
VRoyal Weddings in World \u2013 India | Dr Sanjay Kumar Cardiothoracic ...
p264
sa(dp265
g3
VKing Edward VIII may be best known for giving up the throne to marry ... "The royal household took steps to make sure that the prince's name did ... on Britain's ...
p266
sg5
VSex, Murder And Conspiracy Shed New Light On Edward VIII - Book
p267
sa(dp268
g3
VEdward VII of the United Kingdom ... Princess Royal, the Prince of Wales did not ... the Entente marked the end of centuries of Anglo-French rivalry and Britain's ...
p269
sg5
VEdward VII of the United Kingdom Biography - Biography Base Home
p270
sa(dp271
g3
VThe couple also engaged in a loving embrace, ... a godson of King Edward VII. Prince Harry, ... Britain's Prince William (R) ...
p272
sg5
VThings start to get serious between Prince Harry, new girlfriend ...
p273
sa(dp274
g3
VTo Marry an English Lord \u203a ... of the author engaged me in ... made a difference to Britain's place in the world. The same Edward who liked the ladies in Paris or ...
p275
sg5
VAmazon.com: Edward VII, Prince and King (9780689109379): Giles St ...
p276
sa(dp277
g3
V... the marriage of Prince Charles of Wales and Lady Diana ... engaged in an affair with 19-year-old Christine ... Britain's Prince Edward VIII on the Great ...
p278
sg5
VBritish History Video \u2014 History.com
p279
sa(dp280
g3
VLearn about Britain's royal romances in the 20th century including Edward VIII and his ... the eligible young boy would marry. Prince Charles certainly seems to ...
p281
sg5
VThe Royal Romances of the Twentieth Century video from Answers.com ...
p282
sa(dp283
g3
VA nurse at King Edward VII Hospital ... Britain's Prince William and Catherine Middleton are expecting their first child after 19 months of marriage, ...
p284
sg5
VRadio DJs pretend to be queen, make prank call to Catherine's ...
p285
sa(dp286
g3
V... Queen Elizabeth II and Prince Philip, Duke of Edinburgh. ... Now married for more than 60 years, ... the couple became secretly engaged ...
p287
sg5
VIconic weddings: Queen Elizabeth II and Prince Philip, Duke of ...
p288
sa(dp289
g3
VPrince Albert to marry her. ... married her \u2018first cousin\u2019 Prince Albert (20) and ... son Edward, Prince of Wales is the father of Winston Churchill,
p290
sg5
V0 How To Take Over The World - Greg Hallett and Spymaster
p291
sa(dp292
g3
VPrince William to marry girlfriend ... and Britain's Prince Charles speaks during the opening ceremony for the ... Charles married Camilla ...
p293
sg5
VPrince Charles suggests Camilla could be queen | Reuters
p294
sa(dp295
g3
Van American socialite who married, as her third husband, Prince Edward, ... However, Edward was determined to marry ... it was in Britain's interest and in ...
p296
sg5
VBessie Wallis Simpson (Warfield), Duchess of Windsor (1896 - 1986 ...
p297
sa(dp298
g3
VShe lived just eighteen months after their marriage, long enough to deliver a prince and ... But Edward did publicly ... He wanted to marry Edward VI ...
p299
sg5
VTudor Monarchs: King Edward VI - EnglishHistory.net
p300
sa(dp301
g3
V... Britain's Poet Laureate Andrew Motion has written "Spring Wedding," a poem commemorating the marriage of Prince Charles and Camilla ... Edward VII, and ...
p302
sg5
VPrince Charles and Camilla
p303
sa.