(lp1
(dp2
S'description'
p3
VEgyptAir Flight 990 ... the Boeing 767 operating the route crashed into the Atlantic Ocean, about 60 miles ... [about the crash of Flight 990] ...
p4
sS'title'
p5
VEgyptAir Flight 990 - Wikipedia, the free encyclopedia
p6
sa(dp7
g3
V... It was EgyptAir Flight 990, ... before mysteriously plummeting into the Atlantic Ocean sixty miles south ... six months before the crash of Flight 990, ...
p8
sg5
VThe Crash of EgyptAir 990 - William Langewiesche - The Atlantic
p9
sa(dp10
g3
VImmediately after EgyptAir Flight 990 was directed at the Atlantic Ocean, Batouty said, "I rely on God" seven times in eight seconds.
p11
sg5
VThe Mysterious Crash of EgyptAir Flight 990 - Historic Mysteries
p12
sa(dp13
g3
VTHE CRASH OF EGYPTAIR: ... the underwater wreckage of EgyptAir's fatal Flight 990. ... Boeing 767 jetliner to crash into the Atlantic Ocean near ...
p14
sg5
VWorld Muslim Congress : Islam Misunderstood: Tawakkaltu Ala-Allah ...
p15
sa(dp16
g3
VEgyptian officials won't admit that the crash of flight 990 was an ... into the Atlantic Ocean sixty ... on EgyptAir flights. Various flight ...
p17
sg5
VThe Atlantic | November 2001 | The Crash of EgyptAir 990 ...
p18
sa(dp19
g3
VEgyptAir Flight 990 nose-dived into the Atlantic Ocean, ... was put in charge of investigating the crash of EgyptAir Flight 990. They did so with the ...
p20
sg5
VEgyptAir Flight 990 - Yahoo! Voices - voices.yahoo.com
p21
sa(dp22
g3
VEgyptAir Flight 990 Cabin Crew ... of Egyptair Flight 990 that crashed into the Atlantic Ocean after ... (NTSB) attributed the crash of EgyptAir Flight 990 to ...
p23
sg5
VGameel Al-Batouti | Photos | Murderpedia, the encyclopedia of ...
p24
sa(dp25
g3
VHome > Maclean's Magazine > EgyptAir Crash ... After Flight 990 plunged into the Atlantic Ocean ... But like two other ill-fated commercial flights in the ...
p26
sg5
VEgyptAir Crash Mystery - The Canadian Encyclopedia
p27
sa(dp28
g3
VSatan and EgyptAir crash October 31, 1999 EgyptAir Flight 990 from New York to Cairo with 217 onboard crashed at about 1:54am EST in the Atlantic Ocean about 60
p29
sg5
VIslamiCity Forum - Islamic Discussion Forum: You know why US is so ...
p30
sa(dp31
g3
VThe Crash of EgyptAir 990 ... So, after EgyptAir Flight 990 crashed into the Atlantic Ocean off the coast of New England early on the morning of October 31, ...
p32
sg5
VEgyptAir - Trinity College
p33
sa(dp34
g3
VMysterious Cause of EgyptAir Flight 990 Crash Uncovered ... the form of recorded voices of the pilots could be retrieved from the depths of the Atlantic Ocean, ...
p35
sg5
VRemote Viewers Uncovered It First!
p36
sa(dp37
g3
VEgyptAir Flight 990 Accident Information. An EgyptAir 767-300ER crashed in the Atlantic Ocean about 60 miles (96 km) south of Nantucket Is. The aircraft, with 203 ...
p38
sg5
VEgyptAir Flight 990 Accident Information - Plane Crash, Airline ...
p39
sa(dp40
g3
V... It's six months since EgyptAir flight 990 crashed into the Atlantic, ... towards the Atlantic ocean ... the EgyptAir 990 crash and ...
p41
sg5
VEgyptAir crash 1999 | World news | The Guardian
p42
sa(dp43
g3
VIn advance of the release of a U.S. report examining the cause of the crash of EgyptAir Flight 990, ... when it crashed into the Atlantic Ocean south ...
p44
sg5
VCNN.com - EgyptAir official: NTSB 'speculating' on cause of crash ...
p45
sa(dp46
g3
VThe REAL Mystery of Egypt Air Flight 990. ... that the plane was still headed toward the ocean when transponder ... a deadly crash into the north Atlantic.
p47
sg5
VThe Enterprise Mission - The REAL Mystery of Egypt Air flight 990
p48
sa(dp49
g3
VThe EgyptAir Flight 990 accident may have been caused by malfunctions of ... precipitating the plane\u2019s crash into the Atlantic Ocean off Nantucket ...
p50
sg5
VEgyptAir 990 Cockpit Voice Recorder Transcript - ABC News
p51
sa(dp52
g3
VEgyptAir flight 990 crash: special report. Share; ... As the aircraft was heading for the Atlantic, ... four of which have been recovered from the sea.
p53
sg5
VUS and Egypt split on fatal plane crash | World news | The Guardian
p54
sa(dp55
g3
VInvestigators found probable cause that the co-pilot of EgyptAir Flight 990 was responsible for the plane's plunge into the Atlantic Ocean.
p56
sg5
VCNN.com - NTSB blames co-pilot for EgyptAir crash - March 21, 2002
p57
sa(dp58
g3
VOct 31 1999, Atlantic Ocean near Nantucket Island, Massachusetts, Related Topics: Air Disasters, Plane Crashes, Nantucket, Boeing 767, EgyptAir, Flight 990, Disasters
p59
sg5
VEgyptAir Flight 990 Crash - Timelines.com
p60
sa(dp61
g3
VEgyptAir Flight 990 ... 1999, at around 01:50 EST, Flight 990 plummeted into the Atlantic Ocean, ... 9:56 Air crash - Egypt Air 990 part 5 by afiraaa ...
p62
sg5
VAir crash - EgyptAir Flight 990 (german/arabic) - YouTube
p63
sa(dp64
g3
VEgyptAir Flight 990 Crashes Off The Coast Of Nantucket ... with an aircraft crash. ... EgyptAir flight 990, which crashed into the Atlantic Ocean on ...
p65
sg5
VCoast Guard Crews Locate Debris From EgyptAir Flight 990
p66
sa(dp67
g3
VWas EgyptAir Flight 990 the Prelude to ... in the Atlantic ocean, ... who might know something about the crash of EgyptAir Flight 990 off Nantucket ...
p68
sg5
VWas EgyptAir Flight 990 the Prelude to September 11th?
p69
sa(dp70
g3
VMysterious Cause of EgyptAir Flight 990 Crash Uncovered ... the form of recorded voices of the pilots could be retrieved from the depths of the Atlantic Ocean, ...
p71
sg5
VRemote Viewers Uncovered It First! - The Ultimate Remote Viewing ...
p72
sa(dp73
g3
VA draft of the final U.S. report on the crash of EgyptAir Flight 990 does nothing to ... the Atlantic Ocean off ... its American-bound flights, ...
p74
sg5
VArticles about Egyptair - Los Angeles Times
p75
sa(dp76
g3
VEgyptAir Flight 990 ... the EgyptAir flight 990 accident is the airplane's departure from normal cruise flight and subsequent impact with the Atlantic Ocean as a ...
p77
sg5
VAviation Safety Network: EgyptAir Flight 990
p78
sa(dp79
g3
VAn EgyptAir 767 jetliner flying from New York to Cairo plummeted into the Atlantic Ocean off ... Atlantic route as EgyptAir 990. ... the crash of flight 990 ...
p80
sg5
VWashingtonpost.com: 217 Feared Dead in EgyptAir Crash
p81
sa(dp82
g3
VEgyptAir Flight 990 Boeing ... crashed into the Atlantic Ocean about 60 miles ... portions of the accident flight and during previous flights and ground ...
p83
sg5
VEgyptAir Flight 990, October 31, 1999 - NTSB - National ...
p84
sa(dp85
g3
VIt looked as though the craft had plummeted into the sea suddenly. ... CRASH of EGYPT AIR Flight 990 in 1999 The Crash of EgyptAir 990 October 31, ...
p86
sg5
VCRASH of EGYPT AIR 990 in 1999 - BIBLE STUDIES: WARS, JUDGEMENT ...
p87
sa(dp88
g3
VEGYPTAIR FLIGHT 990 CRASH 10 ... and crashed into the Atlantic less than an hour after its 1:20 ... pointed the Boeing 767 toward the sea and taken ...
p89
sg5
VEgyptair Flight 990 Crash ~ 10-31-1999 ~ Precognition Event Confirmed
p90
sa(dp91
g3
VNEWPORT, Rhode Island (CNN) -- A week after EgyptAir Flight 990 plunged into the Atlantic Ocean off Massachusetts, families of the 217 people lost in the ...
p92
sg5
VCNN - Memorial for EgyptAir crash victims set for Sunday ...
p93
sa(dp94
g3
VOn 10/31/1999 at about 01:50 a Boeing 767 Egypt-Air flight no 990 from ... into the Northern Atlantic Ocean. ... were killed in the crash. In such a long flight ...
p95
sg5
VGlobal Jihad - EGYPT-AIR FLIGHT 990
p96
sa(dp97
g3
VWatch Air Crash Investigation ... (EgyptAir Flight 990) ... 1999, at around 1:50 a.m. EST, Flight 990 dove into the Atlantic Ocean, ...
p98
sg5
VWatch Air Crash Investigation - Mayday Season 3 Episode 8 Death ...
p99
sa(dp100
g3
VDATE=11/13/1999 TYPE=CORRESPONDENT REPORT TITLE=EGYPTAIR CRASH ... EgyptAir Flight 990 to crash into the Atlantic Ocean off ... wrong with EgyptAir Flight 990.
p101
sg5
VEGYPTAIR CRASH/PILOTS - GlobalSecurity.org - Reliable Security ...
p102
sa(dp103
g3
VMany questions raised by Egyptair Flight 990 crash ... and Swissair Flight 111, which crashed into the Atlantic in ... While more than 1,000 flights a day ...
p104
sg5
VMany questions raised by Egyptair Flight 990 crash - World ...
p105
sa(dp106
g3
VWhat we know about the Egypt Air crash is that a Muslim co-pilot deliberately crashed the plane into the ocean. ... about Egypt Air Flight 990 is because ...
p107
sg5
VAnother look at Egypt Air crash - WND - A Free Press for a Free People
p108
sa(dp109
g3
VAtlantic Controller: EgyptAir 990, ... then a final plunge to the bottom of the sea. EgyptAir 990 lost its transponder ... United flight 232 (a DC-10) crash-landed ...
p110
sg5
VThe Fall of EgyptAir 990 by Elaine Scarry | The New York Review of ...
p111
sa(dp112
g3
V... crashed in the Atlantic Ocean about 60 miles south of Nantucket Island, Massachusetts. ... [Deleted] the October 1999 crash of Egypt Air Flight 990, ...
p113
sg5
VThe Untold Story of Lynne Stewart and Egyptair Flight 990 - Scribd
p114
sa(dp115
g3
VThe 33 Egyptian military officers aboard EgyptAir Flight 990 had been in the ... into the Atlantic Ocean off Nantucket Island ... into the crash, ...
p116
sg5
VEgyptAir Flight 990 - Questions persist over 33 military officers ...
p117
sa(dp118
g3
V... searching the Atlantic Ocean off Massachusetts, but hope was slim that any survivors would be found from the weekend crash of EgyptAir Flight 990.
p119
sg5
VCNN - EgyptAir crash searchers find more debris, not survivors ...
p120
sa(dp121
g3
VIn 1999, 217 died on an EgyptAir plane. A 2 1/2-year inquiry blames the co-pilot. WASHINGTON -- The co-pilot caused EgyptAir Flight 990 to crash into the Atlantic Ocean.
p122
sg5
VWorldandnation: Crash was intentional, U.S. says
p123
sa(dp124
g3
VOn 31 October 1999, EgyptAir Flight 990 from New York to Cairo, Egypt dove out of the sky and crashed into the sea killing 217 peo...
p125
sg5
VAir Crash Investigation - S03E08 Death and Denial (EgyptAir Flight ...
p126
sa(dp127
g3
VThe U.S. Coast Guard recovers debris from the EgyptAir crash ... EgyptAir Flight 990 took off early on ... 31 into the Atlantic Ocean off ...
p128
sg5
VCNN.com - EgyptAir crash tape released - May 16, 2000
p129
sa(dp130
g3
VThe Crash Of Flight 990. ... couple were not aboard EgyptAir Flight 990, which crashed into the Atlantic Ocean early ... EgyptAir has established a special ...
p131
sg5
VJohn Simermeyer | Families in Md. fear the worst - Baltimore Sun
p132
sa(dp133
g3
VRegarding the crash of EgyptAir Flight 990, ... have caused their media lap dogs to mislead the public that Flight 990 crashed into the Atlantic Ocean because a ...
p134
sg5
VSherman Skolnick's Report
p135
sa(dp136
g3
VWho Are Air Crash Investigators? ... Egypt Air 990. Egypt Air flight 990 is over the Atlantic when it suddenly plunges towards the water, ... Freaks of the Ocean
p137
sg5
VWatch Air Crash Investigation Videos Online - National Geographic ...
p138
sa(dp139
g3
VThe crash of Egypt Air flight 990 out of New York in the early morning hours of October ... across the sea in Giza, ... 33,000 feet above the moonlit Atlantic, ...
p140
sg5
VEnterprise Mission - Will 'X' Mark the Date?: Part 3
p141
sa(dp142
g3
VEgyptian officials investigating the crash of EgyptAir Flight 990 say the matter will not ... shutdown of the engines and the fatal dive into the Atlantic Ocean. ...
p143
sg5
VFlight 990 crash likely won't be treated as criminal act - World ...
p144
sa(dp145
g3
V... Deliberately crashing Flight 990 into the ocean: Location: Atlantic Ocean 60 miles ... cause of the crash of EgyptAir flight 990 was the airplane ...
p146
sg5
VGameel Al-Batouti - Murderpedia, the encyclopedia of murderers
p147
sa(dp148
g3
VFlight Officer Hesham Farouk, EgyptAir employee, ... died in the plane crash On October 31, 1999, (an Egyptian Boeing 767 Flight 990) ...
p149
sg5
VEgyptAir 990 Passenger List - CBS News - Breaking News Headlines ...
p150
sa(dp151
g3
V... 1999 crash of an Egyptair Boeing 767 (Flight 990) ... Arinc it's Atlantic sector did a Egyptair nine ninety check on with you approaching dovey: 6:56:45: ARINC:
p152
sg5
VAviation Safety Network > Accident investigation > CVR / FDR ...
p153
sa(dp154
g3
V... 1999 crash of an Egyptair Boeing 767 (Flight 990) ... Arinc it's Atlantic sector did a Egyptair nine ninety check on with you approaching dovey: 6:56:45: ARINC:
p155
sg5
VAviation Safety Network > Accident investigation > CVR / FDR ...
p156
sa(dp157
g3
VAir France crash: mystery of plane ... Egyptair Flight 990 from New York to Cairo nosedived into the Atlantic Ocean 60 miles off the US coast.
p158
sg5
VAir France 447, TWA 800, EgyptAir 990, Adam Air 574 | WHAT REALLY ...
p159
sa(dp160
g3
VRegarding the crash of EgyptAir Flight 990, ... have caused their media lap dogs to mislead the public that Flight 990 crashed into the Atlantic Ocean because a ...
p161
sg5
VAIR CRASHES, BLACK BOXES, and UNSAFETY BOARDS---EgyptAir Flight ...
p162
sa(dp163
g3
VThe Coast Guard is giving up hope that survivors will be found from Sunday morning's crash of EgyptAir Flight 990. ... in the Atlantic Ocean. ...
p164
sg5
VOnline NewsHour: Egyptian plane crashes -- November 1, 1999
p165
sa(dp166
g3
VAir France crash: mystery of plane ... Egyptair Flight 990 from New York to Cairo nosedived into the Atlantic Ocean 60 miles off the US coast.
p167
sg5
VAir France crash: mystery of plane disappearances - Telegraph
p168
sa(dp169
g3
VThe flight data recorder from EgyptAir Flight 990 was recovered from the Atlantic Ocean and shipped to a ... into the crash of EgyptAir Flight 990 said a ...
p170
sg5
VTimeline - Air Crash
p171
sa(dp172
g3
VEgyptAir 990 crashed at sea two years ... pilot of EgyptAir 990 crashed the plane into the Atlantic Ocean to take ... the crash of EgyptAir Flight 990, ...
p173
sg5
VGamil al-Batouti News - The New York Times
p174
sa(dp175
g3
VA translated report by Taiwan's FTV News reported that the crash of Egypt Air 990 was possibly ... a course to crash into the ocean ... his last flight ...
p176
sg5
VEgypt Air 990 Crash Could Linked To Al-Qaeda \u2014 Civil Aviation ...
p177
sa(dp178
g3
VEgyptAir Crash in Atlantic ... EgyptAir Flight 990 sent no distress signal or ... a few seat cushions and two partially inflated life rafts from ocean waters with ...
p179
sg5
V"EgyptAir Crash in Atlantic Kills 217: Boeing Jet Plunges off ...
p180
sa(dp181
g3
VEgypt Air Crash: The Hidden Hand ... during and after the bodies of all 217 victims ended up in the bottom of the ocean or eaten ... one of the Egypt Air flight crew ...
p182
sg5
VEgypt Air Crash: The Hidden Hand Behind the Disaster
p183
sa(dp184
g3
V... its findings in the investigation of the crash last year of EgyptAir Flight 990, ... EgyptAir 990 crashed into the Atlantic Ocean off the ...
p185
sg5
VNTSB Releases EgyptAir Evidence - ABC News
p186
sa(dp187
g3
V... EgyptAir flight that disappeared into the Atlantic Ocean near Nantucket ... who died aboard EgyptAir Flight 990, ... Jet Crash / 2 From Bay Area ...
p188
sg5
V217 Perish in Jet Crash / 2 From Bay Area Among the Victims - SFGate
p189
sa(dp190
g3
Vcase another air tragedy occurred here at Otis or at sea like Flight 800. ... experience of the Crash of EGYPT AIR 990, and show how through
p191
sg5
VEGYPT AIR FLIGHT 990 - US Coast Guard Home
p192
sa(dp193
g3
VEd Dames on Art Bell - Cause of EgyptAir Flight 990 Crash 11-11-99 ... and then to the ocean. In other words, it did what the FAA called a controlled descent.
p194
sg5
VEd Dames on Art Bell - Cause of EgyptAir Flight 990 Crash 11-11-99 ...
p195
sa(dp196
g3
VDATE=11/2/1999 TYPE=CORRESPONDENT REPORT TITLE=EGYPT AIR CRASH ... plunge into the Atlantic ocean after taking ... aboard Egypt Air Flight-990 are ...
p197
sg5
VEGYPT AIR CRASH - Federation of American Scientists
p198
sa(dp199
g3
VIf a crazy Muslim would crash a plane into an ocean, ... (ATLANTIC OCEAN OFF OF THE US ... Egypt Air flight 990 mysteriously drops into the Atlantic Ocean ...
p200
sg5
VTen years later, reason why EgyptAir jet crashed unclear
p201
sa(dp202
g3
V... where Egyptair Flight 990 ... It was the third crash of an airliner into ocean ... a Kenya Airways flight crashed into the Atlantic Ocean shortly ...
p203
sg5
VSFO-Bound Alaska Airlines Jet Crashes - SFGate
p204
sa(dp205
g3
VTHWARTED IN their efforts to turn the EgyptAir crash inquiry into a ... EgyptAir Flight 990 plunged into the Atlantic off Massachusetts in the ... The Acid Ocean: ...
p206
sg5
VUS officials blame jet crash on pilot suicide - World - News - The ...
p207
sa(dp208
g3
VJoin a Discussion on the Crash of Egyptair 990. BY FRANCIS ... crew members who died Sunday when EgyptAir Flight 990 fell into the Atlantic Ocean off ...
p209
sg5
VThe Victims: Across the World, Family and Friends Sift Memories
p210
sa(dp211
g3
VThis could explain why flight into the sea occurred ... the Swissair Flight, and Egypt Air Flight 990 are going to ... The crash of three flights leaving J.F ...
p212
sg5
VBBC News | Talking Point | EgyptAir Boeing 767 crash - Your Reaction
p213
sa(dp214
g3
VUSAF EC-135N & EGYPTAIR Flight 990: Precursors of Remote Controlled Flights ... News of the 31 October 1999 Egypt Air flight 990 crash at sea caused me to refresh ...
p215
sg5
Vusaf ec-135n & egyptair flight 990 - metatron
p216
sa(dp217
g3
V... were killed when the Relief First Officer aboard EgyptAir Flight 990 deliberately caused the Boeing 767-366ER to crash into the Atlantic Ocean, ...
p218
sg5
VThe Pilot Aboard Last Week's Korean Plane Crash Had Just Taken Out ...
p219
sa(dp220
g3
VThe remains of the first victims of Egypt-Air Flight 990 ... EgyptAir Boeing 767 plunged into the Atlantic ... the plane to crash into the ocean, ...
p221
sg5
VArticles about Airplane Accidents Massachusetts by Date - Page 2 ...
p222
sa(dp223
g3
V... which recovered the flight data recorder, has returned to the sea to ... the crew on Flight 990. An EgyptAir official ... Atlantic memorial service for crash ...
p224
sg5
VBBC News | Americas | Black box yields EgyptAir data
p225
sa(dp226
g3
Vwere involved in a Plane crash on Egypt Air Flight 990 ... who on aboard EgyptAir Flight 990, which crashed into the Atlantic Ocean on October 31,1999 Ref. website ...
p227
sg5
VHow can I get the data as to the passenger list of airplane... - Q&A
p228
sa(dp229
g3
VEgyptair Flight 990 was a flight that flew on a Los Angeles-New ... Flight 990 dived into the Atlantic Ocean near Nantucket ... Several days after the crash, ...
p230
sg5
VEgyptAir Flight 990 - Definition | WordIQ.com
p231
sa(dp232
g3
VEgypt Air Flight 990 Plane Crash: ... 1999, Flight 990 dove into the Atlantic Ocean, about 40 miles ... NOAA began aerial photography flights over the affected areas.
p233
sg5
VNOAA 200th Feature Stories: Disaster Response
p234
sa(dp235
g3
V... a Boeing 747-131 exploded in the air and crashed into the Atlantic Ocean off ... The Disappearance of Flight 19 The Mysterious Crash of EgyptAir Flight 990 The ...
p236
sg5
VThe TWA Flight 800 Tragedy - Historic Mysteries
p237
sa(dp238
g3
VEgyptAir Flight 990 Recovered Flight Data Recorder. See all 2 photos. Flight 990 plummeted into the Atlantic Ocean, about 60 miles ... Crash Impact ; Static Crush ;
p239
sg5
VFlight Data Recorders - MikeNV on HubPages
p240
sa(dp241
g3
V... the left-side engine on Atlantic Southeast Airlines Flight 529 partly tore itself from its ... Air Crash Investigation - S03E06 Ocean ... (EgyptAir Flight 990)
p242
sg5
VAir Crash Investigation - S02E02 A Wounded Bird (Atlantic ...
p243
sa(dp244
g3
VLatest Flights Headlines. ... EgyptAir Flight 990 crashed into the Atlantic Ocean off the ... Funk says pilots today face more worries than they did ...
p245
sg5
VBad behavior in cockpit has proven deadly - USATODAY.com
p246
sa(dp247
g3
VEgypt Air (MS) #986 Flight Tracker (MSR986) Flight Tracker (en route flights ... in the Atlantic Ocean about ... 2001/11/the-crash-of-egyptair-990 ...
p248
sg5
VWhat is WHAT PLANE IS EGYPTAIR MS 986?
p249
sa(dp250
g3
V... first time publicly blamed the October 1999 EgyptAir crash on the ... the sea off the US ... in the cockpit when EgyptAir Flight 990 started ...
p251
sg5
VEgyptair 990 Co-pilot Crashed The Plane \u2014 Civil Aviation Forum ...
p252
sa(dp253
g3
VEgypt Air Flight 990 disappeared off the ... EA-990 crash attempts to ... plummet towards the Atlantic Ocean that such would be ...
p254
sg5
VREVIEWING EGYPT AIR 990
p255
sa(dp256
g3
VFBI MAY TAKE OVER INVESTIGATION OF EGYPTAIR 990 CRASH. ... and the Atlantic Ocean (E ... is a flight recorder used to record the audio environment in ...
p257
sg5
VFBI MAY TAKE OVER INVESTIGATION OF EGYPTAIR 990 CRASH. - Free ...
p258
sa(dp259
g3
VEgyptAir Flight 990, October 31, 1999 Shared by: NTSB. Categories. ... New York, EgyptAir Crash, Los Angeles, the Atlantic Ocean - ...
p260
sg5
VEgyptAir Flight 990, October 31, 1999 - Docstoc \u2013 We Make Every ...
p261
sa(dp262
g3
V... but the crash of EgyptAir 990 began more mysteriously than most. ... Or it may have vanished into the dark sea with the passengers and crew of Flight 990.
p263
sg5
VThe Fatal Plunge - Newsweek and The Daily Beast
p264
sa(dp265
g3
V... when EgyptAir Flight 990 abruptly dived into the Atlantic Ocean ... flights departed at 6 ... into last year's EgyptAir Flight 990 crash to explain ...
p266
sg5
VEgyptair 990 - The "Hull Thread" Home Page
p267
sa(dp268
g3
V... from Orville Wright's ill-fated flight of September 1908 to the 1999 crash of EgyptAir Flight 990. ... How did Clyde Tombaugh go from baling hay to finding Pluto?
p269
sg5
VNOVA | Mysterious Plane Crashes - PBS: Public Broadcasting Service
p270
sa(dp271
g3
VRayan said he did not believe the crash was the result of a ... /// OPT /// Egypt Air Flight-990 originated ... a massive search by air and sea was ...
p272
sg5
VEGYPT PLANE CRASH - Federation of American Scientists
p273
sa(dp274
g3
VDATE=11/19/1999 TYPE=CORRESPONDENT REPORT TITLE=EGYPT AIR ... the cause of the crash of Egypt Air flight 990. ... the plane into the Atlantic Ocean.
p275
sg5
VEGYPT AIR INVESTIGATION - Federation of American Scientists
p276
sa(dp277
g3
VEgypt Air Flight 990 disappeared off the radar ... The following account of the EA-990 crash attempts to describe the ... assuming extremely deep ocean ...
p278
sg5
VEGYPT AIR 990
p279
sa(dp280
g3
VYour Guide to Information on a Plane Crash. ... EgyptAir 990 over the Atlantic. Pan Am 103 over ... Your chance of dying on your next flight in the US is ...
p281
sg5
VPlane Crash Facts - Information on Plane Crashes ...
p282
sa(dp283
g3
VThe crash of TWA Flight 800 into the Atlantic Ocean just south of Long ... , 1999, after the crash of EgyptAir Flight 990. hoping the skies stay friendly, Rick.
p284
sg5
V11-26-99 - Flavin's Corner
p285
sa(dp286
g3
V... explodes in a fireball over the Atlantic Ocean after taking ... Flight 990 with 217 ... It was the day's second crash. Earlier, an EgyptAir Boeing 737 with 62 ...
p287
sg5
VCBSNews.com - Breaking News Headlines: Business, Entertainment ...
p288
sa(dp289
g3
VEgyptAir has released the list of passengers on board flight 990 when it crashed into the Atlantic Ocean early Sunday. ... 5 Surrey crash victims all from one family
p290
sg5
VEgyptAir passenger list released - World - CBC News
p291
sa(dp292
g3
VRecovery of the cockpit voice recorder from jetliner EgyptAir 990, which plunged into the Atlantic Ocean during the ... The crash of EgyptAir Flight 990 has been a ...
p293
sg5
VUFO Roundup: The Latest UFOlogy News and Sighting Reports
p294
sa(dp295
g3
VEGYPT AIR FLIGHT 990 31Oct99 HSC ... here at Otis or at sea like Flight ... of the Crash of EGYPT AIR 990, ...
p296
sg5
VEGYPT AIR FLIGHT 990 - Docstoc \u2013 We Make Every Small Business Better
p297
sa(dp298
g3
VOr consider the controversy that followed the loss of EgyptAir Flight 990 in the Atlantic Ocean in October ... many flights over many ... EgyptAir crash, ...
p299
sg5
VBeyond the Black Box : Discovery News : Discovery News
p300
sa(dp301
g3
V... Crash of U.S. Air Force C ... EgyptAir Boeing 767-300 on flight from N.Y. to ... carrying 179 passengers and crew, crashed into the Atlantic Ocean ...
p302
sg5
VAircraft Crashes | Infoplease.com
p303
sa.