(lp1
(dp2
S'description'
p3
VIn her later years, she was a consistently popular ... The French press praised the demeanour and charm of the royal ... Her 100th birthday was celebrated in ...
p4
sS'title'
p5
VQueen Elizabeth The Queen Mother - Wikipedia, the free encyclopedia
p6
sa(dp7
g3
VThe Queen has occasionally faced severe press criticism ... As she approached her 18th birthday, ... for many years. Forbes magazine estimated her net worth ...
p8
sg5
VElizabeth II - Wikipedia, the free encyclopedia
p9
sa(dp10
g3
V\u2018We\u2019re so looking forward to your 100th birthday ... The Queen Mother never gave interviews. ... a day as she channels her teen years in new music ...
p11
sg5
VThe Queen Mother: She loved owls, fairies and the miners. She ...
p12
sa(dp13
g3
VI confirm that I am at least 13 years of age. Join now ... Subjects Banking Debt and bankruptcy Child Health Job Interviews Diet and ... Do many people use ocean ...
p14
sg5
VWikiAnswers - The Q&A wiki
p15
sa(dp16
g3
VDuring her years as Queen, ... On the occasion of her 100th birthday. ... So great was the press that those who arrived in the late afternoon were standing ...
p17
sg5
VDiana had her faults, but a bigger heart than most - Telegraph
p18
sa(dp19
g3
VNorman Reedus tells Access why he thinks "The Walking Dead" resonates with their fans at the 2013 PaleyFest. Also, he talks about Carol and Daryl's relationship. Plus ...
p20
sg5
VThe Walking Dead: Norman Reedus Loves Getting Dirty
p21
sa(dp22
g3
VShe\u2019s not at her mum\u2019s house. She needs some ... gown FIVE years ago The ultimate down to earth ... Chris Brown's 24th birthday; She's got her ...
p23
sg5
VFoxy Knoxy toasts freedom with secret celebration with her mother ...
p24
sa(dp25
g3
VOlivia Wilde chats with Access about why she loves taking on a comedic role in her new movie, "The Incredible Burt Wonderstone." Also, she tells Access how difficult ...
p26
sg5
VOlivia Wilde Dishes On The Incredible Burt Wonderstone
p27
sa(dp28
g3
VGet the latest entertainment news, celebrity interviews and pop culture pulse on movies, TV and music and more at ABCNews.com.
p29
sg5
VEntertainment News, Celebrity Interviews and Pop Culture - ABC News
p30
sa(dp31
g3
VThe press is spending a major amount of ... What on earth makes you think there is ... Read her wiki page; she was Queen for 5 years in \u201957 doing ...
p32
sg5
VWhat Does One Get a Queen? - ABC News - ABCNews.com - Breaking ...
p33
sa(dp34
g3
VWe would like to show you a description here, but the site you\u2019re looking at won't allow us.
p35
sg5
VTimes Online &#94;
p36
sa(dp37
g3
VWhen we meet her again, after two years, she's drinking to the ... I'm not the bloody queen." She has been on ... She did skip her dad's birthday party to talk about ...
p38
sg5
VHot Off The Press! The Latest Television News and Info
p39
sa(dp40
g3
V... subject of lesbian love in interviews and in her ... her 19th birthday. At the time, she said it was ... Detroit Free Press more than two years after ...
p41
sg5
VMartina Navratilova Facts, information, pictures | Encyclopedia ...
p42
sa(dp43
g3
VThe shadow Chancellor sparked an internet meme two years ago when he accidentally tweeted his own name ... who led the inquiry into the Press
p44
sg5
VUK news: breaking stories, comment, analysis & debate - Mirror Online
p45
sa(dp46
g3
VThe New York Times online with news, politics, business, technology, sports, science, health, arts, style, opinions, and classifieds.
p47
sg5
VThe New York Times - Breaking News, World News & Multimedia
p48
sa(dp49
g3
VMoreover, many of these systems do not even have cyber logging or forensics. ... Weiss spent more than 14 years at the Electric Power Research Institute ...
p50
sg5
VCyber Security of Industrial Control Systems \u2013 What Does It Mean ...
p51
sa(dp52
g3
VPress. News Articles; Media FAQs; Media Inquiries; Questions & Suggestions. Help Center; Discussion Forums; Land Management and Law Enforcement; Contact Us; Resources ...
p53
sg5
VGeocaching > Hide and Seek a Geocache > Unpublished Geocache
p54
sa(dp55
g3
VEarth; Science; Defence; Health; Scotland; ... David Cameron considers attacking his own Queen's Speech . ... It has taken more than 100 years to come to light, ...
p56
sg5
VNews - Latest breaking UK news - Telegraph
p57
sa(dp58
g3
VLife Don\u2019t hate baby-boomers, they\u2019re just lucky The baby-boomers are reviled by under-45s for their property and pensions but there are six myths that need scotching
p59
sg5
VLife | The Times
p60
sa(dp61
g3
VQueen Beatrix of the Netherlands is 67 years old. She has reigned since the ... secret for 100 years Prince's girlfriend in press ... its '100th birthday' ...
p62
sg5
VNoble News
p63
sa(dp64
g3
V... slammed Deputy Spokesman Patrick Ventrell for saying that the State Department hasn't had access to transcripts of interviews ... Years Hard Labor In NKorea ...
p65
sg5
VBreitbart News: Breitbart TV
p66
sa(dp67
g3
VEnumerated below are the many interviews with experienced ... knighted in 1997 by Her Majesty Queen Beatrix ... She has worked many years in the ...
p68
sg5
VNPA Careers: Interviews List - NPA \u2013 Advocate for the ...
p69
sa(dp70
g3
VIn interviews with the press, she politely declines to talk ... night on Earth with her husband, she enters into a ... this together for so many years, ...
p71
sg5
Vno document title could be found
p72
sa(dp73
g3
VPortland Tribune has the most comprehensive coverage of local news for ... well-liked cook at two Portland-area restaurants for nearly a dozen years until ...
p74
sg5
VPamplin Media Group - Portland Tribune and Community Newspapers ...
p75
sa(dp76
g3
V... of Britain's Queen Elizabeth. The king still has many supporters ... She was 100. Her death was announced ... Press she was "happy that ...
p77
sg5
VTom's Place / In the News
p78
sa(dp79
g3
V... and was knighted in 1997 by Her Majesty Queen Beatrix for ... She has worked many years in the trenches ... He has published two books with Cisco Press, ...
p80
sg5
VInterviews - Gitca > Home
p81
sa(dp82
g3
VFor many years the United Nations has held an annual IWD ... television interviews. She frequently speaks ... The Earth Between\u201d (1923). Her Broadway ...
p83
sg5
VFor Women's Equality | Justice for all \u2013 Women's Rights are ...
p84
sa(dp85
g3
V... I got a cute bird for my birthday and I named her Sky. She was from my ... or heard from her in 10 years. She is now ... earth did I think I'd ...
p86
sg5
VMiss Deaf North Carolina 07-09
p87
sa(dp88
g3
VWomen in History - ebook download or read book online. Billions of women managed to avoid getting on this list, though most are no less worthy for having been left ...
p89
sg5
VWomen in History - Scribd
p90
sa(dp91
g3
VThe Queen did invite Sarah over for tea for the Duchess 40th birthday a few years ... the Queen Mum's ... and giving press interviews in the early to ...
p92
sg5
VWhere was Sarah, Duchess of York, at the Royal Jubilee?
p93
sa(dp94
g3
VOlamide\u2019s early days can be traced to many years back when he ... It also contained interviews with ... Rihanna has felt the full force of her mum\u2019s fury ...
p95
sg5
VMurphy Recordz | Facebook
p96
sa(dp97
g3
V... beaten to death by his mum's ... charge involving her older sons, she spent four years trying to take control of her ... her 15th birthday, ...
p98
sg5
VProtected To DEATH By Child Protective Services Timeline, Legacy ...
p99
sa(dp100
g3
VSeptember 2008 was the 100th birthday of the dome in the ... Almost 100 years before Rosa ... She typed over many of her remembrances and parts of this ...
p101
sg5
VDolly Adams, the Water Queen | San Francisco History | Guidelines ...
p102
sa(dp103
g3
V... who won power two years ago, has been forced to play ... Reagan's 100th birthday. ... to know the likely future queen in the months ahead. "She hasn't ...
p104
sg5
VWorld Blog - britain
p105
sa(dp106
g3
VISLAMABAD (Jiji Press) ... KYOTO--It is said that a Japanese garden takes 100 years to complete--roughly the span of a human life.
p107
sg5
VThe Japan News - Breaking News from Japan by The Yomiuri Shimbun
p108
sa(dp109
g3
VThat was Jim with the Lord Mayor and his mischievous friends on his 100th birthday. ... interviews where many ... 100 years ago. Today as she and her 20 ...
p110
sg5
VLove Lane Lives - the boys & girls from the whitestuff
p111
sa(dp112
g3
V... to post why they loved their Mum\u2019s so much. ... a tradition started in 1923 by the Queen Mother on her ... This is a great charity that for many years has ...
p113
sg5
VOn life...and then some! | Just another WordPress.com site
p114
sa(dp115
g3
V... President Barack Obama in Second 100th Day Press ... one who has been in this struggle for many years; ... He has also had national radio interviews ...
p116
sg5
VHistory Features | History Musings
p117
sa(dp118
g3
VIn all of his twenty-\ufb01ve years on this earth , ... shortly after her engagement, she innocently gave the press ... tested Queen Mary,\u201d she told a friend many ...
p119
sg5
VThe Women of Windsor - Scribd
p120
sa(dp121
g3
VFor many, many years the media has ... A great many are dreading the moment the Queen closes her ... attending to their Mum's Hell on earth and I have ...
p122
sg5
VRWEK Discussion: RWEK Discussion: October 14 - 28, 2011
p123
sa(dp124
g3
V\u201c I have been an entrepreneur for many, years, ... Press Room; More. Support Center; Jobs; Designers; Education; Affiliates; Follow Us. Facebook; Twitter; Google+ ...
p125
sg5
VWeebly - Create a free website and a free blog
p126
sa(dp127
g3
VThe brown hare population has been falling for many years as a result of ... the earth and the sun, leaving a ... tabled an amendment to the Queen's speech in a bid ...
p128
sg5
VChannel 4 News - Latest UK & World News | Videos | Special Reports ...
p129
sa(dp130
g3
V... is the purpose of the Happy Birthday ... Have police found Lula Hood after she has been missing for 41 years and ... Your prayers may be granted if you ...
p131
sg5
VYahoo! Voices - voices.yahoo.com
p132
sa(dp133
g3
VCruz: Homeland Security has its mind made up on border security ... Associated Press - Top Boston cop to discuss bombings with Congress: Bloomberg ...
p134
sg5
VNews Archive - The Hill
p135
sa(dp136
g3
VTopic galleries provide easy access to stories and photos about people, places, organizations, events and subjects of interest to you. They bring together rich ...
p137
sg5
VTopic Galleries -- chicagotribune.com - Chicago Tribune: Chicago ...
p138
sa(dp139
g3
VThe deep emotional hurt he has caused to people has not been reported by the press, ... On Szylwian's 100th birthday, ... For many years, he has been a backbone ...
p140
sg5
VSt
p141
sa(dp142
g3
VA great idea for a memberable birthday for many years to come is to ... Proms don't need to cost the earth if you take a look at ... even this queen of the double ...
p143
sg5
VGD Party Supplies - Blog
p144
sa(dp145
g3
VHer final years were marred by ... who was scrutinized by the press; his $100 a week earnings compared ... it's mine. Like many bad interviews, this ...
p146
sg5
VLAST LOOKS With Myke The Makeupguy: BEAUTY ICON: BETTE DAVIS
p147
sa(dp148
g3
V... she has some beautiful moments in her ... Is playing a cunt on the internet as satisfying as wanking into your mum's ... in the press this was reported that she ...
p149
sg5
VSt. Angie Almost Died, Or Something | Dlisted
p150
sa(dp151
g3
VIt's pointless to me for her to do interviews if she's not ... of fame" has now been famous for 41 years. ... to the press? TMZ has it ...
p152
sg5
VGosselins Without Pity: Kate Responds - Interview with Meredith ...
p153
sa(dp154
g3
VThe Queen did invite Sarah over for tea for the Duchess 40th birthday a few years ... the Queen Mum's ... and giving press interviews in the early to ...
p155
sg5
VWhere was Sarah, Duchess of York, at the Royal Jubilee?
p156
sa(dp157
g3
V... beaten to death by his mum's ... charge involving her older sons, she spent four years trying to take control of her ... her 15th birthday, ...
p158
sg5
VProtected To DEATH By Child Protective Services Timeline, Legacy ...
p159
sa(dp160
g3
V... like Mary, who liked getting her hands in the earth ... I spent many years as a ... as they are mentioned in all my press releases, radio interviews ...
p161
sg5
VBlog | Book Events for Children | Information about literary ...
p162
sa(dp163
g3
V\u201c I have been an entrepreneur for many, years, ... Press Room; More. Support Center; Jobs; Designers; Education; Affiliates; Follow Us. Facebook; Twitter; Google+ ...
p164
sg5
VWeebly - Create a free website and a free blog
p165
sa(dp166
g3
V... and was knighted in 1997 by Her Majesty Queen Beatrix for ... She has worked many years in the trenches ... He has published two books with Cisco Press, ...
p167
sg5
VInterviews - Gitca > Home
p168
sa(dp169
g3
VDemetrie worked for the author's Mississippi family for 32 years, raising Kathryn and her ... Having celebrated his 100th birthday ... and Unaccustomed Earth, ...
p170
sg5
VSaturday Samplers
p171
sa(dp172
g3
VSeveral years later she won her first major Broadway role opposite comedian Ed ... as she was fondly called by the press and her fans, ... Happy 100th Birthday, ...
p173
sg5
VWelcome to Sitcomboy's Lucille Ball Archives
p174
sa(dp175
g3
VIt is also evident that with her mum\u2019s love and determination Hollie has begun to ... Why was Hamilton granted a Firearms ... years of her life she was serially ...
p176
sg5
VOctober | 2011 | Eyre International - Bringing You The News No One ...
p177
sa(dp178
g3
VJac fears for her mum\u2019s survival so ignores ... For the past six years, Esther has been living with her ... but a rite of passage many people may take for granted.
p179
sg5
VBBC - Press Office - Network TV Programme Information BBC Week 17 ...
p180
sa(dp181
g3
VThe patent was granted on November 20, ... The documentary includes interviews with ... the problem has been open for 90 years," Emory University mathematician Ken ...
p182
sg5
VDremcthomas Solutions Ltd | Facebook
p183
sa(dp184
g3
VFeaturing Music News, Reviews, Interviews, Movies, Gossip ... After years when her triumphs were in danger of being masked ... Mum's The Word: The Hot Press ...
p185
sg5
Vhotpress.com - Archives
p186
sa(dp187
g3
VShe was an estate agent for four years. Her favourite anecdote is when ... she has already appeared in press ... It was her 22nd birthday and she had been ...
p188
sg5
VAmanda Lamb - Information on A Place in the Sun's most gorgeous ...
p189
sa(dp190
g3
Vif you want to buy separate gifts for your nephew and his wife,then small diamond earrings for her (f she has ... Queen Victoria celebrated her ... many years, so I'd ...
p191
sg5
VGifts 4 Anniversary
p192
sa(dp193
g3
VCruz: Homeland Security has its mind made up on border security ... Associated Press - Top Boston cop to discuss bombings with Congress: Bloomberg ...
p194
sg5
VNews Archive - The Hill
p195
sa(dp196
g3
VFor many, many years the media has ... A great many are dreading the moment the Queen closes her ... attending to their Mum's Hell on earth and I have ...
p197
sg5
VRWEK Discussion: RWEK Discussion: October 14 - 28, 2011
p198
sa(dp199
g3
VThe Queen granted three ... Isobel executed this magnificent painting in her mum\u2019s attic!\u201d The Queen will see the ... For nearly 64 years, Cruise West has ...
p200
sg5
VCruise Diva: September 2010
p201
sa(dp202
g3
V... A with the American Indian press, ... What on earth do they know about cricket and curries?&rdquo; ... When Maria Hinton was born nearly 100 years ago, ...
p203
sg5
VNew America Media
p204
sa(dp205
g3
VMany years later when I was working ... I had many interviews ... Peter didn't like the gasoline tax so the session dragged on for 100 days. On the 100th day with ...
p206
sg5
VFlorida Lore - RootsWeb.com Home Page
p207
sa(dp208
g3
V... President Barack Obama in Second 100th Day Press ... one who has been in this struggle for many years; ... He has also had national radio interviews ...
p209
sg5
VHistory Features | History Musings
p210
sa(dp211
g3
VShe looks like MJ, also has her dad ... Bollywood Celebrates 100th Birthday. ... Omowunmi Akinnifessi rocks her natural hair; Sahara TV Interviews Naija ...
p212
sg5
VWelcome to Linda Ikeji's Blog: Purity Okojie's first Valentine
p213
sa(dp214
g3
VScott McClellan was George W Bush's White House Press Secretary for three crucial years during which he ... It's exactly 100 years ago today ... has been granted ...
p215
sg5
VBBC NEWS | Talk about Newsnight | A blog and forum.
p216
sa(dp217
g3
VEdmundo Ros celebrates his 100th Birthday (7 December ... 100 Years of Variety. ... anticipating the next morning's press by many hours.
p218
sg5
V'50s TV News - Turnipnet - Heritage Websites
p219
sa(dp220
g3
VPlans to celebrate Helena's 100th Birthday are underway ... who lived in Russia many years & has a beautiful ... This is Mum's 4th trip to Shweir & her 2nd ...
p221
sg5
VNew Zealand
p222
sa(dp223
g3
VLatest news from Queen Mary ... please email: press@qmul ... A rare collection of 48 natural history films spanning over 100 years of cinema will be shown at ...
p224
sg5
VNews Releases
p225
sa(dp226
g3
VA girl who lost her way and a Bourbon Street Queen ... Pew Research Center, with interviews in both ... perhaps he resents how for so many years, ...
p227
sg5
VNEWSBOY POST
p228
sa(dp229
g3
VHappy 100th Birthday Parks Canada ... which looks at the changes Parks Canada has gone through in the last 100 years. ... the Queen attends many public events, ...
p230
sg5
VCanada's History - Articles
p231
sa(dp232
g3
VIn the 100 years or so since recorded music has ... The 'mum's manual' also spells out what she ... replete with a red-carpet premiere and interviews with her ...
p233
sg5
VLegacy Matters: How to - Personal Legacy Archives Archives
p234
sa(dp235
g3
VHas she donated her time and made ... both times the press she\u2019d attracted ... Piper outed her. Two years ago Sarah claimed the new ...
p236
sg5
VSarah Palin | Oz Mudflats
p237
sa(dp238
g3
VFull text of "Victoria : sixty years a Queen. A sketch of her life and times"
p239
sg5
VFull text of "Victoria : sixty years a Queen. A sketch of her life ...
p240
sa(dp241
g3
V... did to protect her but mum's the word ... breakfast has five themed rooms, with twin and queen ... that she went astray through her adolescent years and ...
p242
sg5
VCan Those Children Be Saved? Not By Child Protective Services ...
p243
sa(dp244
g3
VCNN has moved up a notch. Great interviews ... her 100th birthday in a few days and is still as sharp as she was when I was her student 50 years ago. (She ...
p245
sg5
VThis is "Piers Morgan Tonight" \u2013 Piers Morgan - CNN.com Blogs
p246
sa(dp247
g3
V... the chemicals injected into the earth \u2014 many of which are toxic ... has been in place for many years ... day before her birthday \u2014 Ojai\u2019s Amber ...
p248
sg5
VOjai Valley News Blog
p249
sa(dp250
g3
V\u201cMany Earth Day celebrations ... Local shuttle operator Adrianus \u201cDutch\u201d Vanhemert has been granted a 40-day ... That was over 30 years ago, and her answer ...
p251
sg5
VOjai Valley News Blog
p252
sa(dp253
g3
VHer final years were marred by ... who was scrutinized by the press; his $100 a week earnings compared ... it's mine. Like many bad interviews, this ...
p254
sg5
VLAST LOOKS With Myke The Makeupguy: BEAUTY ICON: BETTE DAVIS
p255
sa(dp256
g3
VNew Years Honour List. Queen's Birthday Honour ... She has been told his death may have ... seated alongside her, to press for the highest civilian ...
p257
sg5
VOrders, Decorations and Medals - Medals by Country - Medals of Britain
p258
sa(dp259
g3
V... a Women's Day - to press for ... For many years the United Nations has held an annual IWD ... 2011 as they gather to mark the 100th International Women ...
p260
sg5
VMore Truths About Women - New Home Page
p261
sa(dp262
g3
V... mark the institution\u2019s 100th birthday\u2014a project that brought ... a sofabed at Mum\u2019s, ... Association event\u2014the Queen\u2019s Birthday ...
p263
sg5
Vseoul101
p264
sa(dp265
g3
V... some of which have been out of print for many years, ... Happy 100th Birthday, Dr. Kerlan ... Essays, Interviews & Commentaries," and he coedited "The Jazz ...
p266
sg5
VNews from the Libraries - UThink: Blogs at the University of Minnesota
p267
sa(dp268
g3
V... Hiram Walker was a failure for many years and ... This association was the first and oldest group in Canada to be granted a ... What on earth do those ...
p269
sg5
Vwindsor then windsor now | Ladies Euchre Club, Walkerville, Ont ...
p270
sa(dp271
g3
VAt the press conference he is seated next to his Capcom ... she has taken to using her Ipad ... for fifty short years, men and women from earth rose on a thundering, ...
p272
sg5
Vjamesnixon.com home
p273
sa(dp274
g3
VWASHINGTON \u2014 Two years after Mark Sanford left the South Carolina governor\u2019s office tarred by an adultery scandal, he has ... U.S. senators press Homeland ...
p275
sg5
VNational politics - chicagotribune.com - Chicago Tribune: Chicago ...
p276
sa(dp277
g3
VIt's pointless to me for her to do interviews if she's not ... of fame" has now been famous for 41 years. ... to the press? TMZ has it ...
p278
sg5
VGosselins Without Pity: Kate Responds - Interview with Meredith ...
p279
sa(dp280
g3
VShe interviews other stars from ... to the press on the game at this years E3 ... Roger Moore has become Sir Roger on Queen Elizabeth II`s birthday honors ...
p281
sg5
VJames Bond 007 :: MI6 - The Home Of James Bond
p282
sa(dp283
g3
VBefore long Mellie finds that she has not left her ... about how the earth looked millions of years ... her birthday during her family ...
p284
sg5
VBookworm for Kids: Ages 8-12
p285
sa(dp286
g3
VSTOP PRESS: USAF clears air over AFTWS flap SAN DIEGO - The USAF recently circulated erroneous information about the commercial social networking Web site airforce ...
p287
sg5
Vnavy.togetherweserved.com
p288
sa(dp289
g3
VArtist and writer Katherine Tyrrell writes about art for artists & art lovers. Read about artists, exhibitions, art competitions, art news & much more
p290
sg5
VMAKING A MARK: April 2010
p291
sa(dp292
g3
VNew Life Tuesday, April 2nd, 2013 | daily | 1 Comment. Future writings @ darlenebarnes.com . It\u2019s been two months since I quit my job cooking for Alpha Sigma Phi ...
p293
sg5
VArchive daily | Hungry
p294
sa(dp295
g3
VOn this Sunday's 60 Minutes, St. Angie Jo talks about how long before she was a world-saving whisper of a waif whose zero calorie queefs are saved in vials and ...
p296
sg5
VSt. Angie Almost Died, Or Something | Dlisted
p297
sa(dp298
g3
VIMDb's advanced search allows you to run extremely powerful queries over all people and titles in the database. Find exactly what you're looking for!
p299
sg5
VIMDb: Most Popular People With Biographies Matching "The Crow"
p300
sa(dp301
g3
V"National Treasure: Book of Secrets" went back before the cameras this past Sunday to add scenes to already-filmed sequences in South Dakota. Beverly Hills' Coldwater ...
p302
sg5
VOctober - Variety | Entertainment news, film reviews, awards, film ...
p303
sa.