(lp1
(dp2
S'description'
p3
VThe debates are sponsored by the Commission on Presidential Debates and they will be ... tax cuts the first year, ... approach of Governor Bush? GORE: ...
p4
sS'title'
p5
VCPD: October 3, 2000 Transcript - Commission on Presidential Debates
p6
sa(dp7
g3
VThe Democratic and Republican candidates met in Boston for the first of three presidential debates ... Sligo12191 1 day ... 9:01 2000 Presidential Debate ...
p8
sg5
VBush Vs. Gore 2000 Presidential Debate 10/3/00 - YouTube
p9
sa(dp10
g3
VA problem the NewsHour's Paul Solman reported on the day of the first debate. PAUL ... Over the course of the three 2000 debates, ... days after that first Bush-Gore ...
p11
sg5
VThe 2000 Presidential and Vice Presidential Debates | Debating Our ...
p12
sa(dp13
g3
VFirst Presidential Debate - October 3, 2000 Second Presidential Debate - October 11, 2000 . ... Transcripts: Commision on Presidential Debates.
p14
sg5
VThe 2000 Bush/Gore Debates | Debating Our Destiny | PBS
p15
sa(dp16
g3
V... ranging from 46 million for the first 2000 debate to a high of over 67 ... A single vice-presidential debate was also held that year between Democratic Senator ...
p17
sg5
VUnited States presidential election debates - Wikipedia, the free ...
p18
sa(dp19
g3
VThere were three presidential debates: October 3, 2000, ... circuit screening of the first debate in spite of ... year 2000 election night problems stemmed ...
p20
sg5
VUnited States presidential election, 2000 - Wikipedia, the free ...
p21
sa(dp22
g3
VBush/Gore Second Presidential Debate October 11 LEHRER: Governor Bush, the first question goes to you. ... And we just have to take it day to day right now.
p23
sg5
VBush/Gore Second Presidential Debate October 11
p24
sa(dp25
g3
VFirst Bush-Gore debate Oct. 3, 2000, at the University of Massachusetts, Boston . ... Other debates in presidential race 2000: Presidential debate, ...
p26
sg5
VFirst Bush-Gore debate - Presidential debate, Boston Mass.
p27
sa(dp28
g3
VBush, Gore campaigns agree to three-debate ... plan for next month's presidential debates that will include a ... debate for the first time when they ...
p29
sg5
VBush, Gore campaigns agree to three-debate schedule
p30
sa(dp31
g3
VCold Opening: Gore / Bush First Debate. ... Air Date: 3/9/2013; March 2 - Kevin Hart Air Date: ... Debates; Deep Thoughts; Eddie Murphy;
p32
sg5
VSaturday Night Live - Cold Opening: Gore / Bush First Debate ...
p33
sa(dp34
g3
VWho Won the First Presidential Debate? Aired October 4, 2000 ... I think he said something the opposite just a day or two before ... When he first was elected ...
p35
sg5
VCNN Transcript - Crossfire: Who Won the First Presidential Debate ...
p36
sa(dp37
g3
VThe first in a series of highly anticipated debates ... Sign up for our "Free Resource of the Day Email ... People Who Liked 2000 First Presidential Debate ...
p38
sg5
V2000 First Presidential Debate: Gore v. Bush by George W. Bush on ...
p39
sa(dp40
g3
V2000 Presidential Debate between ... when al gore was vise president he didnt give us every year an extra $ ... 10:01 First Debate Clinton-Lazio, 2000 ...
p41
sg5
V2000 Presidential Debate Part 1 - YouTube
p42
sa(dp43
g3
V2012 Application of Criteria - Second Presidential Debate: Oct 12, ... corporation, sponsored all of the presidential debates in 1988, 1992, 1996, 2000, 2004, 2008, ...
p44
sg5
VCommission on Presidential Debates
p45
sa(dp46
g3
VPresidential Candidates Debate Oct 3, 2000. 1. ... The Democratic and Republican candidates met in Boston for the first of three presidential debates sponsored by the ...
p47
sg5
VPresidential Candidates Debate - C-SPAN Video Library
p48
sa(dp49
g3
VThe first presidential debate between Al Gore and George Bush, monitered by Jim Lehrer. . ...
p50
sg5
VWatch Saturday Night Live: Gore / Bush First Debate online | Free ...
p51
sa(dp52
g3
VBush, Gore campaigns extend debate ... how to organize the three planned presidential debates between Texas Gov ... billion a year; First ...
p53
sg5
VBush, Gore campaigns extend debate talks; no deal on format ...
p54
sa(dp55
g3
VThe first televised presidential debate ever proved that ... Vice-presidential debates can ... debate with George W. Bush in 2000, a month before election day.
p56
sg5
V11 memorable debate moments: A video history - The Week
p57
sa(dp58
g3
VCBS News video: The entire first 2012 presidential debate - In full: The first 2012 presidential debate between President Obama and Mitt Romney from the ...
p59
sg5
VThe entire first 2012 presidential debate - CBS News Video
p60
sa(dp61
g3
V... formats for three upcoming presidential debates. The first presidential ... 2000. Bush, Gore reach agreement on debate ... tout one-year plan ...
p62
sg5
VCNN.com - Bush, Gore reach agreement on debate formats - September ...
p63
sa(dp64
g3
V\u2014 Al Gore battled back to a tie with George W. Bush in the third presidential debate \u2014 a ... for Bush \u2014 Gore\u2019s ... first debate favored ...
p65
sg5
VPoll: Gore, Bush Tie in Final Debate - ABC News
p66
sa(dp67
g3
VFirst Presidential Debate Jim Lehrer ... the first of three debates between Texas Governor George W. Bush and ... They run to nearly $113 million a day!
p68
sg5
VSNL Transcripts: Rob Lowe: 10/07/00: First Presidential Debate
p69
sa(dp70
g3
VMost remember modern presidential debates ... Check out some of the hilarious highlights from each election year ... 2000. The first 2000 presidential debate was ...
p71
sg5
VBest of SNL Presidential Debate Parodies Through the Years ...
p72
sa(dp73
g3
V... as well as the only Vice-Presidential Debate of the 2000 ... everyone else seems to be treating this first Bush/Gore Debate ... with two Presidential debates ...
p74
sg5
VVox Populi - The Green Papers: United States Off-Year Election 2013
p75
sa(dp76
g3
VComplete humorous coverage the 2000 presidential debates ... Listen to the classic SNL parody from the 2000 election of the first Bush-Gore presidential debate.
p77
sg5
VPresidential Debates Humor - Gore-Bush Debate Jokes
p78
sa(dp79
g3
V... the first "presidential debate." ... This year's debates will be remembered for the power an all but invisible ... (The Bush-Gore debate will draw fewer.)
p80
sg5
VAnd the winner is . . .Presidential Debates as a media horse race
p81
sa(dp82
g3
VNader and Buchanan excluded from first presidential debate. ... The Commission on Presidential Debates, ... Gore and Bush. "Gore and Bush couldn't say no ...
p83
sg5
VNader and Buchanan excluded from first presidential debate
p84
sa(dp85
g3
VWith the first presidential debate days away, ... up to challenge Bush in this 2000 debate, ... Beast on Facebook and follow us on Twitter for updates all day long.
p86
sg5
VPresidential Debate Wins & Fails: Reagan, Gore, Bush & More (VIDEO ...
p87
sa(dp88
g3
VBBC News Updated every minute of every day. ... BUSH-GORE DEBATE OCTOBER 2000 ... Al Gore took a dismissive stance during the first of his three presidential debates ...
p89
sg5
VBBC NEWS | Americas | Past presidential debates in history
p90
sa(dp91
g3
VBush, Gore spin debate their way as ... -- On the morning after their first presidential debate, ... As the 2000 presidential election ...
p92
sg5
VCNN.com - Bush, Gore spin debate their way as campaigning resumes ...
p93
sa(dp94
g3
V... First McCain-Obama debate . ... 2000 Bush-Gore Second Presidential debate MODERATOR: ... I just found out the other day an interesting fact, ...
p95
sg5
VHistory Of Climate Change In Presidential Debates | Climate Silence
p96
sa(dp97
g3
VMemorable moments from presidential debates, ... to be a forum to discuss the issues of the day\u2014matters of ... first presidential debate of the 2000 ...
p98
sg5
VMemorable moments from presidential debates
p99
sa(dp100
g3
VAnd I welcome you to the first of the 2004 presidential debates between President George W ... And since that day, ... when we had the debate in 2000, ...
p101
sg5
VTranscript: First Presidential Debate - Washington Post: Breaking ...
p102
sa(dp103
g3
VThe first presidential debate was a happy accident. ... The debates of 1858 illuminated the 1860 ... The Daily Show mocks Al Gore's performance in the 2000 debate.
p104
sg5
VPresidential Debate Mistakes - Debate Blunders - The Biggest ...
p105
sa(dp106
g3
V... highlighted in the aftermath of the first presidential debate. ... tracking polls every day until the ... precede second Bush-Gore debate;
p107
sg5
VTracking poll: Bush maintains lead over Gore - October 9, 2000
p108
sa(dp109
g3
V(Though the famous first sentence, " a day ... Televised Presidential Debates. The First Bush-Gore Debates This brings us to the first Bush-Gore debate of 2000.
p110
sg5
VPresidential Debates Mirror Long-term School Decline
p111
sa(dp112
g3
V... past year or so, first ... the 2000 debates. In the Oct. 17, 2000, debate between Democrat Al Gore and Republican George W. Bush, Gore talked ...
p113
sg5
VFACT CHECK: Missteps in final presidential debate - Yahoo! News
p114
sa(dp115
g3
VThe Real Winners & Losers of Election 2000; Bush/Gore Presidential Debate Transcript Parody; Political Joke Archives - Bush/Gore Presidential Debate Parody; Martin Kelly
p116
sg5
VPresidential Election - 2000 - Bush vs Gore
p117
sa(dp118
g3
V... past year or so, first the ... in the 2000 debates. In the Oct. 17, 2000, debate between Democrat Al Gore and Republican George W. Bush, Gore talked about his ...
p119
sg5
VLast presidential debate fact check | ksdk.com
p120
sa(dp121
g3
VProtesters gear up for first presidential debate, ... Globe Staff, 9/15/2000 Debate news brightens day on ... Globe Correspondent, 9/15/2000 Bush, Gore debates ...
p122
sg5
VBoston.com / Politics / Campaign 2000 / Debates
p123
sa(dp124
g3
V... first presidential debate will be ... debates, Kerry gained several percentage points in polls. In response, George Stephanopoulos said that in 2000, ...
p125
sg5
VFrom Gaffes to GIFs: The Great Shift in Presidential Debate ...
p126
sa(dp127
g3
VTonight marks the first real presidential debate in ... of perpetual debating for the last year or ... comedy were the Bush/Gore debate.
p128
sg5
V'SNL' Debates: Every Showdown From Carter To Romney (VIDEO)
p129
sa(dp130
g3
VThe entire transcript from the third presidential debate. ... brought to you by the Commission on Presidential Debates. ... The first question, ...
p131
sg5
VThird Presidential Debate: Full Transcript - ABC News
p132
sa(dp133
g3
V... the debates of 1960 and 2000 seem to have ... Perhaps the most fabled televised presidential debate was the very first ... less than a week before Election Day.
p134
sg5
VPresidential Debates Rarely Game-Changers
p135
sa(dp136
g3
VBush/Gore Presidential Debate Transcript. ... Governors are on the front lines every day, ... the first thing I would do about that guy is have Dick Cheney confer ...
p137
sg5
VPolitical Joke Archives - Bush/Gore Presidential Debate Parody
p138
sa(dp139
g3
VFirst off, Newsom had a ... Payack and his researchers ran more than 30 years of presidential debates through a computer program based ... Researchers Score Bush ...
p140
sg5
VResearchers Score Bush, Gore Debate at 7th-Grade Level - SFGate
p141
sa(dp142
g3
VThe first televised presidential debate was the Kennedy-Nixon ... the last year that the League of Women ... Commission on Presidential Debates : 2/3.0 hours: 2000 :
p143
sg5
VWhy (and How) Do Presidential Candidates Debate?
p144
sa(dp145
g3
VAll four debates were held during a nine-day ... struck any major blows in the first of three planned presidential debates. ... first debate, none of the ...
p146
sg5
V1992 Presidential Debates - CNN.com - Breaking News, U.S., World ...
p147
sa(dp148
g3
VYear-by-year. 1960; 1976; 1980; ... most debate experts agree presidential debates reaffirm people's ... according to debate expert Lee Mitchell, the first debates ...
p149
sg5
VPresidential Debate History - CNN.com - Breaking News, U.S., World ...
p150
sa(dp151
g3
VFact Vs. Fiction: 3rd Presidential Debate. ... over the past year or so, first the ... in the 2000 debates. In the Oct. 17, 2000, debate between ...
p152
sg5
VFact Vs. Fiction: 3rd Presidential Debate | Breaking News for ...
p153
sa(dp154
g3
VFact Vs. Fiction: 3rd Presidential Debate. ... over the past year or so, first the ... in the 2000 debates. In the Oct. 17, 2000, debate between ...
p155
sg5
VFact Vs. Fiction: 3rd Presidential Debate | Breaking News for ...
p156
sa(dp157
g3
V... Missteps in final presidential debate. ... the past year or so, first the ... in the 2000 debates. In the Oct. 17, 2000, debate between ...
p158
sg5
VFACT CHECK: Missteps in final presidential debate - CBS News
p159
sa(dp160
g3
V... Biden and Republican vice presidential nominee Paul Ryan in their first and only ... in their vice presidential debate. ... it 40 -- $6,400 a year; ...
p161
sg5
VTruth Squad: The vice presidential debate - First Read
p162
sa(dp163
g3
VBush appears to make encouraging first ... of the presidential race over two- to three-day ... over debate; Tracking poll: Bush, Gore neck-and ...
p164
sg5
VTracking poll: Bush, Gore neck-and-neck out of the gate ...
p165
sa(dp166
g3
V... Washington University hosted 1992's first ... 2000 Presidential Debate, held Oct. 17. In 2000, ... Debates, the vice presidential debate \u2014 as well ...
p167
sg5
VHistory of debates at Washington University in St. Louis ...
p168
sa(dp169
g3
V... past year or so, first the ... in the 2000 debates. In the Oct. 17, 2000, debate between Democrat Al Gore and Republican George W. Bush, Gore talked about his ...
p170
sg5
VFACT CHECK: Missteps in final presidential debate | 9news.com
p171
sa(dp172
g3
V... some in the press dubbed the debates as the \u201cAnheuser-Bush-Gore\u201d debates. ... In the year 2000, ... solar energy first; Open up the Presidential debates
p173
sg5
VPresidential Debates -- Ralph Nader for President in 2008
p174
sa(dp175
g3
VNone of the vice presidential debates occurring from 1976 ... 1996, 2000, 2008 V.P. debates is one ... the first presidential debate of this year's campaign ...
p176
sg5
VVice Presidential Debates Rarely Influence Voters
p177
sa(dp178
g3
VBush Gore Debate. Over the past few ... Bush was able to come up with sound bites at the first debate, ... 2000 at the Presidential debate in Boston, MA .... (790 3 )
p179
sg5
VBush Gore Debate Essay - Example Essays.com - Over 80,000 essays ...
p180
sa(dp181
g3
VPresidential debates can be ... Kennedy and Nixon were nearly tied in the polls going into their first debate, ... In the 2000 debates Gore came in with an 8 ...
p182
sg5
VPresidential Debates Rarely Have Much Effect on Election Outcomes ...
p183
sa(dp184
g3
VThe Commission on Presidential Debates has ... College\u2019s first experience as a general election debate ... the 2000 Vice Presidential Debate and ...
p185
sg5
VCentre College Debate 2012
p186
sa(dp187
g3
VIn his closing statement in the first presidential debate, ... the first day of the ... for Bush; Gore even did his debate preparation ...
p188
sg5
V2000 Presidential Election Overview
p189
sa(dp190
g3
VPRESIDENTIAL DEBATES. ... poorly made up Richard M. "Bush, Gore ... 1297 words "The Money Trail" Without money most of the candidates running for the 2000 ...
p191
sg5
VPresidential debates - \u0421ustom Literature essay
p192
sa(dp193
g3
VInstant Polls after Oct 3 Bush-Gore Debate: Sample size: ... first taken on Oct 4, 2000. 2. ... Subject: Your vote - Who Won the October 3, 2000 Presidential Debate?
p194
sg5
VCase study on the effect of sampling method: Presidential Debate ...
p195
sa(dp196
g3
VUS presidential debates 2012 - schedule, date, ... The viewership for the first debate of 2000 declined to 46 million out of 280 million, ...
p197
sg5
VPresidential Debates Schedule - Date, Moderators,Topics
p198
sa(dp199
g3
V... past year or so, first the ... in the 2000 debates. In the Oct. 17, 2000, debate between Democrat Al Gore and Republican George W. Bush, Gore talked about his ...
p200
sg5
VFact-Checking the Presidential Debate - DailyFinance
p201
sa(dp202
g3
VKennedy and Nixon squared off in the first televised presidential debate 50 years ... a historian of presidential debates. ... in 2000 contributed to his ...
p203
sg5
VDebating on Television: Then and Now | History & Archaeology ...
p204
sa(dp205
g3
V... past year or so, first the ... in the 2000 debates. In the Oct. 17, 2000, debate between Democrat Al Gore and Republican George W. Bush, Gore talked about his ...
p206
sg5
VFACT CHECK: Missteps in final presidential debate - The Denver Post
p207
sa(dp208
g3
VQuotes regarding Election of 2000: Year of the ... GOP primary debate - ... Life comes Too Close to Call--the definitive story of the Bush-Gore presidential ...
p209
sg5
VElection of 2000: Year of the Hanging Chad
p210
sa(dp211
g3
VHow many people watch presidential debates on television? ... In 2000 and 2004, the debates ran on ABC, CBS, NBC, ... First Televised Presidential Debate;
p212
sg5
VHistorical TV Ratings : TV Ratings For Presidential Debates
p213
sa(dp214
g3
VJoin Date Jul 2009 Last ... I wonder if this is going to be like the 2000 Bush/Gore debates? ... was Gore tried to over compensate for the first debate and came off ...
p215
sg5
VChris Matthews Freaks Out At Obama After Debate: Romney Was "Winning"
p216
sa(dp217
g3
V... only 3 Presidential debates left. ... Nixon-Kennedy in 1960 and Bush-Gore in 2000. ... That may have been the case in the first presidential debate, ...
p218
sg5
VThe Presidential Debate - Page 2 - RiderFans.com - A Roughrider ...
p219
sa(dp220
g3
VWatch Jodi Arias in First Interview Since Verdict: ... 1 day 8 min ago Bill O'Reilly: ... And check out this Fox News Fact Check of the final presidential debate!
p221
sg5
VVOTE: Who Won the Third Presidential Debate? | Fox News Insider
p222
sa(dp223
g3
V... and welcome to the first and only vice presidential debate of 2012, sponsored by the Commission on Presidential Debates. ... a child by $2,000 a year.
p224
sg5
VTranscript: Vice Presidential Debate \u2013 CNN Political Ticker ...
p225
sa(dp226
g3
VMost people remember that modern presidential debates ... the first presidential debate of ... 2000. The first 2000 presidential debate was perhaps ...
p227
sg5
VBest of SNL Presidential Debate Parodies Through the Years - Yahoo ...
p228
sa(dp229
g3
VHere's the back and forth from the debate tonight: OBAMA: The day ... on Presidential debates telling the ... the first presidential debate.
p230
sg5
VSecond US presidential debate: Obama versus Romney | World news ...
p231
sa(dp232
g3
VSo after the most recent presidential debate raised women\u2019s issues ... Countdown to Election Day: 19 days. Click here to sign up for First Read emails.
p233
sg5
VFirst Thoughts: Wooing women - First Read
p234
sa(dp235
g3
V... past year or so, first ... the 2000 debates. In the Oct. 17, 2000, debate between Democrat Al Gore and Republican George W. Bush, Gore talked ...
p236
sg5
VFinal Presidential Debate Fact-Check: Romney, Obama Made Their ...
p237
sa(dp238
g3
VThe debates are sponsored by the Commission on Presidential Debates and they will be ... tax cuts the first year, ... Debate in Boston," October 3, 2000.
p239
sg5
VPresidential Candidates Debates: Presidential Debate in Boston
p240
sa(dp241
g3
VThat's virtually the same pattern that occurred after the first debate, ... the basic story since Labor Day is that neither ... Bush Gore Yes 64% 55 ...
p242
sg5
VTracking poll: Presidential race tightening again - October 23, 2000
p243
sa(dp244
g3
V... past year or so, first the ... in the 2000 debates. In the Oct. 17, 2000, debate between Democrat Al Gore and Republican George W. Bush, Gore talked about his ...
p245
sg5
VFact Check: Missteps in final presidential debate | The National ...
p246
sa(dp247
g3
VUPDATED 12:00 a.m. ET - President Barack Obama took the stage at Tuesday\u2019s presidential debate determined ... his first year as president ... , debates , commentid ...
p248
sg5
VSharp exchanges between Obama, Romney at second debate - NBC Politics
p249
sa(dp250
g3
VThe surplus for the first nine months of this year ... 2000 debates. In the Oct. 17, 2000, debate between Democrat Al Gore and Republican George W. Bush, Gore ...
p251
sg5
VFACT CHECK: Flunking geography, history - The Big Story
p252
sa(dp253
g3
VGet the Morning Fix and the new Afternoon Fix delivered to your inbox or mobile device for easy access to the top political stories of the day.
p254
sg5
VThe Fix - The Final Presidential Debate: First Thoughts and Who Won?
p255
sa(dp256
g3
V... meet next week in their first televised presidential debate. ... back at the first-ever televised campaign debates. ... until election day ...
p257
sg5
VVideo: A look back at the Kennedy-Nixon debates - September 25, 2000
p258
sa(dp259
g3
V... as he sat up in his chair to answer the first ... marveled throughout the day leading up to the vice presidential ... Bush, Gore spin debate ...
p260
sg5
VEven-keeled Cheney-Lieberman debate takes global view - October 6 ...
p261
sa(dp262
g3
VThis was the first election where the winner ... Jackson\u2019s 4-year campaign ... 2000 (Bush - Gore) The 2000 Presidential Election was the most recent ...
p263
sg5
VThe Electoral College - Controversial Elections - FairVote - Home.
p264
sa(dp265
g3
VDanville went through it all before in 2000, when Centre College hosted its first vice ... first presidential debate ... Presidential Debates has begun to ...
p266
sg5
VDanville gussying up for vice-presidential debate at Centre ...
p267
sa(dp268
g3
VBush-Gore Redux? An Electoral-Popular ... Romney entered the first debate with an edge arguably in only one ... but the chances of a split like the one in 2000 are ...
p269
sg5
VBush-Gore Redux? An Electoral-Popular Vote Split Is a Real ...
p270
sa(dp271
g3
V... and welcome to the first and only vice presidential debate of 2012, sponsored by the Commission on Presidential Debates. ... a child by $2,000 a year.
p272
sg5
VTranscript And Audio: Vice Presidential Debate : NPR
p273
sa(dp274
g3
VWatching Obama was like a replay of the Bush/Gore debates. ... Wasn't that 2 billion a day? ... President Obama listens during the first presidential debate, ...
p275
sg5
VPOLL: Who Won the Presidential Debate? - Novi, MI Patch
p276
sa(dp277
g3
V... Presidential Debate Preview Debates are a key part ... Inaugural poet Richard Blanco on being the first Hispanic and ... Debate Night: Bush/Gore, 2000 ...
p278
sg5
VPresidential Debates \u2014 Blogs, Pictures, and more on WordPress
p279
sa(dp280
g3
VThe 2000 presidential debates had a ... Convention but emerged after the first debate (Lester, 2000). ... Year Before the 2008 Presidential ...
p281
sg5
VTelevised Presidential Debates and Its Influence on Voters - Yahoo ...
p282
sa(dp283
g3
VWas the president wired during the first debate? ... Bad day to be a porn lawyer ... An official for the Commission on Presidential Debates, ...
p284
sg5
VBush\u2019s mystery bulge - Salon.com
p285
sa(dp286
g3
VYEAR 2000 ELECTION. ... White and Blue conducted a "rolling cyber-debate" from 2000-OCT-1 to NOV ... "I am committed to the First Amendment principles of religious ...
p287
sg5
VYEAR 2000 ELECTION - Presidential candidates' beliefs about ...
p288
sa(dp289
g3
VA number of Salon readers complained that I ought to have posted prompt assessments of the presidential debates; ... the first debate ... Day, so of course ...
p290
sg5
VRage in the Middle East - Salon.com
p291
sa(dp292
g3
VMitt Romney and President Barack Obama mix it up during Monday night's presidential debate ... year or so, first ... 2000 debates. In the Oct. 17, 2000, debate ...
p293
sg5
VPresidential debate fact check: Romney botches geography, Obama ...
p294
sa(dp295
g3
VPresidential debate ... The surplus for the first nine months of this year was $ ... in the 2000 debates. In the Oct. 17, 2000, debate between Democrat Al ...
p296
sg5
VPresidential debate fact check: Mitt Romney flubs Middle East ...
p297
sa(dp298
g3
V... than Barack Obama in the first presidential debate of the ... their bodies." #vpdebate #debates ... for it every year, this is the first ...
p299
sg5
VVice Presidential Debate 2012: Live Updates On Joe Biden-Paul Ryan ...
p300
sa(dp301
g3
V... talked about her nerves during the first presidential debate, ... to demonstrate how she feels during debates. ... hosting her first \u201cdoggie play date ...
p302
sg5
VMichelle Obama Nerves During First Presidential Debate - iVillage
p303
sa.