(lp1
(dp2
S'description'
p3
VThe United Nations Security Council ... There are also 10 non-permanent ... The Presidency rotates monthly in alphabetical order of the Security Council member ...
p4
sS'title'
p5
VUnited Nations Security Council - Wikipedia, the free encyclopedia
p6
sa(dp7
g3
Velects the non-permanent members ... The decisions of the Council are known as United Nations Security Council ... the compliance of U.N. member states to the ...
p8
sg5
VUnited Nations - Wikipedia, the free encyclopedia
p9
sa(dp10
g3
VGlobal association of governments facilitating cooperation in international law, security, economic development, and social equity.
p11
sg5
VWelcome to the United Nations: It's Your World
p12
sa(dp13
g3
VUNITED NATIONS\u2014The U.N. Security Council ... a veto-wielding council member. ... "Morocco's virulent efforts to block such a mandate only serve to ...
p14
sg5
VUN extends peacekeeping force in Western Sahara - DailyBulletin.com
p15
sa(dp16
g3
VUnited Nations News Centre ... UN Security Council briefed in open session Friday by heads of ... we can not only meet the crisis needs of those we serve, ...
p17
sg5
VUnited Nations News Centre
p18
sa(dp19
g3
VAlmost every United Nations member country ... The ten non-permanent members serve two year terms ... Since the United Nations Security Council must be able to ...
p20
sg5
VUnited Nations Security Council - Overview of the United Nations ...
p21
sa(dp22
g3
VGermany has been elected to the Security Council as a non-permanent member ... long been shaped by its role in U.N ... to serve on the Security Council.
p23
sg5
VReform of the United Nations Security Council - Wikipedia, the ...
p24
sa(dp25
g3
VThe only permanent members of the United Nations Security Council ... member blocks execution of a Security Council ... a U.N. Ambassador? United Nations ...
p26
sg5
VAbout the Permanent Members in the United Nations | eHow.com
p27
sa(dp28
g3
VUnited Nations Security Council; Global Issues; ... and subsequently elected with an overwhelming majority to serve as a non-permanent member of the UN Security ...
p29
sg5
VPermanent Mission of South Africa to the United Nations
p30
sa(dp31
g3
V... of the 10 non-permanent seats on the U.N. Security ... Council is the body within the United Nations ... member states, of which five serve on ...
p32
sg5
VThe insider's guide to the Security Council - CNN.com
p33
sa(dp34
g3
V... each member of the United Nations has a seat and vote ... 10 non-permanent members of the Security Council, ... Elected to U.N. Security Council ;
p35
sg5
VThe United Nations: The Basics - Yahoo! Voices - voices.yahoo.com
p36
sa(dp37
g3
V... of serving as a non-permanent member of the U.N. Security ... to serve on the Security Council changed during ... in the United Nations Security Council ...
p38
sg5
VHow Much Is a Seat on the Security Council Worth? Foreign Aid and ...
p39
sa(dp40
g3
VThe United Nations Security Council ... [U.N.] Members confer on the Security Council primary ... by the member nations and form coalitions that serve the ...
p41
sg5
VHowStuffWorks "How the United Nations Works"
p42
sa(dp43
g3
V... a founding member of the United Nations (U.N ... not long after our non-permanent membership ... a desire to serve in the U.N. Security Council for a second ...
p44
sg5
VCandidacy of the Republic of Turkey to the United Nations Security ...
p45
sa(dp46
g3
VThe non-permanent seats have ... On the few occasions that the council has met at a location other than the United Nations, Security Council member ... U.N. Security ...
p47
sg5
VUnited Nations Security Council Facts, information, pictures ...
p48
sa(dp49
g3
VDo you think that Israel should not be a member of the United Nations ... It has long been a ... next five non-permanent members of the Security Council ...
p50
sg5
VIs Israel a Member of the United Nations? - Yahoo! Answers
p51
sa(dp52
g3
VThere are 193 member countries of the United Nations which includes all the internationally recognized ... elects the non-permanent members of ... UN Security Council
p53
sg5
VUnited Nations - Simple English Wikipedia, the free encyclopedia
p54
sa(dp55
g3
VI in turn step through the long, ... U.N. Security Council Resolution 242 ... The U.N. Exposed: How the United Nations Sabotages America's Security and Fails the ...
p56
sg5
VUnited Nations, The U.N. - The Peace FAQ
p57
sa(dp58
g3
VUnited Nations Security Council. ... two permanent Security Council member stateshe United States and the ... Some of the non-permanent members of the council, ...
p59
sg5
VUnited Nations Security Council Study Guide & Homework Help ...
p60
sa(dp61
g3
V... United Nations Association of ... to occupy a non-permanent seat on the Security Council at ... a permanent member, but it does not support the ...
p62
sg5
VOgawa | The UN: What It Can and Can't Do, And How the United ...
p63
sa(dp64
g3
VThe Security Council has 15 member states\u2014five permanent members and 10 non-permanent member ... can also gain United Nations recognition as long as existing ...
p65
sg5
VUnited Nations - Pictures, News and Articles - HighBeam Research
p66
sa(dp67
g3
V... and in the U.N. United Nations Security Council ... non-permanent members serve two year ... United Nations Security Council member ...
p68
sg5
VMembers of the United Nation | ANDHIKA'S BLOG
p69
sa(dp70
g3
Vfor states within the United Nations Security Council? ... representation in the U.N. Security Council ... it does appear that any non-permanent member of the ...
p71
sg5
VU.N. SECURITY COUNCIL NONPERMANENT MEMBERSHIP: EQUITABLE ...
p72
sa(dp73
g3
VAre you talking about the seating arrangement in the Security Council? ... The number of non-permanent members was ... U.N. stands for United ...
p74
sg5
VWhat is the seating arrangement on the floor of the United Nations ...
p75
sa(dp76
g3
VUnlike the five permanent Security Council members -- the United States, China, ... a non-permanent member has no veto. ... It will be a long process, ...
p77
sg5
VDream of Influence: Germany Renews Campaign for UN Security ...
p78
sa(dp79
g3
VThe United Nations Organization was ... and signed the U.N.O. Charter. Thus the United Nations ... to the Security Council. Every member nation has ...
p80
sg5
VAn Essay on the United Nations Organization (UNO) | Articles | Eng
p81
sa(dp82
g3
VThere are a further ten countries who are non-permanent members of the Security Council ... Who are the current members of the United Nations Security Council ...
p83
sg5
VWhich countries are members of the United Nations Security Council
p84
sa(dp85
g3
VINDIA AND UNITED NATIONS . ... to the needs of its member states, and prepares itself to serve ... rightful role at the Security Council as a permanent member.
p86
sg5
VINDIA AND UNITED NATIONS
p87
sa(dp88
g3
VAustralia is a founding member of the UN, ... Australia has a long and distinguished record of ... Australia will serve on the United Nations Security Council during ...
p89
sg5
VAustralia and the United Nations - Australian Government ...
p90
sa(dp91
g3
V... occurs against a Member of the United Nations ... of the Security Council. Major non-permanent U.N. Security Council ... to provide long-term funding ...
p92
sg5
VReform the United Nations - Conservative Policy Research and Analysis
p93
sa(dp94
g3
VWhat is the United Nations charter? ... many of the chapters are long and extremely detailed. ... This power rests with the security council of the UN, ...
p95
sg5
VWhat is the United Nations charter? | Answerbag
p96
sa(dp97
g3
VThe United Nations has long been a ... In the U.N.\u2019s Covenant ... Not only has the number of non-permanent members in the Security Council been ...
p98
sg5
VIt\u2019s time for the United States to Leave the UN and Remove it ...
p99
sa(dp100
g3
VProbably a long shot I know ... General Assembly and in their rotation as a non-permanent member of the Security Council. ... United Nations Security Council ...
p101
sg5
VShould the United Nations have its own permanent standing army ...
p102
sa(dp103
g3
VUnited Nations Security Council ... by a permanent member does not constitute a veto. 19 "1 U.N ... non-permanent seats would seat one member from ...
p104
sg5
VUnited Nations Security Council Reform: Collected Proposals and ...
p105
sa(dp106
g3
V... the Security Council mandated the ... the United Kingdom and the United States) and ten non-permanent members who are elected from among the Member ...
p107
sg5
VThe Security Council: Working Methods Handbook (Book 2011 ...
p108
sa(dp109
g3
VWhich country is not a permanent member of the united nations? ... of the United Nations Security Council. ... How Long Are CNA Courses
p110
sg5
VIs India a permanent Member country of the United Nations Security ...
p111
sa(dp112
g3
V... U.S. Permanent Representative to the United Nations, ... the long term legitimacy and ... permanent and non-permanent members of the Security Council.
p113
sg5
VRemarks by Ambassador Susan E. Rice, U.S. Permanent Representative ...
p114
sa(dp115
g3
VThis doesn't mean that the U.N. has no useful function and cannot serve as a ... a member of the Security Council, ... of nations that the U.N. is ...
p116
sg5
VThe United States, the United Nations, and the Future of the ...
p117
sa(dp118
g3
VThe United Nations was the ... was permitted to become an original member of the UN. Security Council ... Article 2 also stipulates a basic long-standing ...
p119
sg5
VUnited Nations (UN) (international organization) -- Encyclopedia ...
p120
sa(dp121
g3
VHow does the United Nations serve American interests? Does it serve in ... within the National Security Council, I now serve on the ... United States U.N ...
p122
sg5
VThe United Nations: What's in It for the United States? - Council ...
p123
sa(dp124
g3
V... a Geneva-based organization that monitors the United Nations, says the U.N. will ... to the Security Council seeking U.N ... U.N., many member states ...
p125
sg5
VWho needs the U.N.? (The world does) / Buffeted by change and its ...
p126
sa(dp127
g3
VThe current United Nations Security Council ... within the Security Council (non-permanent members ... by some other member of the United Nations; ...
p128
sg5
VUN General Assembly 2012: Reforming Security Council Should Be Top ...
p129
sa(dp130
g3
V... as a temporary member on the United Nations Security Council," she told ... will serve for two years as one of 10 non-permanent of the Security Council, ...
p131
sg5
VAustralia wins seat on UN Security Council | News.com.au
p132
sa(dp133
g3
VThe United Nations Security Council meets to ... we are to see peace and security in the country over the long term.12 Achieving ... with all U.N. member ...
p134
sg5
VWithdrawing from the United Nations: A Misguided Assault | Center ...
p135
sa(dp136
g3
VThe Security Council is made up of 5 permanent and 9 non-permanent ... the others serve 5 year shifts. The Security Council votes on ... all 192 U.N. member nations.
p137
sg5
VThe United Nations - Anonemuss on HubPages
p138
sa(dp139
g3
VIndia-United States United Nations. ... at the U.N. is more difficult. The Security Council's agenda always contains ... last a non-permanent member of that ...
p140
sg5
VIndia & U.S. at U.N.: a complicated dance - The Hindu
p141
sa(dp142
g3
V... and the lack of transparency within this body of the United Nations. The Security Council vests all ... non-permanent seat. Kofi A ... member contributes to U.N ...
p143
sg5
VSecurity Council Reform | Global Solutions
p144
sa(dp145
g3
V... .The United States has long maintained the ... Council\u2014any member of the United Nations ... on the U.N. Whether the Security Council will work ...
p146
sg5
VInternational Law - War in Iraq - United Nations - Iraq
p147
sa(dp148
g3
V... This important issue has been discussed for too long. I believe member ... plus three new non-permanent ... The United Nations Security Council ...
p149
sg5
VUNITED NATIONS: Beyond the Illusion of Security Council Reform
p150
sa(dp151
g3
V... and how will it become the United Nations' 193rd member ... into the U.N. goes a long way toward a new country ... along to the Security Council, ...
p152
sg5
VHow to Become a Country in 3 Easy Steps | LifesLittleMysteries.com
p153
sa(dp154
g3
V... the U.N.'s long history of bias ... As permanent members of the Security Council, the United Nations can ... As a permanent member of the UN Security Council, ...
p155
sg5
VThe United States should withdraw from the United Nations
p156
sa(dp157
g3
VIf disregarded long enough, the Security Council may ... the Security Council, at l, U.N ... or non-Permanent Member of the United Nations, ...
p158
sg5
VAn analysis of United Nations Security Council resolutions: are ...
p159
sa(dp160
g3
VSouth Korea has been elected to the UN Security Council non-permanent member ... long list of United Nations ... United Nations is getting into the act. A U.N ...
p161
sg5
VUnited Nations - First thoughts about
p162
sa(dp163
g3
V... peace and security" throughout the world. Member states ... Social Council. Although the United Nations was ... non-permanent members serve on the Council who ...
p164
sg5
VUnited Nations human rights system
p165
sa(dp166
g3
V\u201cThe reform of the United Nations Security Council: ... and 1 additional seat for a non-permanent member with ... U.N. Security Council Reform is Not in ...
p167
sg5
VUnited Nations and Security Council Reform: Proposals for the Future
p168
sa(dp169
g3
VNon-permanent members are selected ... 1 "The reform of the United Nations Security Council: ... That all states should immediately ratify the U.N. Convention on the ...
p170
sg5
VThis House would expand the United Nations Security Council ...
p171
sa(dp172
g3
V\u201cThe United Nations does ... interests of the people we serve ... the subject of UN Security Council sanctions for proliferation or massive ...
p173
sg5
VLeading for Reform at the United Nations - United States Mission ...
p174
sa(dp175
g3
VRepublican Congress takes aim at the United Nations January 31, 2011 By: Jim Campbell On Tuesday, a House of Representatives panel will air criticisms of ...
p176
sg5
VThe new Republican House of Representatives is taking aim at the ...
p177
sa(dp178
g3
V... facts and figures on United Nations, ... Resist expansion of the Security Council. ... A majority of the U.N.\u2019s 193 member states are neither politically nor ...
p179
sg5
VUnited Nations / International Organizations | 2012 Election ...
p180
sa(dp181
g3
VGermany most recently served as a non-permanent member from ... the EU is still not ready to serve on the Council. ... Reform of the United Nations Security Council.
p182
sg5
VQuestions and answers on the reform of the Security Council
p183
sa(dp184
g3
VUNITED NATIONS -Obsessive focus on Israel caused it to ... a map in Arabic pre-dating the existence of the U.N. member state ... to sit on the Security Council, ...
p185
sg5
VMiddle-East-Info.org - United Nations - MEI \u2013 Middle East ...
p186
sa(dp187
g3
VThe United Nations is the preeminent ... When the UN Security Council passes a ... The council's refusal to serve as a rubber stamp for Washington will give ...
p188
sg5
VWhy America Still Needs the United Nations | Foreign Affairs
p189
sa(dp190
g3
VBy Salma Yusuf The United Nations Security Council ... fill the non-permanent Security Council ... seats to the Security Council. Most Member States ...
p191
sg5
VWill the Global South be given a Permanent Voice at the United ...
p192
sa(dp193
g3
VThe United Nations will soon elect a new ... The 15-member Security Council ... in the corridors of the U.N. But her representatives have long preferred to ...
p194
sg5
VElecting the Next Secretary General of the United Nations
p195
sa(dp196
g3
V... permanent and non-permanent member states ... by the U.N. Security Council, ... on the United Nations Security Council made any ...
p197
sg5
VOptimism Travels: Olympic Games and the United Nations: World ...
p198
sa(dp199
g3
VThe conference drafted the United Nations Charter ... the Security Council and the requirement that member states should make available armed forces to serve as ...
p200
sg5
VUnited Nations
p201
sa(dp202
g3
VTo connect with Belgrade International Model United Nations - B I M U N, ... will last for a long ... new non-permanent members of the Security Council ...
p203
sg5
VBelgrade International Model United Nations - B I M U N - Belgrade ...
p204
sa(dp205
g3
VReform of the United Nations Security Council encompasses a ... discussed for too long. I believe member states should ... of non-permanent members ...
p206
sg5
VReform of the United Nations Security Council
p207
sa(dp208
g3
Velects the non-permanent ... much of the work of UNPFII has surrounded the compliance of U.N. member states to the ... The United Nations Security Council ...
p209
sg5
VUnited Nations - Mashpedia, the Real-Time Encyclopedia
p210
sa(dp211
g3
V... individual chapters explore UN contributions to international peace and security, economic and social development, human ... Basic Facts about the United Nations.
p212
sg5
VBasic Facts about the United Nations - Issuu - You Publish
p213
sa(dp214
g3
V... that does not mean it will be admitted to the United Nations. ... Security Council. The process the U.N ... non-permanent seats on the Security Council ...
p215
sg5
VPalestinians Mull Options in Asking UN General Assembly for ...
p216
sa(dp217
g3
V... permanent members of the UN Security Council included the United ... United Nations, all member nations ... Non-Permanent Edit. The United Nations Armed ...
p218
sg5
VUnited Nations - Muv-Luv Wiki
p219
sa(dp220
g3
V... contributor to the United Nations. Germany has come a long way ... as a non-permanent member of the Council, ... efforts in U.N Security Council to ...
p221
sg5
VGermany\u2019s Inclusion as a Permanent Member of the UN Security ...
p222
sa(dp223
g3
VThe U.N.: Making the world ... Hiss gave Russia 2 seats at the Security Council while the US had one. ... The United Nations does one and only one thing ...
p224
sg5
VThe United Nations _ An Evil Institution. We Are Living In A World ...
p225
sa(dp226
g3
V... member of the Security Council in the United ... Nations must serve ... in the United Nations is a long-term ...
p227
sg5
VUnited Nations Q& A - FAPA - Important Issues - UN Campaign
p228
sa(dp229
g3
VHow long does membership last? ... The United Nations Security Council was founded in 1945 as an ... non-Security Council members and non-member states may be invited ...
p230
sg5
VHow to Teach Model UN: 10 Questions to Kick Off Committee Research
p231
sa(dp232
g3
VThis article is principally concerned with the role of the United Nations in maintaining security ... the U.N. normally does ... Holmes is a member of the Council ...
p233
sg5
VCanada's Role in the United Nations - Air and Space Power Journal
p234
sa(dp235
g3
V"There is a limit to what can be achieved as a temporary member on the United Nations Security Council ... serve for two years as ... non permanent security council ...
p236
sg5
VAustralia wins seat on UN Security Council | Herald Sun
p237
sa(dp238
g3
VThe civilized world would be better off were the United Nations in its ... at the Security Council ... I find the U.N. to be pointless and even wores ...
p239
sg5
VDissolve the United Nations - The Jewish Website - aish.com
p240
sa(dp241
g3
VSo relieved were member nations that the President deigned to appear ... "Will the United Nations serve the ... "If the U.N. Security Council had been ...
p242
sg5
VBush Trashes the United Nations | The Progressive
p243
sa(dp244
g3
V... through the Security Council meeting that I will ... nor do alignments of nations rooted in the cleavages of a long ... The United Nations does ...
p245
sg5
VRemarks by the President to the United Nations General Assembly ...
p246
sa(dp247
g3
V... (USA) signed the United Nations Charter ... A negative vote by a permanent member bars action by the Security Council and is ... The non-permanent members are ...
p248
sg5
VUnited Nations Organization (UNO)
p249
sa(dp250
g3
V... 2012 photo provided by the United Nations, U.N. Secretary ... U.N. Population Fund. At long last, a ... but only with the assent of member nations.
p251
sg5
VU.N.: Contraception Access A Human Right - Breaking News and ...
p252
sa(dp253
g3
V... try to avoid days when the general assembly and security council is meeting-seeing ... Then again this is the U.N ... to serve all nations while ...
p254
sg5
VUnited Nations - Midtown East - New York, NY
p255
sa(dp256
g3
V... permanent seat in the Security Council and will ... the UN member nations), and a ... the cause that the United Nations must serve under ...
p257
sg5
VTaiwan and the United Nations
p258
sa(dp259
g3
VBoth of these organizations are charters under the UNSRC United Nations Staff Re-creation Council ... nations and in the efforts of the U.N ... Security Council) ...
p260
sg5
VThe United Nations
p261
sa(dp262
g3
V... the United Nations Security Council voted ... the Human Right\u2019s Council appointed Ahmed Shaheed to serve as ... long-vacant positions. The United States has ...
p263
sg5
VFact Sheet: Advancing U.S. Interests at the United Nations | The ...
p264
sa(dp265
g3
VLike the U.N., the Council is an instrument of member states ... United Nations, ... interests and endangers our national security. We need to get out of the U.N., ...
p266
sg5
VDefund the U.N. | Hoover Institution
p267
sa(dp268
g3
VFor a list of United Nations member states, ... the Security Council (for deciding certain resolutions for peace and security); the Economic and Social Council ...
p269
sg5
VUnited Nations - Wikipedia, the free encyclopedia - Wikipedia Mobile
p270
sa(dp271
g3
VUnited Nations Association ... serve as a coach during the conference and assist with all ... many schools compete for the 15 countries on the Security Council, ...
p272
sg5
VFrequently Asked Questions
p273
sa(dp274
g3
Vhonour of serving as an elected member of the United Nations Security ... SOUTH AFRICA IN THE UNITED NATIONS 2 SECURITY COUNCIL ... members serve in a non-permanent ...
p275
sg5
VSOUTH AFRICA IN THE UNITED NATIONS SECURITY COUNCIL (2007-2008)
p276
sa(dp277
g3
V... "there are permanent members of the Security Council and non-permanent ... Council's member nations have ... U.N. At Long Last? The United Nations has ...
p278
sg5
VThe United Nations : Corrupt, Ineffective, Dangerous
p279
sa(dp280
g3
VThis is a moment of several overlapping transitions at the United Nations. ... New countries will join the Security Council as ... and was a long-time member of the ...
p281
sg5
VUnited Nations v. United States | FPIF - Foreign Policy In Focus ...
p282
sa(dp283
g3
VWhats going on with the united nations and our national parks? ... Who vetoes the UN Security council more than any other ... What does the u n have to do with our ...
p284
sg5
VWhats going on with the united nations and our national parks ...
p285
sa(dp286
g3
VThe attack was also condemned by leaders around the world and members of the U.N. Security Council who ... serve the United Nations ... as long as they ...
p287
sg5
VNigeria U.N. office hit by massive bomb; 18 dead - CBS News
p288
sa(dp289
g3
V... organs of the United Nations and the only one in which all member ... appoint the non-permanent members to the Security ... council is the United Nations ...
p290
sg5
VUnited Nations General Assembly - 2008/9 Wikipedia Selection for ...
p291
sa(dp292
g3
V... through the United Nations in the former Yugoslavia. U.N. mediation has ... U.N. member states might ... Asian Nations and the U.N. Security Council, ...
p293
sg5
VWhy the U.N. Fails: It Cannot Mediate | Foreign Affairs
p294
sa(dp295
g3
V... to the Security Council. The United Nations has ... 2 The Security Council can call upon U.N. member ... United States to conduct a week-long ...
p296
sg5
VUnited Nations: Limitations in Leading Missions Requiring Force to ...
p297
sa(dp298
g3
VUNITED NATIONS - After 16 rounds ... The 15-member U.N. Security Council, ... Pakistan and Guatemala to serve two-year terms in the Security Council, ...
p299
sg5
VEvelyn Leopold: New UN Security Council Stays Politically Divided
p300
sa(dp301
g3
VIt could be recall that the united nations was conceive as the answer to ... Unlike the Security Council, ... It elects the non-permanent members of the ...
p302
sg5
VUN General Assembly Functions - EzineArticles Submission - Submit ...
p303
sa.