(lp1
(dp2
S'description'
p3
VPRESIDENCY; MEMBERS; PROGRAMME OF WORK; SUBSIDIARY ORGANS; ... Security Council Resolutions. United Nations resolutions are formal expressions of the opinion or will ...
p4
sS'title'
p5
VResolutions adopted by the United Nations Security Council since 1946
p6
sa(dp7
g3
VA State which is a Member of the United Nations but not of the Security Council may participate, ... The Presidency of the Council rotates monthly, ...
p8
sg5
VUN Security Council: Background - Welcome to the United Nations ...
p9
sa(dp10
g3
VThe United Nations Security Council ... The role of president of the Security Council involves ... Permanent members often use this veto power to strike down ...
p11
sg5
VUnited Nations Security Council - Wikipedia, the free encyclopedia
p12
sa(dp13
g3
VThe United Nations Security Council "power of veto ... to international security threats often include ... President 2012; Security Council ...
p14
sg5
VUnited Nations Security Council veto power - Wikipedia, the free ...
p15
sa(dp16
g3
VThe United Nations Security Council ... The Presidency of the Security Council is ... of the League of Nations since that organization was often unable ...
p17
sg5
VSecurity Council
p18
sa(dp19
g3
VHow the United Nations Security Council ... The presidency of the Security Council rotates among ... of the U.N. Charter, the Security Council is entrusted ...
p20
sg5
VHow the UN Security Council Works - Worldpress.org - World News ...
p21
sa(dp22
g3
VUNITED NATIONS, May 10 (IPS) ... as it so often is in the Arab-Israel conflict ... first and foremost the U.N. Security Council, ...
p23
sg5
VIsraeli Attacks on Syria Escape Security Council Scrutiny ...
p24
sa(dp25
g3
VUnited Nations Security Council votes to establish peacekeeping ... who is current president of United Nations General ... U.N. says Brahimi agrees to stay on ...
p26
sg5
VUnited Nations - The New York Times
p27
sa(dp28
g3
VThe presidency of the United Nations Security Council rotates on a monthly basis ... Since the United Nations Security Council must be able to act quickly ...
p29
sg5
VUnited Nations Security Council - Overview of the United Nations ...
p30
sa(dp31
g3
VThe United Nations Security Council ... [U.N.] Members confer on the Security Council primary ... The smaller nations on the Security Council often get into ...
p32
sg5
VHowStuffWorks "How the United Nations Works"
p33
sa(dp34
g3
VThe Security Council is the United Nations ... It follows a Program of Work set out each month by its rotating President. ... The Council is a fascinating but often ...
p35
sg5
VUN Security Council - Global Policy Forum
p36
sa(dp37
g3
VHow often did the League of Nations council meet? ... Is Germany a member of the UN security council? ... What is the name of the United Nations president?
p38
sg5
VWho is the President of the United Nations - The Q&A wiki
p39
sa(dp40
g3
VThe presidency of the Security Council changes ... Working groups are often formed to ... United Nations Security Council Council responsible for taking action ...
p41
sg5
VUnited Nations Security Council Facts, information, pictures ...
p42
sa(dp43
g3
VDo you not think the permanent members of the United Nations Security Council ... influence in the U.N. ... have often found myself defending ...
p44
sg5
VDo you not think the permanent members of the United Nations ...
p45
sa(dp46
g3
V... U.S. Secretary of State Colin Powell came before the United Nations Security Council and ... most often a visible ... President Bush pressed his case at the U.N ...
p47
sg5
VInternational Law - War in Iraq - United Nations - Iraq
p48
sa(dp49
g3
VA smaller group of countries meet as the U.N. Security Council. ... of the United Nations is carried out by the U.N. secretary ... of The President;
p50
sg5
VUnited Nations - Welcome to About.com US Foreign Policy
p51
sa(dp52
g3
VIrish Presidency of the Council of the EU. ... established by the United Nations in 1993 to promote and raise awareness of press freedom ... Nuclear Security Summit 2014.
p53
sg5
VPermanent Mission of the Netherlands to the UN in New York, United ...
p54
sa(dp55
g3
VThe US currently holds the month-long rotating presidency of the Security Council. ... US and the United Nations this month when he ... blogged often about ...
p56
sg5
VTransnationalist Obama: First US President to Chair UN Security ...
p57
sa(dp58
g3
VA comprehensive history and overview of the United Nations and ... is headed by a president ... by the Security Council. Functions of the United ...
p59
sg5
VThe United Nations - The History, Organization, and Functions of ...
p60
sa(dp61
g3
VWho was excluded from the United Nations security council? ... Who are the Presidents of the Permanent 5 members of the United Nations? President of the United States ...
p62
sg5
VWhich 5 countries are the permanent members of the United Nations ...
p63
sa(dp64
g3
VUNITED NATIONS \u2014 By vetoing a Security Council resolution condemning Syria ... U.N. Resolution on Syria ... like the United States so often does for ...
p65
sg5
VWith United Nations Veto, Russia and China Help Syria - NYTimes.com
p66
sa(dp67
g3
VThe United Nations Visitors' Centre at the United Nations Headquarters in New York City. Every year, over 1 million visitors from around the world visit the United ...
p68
sg5
VUnited Nations Visitors Centre - Home
p69
sa(dp70
g3
VA concave row of flags representing the U.N.\u2019s 192 member nations, ... 50 countries ratified the United Nations ... Most infamous would be the Security Council, ...
p71
sg5
VUnited Nations - Landmarks - New York Magazine
p72
sa(dp73
g3
V... causing a humanitarian catastrophe as documented by the United Nations and ... your veto of a U.N. Security Council ... to the United States Mr. President, ...
p74
sg5
VUrging President Obama to Support a Palestinian State in the U.N ...
p75
sa(dp76
g3
VU.S. President Barack ... "It is inconceivable that you could contemplate U.N. Security Council ... on the basis of having been ostensibly the five key nations ...
p77
sg5
VIndia's U.N. Security Council Seat: Don't Hold Your Breath - TIME
p78
sa(dp79
g3
VREMARKS BY THE PRESIDENT TO THE UNITED NATIONS GENERAL ASSEMBLY. ... through the Security Council meeting that I will chair ... we will work with the U.N. and other ...
p80
sg5
VRemarks by the President to the United Nations General Assembly ...
p81
sa(dp82
g3
VHow often Do the UN meet? ... The Security Council meets as needed, ... Can you explain Homeland Security? Who is current president of bangladesh?
p83
sg5
VHow often Do the UN meet? - Yahoo! Answers
p84
sa(dp85
g3
VYoung Palestinians battle to become 'President' ... The United Nations Security Council on Thursday ... Turkey asked the U.N. Security Council to take the ...
p86
sg5
VUN Security Council condemns Syria shelling of Turkey 'in the ...
p87
sa(dp88
g3
V... five permanent members of the Security Council ... United Nations" was proposed by US President Franklin ... Ghana often name their children ...
p89
sg5
VHappy Birthday, United Nations: 10 Fun Facts About the UN - Neatorama
p90
sa(dp91
g3
V... the chief administrative officer of the United Nations. The Security Council has the ... The reality of UN peacekeeping efforts often ... and the U.N ...
p92
sg5
VSecretariat, United Nations legal definition of Secretariat ...
p93
sa(dp94
g3
VSecurity Council President: Susan Rice: ... During World War II, the Allied Powers often called themselves "the United Nations" (united against the Axis Powers).
p95
sg5
VUnited Nations - Simple English Wikipedia, the free encyclopedia
p96
sa(dp97
g3
VWelcome to the United Nations. ... to protect Syria\u2019s children in the Security Council. ... from 11-17 March and met with South Sudan President Salva Kiir ...
p98
sg5
VUnited Nations Office of the Special Representative of the ...
p99
sa(dp100
g3
VUNITED NATIONS \u2014 The U.N. Security Council on Wednesday endorsed ... killed since President Bashar al-Assad\u2019s ... binding resolution but often serves as a ...
p101
sg5
VSyrian peace plan: U.N. Security Council endorses Kofi Annan\u2019s ...
p102
sa(dp103
g3
VUnited States president Franklin D. Roosevelt suggested ... Resolutions adopted by the General Assembly often request the ... United Nations Security Council;
p104
sg5
VUnited Nations - SourceWatch
p105
sa(dp106
g3
VThe basic framework for the proposed United Nations rested on President ... the delegates reviewed and often ... the United Nations Security Council ...
p107
sg5
Vhe United States and the Founding of the United Nations
p108
sa(dp109
g3
VThe conference drafted the United Nations Charter ... by the Security Council. The other nations vigorously ... President was the structure of the United ...
p110
sg5
VUnited Nations
p111
sa(dp112
g3
VThe formation of the United Nations was a lengthy and difficult political process, ... The Security Council, ... About the Structure of the U.N.
p113
sg5
VAbout the Formation of the United Nations | eHow.com
p114
sa(dp115
g3
VThe United Nations Human Rights Council, ... President-CEO of the Afrikan ... would have a major impact on the U.N.\u2019s summary documentation ...
p116
sg5
VU.N. Human Rights Council Takes Aim at New Target: United States ...
p117
sa(dp118
g3
VRep. Kelly Sends Letters to President Obama & UN Secretary-General Ban Urging Firing of Richard Falk from UN Human Rights Council
p119
sg5
VRep. Kelly Sends Letters to President Obama & UN Secretary-General ...
p120
sa(dp121
g3
VThe Operation and Growth of the United Nations. The Security Council, ... the Security Council to act was often ... United Nations (est. 1945). President Franklin ...
p122
sg5
VUnited Nations Facts, information, pictures | Encyclopedia.com ...
p123
sa(dp124
g3
VUNITED NATIONS (Reuters) - A U.N. Security Council sanctions ... South Korea's new president ... UNITED NATIONS (Reuters) - A U.N. Security Council ...
p125
sg5
VNew U.N. steps to ban sale of yachts, racing cars to North Korea ...
p126
sa(dp127
g3
VWelcome to the United Nations. It's your world. ... Secretary-General Meets President of Republic of Korea. Security Council Discusses Situation in the DRC.
p128
sg5
VUnited Nations Multimedia, Radio, Photo and Television
p129
sa(dp130
g3
VWhen one considers that the majority of U.N. member states are Arab nations ... The Security Council is the United Nations' most ... [To whom President Bush wants to ...
p131
sg5
VUnited Nations... United Against Israel!
p132
sa(dp133
g3
VThe United Nations Human Rights ... The League had originally been proposed by the president of the United States ... on January 17, the Security Council first ...
p134
sg5
VUnited Nations human rights system
p135
sa(dp136
g3
VAs U.N. Backs Military ... UNITED NATIONS \u2014 The United Nations Security Council voted Thursday to authorize ... After days of often acrimonious ...
p137
sg5
VU.N. Approves Airstrikes Against Libya - NYTimes.com
p138
sa(dp139
g3
V... the U.N. established the United Nations Relief and ... from the U.N. Security Council. President of the General ... statehood as they often do ...
p140
sg5
VU.N. Vote for Palestinian Statehood: How U.S. Should Respond
p141
sa(dp142
g3
VAnd then came U.N. Resolution 1701, ... Our veto power in the Security Council alone ensures that the United Nations does not act arbitrarily to harm U.S. interests.
p143
sg5
VWhat is the United Nations good for? :: Fairleigh Dickinson University
p144
sa(dp145
g3
VAs is often the case, this rally-round-president effect ... in Iraq if "the United Nations Security Council does ...
p146
sg5
VUnited Nations - American attitudes: Americans & the World
p147
sa(dp148
g3
VThe composition of the Security Council does not reflect present ... The U.N\u2019s strengths: Picking ... If that does not work What did the United Nations do when ...
p149
sg5
VWar, Peace and the United Nations - TeacherWeb - Websites for ...
p150
sa(dp151
g3
V... Romney unsubtly jabbed President Obama in Jerusalem this Sunday \u2014 as he often does on U.S ... in the U.N. Security Council. ... United Nations action, still ...
p152
sg5
VRomney Breaks With Every GOP President, Pledges To Never Criticize ...
p153
sa(dp154
g3
VAs is often the case, this rally-round-president effect ... in Iraq if "the United Nations Security Council does ...
p155
sg5
VUnited Nations - American attitudes: Americans & the World
p156
sa(dp157
g3
VThe composition of the Security Council does not reflect present ... The U.N\u2019s strengths: Picking ... If that does not work What did the United Nations do when ...
p158
sg5
VWar, Peace and the United Nations - TeacherWeb - Websites for ...
p159
sa(dp160
g3
V... Romney unsubtly jabbed President Obama in Jerusalem this Sunday \u2014 as he often does on U.S ... in the U.N. Security Council. ... United Nations action, still ...
p161
sg5
VRomney Breaks With Every GOP President, Pledges To Never Criticize ...
p162
sa(dp163
g3
VThe U.S. has been the largest financial supporter of the United Nations since the ... despite the U.N.\u2019s record of ... U.N. peacekeepers all too often are not ...
p164
sg5
VUnited Nations To-Do List for the New Congress
p165
sa(dp166
g3
V... can veto a United Nations Security Council resolution. These five are the USA, the UK, ... George Bush, USA president during the bombing of Iraq:
p167
sg5
VKryssTal : USA Vetos in the UN
p168
sa(dp169
g3
V... The U.N. Security Council agreed on Tuesday to publish a ... within President Paul Kagame's government for ... United Nations vehemently denied the ...
p170
sg5
VUN to release divisive report on Rwanda support for Congo rebels ...
p171
sa(dp172
g3
VA group of 20 United Nations peacekeepers on the ... Men wearing the U.N.'s trademark robin ... who is currently serving as president of the Security Council. ...
p173
sg5
VSyrian Rebels Detain United Nations Peacekeepers - ABC News
p174
sa(dp175
g3
VThe former often result from claims for such things as land or natural resources, ... United Nations Simulations: ... Security Council Simulation: ...
p176
sg5
VPeace: The Role of the United Nations - UNA-Canada : : ACNU
p177
sa(dp178
g3
VThe U.N. investigation, ... United Nations, Council On Foreign Relations, ... Either the veto powers of the security council need to be abolished, ...
p179
sg5
VU.N. Launches Drone Investigation Into Legality Of U.S. Program
p180
sa(dp181
g3
VAt the U.N. General Assembly, President Obama addresses a meeting of international partners to show ... And here at the United Nations, ... often outgunned and ...
p182
sg5
VPresident Obama at the U.N. on Libya: "We will Stand with You ...
p183
sa(dp184
g3
VThe resolution contained wording that the IAEA would notify the United Nations Security Council ... the U.N. Security Council has ... The Security Council often has ...
p185
sg5
VU.N. Security Council Consideration of North Korea's Violations of ...
p186
sa(dp187
g3
V... in the area and called on the United Nations to send a security convoy ... of communities that are often ... the U.N. Security Council\u201d to ...
p188
sg5
VSyrian rebel group claims 20 U.N. observers were being rescued ...
p189
sa(dp190
g3
VCharles Townshend assesses the chances of sussess for the United Nations. ... great powers through the UN Security Council; ... of - often bafflingly ...
p191
sg5
VBBC - History - World Wars: The League of Nations and the United ...
p192
sa(dp193
g3
V... fifteen-member Security Council. All nations were ... The United Nations. Recent News Articles: \u201cU.N. ... of President of 63rd General ...
p194
sg5
VSanta Clara University - The United Nations and Supranational ...
p195
sa(dp196
g3
VThe first day of the Syrian cease-fire but U.N. envoy Kofi Annan said ... the United Nations Security Council authorized ... the country in often ...
p197
sg5
VUnited Nations dispatches 30 military observers to Syria - World News
p198
sa(dp199
g3
V... including the other four permanent members of the Security Council. Third, U.N ... often do not want foreign forces ... the United Nations Security ...
p200
sg5
VConfronting new challenges facing United Nations peacekeeping ...
p201
sa(dp202
g3
VThe Palestinians are seeking to upgrade their status at the United Nations to ... the U.N.'s 193 members already ... through the Security Council."
p203
sg5
VPalestinian United Nations bid explained - CNN.com
p204
sa(dp205
g3
VNations Leadership Council to provide ongoing ... V.1 Values and National Security 82. The United States is currently ... President Reagan remarked that the United ...
p206
sg5
VReport of the United States of America Submitted to the U.N. High ...
p207
sa(dp208
g3
VU.N. Accused of Playing Down Nuke Disarmament Conference ... UNITED NATIONS, ... the P-5 in the Security Council have been recalcitrant.
p209
sg5
VIPS \u2013 U.N. Accused of Playing Down Nuke Disarmament Conference ...
p210
sa(dp211
g3
VUnited Nations. U.S. Foreign Policy. Rule of Law. Religious Freedom. Media Freedom. LGBTI Rights. Internet Freedom. ... Assessing the 2012 UN Human Rights Council ...
p212
sg5
VAssessing the 2012 UN Human Rights Council Elections: One-Third of ...
p213
sa(dp214
g3
VPresident Obama delivered the ... of the United Nations General Assembly at U.N. headquarters ... the United Nations Security Council to ...
p215
sg5
VObama's Speech to the UN General Assembly, As Prepared ...
p216
sa(dp217
g3
VRepublican lawmakers called on President Obama Friday to take ... the U.N. Security Council punished the ... of the United Nations slapping yet ...
p218
sg5
VLawmakers urge administration to take tougher stance against NK ...
p219
sa(dp220
g3
VThe 193-nation U.N. General ... spokeswoman for the National Security Council. ... (Additional reporting by Lou Charbonneau at the United Nations and ...
p221
sg5
VNew U.N. arms treaty faces rough road in U.S. Senate | Reuters
p222
sa(dp223
g3
VRussia is readying a request to the United Nations for claim ... to the U.N. treaty ... of the council. Additionally, six European nations are considered ...
p224
sg5
VIcy Arctic rising as economic, security hot spot - SFGate
p225
sa(dp226
g3
VIt\u2019s Time for Burma\u2019s President to ... The U.N. secretary general is often called "the secular pope ... Assembly on the recommendation of the Security Council.
p227
sg5
VHow to Pick a Secular Pope - By James Traub | Foreign Policy
p228
sa(dp229
g3
VPresident Obama Addresses United Nations For First Time ... which too often has served as an excuse for ... 1:43:23 Obama Leads UN Security Council ...
p230
sg5
VPresident Obama Addresses United Nations For First Time-Full Video ...
p231
sa(dp232
g3
VBut earlier this month an Arms Trade Treaty was adopted by an overwhelming majority at the United Nations ... ground in the U.N ... Security Council to ...
p233
sg5
VArms trade treaty may point a way forward for the U.N. | The Great ...
p234
sa(dp235
g3
VThe United Nations Council called on all U.N. members to ... The power of the president has often expanded ... "Our national security and our chances for peace ...
p236
sg5
VBRIA 4 4 b Seizure Truman Takes the Steel Mills - Constitutional ...
p237
sa(dp238
g3
VIn another major sign of growing ties between India and the United States, President ... U.N. Security Council that ... by the United Nations ...
p239
sg5
VObama backs permanent seat for India on Security Council - CNN.com
p240
sa(dp241
g3
V... have been submitted to President Obama and to United Nations Secretary-General ... U.N. Human Right\u2019s Council Palestine monitor ... is often demonstrated ...
p242
sg5
VView from Geneva
p243
sa(dp244
g3
VUS President Barack Obama addresses the United Nations General ... for Internal Security and ... yet often chaired the U.N. Human Rights Council ...
p245
sg5
VThe U.N. Arms Trade Treaty: Are Our 2nd Amendment Rights Part Of ...
p246
sa(dp247
g3
VWhen President Barack Obama said the United Nations had ... seen here presiding over a meeting of the U.N. Security Council ... Governments often don't even do ...
p248
sg5
VObama presidency at pivotal moment - politics - White House | NBC News
p249
sa(dp250
g3
VUNITED NATIONS \u2014 Syrian cities have been reduced to rubble. ... who testified Thursday to the U.N. Security Council. ... there is often no running water and, ...
p251
sg5
VSyria's Daily Horrors, from Famine to Rape, Described by UN Chiefs ...
p252
sa(dp253
g3
V... the Security Council established the United Nations ... and the Security Council established the United ... the president of the United States ...
p254
sg5
VThe Security Council - Maintaining international peace and security
p255
sa(dp256
g3
VThe United Nations Security Council responded to the ... that the Soviets liked to point out that since the U.N. meeting occurred after the President's ...
p257
sg5
VThe United States Enters the Korean Conflict
p258
sa(dp259
g3
VUnited Nations Interim Security Force for Abyei: ... often with a view toward facilitating the ... February 2010 \u2013French Presidency of the Security Council ...
p260
sg5
VPeacekeeping Operations - FRANCE ONU
p261
sa(dp262
g3
VUnited Nations Actions. U.N. Security Council resolutions ... President Clinton sought and obtained U.N. Security ... The executive branch has often taken the ...
p263
sg5
VWar Powers Resolution: Presidential Compliance
p264
sa(dp265
g3
V... while it was unjustly singled out for condemnation more often than all the other nations of ... the United Nations ... the Security Council\u2019s presidency, ...
p266
sg5
VGeneral Assembly OF THE UNITED NATIONS - UN General Assembly ...
p267
sa(dp268
g3
V... to a new system governed by a democratic U.N ... made for collective security with ... personnel to the field than the United Nations.
p269
sg5
VThe United Nations: On the Brink of Becoming a World Government
p270
sa(dp271
g3
V... \u2014 Secret negotiations among dozens of countries preparing for a United Nations summit ... U.N. Security Council, where the United ... that often are unable to ...
p272
sg5
VA battle for Internet freedom as UN meeting nears - The Big Story
p273
sa(dp274
g3
VImpose greater oversight of U.N ... which is often expressed at the United Nations. ... five permanent members of the Security Council, namely the United ...
p275
sg5
VUnited Nations World Summit 2005 \u2014 Global Issues
p276
sa(dp277
g3
VUnited Nations Secretary-General Ban Ki ... How often do you receive first hand information ... (the five permanent members of the Security Council plus ...
p278
sg5
Vundpi.org :
p279
sa(dp280
g3
VCome here often? Make XFINITY.com ... America's sole candidate for a seat at the United Nations' Security Council for the 2014 to ... The U.N.'s Security ...
p281
sg5
VChile to be Latin America's only candidate to U.N. Council | World ...
p282
sa(dp283
g3
VEver since President Franklin D. Roosevelt of the US coined the term "United Nations," Canada has ... place on the Security Council at ... that often accompanies ...
p284
sg5
VCanada and The United Nations - Background Information
p285
sa(dp286
g3
V... protests to the rule of President Bashar ... Council that spring appointed former U.N. Secretary ... at the United Nations Security Council ...
p287
sg5
VSyria | United States Institute of Peace
p288
sa(dp289
g3
VAs the United Nations General ... including as part of the focus of President Barack Obama\u2019s Tuesday ... the U.N. Human Rights Council and the General ...
p290
sg5
VHuman Rights First, Muslim Public Affairs Council Urge U.N ...
p291
sa(dp292
g3
VUnited Nations Actions U.N. Security Council resolutions ... of President Aristide on October 30. The United Nations ... The executive branch has often taken the ...
p293
sg5
VCRS Issue Brief for Congress - GlobalSecurity.org - Reliable ...
p294
sa(dp295
g3
VIn the end a U.N. conference did ... president of the National Council for ... Ambassador Rice called her resignation from the United Nations "a major ...
p296
sg5
VEvelyn Leopold: UN Holds Line: Women's Rights are Human Rights
p297
sa(dp298
g3
VOn the United Nations\u2019 core issues\u2014collective peace and security, ... the diplomats often find them ... the \u201cpresident\u201d of the world. The United Nations is ...
p299
sg5
VWhy Does the UN Still Exist? | Hoover Institution
p300
sa(dp301
g3
VJamaica has served on the United Nations Security Council ... The Multinational Force which oversaw the return of President ... , even though the outcome was often ...
p302
sg5
VJamaica and the United Nations - 1962-1995
p303
sa.