(lp1
(dp2
S'description'
p3
VThe American Enterprise Institute for Public Policy Research (AEI) ... Vice President Cheney, and othe senior Bush administration officials behind the scenes.
p4
sS'title'
p5
VAmerican Enterprise Institute - Wikipedia, the free encyclopedia
p6
sa(dp7
g3
VThe American Enterprise Institute is a think tank with more than 50 scholars and experts engaged in public policy research promoting freedom, opportunity and enterprise.
p8
sg5
VAmerican Enterprise Institute for Public Policy Research
p9
sa(dp10
g3
VRead the latest news on the American Enterprise Institute ... President George W. Bush has appointed over a dozen people from AEI to senior ... wife of Vice President ...
p11
sg5
VAmerican Enterprise Institute | Right Wing Watch
p12
sa(dp13
g3
VMay 02, 2013 13:12 ET. Enterprise Holdings Names Christine Taylor-Broughton as Senior Vice President of North American Operations
p14
sg5
VEnterprise Holdings Names Christine Taylor-Broughton as Senior ...
p15
sa(dp16
g3
VEnterprise Holdings today announced the promotion of Christine Taylor-Broughton to Senior Vice President of North American ... Enterprise IT Award from Uptime Institute.
p17
sg5
VEnterprise Holdings Names Christine Taylor-Broughton as Senior ...
p18
sa(dp19
g3
VRepresentative Paul Ryan Receives American Enterprise Institute's Irving ... American Enterprise Institute (AEI) president Arthur C. Brooks presented the 2013 ...
p20
sg5
VAll Items by Arthur C. Brooks - AEI - American Enterprise ...
p21
sa(dp22
g3
VThe American Enterprise Institute for Public Policy Research ... Vice President, ... the wife of U.S. Vice President Dick Cheney, is an AEI senior fellow.
p23
sg5
VAmerican Enterprise Institute - SourceWatch
p24
sa(dp25
g3
VEnterprise Holdings today announced the promotion of Christine Taylor-Broughton to Senior Vice President of North American Operations, succeeding Matthew G. Darrah ...
p26
sg5
VEnterprise Holdings Names Christine Taylor-Broughton as Senior ...
p27
sa(dp28
g3
VFrom Yahoo! Finance: Enterprise Holdings today announced the promotion of Christine Taylor-Broughton to Senior Vice President of North American Operations ...
p29
sg5
VEnterprise Holdings Names Christine Taylor-Broughton as Senior ...
p30
sa(dp31
g3
V... Executive Vice President, American Enterprise Institute For Public ... From 1986 to 1989 he was a Senior Fellow at the American Enterprise Institute and from ...
p32
sg5
VDavid Gerson, Executive Vice President, American Enterprise ...
p33
sa(dp34
g3
VPletka is the vice president for foreign and defense ... She was a senior professional staff member for Near East and South Asia ... American Enterprise Institute
p35
sg5
VDanielle Pletka - Wikipedia, the free encyclopedia
p36
sa(dp37
g3
VRemarks at the American Enterprise Institute. As ... Being the first vice president who had also ... Every senior official who has been briefed on these ...
p38
sg5
VFormer Vice President Cheney - Remarks at the American Enterprise ...
p39
sa(dp40
g3
V... and an adjunct scholar at both the Cato Institute and the Competitive Enterprise Institute. ... the American Economic ... Senior Vice President, ...
p41
sg5
VInstitute for Energy Research | Staff
p42
sa(dp43
g3
VEnterprise Holdings has promoted Christine Taylor-Broughton, the granddaughter of the car rental company's founder, to senior vice president of North American ...
p44
sg5
VEnterprise promotes founder's granddaughter to key post
p45
sa(dp46
g3
VCounselor to the President Peter Rouse; Senior ... Vice President Biden was sworn in to ... The Vice President was tasked with implementing the American ...
p47
sg5
VVice President Joe Biden | The White House
p48
sa(dp49
g3
VThe public policy blog of the American Enterprise Institute ... Now that Vice-President Biden\u2019s tax returns are coming under public scrutiny, ...
p50
sg5
VBidens are becoming more charitable over time \u2013 they used to ...
p51
sa(dp52
g3
VShe has been named one of the 25 Most Powerful Women in Banking by American Banker magazine ... the Chartered Institute ... Senior Vice President, Global ...
p53
sg5
VLeadership Team | Elavon
p54
sa(dp55
g3
VAmerican Enterprise Institute, ... of the R Street Institute, former Senior Fellow at the Competitive Enterprise Institute, and Vice President at the ...
p56
sg5
VAEI Hosts Fifth Secret Meeting to Promote Carbon Tax
p57
sa(dp58
g3
VEnterprise Holdings Names Christine Taylor-Broughton as Senior Vice President of North American Operations
p59
sg5
VEnterprise Holdings Names Christine Taylor-Broughton as Senior ...
p60
sa(dp61
g3
VInboden has served as Senior Vice President of the London-based Legatum Institute, and as a Civitas Fellow at the American Enterprise Institute.
p62
sg5
VShadow Government contributors | Shadow Government
p63
sa(dp64
g3
VEnterprise Holdings Names Christine Taylor-Broughton as Senior Vice President of North American Operations 2013-05-02 20:40:02 -
p65
sg5
VEnterprise Holdings Names Christine Taylor-Broughton as Senior ...
p66
sa(dp67
g3
VScott W. Johnson is an attorney and senior vice president of TCF National Bank in Minneapolis, a fellow of the Claremont Institute, ... The American Enterprise, ...
p68
sg5
VThe Claremont Institute - Scott W. Johnson
p69
sa(dp70
g3
VAverage Senior Vice President Salary is $167,000. A free inside look at 1,976 Senior Vice President salary reports posted anonymously by employees.
p71
sg5
VSenior Vice President Salary | Glassdoor
p72
sa(dp73
g3
VEnterprise Holdings Names Christine Taylor-Broughton as Senior Vice President of North American ... is President of the Enterprise Holdings Foundation and is ...
p74
sg5
VEnterprise Holdings Names Christine Taylor-Broughton as Senior ...
p75
sa(dp76
g3
VHe was elected to the National Academy of Engineering in 2006 and inducted into the American Academy of ... Today as senior vice president ... enterprise software ...
p77
sg5
VManagement team \u2013 Company \u2013 Google
p78
sa(dp79
g3
VThe Anita Borg Institute for Women and Technology is dedicated ... Yvonne Schneider is Senior Vice President, Global Commercial Services Technologies at American ...
p80
sg5
VSenior Technical Woman Profile: Yvonne Schneider, Senior Vice ...
p81
sa(dp82
g3
VAMERICAN FILM INSTITUTE APPOINTS TOM WEST SENIOR VICE PRESIDENT OF ADVANCEMENT West to Spearhead Fundraising Initiatives for AFI LOS ANGELES, CA, February 22, 2011 ...
p83
sg5
VAMERICAN FILM INSTITUTE APPOINTS TOM WEST SENIOR VICE PRESIDENT OF ...
p84
sa(dp85
g3
V... Reading and Cases in African-American ... TIFFANY MANUEL is a fellow with the Institute and Senior Vice President of Knowledge, Impact and Strategy at Enterprise ...
p86
sg5
VFrameworks Institute: Changing the Public Conversation about ...
p87
sa(dp88
g3
VThe Hartford has promoted Scott Lewis to senior vice president and ... He is a member of the American Institute of Certified ... as well as Enterprise ...
p89
sg5
VThe Hartford Promotes Scott Lewis To Senior Vice President And ...
p90
sa(dp91
g3
VCHENEY, Richard Bruce, a Representative from Wyoming and a Vice President of the United States; ... senior fellow, American Enterprise Institute 1993-1995; ...
p92
sg5
VCHENEY, Richard Bruce - Biographical Information
p93
sa(dp94
g3
VChris Vogel, senior vice president, ... Lean Enterprise Institute and the leaper image are registered trademarks of Lean Enterprise Institute, Inc. ...
p95
sg5
VChris Vogel, senior vice president, Wells Fargo Home and Consumer ...
p96
sa(dp97
g3
VHe is a fellow of the Casualty Actuarial Society and a member of the American ... Senior Vice President of Business ... Vice President, Enterprise Risk ...
p98
sg5
VErie Insurance Continues To Strengthen Leadership Team With New ...
p99
sa(dp100
g3
VVice president for research and senior fellow at Technology Policy Institute ... American Enterprise Institute. Nonprofit; 51-200 employees; Think Tanks industry
p101
sg5
VScott Wallsten | LinkedIn
p102
sa(dp103
g3
VA transcript of former Vice President Dick Cheney's historic speech at the American Enterprise Institute on May 21, 2009 in response to President Barack Obama's ...
p104
sg5
VTranscript of Former Vice President Dick Cheney's Speech on ...
p105
sa(dp106
g3
VDiana L. Moss is Vice President as well as a Director and Senior Research Fellow of the AAI. She specializes in the economics of antitrust, regulation, and energy and ...
p107
sg5
VDiana L. Moss | American Antitrust Institute
p108
sa(dp109
g3
VK T Shailaja and Dhanalakshmi Janardhan D of BJP have been elected president and vice-president respectively of Dakshina Kannada ... The Senior Superintendent ...
p110
sg5
VUS President: Latest News on US President at Times of India
p111
sa(dp112
g3
V... an Enterprise Resource Planning ... Institute of Technology with a bachelor ... Group and served as Senior Vice President for American ...
p113
sg5
VAbout Gartner: Management
p114
sa(dp115
g3
VMay 10, 2013 SAP Store Continues to Revolutionize Enterprise e-Commerce \u203a May 10 ... Senior Vice President and General Manager, Strategic Customer Program.
p116
sg5
VMeet the SAP North America Leadership Team
p117
sa(dp118
g3
V... Bolton was Senior Vice President of the above mentioned ... from their Republican "thinktanks," like the American Enterprise Institute ...
p119
sg5
VThe JEWS who Run Bush and the USA - Second Coming of Christ
p120
sa(dp121
g3
VEnterprise Holdings Name Christine Taylor-Broughton Senior Vice President of North American Operations
p122
sg5
VEnterprise Holdings Name Christine Taylor-Broughton Senior Vice ...
p123
sa(dp124
g3
VRiverside Rehabilitation Institute; ... He is a Fellow in the American College of Healthcare Executives. ... Senior Vice President and Chief Financial Officer ...
p125
sg5
VAbout Riverside - Our Leadership
p126
sa(dp127
g3
VSenior Vice President, ... American Beverage Association ... President's Advisory Board, Georgia Institute of Technology, Atlanta
p128
sg5
VPepsiCo Our Leadership | PepsiCo.com
p129
sa(dp130
g3
VAmerican Home Shield. Mark ... As Senior Vice President of ... Norden is an active board member of Boston University's Human Resources Policy Institute and is also a ...
p131
sg5
VExecutive Leadership | ServiceMaster
p132
sa(dp133
g3
V... Competitive Enterprise Institute. ... Vice President, Pacific Research Institute for Public Policy. ... Association of American Railroads; Senior Policy Analyst, ...
p134
sg5
VThe Directory of Environmental Scientists and Economists
p135
sa(dp136
g3
VView the photo Enterprise Holdings Names Christine Taylor-Broughton as Senior Vice President of North American Operations on Yahoo! Finance. Find more ...
p137
sg5
VEnterprise Holdings Names Christine Taylor-Broughton as Senior ...
p138
sa(dp139
g3
VVice President for Research ... Larson Institute receives $6 million federal grant. ... Follow Penn State's world-class research enterprise.
p140
sg5
VVice President for Research \u2014 Penn State University
p141
sa(dp142
g3
VThe Hartford Promotes Scott Lewis To Senior Vice President And ... He is a member of the American Institute of Certified Public ... as well as Enterprise ...
p143
sg5
VThe Hartford Promotes Scott Lewis To Senior Vice President And ...
p144
sa(dp145
g3
VThe Hartford has promoted Scott Lewis to senior vice president and ... He is a member of the American Institute of Certified ... as well as Enterprise ...
p146
sg5
VThe Hartford Promotes Scott Lewis To Senior Vice President And ...
p147
sa(dp148
g3
VAnne C. Kubisch is the Director of the Roundtable on Community Change at The Aspen Institute. ... Vice President, ... Barnes served as senior... Our People.
p149
sg5
VOur People | The Aspen Institute
p150
sa(dp151
g3
VThe Center for American Progress is an independent nonpartisan educational institute ... Special Assistant to the Senior Vice President ... American Progress provides ...
p152
sg5
VSpecial Assistant to the Senior Vice President, Operations ...
p153
sa(dp154
g3
V... the research enterprise ... of Rochester and Senior Associate Vice President and Chief ... member of the American Institute of Certified Public ...
p155
sg5
VGeisinger Leadership
p156
sa(dp157
g3
VAmerican Institutes for Research Vice President ... Institute of the American Association of Retired Persons, and a senior fellow at the Urban Institute. ...
p158
sg5
VAmerican Institutes for Research Vice President Marilyn Moon ...
p159
sa(dp160
g3
VHe has served as chair of Edison Electric Institute, ... Programs and Enterprise Risk Management and as ... as senior vice president of American Water ...
p161
sg5
VAmerican Water - Leadership
p162
sa(dp163
g3
VRemarks of former vice president Richard B. Cheney to the American Enterprise Institute on ... Every senior official who has been briefed on these classified ...
p164
sg5
VFull text of Cheney's speech | McClatchy
p165
sa(dp166
g3
V... Senior Vice President & Chief Communications & Marketing Officer. ... Vice President, Enterprise Planning. ... Vice President, Editor-in-Chief, American Medical News.
p167
sg5
VAMA Senior Management Team - American Medical Association
p168
sa(dp169
g3
VSenior Executive Vice President and Chief Financial Officer. The Walt Disney Company. Brent Woodford. Senior Vice President, Planning and Control.
p170
sg5
VManagement Team | The Walt Disney Company
p171
sa(dp172
g3
VHe previously served as group president of Symantec\u2019s Enterprise Products and Services, and senior vice president of ... Institute of Technology ...
p173
sg5
VFrancis deSouza, President, Products and Services, Office of the ...
p174
sa(dp175
g3
VSenior Vice President of Enterprise Risk American Red Cross; Chief of Staff ... senior vice president of Enterprise Risk at the American Red Cross, ...
p176
sg5
VLeigh Bradley | ZoomInfo.com
p177
sa(dp178
g3
VFormer Vice President Dick Cheney delivers ... In his address to the American Enterprise Institute , ... "The fact is that senior officials in the United States ...
p179
sg5
VFull transcript: Dick Cheney's speech to the American Enterprise ...
p180
sa(dp181
g3
VBefore joining VWR, he held the position of Senior Vice President, Chief Marketing Officer for Cardinal Health, Inc. based in Geneva, Switzerland, ...
p182
sg5
VVWR International, LLC - Executive Officers
p183
sa(dp184
g3
VFrom 2006-2009 he was Senior Vice President of the Institute for Healthcare Improvement (IHI) ... A Lifetime Fellow of the American College of Healthcare Executives, ...
p185
sg5
VJim Conway | LinkedIn
p186
sa(dp187
g3
V... Harvard Business School Social Enterprise Initiative, ... the Institute of Medicine and the American Academy of ... Patrick is Senior Vice President, ...
p188
sg5
VExecutive Team
p189
sa(dp190
g3
VHe was Senior Vice President and Secretary of ... is a member of the American Institute of Certified Public ... committee and serves as enterprise risk ...
p191
sg5
VAmerican States Water Co (AWR) People | Reuters.com
p192
sa(dp193
g3
VWINTHROP NAMES PALMIRA M. CATALIOTTI, CPA, FHFMA, SENIOR VICE PRESIDENT. ... organizations including the American Institute of Certified Public Accountants and ...
p194
sg5
VWinthrop Names Palmira M. Cataliotti, CPA, FHFMA, Senior Vice ...
p195
sa(dp196
g3
VThe goal at Enterprise isn\u2019t to be the biggest, we simply work hard to be the best car rental company \u2013 and it shows with our award winning Enterprise Rent-A-Car ...
p197
sg5
VAbout Enterprise \u2013 Customer Service is Our Way of Life
p198
sa(dp199
g3
VMr. Daniel H. Schulman is Group President - Enterprise Growth of American ... He is a Trustee of The Cooper Institute and a ... Senior Vice President and Head of ...
p200
sg5
VAmerican Express Co (AXP) People | Reuters.com
p201
sa(dp202
g3
V... D.C.\u2014The Nuclear Energy Institute today announced two ... News & Events > NEI Elects Rich Senior Vice President ... American Society for Training and ...
p203
sg5
VNuclear Energy Institute - NEI Elects Rich Senior Vice President ...
p204
sa(dp205
g3
VPreviously, he was Senior Vice President, ... Jasek is a member of the Society of Petroleum Engineers and the American Petroleum Institute.
p206
sg5
VNewfield Exploration Company is an independent crude oil and ...
p207
sa(dp208
g3
VCounselor to the President Peter Rouse; Senior Advisor Valerie Jarrett; Executive Office of the President; Other Advisory Boards; ... The Vice President's Schedule;
p209
sg5
VThe White House, President Barack Obama
p210
sa(dp211
g3
VMost recently he acted as senior vice president of the Enterprise Business ... and also led the North American sales and ... from Singapore Institute of ...
p212
sg5
VRealize the Future with HP
p213
sa(dp214
g3
VProfessor Matthew Swindells, senior vice president and managing director, Global Consulting, ... Tiger Institute. Joanne Burns is Cerner vice president, ...
p215
sg5
VCerner | Leadership
p216
sa(dp217
g3
VThe vice president of medical affairs could run ... immediate past president of the American Association of ... It would be more efficient to institute a rational ...
p218
sg5
VCollege Presidents' Salaries - The Chronicle Review - The ...
p219
sa(dp220
g3
VShe is a member of the American College of Healthcare Executives and has ... Senior Vice President for ... Physician Enterprise; Research Institute ...
p221
sg5
VAbout AAMC| Anne Arundel Medical Center | Annapolis, Maryland
p222
sa(dp223
g3
VMarianjoy Senior Leaders. Kathleen C ... Vice President, ... in 1978 and is a member of various professional organizations including the American Institute of ...
p224
sg5
VMarianjoy Rehabilitation Hospital -- Board of Directors and Senior ...
p225
sa(dp226
g3
VInstitute for African-American e-Culture Portland State Universities. ... Senior Vice President - Enterprise Sprint Business Solutions Sprint Nextel Corporation.
p227
sg5
VThe 100 Most Important Blacks in Technology for 2006
p228
sa(dp229
g3
VVice President \u2013 American Express. 38 Salaries. $160,712: $140k. $186k. Vice President \u2013 AllianceBernstein. 35 Salaries. ... Senior Vice President; Vice President ...
p230
sg5
VVice President Salary | Glassdoor
p231
sa(dp232
g3
VFind a vice president of sales job description and get a free salary report. INDIVIDUALS; EMPLOYERS; ... Senior Vice President (SVP), Sales $98,806 - $301,055
p233
sg5
VVice President (VP), Sales Salary & Job Description | PayScale
p234
sa(dp235
g3
VRochester Institute of Technology: Richard L. Ehrlickman Vice President General Patent Corp President IPOfferings LLC: ... Senior Vice President Res Publica Group ...
p236
sg5
VAdvisory Board | DeVry University - On Campus & Online College ...
p237
sa(dp238
g3
VNew American University; A-Z Index; ... Herberger Institute for. Kwang-Wu Kim ... Senior Vice President President, ASU Alumni Association .
p239
sg5
VASU Leadership
p240
sa(dp241
g3
VAnna Marie Dunlap Senior Vice President, Investor Relations and Corporate Communications
p242
sg5
VCorinthian Colleges, Inc. - Executive Management
p243
sa(dp244
g3
VHe is member of the American Bankers ... He's a board member of the James Cancer Hospital and Solove Research Institute; ... Senior Vice President and Manager ...
p245
sg5
VExecutive Officers - Huntington
p246
sa(dp247
g3
VMr. Diehl is a member of the American Institute of CPAs and ... Manufacturing, Technology & Global Enterprise Chrysler ... Bill Krueger is Senior Vice President, ...
p248
sg5
VAutomotive News Manufacturing Conference | Speakers
p249
sa(dp250
g3
VHenry Olsen is a vice president of the American Enterprise Institute, which publishes the \u201cValues and Capitalism\u201d book series, ...
p251
sg5
VOLSEN: Dangers of academia's 'indoctrination mills' - Washington Times
p252
sa(dp253
g3
VInstitute Fellows; History ... Cheryl Vince Whitman Will Join the American Institutes for Research as Senior ... Whitman has served as senior vice president and ...
p254
sg5
VCheryl Vince Whitman Will Join AIR as Senior Vice President ...
p255
sa(dp256
g3
VOffice of Knowledge Enterprise Development Fulton Center, 3rd Floor: 300 E University Drive. | PO Box 877205, Tempe, AZ 85287-7205
p257
sg5
VASU Research | Office of Knowledge Enterprise Development
p258
sa(dp259
g3
VSenior vice president and general counsel, Merck & Co., Inc., 1999-2006 ; Read bio: ... Enterprise Architecture & Strategic Planning Information Services, ...
p260
sg5
VExecutive Committee
p261
sa(dp262
g3
VEric had been named senior vice president ... He is a certified public accountant in the state of Washington and a member of the American Institute of Certified ...
p263
sg5
VExecutive Profiles - Pinnacle - An American Management Services ...
p264
sa(dp265
g3
V... Colorado for the American Enterprise Institute World ... created the AEI World Forum to annually gather senior business ... Vice President ...
p266
sg5
VFormer President Gerald R. Ford stands with Vice President Dick ...
p267
sa(dp268
g3
VPavan Bagai is the head of enterprise wide ... Pavan joined EXL after a 17-year career at Bank of America where he held senior ... Executive Vice President ...
p269
sg5
VOutsourcing and analytics Executive Profiles - EXL
p270
sa(dp271
g3
VThe American Council on ... The ACE Institute for New Presidents strives to ensure new presidents find long-term ... Senior Vice President for Leadership ...
p272
sg5
VLeadership Programs - The American Council on Education
p273
sa(dp274
g3
VSenior Vice President Office ... The Kathryn and Shelby Cullom Davis Institute for ... conservative public policies based on the principles of free enterprise, ...
p275
sg5
VTeam - Conservative Policy Research and Analysis
p276
sa(dp277
g3
VSenior Vice President, Global Enterprise Theater and Enterprise Sector. Faiyaz Shahpurwala Senior Vice President, Industry Solutions and India Site Leader. Jim Sherriff
p278
sg5
VExecutive Bios - The Network: Cisco's Technology News Site
p279
sa(dp280
g3
VHe is a member of the American Academy ... and serves as an advisory director for Enterprise Holdings ... Michael J. Petrie is a Senior Vice President of ...
p281
sg5
VOfficers & Directors | Commerce Bank
p282
sa(dp283
g3
VVeteran American Meat Institute Lobbyist Mike Brown Named Senior Vice President of Legislative Affairs Monday, April 28, 2003 ...
p284
sg5
VVeteran American Meat Institute Lobbyist Mike Brown Named Senior ...
p285
sa(dp286
g3
VNational Vice President, Strategy American Cancer ... National Community Development Institute, and Nonprofit Enterprise at ... Vice President and senior lender at ...
p287
sg5
VNonprofit Finance Fund | Where Money Meets Mission
p288
sa(dp289
g3
VSenior Vice President, Chief Accounting Officer Keith Hicks Senior Vice President and Chief People Officer Ticker: MDAS: Exchange: NASDAQ: Last Price: 18.47: Change ...
p290
sg5
VMedAssets, Inc. - Executive Management
p291
sa(dp292
g3
VAlso on Team Newt is AFPC Vice President Ilan Berman and AFPC Senior ... Dr. Wurmser founded the Middle East studies program at the American Enterprise Institute ...
p293
sg5
VMeet Newt\u2019s foreign-policy brain trust | The Cable
p294
sa(dp295
g3
V... in October 1999 and promoted to senior vice president in ... of the American Institute of Certified Public ... Enterprise, Inc. Vice President, ...
p296
sg5
VBoard of Trustees
p297
sa(dp298
g3
VHe is Senior Political Analyst for the Washington Examiner and a Resident Fellow at the American Enterprise Institute, ... he was vice president of ... he was senior ...
p299
sg5
VMichael Barone - Conservative Columnist and Political Commentator
p300
sa(dp301
g3
V... when Vice President George H.W. Bush was campaigning as a ... Henry Olsen is a vice president of the American Enterprise Institute and the director of its ...
p302
sg5
VA GOP Dark Horse? > Publications > National Affairs
p303
sa.