(lp1
(dp2
S'description'
p3
VPrince Edward to marry ... "Getting married is a very personal thing. ... He wrongly predicted they would get engaged on the prince's 30th birthday in March 1994.
p4
sS'title'
p5
VBBC News | UK | Prince Edward to marry
p6
sa(dp7
g3
VThe Prince's engagement to Sophie Rhys-Jones, ... His Royal Highness The Prince Edward Antony Richard Louis, ... As Edward's 1999 marriage approached, ...
p8
sg5
VPrince Edward, Earl of Wessex - Wikipedia, the free encyclopedia
p9
sa(dp10
g3
VPrince Edward announces his engagement to Sophie Rhys-Jones and their plans for a family wedding ... Prince Edward married Sophie Rhys-Jones at St George's Chapel in ...
p11
sg5
VBBC - History - Prince Edward's wedding (pictures, video, facts ...
p12
sa(dp13
g3
VThis past Tuesday, April 24th, marked the 27th anniversary of the death of the most scandalous woman to ever marry into the British Royal family, American-born Wallis ...
p14
sg5
V27th Anniversary of Britain's most scandalous woman's death ...
p15
sa(dp16
g3
VWill you marry this person, ... FELL AND LOVE AND MARRIED. Prince Edward is the youngest son of Britain's Queen Elizabeth. He married Sophie Rhys-Jones on June 19, ...
p17
sg5
VPrince Edward and Sophie Rhys-Jones marriage
p18
sa(dp19
g3
V... there was ample reason for Great Britain's Prince Edward and his ... the June 1999 marriage of Queen Elizabeth II's youngest son to the public relations ...
p20
sg5
VGreat Royal Weddings: Prince Edward and Sophie Rhys-Jones
p21
sa(dp22
g3
VBritain's Prince William asked his girlfriend Kate Middleton to marry him, ... (married to Prince Charles' brother, Edward), ...
p23
sg5
VPrince William gives Diana's ring to fiancee Kate Middleton - CNN.com
p24
sa(dp25
g3
VEdward Hadas; Hugo Dixon; Ian ... Britain's Prince William will marry his long-term girlfriend Kate ... blue oval sapphire and diamond engagement ring his ...
p26
sg5
VPrince William to marry girlfriend Kate Middleton | Reuters
p27
sa(dp28
g3
V... "W.E.," which explores the relationship between commoner Wallis Simpson and Britain's King Edward ... Edward VIII wanted to marry ... prince Edward married ...
p29
sg5
VWallis Simpson News, Photos and Videos - ABC News
p30
sa(dp31
g3
VNow she\u2019s engaged to marry Prince Rahim ... King Edward IV of England abdicated the throne in order to marry her. They remained married until Edward died ...
p32
sg5
VKendra Spears: from supermodel to princess \u2014 plus other ...
p33
sa(dp34
g3
VPrince William is engaged to kate Middleton. ... Britain's Prince William and his fiancee, ... are to be married April 29 at Westminster Abbey in London.
p35
sg5
VPrince William engaged to Kate Middleton; royal couple to marry in ...
p36
sa(dp37
g3
V... Britain's Prince William, ... In Britain Edward, the Duke of Windsor, marries commoner Wallis Simpson, ... Prince William 'to marry Kate Middleton in ...
p38
sg5
VWhen royals tie the knot with commoners - Economic Times
p39
sa(dp40
g3
V... should those of us following the engagement of Britain's Prince William to ... Prince Edward is still in his first marriage. ... was free to marry again in any ...
p41
sg5
VPostPartisan - Prince William, Kate Middleton and 'obsolete' marriage
p42
sa(dp43
g3
VPrince William and his brother Harry are about gain a new cousin: Their uncle, Prince Edward, and his wife Sophie are expecting their second child in December. "The ...
p44
sg5
VPrince Edward, Wife Sophie Expecting Baby No. 2 - Pregnancy ...
p45
sa(dp46
g3
VThe wedding of Prince Edward, Earl of Wessex and Sophie Rhys-Jones took place on 19 June 1999 in St George's Chapel at Windsor Castle. The Queen's youngest child, The ...
p47
sg5
VWedding of Prince Edward, Earl of Wessex, and Sophie Rhys-Jones ...
p48
sa(dp49
g3
VBritain's Prince William will reportedly marry in 2012. ... and believe delaying the engagement announcement will give ... A source told Britain's News of the ...
p50
sg5
VPrince William And Girlfriend Kate Middleton To Marry In 2012
p51
sa(dp52
g3
VAt 1100GMT Buckingham Palace made the engagement official. ... Prince Charles and Lady Diana married in St Paul's Cathedral watched by 3,500 invited ... Britain's big ...
p53
sg5
VBBC ON THIS DAY | 24 | 1981: Prince Charles and Lady Di to marry
p54
sa(dp55
g3
VYet, in order to marry the woman he loved, King Edward was willing to give up the ... but also a married woman already once ... Prince Edward's Struggle Between ...
p56
sg5
VKing Edward VIII Abdicated to Marry Mrs. Wallis Simpson
p57
sa(dp58
g3
VMeet the women who could bag Britain's last eligible prince. By ... to get married, Prince Harry is Britain's most ... struggling with her son Edward ...
p59
sg5
VWho will marry Prince Harry: The women who could bag Britain's ...
p60
sa(dp61
g3
V... that got Prince Edward to the church ... married commoner Sophie ... The weeks following their January engagement announcement had been difficult ...
p62
sg5
VEdward & Sophie - Weddings, The British Royals, Prince Edward ...
p63
sa(dp64
g3
VPrince Edward has a TERRIBLE reputation worldwide ... to run away and 50% wanting to marry. I\u2019ve been reluctantly married for ... before their engagement: ...
p65
sg5
V103 Responses to \u201cCharlene Wittstock & Prince Albert are married ...
p66
sa(dp67
g3
V... Britain's Marriage Act allows ... King Edward VIII impending marriage to Wallis Simpson was ... The largest obstacle for Prince Charles and is Camilla is ...
p68
sg5
VWhy do Prince Charles and Camilla have permission to marry ...
p69
sa(dp70
g3
VEdward VIII abdicated his throne to marry ... These were expectations he did not want. As the Prince ... including Britain's secrets of state. Edward not only ...
p71
sg5
VThe Abdication Of King Edward VIII - Essortment Articles: Free ...
p72
sa(dp73
g3
V... Prince Edward, William's uncle, married PR executive Sophie Rhys-Jones in 1999. (Watch the royal couple's first post-engagement interview.) How did Prince ...
p74
sg5
VPrince William's royal wedding: An instant guide - The Week
p75
sa(dp76
g3
VKing Edward VIII was the eldest child of Britain's King George V ... and when she met the prince she was married to her ... The king was determined to marry ...
p77
sg5
VRoyalty.nu - Edward VIII and Wallis Simpson, the Duke and Duchess ...
p78
sa(dp79
g3
VAfter getting married the ... "The Prince of Wales is delighted to announce the engagement of Prince ... Tech City has been the focus of Britain's tech ...
p80
sg5
VPrince William to marry Kate Middleton next year - Home News - UK ...
p81
sa(dp82
g3
VBritain's monarch arrived at the chapel by car for the traditional Matins service conducted by the Dean ... Prince Edward, ... Sam Branson marries Isabella Calthorpe;
p83
sg5
VThe Queen, Prince Philip, Princess Beatrice, Princess Eugenie ...
p84
sa(dp85
g3
V... Britain's Prince William and Kate ... 2010, the couple are engaged, and will be married in ... Prince William is to marry his longtime ...
p86
sg5
VPrince William and Kate Middleton engagement
p87
sa(dp88
g3
VYet, for some reason, Prince Edward preferred married women ... and power of being close to the heir of Britain's ... Edward VIII Abdicated to Marry Mrs ...
p89
sg5
VKing Edward VIII Abdicated for Love - Page 2 - 20th Century History
p90
sa(dp91
g3
VPrince Edward who is married to Sophie does not ... to strengthen Britain's diplomatic and ... be unable to attend every engagement to which she ...
p92
sg5
VWhat job does Prince edward do? - Yahoo! UK & Ireland Answers
p93
sa(dp94
g3
VPrince William and his longterm girlfriend Kate Middleton are to marry next year. Their formal engagement will ... married when he ... 29, Prince Edward's ...
p95
sg5
VPrince William and Kate Middleton to marry next year - Mirror Online
p96
sa(dp97
g3
VSimpson had been married ... Edward was officially invested as Prince of Wales in a ceremony at Caernarvon ... and expressed his plans to marry Wallis ...
p98
sg5
VEdward VIII of the United Kingdom - Simple English Wikipedia, the ...
p99
sa(dp100
g3
VMichael Cole reports from Westminster Abbey as Prince Andrew marries Sarah ... An engagement followed in early 1986 and the ... with Prince Edward as the ...
p101
sg5
VBBC - History - Prince Andrew's wedding (pictures, video, facts ...
p102
sa(dp103
g3
V... by Britain\u2019s royal family on ... On her engagement to Prince Edward, she made it clear that she intended to continue with her career when she was married.
p104
sg5
VPrince William and Catherine Middleton: The Royal Wedding of 2011 ...
p105
sa(dp106
g3
VAskville Question: What year did Prince Charles and Camilla get married? : Other. Ask a Question Ask the community | Categories ... Engagement and wedding to Camilla
p107
sg5
VWhat year did Prince Charles and Camilla get married?
p108
sa(dp109
g3
VThe Last Marriage of a Prince of ... the first of their children to marry, became the wife of Prince ... Highness Albert Edward Prince of Wales and Her Royal ...
p110
sg5
VThe Last Marriage of a Prince of Wales, 1863 | History Today
p111
sa(dp112
g3
VBritain's Prince William is to marry his long-term girlfriend, ... about the news of Prince William's engagement to Kate ... Prince Edward's wife and Prince ...
p113
sg5
VPrince William Kate Middleton engaged | Royal Wedding | reaction
p114
sa(dp115
g3
VThey fell in love and wanted to get married, ... Prince Edward Antony Richard Louis, ... Has visited the sets of Britain's most popular soap operas "Coronation ...
p116
sg5
VQueen Elizabeth II - Biography
p117
sa(dp118
g3
V... bringing a touch of simple elegance as they made their first official public engagement as a married ... William and Kate arrive at Prince Edward ...
p119
sg5
VKate Middleton and Prince William's first year of marriage looked ...
p120
sa(dp121
g3
VWhy did Prince Charles ... in love with and wanted to marry Andrew Parker Bowles.She ... James Palace announced her engagement to Prince ...
p122
sg5
VWhy did Prince Charles wait until he was 30 to get married ...
p123
sa(dp124
g3
VIt was finally arranged for Prince Eddy to marry his distant cousin Princess Mary of Teck. ... The Marriage of King Edward VII of Great Britain Emily Chauviere.
p125
sg5
VThe Children of King Edward VII of Great Britain | Suite101
p126
sa(dp127
g3
V... Prince William and Prince Harry. The marriage was soon a rocky one; both of them engaged in affairs and lived separately by ... Prince Edward and Sophie Rhys ...
p128
sg5
VRoyal Wedding - The Royal Marriages - How Royal Marriages Have Fared
p129
sa(dp130
g3
VBritain's Prince William and his bride Catherine ... William married his fiance ... Sophie,The Countess of Wessex--wife of Prince Edward. Anne, The Princess ...
p131
sg5
VThe British Royal Family - The History Guy: A Resource for History ...
p132
sa(dp133
g3
VWhat is the royal family of Britain's last name? 5 years ago; ... Prince Edward, ... other than female descendants who marry or who have married, ...
p134
sg5
VWhat is the royal family of Britain's last name? - Yahoo! Answers
p135
sa(dp136
g3
V... biggest royal wedding since Prince Charles married Lady Diana ... to marry - could it be Love Bingo. Engagement imminent for ... of Edward III of ...
p137
sg5
VPrince William, Kate Middleton ENGAGED: Royal Wedding Next Year
p138
sa(dp139
g3
VEdward VIII abdicated after less than one year on the throne to marry twice ... Prince William (L ... Kendra Spears Engaged To Prince Rahim Aga Khan ...
p140
sg5
VKing Edward VIII's Abdication 76 Years Later: Could It Happen Today?
p141
sa(dp142
g3
V... and it is speculated that they will be announcing their engagement ... down to marry,like Prince Michael of Kent did ... marriage.---Edward ...
p143
sg5
VWhat happens if a Prince or Princess marries a commoner? - Yahoo ...
p144
sa(dp145
g3
VPrince Philip, the husband of Britain's Queen Elizabeth, ... in order to marry Wallis ... 1937 Edward and Wallis Simpson married in a secluded Chateau de Cande in the ...
p146
sg5
VPrince Philip back on UK royal duty after illness - TODAY News ...
p147
sa(dp148
g3
VFamily Tree of Britain's Queen Victoria and Prince Albert. ... married Prince Adolf of Schaumburg-Lippe and Alexander ... King of England as Edward VII ...
p149
sg5
VQueen Victoria's Children and Grandchildren
p150
sa(dp151
g3
VPrince Harry And Chelsy Davy To Walk Down The Aisle? Couple's Best Friends To Marry Next Summer. Harry Potter castle heiress to marry Harry's right hand man - but ...
p152
sg5
VPrince Harry And Chelsy Davy To Walk Down The Aisle? Couple's Best ...
p153
sa(dp154
g3
VEdward was born in 1312. He was married to Philippa, ... Edward invaded France. He engaged the French forces near Crecy. ... in June 1330 Prince Edward, ...
p155
sg5
VEdward III, 1327-1377 - Camelot International: Britain's Heritage ...
p156
sa(dp157
g3
VHere is a biography on the life of Edward VIII. ... Coronated Prince of Wales in 1911 ... an American married to a British subject
p158
sg5
VEdward VIII - Biography of Edward VIII - King of England
p159
sa(dp160
g3
VTo Marry an English ... I would recommend this biography to any student of Britain's Royal Family or historian of ... The marriage of the Prince and Princess ...
p161
sg5
VEdward the Caresser: The Playboy Prince Who Became Edward VII ...
p162
sa(dp163
g3
V... that between Prince Albert Edward ... He is said to be one of Britain's ... * Queen Victoria set two crucial royal wedding dress trends when she married Prince ...
p164
sg5
VThe Royal Wedding: Trees, tiaras and trestle tables - This Britain ...
p165
sa(dp166
g3
VH.R.H. Prince Edward to Miss Sophie Rhys-Jones . ... Edward and Sophie were perhaps hoping that the fates would be kinder to the outcome of their marriage.
p167
sg5
VA wedding royal - H.R.H. Prince Edward to Sophie Rhys-Jones
p168
sa(dp169
g3
V... the Prince and Miss Sophie Rhys-Jones announced their engagement, ... Prince Edward became Earl of Wessex and Viscount Severn on his marriage; ...
p170
sg5
VThe Earl and Countess of Wessex profile: news, photos, style ...
p171
sa(dp172
g3
V"When are you getting married?" William Titchsmarsh asked Prince William ... I was rather anxious he might get caught up in marriage mania and marry ...
p173
sg5
VPrince Harry: Not Getting Married 'for a Long Time' | PopEater.com
p174
sa(dp175
g3
VThe couple will live in North Wales after they marry; ... Joint engagement for Prince William & Prince Charles on May 21: ... Prince Edward & Sophie;
p176
sg5
VPrince William & Kate Middleton's Engagement: The Day After ...
p177
sa(dp178
g3
V... are expecting their first child after 19 months of marriage. | Prince ... Prince William leaves the King Edward VII hospital ... Britain's Prince William and ...
p179
sg5
VPrince William, Kate to name baby after Diana? - Rediff.com News
p180
sa(dp181
g3
VWhy did Edward VIII have to give up the throne to marry a divorcee but Prince Charles is still in line to ... Edward VIII married Wallis Simpson but had already ...
p182
sg5
VBritish Royal Family History - Frequently Asked Questions
p183
sa(dp184
g3
VBritain's royalty and nobility ... Prince Edward did become King Edward VIII ... Edward abdicated the throne because he wanted to marry a twice-divorced ...
p185
sg5
VWho are the Duke of York, Duke of Kent, etc., and how did they get ...
p186
sa(dp187
g3
VBritain's Prince Harry has moved into the ... The ability to engage with ... Prince William and his wife Catherine touched down in Prince Edward ...
p188
sg5
VPrince William of Wales: News & Videos about Prince William of ...
p189
sa(dp190
g3
V... Prince William and Kate Middleton to marry on April 29 Prince ... who revealed their engagement ... the Prince of Wales, whose second marriage ...
p191
sg5
VRoyal Wedding Date: Prince William and Kate Middleton to marry on ...
p192
sa(dp193
g3
V... This is a 1981 file photo of the engagement rings of Britain's Prince Charles ... Britain's Prince Edward and his bride ... will marry Britain's Prince ...
p194
sg5
VRoyal weddings in history (Photos) | OregonLive.com
p195
sa(dp196
g3
VBritain's Duchess of Cambridge has left London's King Edward VII Hospital ... wore to her first engagement as a married ... to marry Britain's Prince William ...
p197
sg5
VKate Middleton News - Entertainment and World News on Monsters and ...
p198
sa(dp199
g3
VInformation on the celebrity engagement, wedding and marriage of Prince ... married to a divorcee. King Edward VIII had to abdicate the throne to marry ...
p200
sg5
VPrince Charles and Camilla Parker Bowles Marriage Profile -- The ...
p201
sa(dp202
g3
VKing Edward VIII, Wallis Simpson, Prince ... Yes it does seem rather unfair that Charles was allowed to marry Camilla and Edward had ... Edward could have married ...
p203
sg5
VRoyalty: How can Charles become king?, King Edward VIII, Wallis ...
p204
sa(dp205
g3
VWhen Edward, Prince of Wales met M... ... Britain's next king. Wallis Simpson was a married American woman who had been previously married and divorced ...
p206
sg5
VMovies About King Edward and Wallis Simpson
p207
sa(dp208
g3
VBRITAIN\u2019S Prince William will marry ... \u201cWilliam has always said he will be ready for marriage ... including the 18-karat sapphire and diamond engagement ...
p209
sg5
VPRINCE WILLIAM AND KATE MIDDLETON\u2019S WEDDING TO COST THE BRITISH ...
p210
sa(dp211
g3
VThe marriage of Edward ... Norfolk heir Edward van Cutsem is to marry the daughter of Britain's richest ... Edward, 30, a close friend of Prince William ...
p212
sg5
VRootsWeb's WorldConnect Project: June Ferguson's Royal Genealogy Page
p213
sa(dp214
g3
V... Clarence House today announced the engagement of Prince William ... remote areas of the country such as Prince Edward ... Britain's Prince William ...
p215
sg5
VPHOTOS: Will and Kate | 9news.com
p216
sa(dp217
g3
VWearing the blue sapphire and diamond engagement ring that the prince's ... The prince asked Middleton to marry him ... since Anne Hyde married the ...
p218
sg5
VPrince William and Kate Middleton engagement announced | UK news ...
p219
sa(dp220
g3
V"The Duchess was admitted this afternoon to King Edward VII Hospital in ... announce the engagement of Prince William to Miss ... of Britain's centuries-old ...
p221
sg5
VPrince William, Kate Middleton, Baby News, Biography, Quotes
p222
sa(dp223
g3
V... while King Edward VIII was Prince of Wales, ... give up the idea of marriage; marry against the prime minister's wishes; ... after being engaged for two years.
p224
sg5
VBarely Regal: A Timeline of British Royal Scandals | Infoplease.com
p225
sa(dp226
g3
VHe was born as a prince in Germany, and when he married one of the most powerful people ... British political tradition decreed that a monarch could not marry a ...
p227
sg5
VBiography of Prince Albert | Husband of Queen Victoria
p228
sa(dp229
g3
V... Britain's Prince William and his wife ... was in the King Edward VII Hospital in central ... the first "commoner" to marry a prince in close proximity to ...
p230
sg5
VUK's Prince William and wife Kate expecting a baby - Entertainment ...
p231
sa(dp232
g3
VWhat kind of ring did Prince William give Kate Middleton? Did he give her his mom's - PRincess Diana - engagement ... And it was the ring from a failed marriage, ...
p233
sg5
VDid Prince William Give Kate Middleton Princess Diana's Engagement ...
p234
sa(dp235
g3
VThe Queen, then Princess Elizabeth, was 21 years old when she married Prince Philip in 1947.
p236
sg5
VHow old was Queen Elizabeth when she married Prince Philip
p237
sa(dp238
g3
VAfter World War II that was not the best family pedigree for someone who wanted to marry the ... to the marriage.. Engagement. ... Prince Edward is now in a London ...
p239
sg5
VPrince Philip, Duke of Edinburgh (1921- )
p240
sa(dp241
g3
V... family""when the infant prince made his ... He did, in fact, marry Elizabeth of Glamis and ... young couple about Edward's intentions of marriage to ...
p242
sg5
VKing George VI - Essortment Articles: Free Online Articles on ...
p243
sa(dp244
g3
VHe was a 31-year-old bachelor Swedish prince, a great-grandson of Britain\u2019s ... to marry a commoner. In 1947, Crown Prince ... her marriage, Lilian did not ...
p245
sg5
VPrincess Lilian Has Died, Sweden's Great Royal Love Story
p246
sa(dp247
g3
VJust go out and get married for money. There's A LOT at ... there's little doubt that William will eventually marry long-time ... Prince William and Kate ...
p248
sg5
VPrince William and Kate Middleton: The $20 Billion Marriage! - The ...
p249
sa(dp250
g3
VHow old was Princess Diana when she married Prince Charles? ... no-charles was her only husband-future kings tend not to marry divorced women Related topics: princess ...
p251
sg5
VWhen did Princess Diana and Prince Charles get married - The Q&A wiki
p252
sa(dp253
g3
VBritain's Prince William and Kate Middleton leave the ... reportedly promised Middleton he would marry her in a secret pact made ... A Marriage & A Baby ...
p254
sg5
VPrince William to Reportedly Tie the Knot With Kate Middleton ...
p255
sa(dp256
g3
V... King Edward VIII may be best known for giving up the throne to marry ... "The royal household took steps to make sure that the prince's name did ... on Britain's ...
p257
sg5
VSex, murder and conspiracy sheds new light on Edward VIII-Book ...
p258
sa(dp259
g3
VBefore they could marry, Prince Philip was required to convert from Greek ... HRH The Prince Edward, Earl of Wessex: 10 March 1964: married (19 June 1999) Sophie ...
p260
sg5
VPrince Philip, Duke of Edinburgh - Hellenica, Information about ...
p261
sa(dp262
g3
V... Britain's Prince William and his ... was in the King Edward VII Hospital in ... the first "commoner" to marry a prince in close proximity ...
p263
sg5
VUK's Prince William and wife Kate expecting a baby | Reuters
p264
sa(dp265
g3
VBritain's Prince William and his wife ... was in the King Edward VII Hospital in central ... the first "commoner" to marry a prince in close proximity to ...
p266
sg5
VUK's Prince William and Kate Expecting a Baby
p267
sa(dp268
g3
VBrother of Edward Wessex, Princess Anne, and Prince ... He is to marry his longtime lover Camilla ... On February 24, 1981 the engagement of Prince Charles of ...
p269
sg5
VPrince Charles Windsor Biography, Bio, Profile, pictures, photos ...
p270
sa(dp271
g3
V... when King Edward VIII made it clear he wanted to marry ... If she had married ... Much more honest and better than what that Prince Charles did ...
p272
sg5
VNot-quite-so-royal wedding, circa 1937 -- thank you, Wallis ...
p273
sa(dp274
g3
VThe Princess engagement ring can be ... Britain's Prince Edward sits astride Prince Andrew as the ... Prince Charles and Camilla were married earlier in a civil ...
p275
sg5
VPhotos: The Royal Life Of Queen Elizabeth II
p276
sa(dp277
g3
VSecretly Engaged: 1946. Married: ... First Marriage: Yes. Did You Know? Prince Philip is compelled "to walk 'two steps ... Edward married Sophie Rhys-Jones. They have ...
p278
sg5
VQueen Elizabeth II and Prince Philip - Marriage -- Free Advice and ...
p279
sa(dp280
g3
VKing Edward VIII may be best known for giving up the throne to marry ... "The royal household took steps to make sure that the prince's name did ... on Britain's ...
p281
sg5
VSex, Murder And Conspiracy Shed New Light On Edward VIII - Book
p282
sa(dp283
g3
VWeeks after the formal engagement Albert ... After Edward abdicated the throne to marry the woman he ... The story book marriage did not last. Prince Charles was ...
p284
sg5
VMatchmaking Royal Marriages 1900 to 1981 - OnToplist.com
p285
sa(dp286
g3
VAlthough it was an arranged marriage George and May were deeply in ... Prince Edward in 1894, Prince ... She was engaged to marry Prince Albert Victor ...
p287
sg5
VQueen Mary - Biography
p288
sa(dp289
g3
VShe lived just eighteen months after their marriage, long enough to deliver a prince and ... But Edward did publicly ... He wanted to marry Edward VI ...
p290
sg5
VTudor Monarchs: King Edward VI - EnglishHistory.net
p291
sa(dp292
g3
V... same as they did for Price Edward's ... while they married proper ladies. That is what Prince ... Prince William didn't want to marry ...
p293
sg5
VPrince William's Royal Engagement -- What's in it for Kate ...
p294
sa(dp295
g3
VAccording to Britain's. Home; ... He is more like his father and great uncle King Edward. Like father, ... before the marriage. A prince could not marry a non-virgin.
p296
sg5
VPRINCE WILLIAM SHACKS UP WITH LONGTIME LOVER KATE MIDDLETON??
p297
sa(dp298
g3
V... were married in a fairy ... Kate Middleton made her first appearance leaving the King Edward ... Middleton's ring is the engagement ring worn by Prince ...
p299
sg5
VKate Middleton and Prince William celebrate two year wedding ...
p300
sa(dp301
g3
VEdward had been determined to marry Mrs ... In the absence of legislation that would permit the marriage, King Edward chose ... The Prince's genuine ...
p302
sg5
VThe Duke of Windsor Dies at 77 - The New York Times - Breaking ...
p303
sa.