(lp1
(dp2
S'description'
p3
V... Deng asserted the necessity of Hong Kong's return to ... administration in Hong Kong, but not British sovereignty ... in Hong Kong around the time of the ...
p4
sS'title'
p5
VTransfer of sovereignty over Hong Kong - Wikipedia, the free ...
p6
sa(dp7
g3
V'The return of Hong Kong to the motherland after a century of ... , British and Chinese ... With only an hour of sovereignty left, Foreign Secretary Robin Cook ...
p8
sg5
VChina Resumes Control of Hong Kong, Concluding 156 Years of ...
p9
sa(dp10
g3
VBeijing was full of praise yesterday for Margaret Thatcher, especially for her contribution to Sino-British relations and for negotiating the return of Hong Kong to ...
p11
sg5
VThatcher's role in Hong Kong handover draws tributes from across ...
p12
sa(dp13
g3
VForeign Secretary Lord Palmerston stressed to the Chinese Imperial Government that the British Government did not question China\u2019s ... British Hong Kong in the ...
p14
sg5
VFrench Return Rat and Rabbit Bronze Heads to Chinese As Gift ...
p15
sa(dp16
g3
VAt midnight on June 30/July 1, 1997, the crown colony of Hong Kong (see) officially reverted to Chinese sovereignty, ending 156 years of British rule. After a formal ...
p17
sg5
VHong Kong's Return To China: Year In Review 1997 (Hong Kong ...
p18
sa(dp19
g3
V"The return of Hong Kong to the motherland after a century of ... British and Chinese ... With only an hour of sovereignty left, Foreign Secretary Robin Cook ...
p20
sg5
VChina Resumes Control of Hong Kong, Ending 156 Years of British Rule
p21
sa(dp22
g3
V... when it passed to Chinese sovereignty as the Hong Kong ... but the British foreign secretary, ... Britain agreed to return all of Hong Kong to Chinese ...
p23
sg5
VExploring Chinese History :: East Asian Region :: Hong Kong
p24
sa(dp25
g3
VForeign Secretary Lord Palmerston ... that if Japan attacked Hong Kong, the Chinese National Army would ... the exercise of sovereignty over Hong Kong ...
p26
sg5
VBritish Hong Kong - Wikipedia, the free encyclopedia
p27
sa(dp28
g3
VThe People of Hong Kong . At the time of ... but the British Foreign Secretary, ... Britain agreed to return all of Hong Kong to Chinese sovereignty at the end of the ...
p29
sg5
VHong Kong - University of Colorado Boulder
p30
sa(dp31
g3
VHong Kong more than doubled to an all-time high in March as ... Hong Kong's official foreign currency reserve ... Hong Kong and mainland Chinese stocks on ...
p32
sg5
VHong Kong News - Hong Kong, 6 May 2013
p33
sa(dp34
g3
V... it was described by a very unimpressed UK Foreign Secretary, ... of Hong Kong's return to Chinese ... sovereignty from British to Chinese ...
p35
sg5
VHong Kong SAR 15 years on: Is it still Special? - CNN.com
p36
sa(dp37
g3
V... legislature for Hong Kong. Secretary of State ... Hong Kong safely returned to Chinese sovereignty, ... barren rock" that the British foreign secretary, ...
p38
sg5
VAfter 156 Years, It's Hong Kong, China - Washington Post: Breaking ...
p39
sa(dp40
g3
V... was returned to Chinese sovereignty. ... British flag lowered for last time at Hong Kong Government House; ... China controls Hong Kong's foreign and defence ...
p41
sg5
VOn This Day: Britain Returns Hong Kong to China
p42
sa(dp43
g3
VStill haven't subscribed to Time Out Hong Kong? ... to include the British Foreign Secretary, ... take back its sovereignty over Hong Kong.\u201d The British suddenly ...
p44
sg5
VTime Out Hong Kong | Big Smog | Interviews, news, current affairs ...
p45
sa(dp46
g3
VTime Magazine reports in 2007: British Hong Kong was ... After Hong Kong \u2019s return to ... finance center under Chinese sovereignty. Hong Kong does not serve China ...
p47
sg5
VHong Kong Election and Sovereign Democracy - Henry C.K. Liu Home
p48
sa(dp49
g3
V... thus agreeing to return Hong Kong ... returned to Chinese sovereignty. ... former British colony, newspapers across Hong Kong Tuesday ...
p50
sg5
VIn Hong Kong, Mixed Memories of Thatcher - China Real Time Report ...
p51
sa(dp52
g3
VConveyance from British to Chinese sovereignty: ... Secretary for Administration at the time, ... from its time as a British colony. Hong Kong balances a ...
p53
sg5
VHong Kong - Wikipedia, the free encyclopedia
p54
sa(dp55
g3
VThat year marked the return of Hong Kong back to Chinese Sovereignty after 156 years of British colonial rule. ... Hong Kong itself was a casualty of foreign oppression.
p56
sg5
VComparison of Hong-Kong and China - Oldrich Kyn
p57
sa(dp58
g3
VHong Kong is handed back to the Chinese authorities - ending more than 150 years of British control. ... Foreign Secretary Robin Cook and Chris Patten.
p59
sg5
VBBC ON THIS DAY | 1 | 1997: Hong Kong handed over to Chinese control
p60
sa(dp61
g3
VAnd the Foreign Secretary wasn\u2019t ... of time planning the British return ... was any kind of conflict between Chinese sovereignty and Hong Kong ...
p62
sg5
VChina & Hong Kong, 1982 | Margaret Thatcher Foundation
p63
sa(dp64
g3
V... the yuan and for Hong Kong's foreign ... imperialism under Chinese sovereignty for ... that the British should return Hong Kong to the ...
p65
sg5
VAsia Times
p66
sa(dp67
g3
VThere is much controversy over the future of Hong Kong following its July 1, 1997, return ... return to Chinese sovereignty. ... A smooth return is likely, over time, ...
p68
sg5
VChina\u2019s Domestic Politics and Hong Kong
p69
sa(dp70
g3
V... mark the 15th Anniversary of the return of Hong Kong to Chinese sovereignty; ... time). Joined by the Permanent Secretary for ... Project of the British ...
p71
sg5
VHome - Hong Kong Economic and Trade Office, London
p72
sa(dp73
g3
V... called \u2014 of British rule to Chinese sovereignty was marked by the ... Colonial Secretary in Hong Kong, ... time a main target of anti-foreign ...
p74
sg5
VHistory - Hong Kong Yearbook 2011 | \u9999\u6e2f\u5e74\u58312011
p75
sa(dp76
g3
V... Hong Kong to Chinese sovereignty. ... time linked her \u201cturn\u201d over Hong Kong to ... sovereignty in return for continued British ...
p77
sg5
VThe Time the Iron Lady 'Turned' Before China - NYTimes.com
p78
sa(dp79
g3
VThe foreign secretary, ... At the same time many of Hong Kong\u2019s neighbours, ... Despite soothing words from the Chinese, British and Hong Kong governments, ...
p80
sg5
VHistory of Hong Kong - Lonely Planet Travel Information
p81
sa(dp82
g3
VIn the absence of a strong foreign secretary, ... and Zhang, the Chinese vice-foreign minister, ... with the British claim to sovereignty over Hong Kong intact, ...
p83
sg5
VHow Mrs Thatcher Lost Hong Kong: Ten years ago, fired up by her ...
p84
sa(dp85
g3
VNegotiations between the Chinese and British governments on Hong Kong ... it return the sovereignty over Hong Kong ... foreign national s holding Hong Kong's ...
p86
sg5
VHow did the Chinese Government settle the question of Hong Kong ...
p87
sa(dp88
g3
V... the PRC recognised only the British administration in Hong Kong, but not British sovereignty. ... of Hong Kong's return ... issue of Hong Kong for the first time.
p89
sg5
VTransfer of the sovereignty of Hong Kong - China-related Topics TQ ...
p90
sa(dp91
g3
V... as an \u201coutstanding statesman\u201d for agreeing the 1997 return of Hong Kong to Chinese ... and British Prime ... to U.K. Foreign Secretary ...
p92
sg5
VThatcher Praised by China for Ending U.K. Rule in Hong Kong ...
p93
sa(dp94
g3
VThe impending return of Hong Kong to China--after ... when the British Crown Colony reverts to Chinese sovereignty; ... The history of British rule in Hong Kong began ...
p95
sg5
VAn End to Humiliation - Los Angeles Times
p96
sa(dp97
g3
V... Hong Kong marks ten years since its return to ... its return to Chinese sovereignty ... to Chinese sovereignty after 156 years of British ...
p98
sg5
VTIMELINE - Key moments in post-handover Hong Kong | Reuters
p99
sa(dp100
g3
V... transfer of sovereignty, home return permits were issued ... urged the British Foreign Secretary ... British nationality law and Hong Kong; Chinese ...
p101
sg5
VHome Return Permit - China-related Topics HM-HP - China-Related Topics
p102
sa(dp103
g3
VMillions of Hong Kong residents hold British National (Overseas), or BNO, passports. ... (which led to the return of Hong Kong to Chinese sovereignty) ...
p104
sg5
V1. What is the British National (Overseas) passport?
p105
sa(dp106
g3
VHong Kong reverted from British to Chinese sovereignty on ... was not in Hong Kong at the time the ... both foreign and those from Hong Kong--to apply for ...
p107
sg5
VHong Kong - U.S. Department of State
p108
sa(dp109
g3
V... was the first anniversary of the return of the British Crown Colony of Hong ... Chinese sovereignty over Hong Kong ... Hong Kong residents. Foreign ...
p110
sg5
VHong Kong Under Chinese Rule: The First Year | Hoover Institution
p111
sa(dp112
g3
VHong Kong[note 3] (Chinese: ... The time period greatly influenced the current culture of Hong Kong, ... Conveyance from British sovereignty to Chinese sovereignty:
p113
sg5
VHong Kong - Hongkong - information directory
p114
sa(dp115
g3
V... run-up to Hong Kong's reversion to Chinese sovereignty. ... of the financial secretary, ... Hong Kong foreign-exchange reserves ...
p116
sg5
VAsia Times
p117
sa(dp118
g3
V... to cede British control of Hong Kong to ... foreign affairs adviser and private secretary when ... return of Hong Kong to China's sovereignty, ...
p119
sg5
VMargaret Thatcher is dead: Shanghaiist
p120
sa(dp121
g3
VAfter 155 years of foreign ... On July 1 the British Crown Colony of Hong Kong returns to the rightful sovereignty of China. For the Chinese people the ...
p122
sg5
VWilliam Pomeroy, British colonialism exits Hong Kong
p123
sa(dp124
g3
V... as an \u201coutstanding statesman\u201d for agreeing the 1997 return of Hong Kong to Chinese ... and British Prime ... to U.K. Foreign Secretary ...
p125
sg5
VThatcher Praised by China for Ending U.K. Rule in Hong Kong ...
p126
sa(dp127
g3
V... Treaty ports opened to foreign trade. (1841) British flag raised over Hong Kong Island. ... (1997) Hong Kong returns to Chinese sovereignty; Deng Xiaoping dies.
p128
sg5
VTimeline
p129
sa(dp130
g3
VCounselor at Ministry of Foreign Affairs Beijing ... Second Secretary Sino British Joint ... regarding the return of Hong Kong to Chinese sovereignty.
p131
sg5
VZhanbin Zhao - China | LinkedIn
p132
sa(dp133
g3
VWhy did China lease Hong Kong to ... into their country by a foreign power. In 1839, Chinese officials ... small islands to the British. In return, ...
p134
sg5
VHong Kong - Why Did China Lease Hong Kong to Britain - Asian History
p135
sa(dp136
g3
VIt was established as a British colony in 1841 and reverted to Chinese sovereignty on 1 July 2007. At the time, Hong Kong became a ... Annual return of ...
p137
sg5
VHong Kong company formations and International company maintenance
p138
sa(dp139
g3
V... and China," former British foreign secretary Geoffrey Howe ... about the return of Hong Kong to ... for Hong Kong was a success for both the Chinese ...
p140
sg5
VThatcher 'lays foundation' of successful Sino-British ties - China ...
p141
sa(dp142
g3
VLocal time is eight ... China has resumed sovereignty special arrangements made in ... There must be a secretary resident in Hong Kong. The secretary may be an ...
p143
sg5
VOFFSHORE COMPANIES Registry : Hong Kong Company Registration
p144
sa(dp145
g3
V... Governor of Hong Kong. Lord Wilson entered the Foreign ... as First Secretary at the British ... return of Hong Kong to Chinese sovereignty in ...
p146
sg5
VHKU Honorary Graduates - Graduate Detail - The University of Hong Kong
p147
sa(dp148
g3
VSecretary Kerry. Remarks; Travel ... ending more than 150 years of British colonial rule. Hong Kong is a Special ... The United States provides no foreign assistance ...
p149
sg5
VHong Kong - U.S. Department of State
p150
sa(dp151
g3
VA New York group is blending tradition with technology to keep an ancient Chinese art alive ... Hong Kong activists try to block ... Homepage Time Machine; 7 Day ...
p152
sg5
VUnited Nations grills Hong Kong over right to vote | South China ...
p153
sa(dp154
g3
VThe transfer of the sovereignty of Hong Kong from the United ... Deng asserted the necessity of Hong Kong's return to ... Over time, both the British and the PRC ...
p155
sg5
VTransfer of the sovereignty of Hong Kong - Who or What is Transfer ...
p156
sa(dp157
g3
VThe official languages are English and Chinese. ... required that the secretary to be from time to time receiving and ... IN HONG KONG. A foreign incorporated ...
p158
sg5
VHong Kong - Cayman-HK Corporate Services Ltd
p159
sa(dp160
g3
VThis is an enormous blood debt British imperialism owes to the Chinese ... return of sovereignty over Hong Kong to ... Hong Kong dollar has fallen to an all-time ...
p161
sg5
VSOVEREIGNTY OVER HONG KONG
p162
sa(dp163
g3
V... and China," former British foreign secretary Geoffrey Howe ... about the return of Hong Kong to ... for Hong Kong was a success for both the Chinese ...
p164
sg5
VThatcher "lays foundation" of successful Sino-British relations ...
p165
sa(dp166
g3
V"Mr. X" article appears in Foreign ... Hong Kong reverts back to Chinese rule in a ceremony attended ... in a ceremony attended by numerous Chinese, British, ...
p167
sg5
VHong Kong returned to China \u2014 History.com This Day in History ...
p168
sa(dp169
g3
VThree other senior civil service positions--the Chief Secretary, ... Hong Kong's foreign relations and defense ... Both British and Chinese businessmen were ...
p170
sg5
VHong Kong - Conservapedia
p171
sa(dp172
g3
V... "Hong Kong's return to Chinese sovereignty marks the final ... in the former British colony and Hong Kong citizens are ... the last time [over Hong Kong] ...
p173
sg5
VJuly 3, 1997 HONG KONG JOINS CHINA: CAN 'ONE COUNTRY, TWO SYSTEMS ...
p174
sa(dp175
g3
VBritish government will restore Hong Kong to ... on return of Hong Kong to Chinese sovereignty. ... Chinese Foreign Minister Wu Xueqian to US Secretary of ...
p176
sg5
V1984 PRC
p177
sa(dp178
g3
V... the British Foreign Office says it ... Chinese and Hong Kong leaders meet to discuss the ... Britain and China begin talks on Hong Kong's sovereignty, ...
p179
sg5
VCommanding Heights : Hong Kong | on PBS
p180
sa(dp181
g3
V... China,\u201d former British foreign secretary Geoffrey ... about the return of Hong Kong to ... for Hong Kong was a success for both the Chinese ...
p182
sg5
VInterview: Thatcher \u201clays foundation\u201d of successful Sino ...
p183
sa(dp184
g3
VHong Kong \u203a . Mon,6th May. Evidence Syria rebels 'used sarin' Quick links. Home; About CS&P; Strategic; Financial ; Offshore; Special ; Articles; Contacts ...
p185
sg5
VHong Kong Taxation and Companies Law - Offshore Company Formation ...
p186
sa(dp187
g3
V... whether Hong Kong residents who wish to return to Hong Kong for ... of sovereignty over Hong Kong ... time of birth of that person, was a Chinese ...
p188
sg5
VLCQ10: Hong Kong permanent resident status
p189
sa(dp190
g3
VThe island is marking the 15th anniversary of its return to Chinese sovereignty at a time when ... in Hong Kong's affairs by foreign ... British," he says ...
p191
sg5
VAnger Grows In Hong Kong Over China, New Leader : NPR
p192
sa(dp193
g3
V... the foreign secretary, ... Hong Kong was, at the time, ... for the British Empire from which they could conduct their trade under complete British sovereignty.
p194
sg5
VThe Hong Kong Colony | Exodus: Movement of the People
p195
sa(dp196
g3
V... would necessarily expropriate the Chinese capitalist class in Hong Kong, ... British sovereignty over Hong Kong. ... British foreign office minister Bill ...
p197
sg5
VHong Kong: Expropriate the Bourgeoisie! - International Communist ...
p198
sa(dp199
g3
VThe stakes involved in Hong Kong's reversion to Chinese sovereignty are ... British sovereignty and ... in Hong Kong, such as the Foreign ...
p200
sg5
VHong Kong Between the U.S. and China - MLibrary Digital Collections
p201
sa(dp202
g3
V... held a day later, marked Russia transferring half of the island\u2019s sovereignty to ... Return of Heixiazi Island ... the first place on the Chinese mainland ...
p203
sg5
V60th Anniversary - Key Foreign Policy Events_china.org.cn
p204
sa(dp205
g3
VAfter 156 years as a British colony, Hong Kong will begin a new and uncertain ... At that time, Chinese leader Deng Xiaoping was ... After the return of Hong Kong, ...
p206
sg5
VHong Kong's Handover to China - Las Vegas Sun News
p207
sa(dp208
g3
V... making it the first time the British ... return tickets. Anyone arriving at Hong Kong ... of the Chinese Foreign Ministry in Hong Kong where a ...
p209
sg5
VHong Kong travel guide - Wikitravel
p210
sa(dp211
g3
VBefore Hong Kong's return to ... They also\ufeff said the UN recognise Chinese sovereignty over HK and Macau ... 4:22 Hong Kong to Return to British ...
p212
sg5
VSCMP Poll: Hong Kong Wants Return to British Rule - YouTube
p213
sa(dp214
g3
VUnlike other British ... [after the resumption of Chinese sovereignty], or not be allowed to return ... [mainland Chinese] people to explain Hong Kong ...
p215
sg5
VQ&A: Hong Kong\u2019s Divisive New Leader Aims to Build Bridges ...
p216
sa(dp217
g3
V... becomes secretary of Communist Party branch in native ... Britain returns Hong Kong to Chinese rule. ... Portugal returns Macao to Chinese sovereignty. ...
p218
sg5
VTimeline: China Since 1898 - The American University in Cairo
p219
sa(dp220
g3
VThe island is marking the 15th anniversary of its return to Chinese sovereignty at a time ... Hong Kong's affairs by foreign ... Hong Kong's period as a British ...
p221
sg5
VAnger Grows In Hong Kong Over China, New Leader | Minnesota Public ...
p222
sa(dp223
g3
VFifteen years into Chinese sovereignty over Hong Kong, the Union Jack returns ... the British Council\u2019s Hong Kong ... time, distrust dominates not only young Hong ...
p224
sg5
VDisgruntled Hong Kong embraces Union Jack as symbol of freedom ...
p225
sa(dp226
g3
V... China manages Hong Kong\u2019s defence and foreign ... was fought over the British plying opium to the Chinese. ... its commitment to return Hong Kong to China in ...
p227
sg5
VHong Kong
p228
sa(dp229
g3
V... Hong Kong: Borrowed Place, Borrowed Time ... taken from the Chinese and added to the British ... of the foreign currency flows from Hong Kong into the ...
p230
sg5
VHong Kong definition of Hong Kong in the Free Online Encyclopedia.
p231
sa(dp232
g3
V... reflects on Hong Kong's past and future with the British colony's reverting back to Chinese sovereignty on ... British Foreign Secretary Lord ...
p233
sg5
VHong Kong's 25th Governor Murray MacLehose (1997) - YouTube
p234
sa(dp235
g3
VFind great deals on eBay for 1997 hong kong coin ... World Foreign Coins* BRITISH HONG KONG ... From Canada. Time left: $0.99. 0 bids. 1997 CHINA HONG KONG RETURN TO ...
p236
sg5
V1997 hong kong coin | eBay - Electronics, Cars, Fashion ...
p237
sa(dp238
g3
V... Hong Kong is faring well since its return to Chinese sovereignty ... Deputy Secretary of Hong Kong\u2019s ... Hong Kong\u2019s internal security and foreign ...
p239
sg5
VReport on the Mission to China and the Hong Kong SAR
p240
sa(dp241
g3
VAt the same time, many foreign firms relocated their ... the Hong Kong Chinese Civil Servants ... Kong residents say they would rather return to British ...
p242
sg5
VHistory of Hong Kong - Wikipedia, the free encyclopedia
p243
sa(dp244
g3
V... Blueprint for Stability and Prosperity Under Chinese Sovereignty ... Committee on Foreign Relations. Hong Kong's ... the Return of Hong Kong to the ...
p245
sg5
VHONG KONG - Official Site of the U.S. Air Force - Home
p246
sa(dp247
g3
VHong Kong\u2019s Latest Foreign Currency Reserve Assets Figures Released 7 May 2013 Exchange Fund Bills Tender Results 2 May 2013 Fraudulent email purporting to be ...
p248
sg5
VHong Kong Monetary Authority
p249
sa(dp250
g3
V... from its occupation by the British in 1841 to its return to Chinese sovereignty ... the British in 1841 to its return to Chinese ... for some time to ...
p251
sg5
VA Modern History of Hong Kong: Steve Tsang: 9781845114190: Amazon ...
p252
sa(dp253
g3
V... when the British returned Hong Kong to ... It's also a unique experiment in sovereignty: ... The British governors were mostly Foreign Office ...
p254
sg5
VHealing Hong Kong: Leung Chun-ying, the Incoming Head of China's ...
p255
sa(dp256
g3
V... Chung Fort by the Chinese to defend Chinese Hong Kong prior to British control ... time, many foreign firms moved their ... the sovereignty of Hong Kong.
p257
sg5
VHinduism / china / history of hong kong
p258
sa(dp259
g3
V4. leave the second box alone unless you want to check the availability of a Chinese ... The secretary must be a Hong Kong resident or ... Annual Return on time, ...
p260
sg5
VCompany Secretarial Services: Company formation in Hong Kong, BVI ...
p261
sa(dp262
g3
VAt the same time, the British and U ... the Chinese foreign ... 1997 is definitely a historic Happy Day for ALL Chinese - the return of Sovereignty of Hong Kong ...
p263
sg5
VInternational Drug Holocaust : From the Opium War to 1997 and ...
p264
sa(dp265
g3
V... be banned in Hong Kong at any time. ... the return of Hong Kong to Chinese Sovereignty for defining ... give the Secretary for Security ...
p266
sg5
VSay NO to Hong Kong's Proposed Article 23 Legislation -- DAWN ...
p267
sa(dp268
g3
V... Hong Kong: Borrowed Place, Borrowed Time ... taken from the Chinese and added to the British ... of the foreign currency flows from Hong Kong into the ...
p269
sg5
VHong Kong, Hong Kong definition of Hong Kong, Hong Kong in the ...
p270
sa(dp271
g3
VAfter 156 years of British colonial rule, Hong Kong became a ... of the Chinese and Hong Kong ... at the time of the conviction quoting the Secretary ...
p272
sg5
VU.S.-Hong Kong Policy Act Report - U.S. Department of State - Home ...
p273
sa(dp274
g3
VChina maintains a sort of quasi embassy in Hong Kong via the Chinese ministry of foreign affairs. The Chinese Reminibi is not accepted in Hong Kong, ...
p275
sg5
VWhat Country is Hong Kong In - China or Not - What Country is Hong ...
p276
sa(dp277
g3
VChinese nationals who were born in Hong Kong. Chinese nationals ... at the time of birth, was already a Hong Kong ... Can former residents return to Hong Kong and ...
p278
sg5
VCLIC - Immigration: Hong Kong permanent residence
p279
sa(dp280
g3
VMisreading Hong Kong. Ching, Frank // Foreign ... American media's conclusion on Hong Kong's transition from a British ... in Hong Kong when it returns under Chinese ...
p281
sg5
VArticles citations with the tag: HONG Kong (China) -- Social ...
p282
sa(dp283
g3
V... the official Chinese language in Hong Kong, ... China resumed the exercise of sovereignty over Hong Kong, ... Hong Kong's foreign relations and defense are the ...
p284
sg5
VHong Kong - Fact Monster: Online Almanac, Dictionary, Encyclopedia ...
p285
sa(dp286
g3
V... commonly known as Hong Kong (Chinese: ... Hong Kong Island was occupied by British ... Council assumed sovereignty over Hong Kong on 1 July 1997 and ...
p287
sg5
VHong Kong - 2008/9 Wikipedia Selection for schools
p288
sa(dp289
g3
V... for foreign investors in Hong Kong: what impact does the change of sovereignty have on ... common law of Hong Kong, unless mainland Chinese ...
p290
sg5
VHong Kong Court of Appeal Confirms That Foreign States Do Not ...
p291
sa(dp292
g3
V... and the colony returned to Chinese sovereignty. However, Hong Kong ... wars British foreign minister Lord ... secretary\u2014the head of ...
p293
sg5
VHong Kong - encyclopedia article - Citizendium
p294
sa(dp295
g3
VAt the same time, the tourist industry ... The Hong Kong Reader: Passage to Chinese Sovereignty Ming K. Chan; ... British Foreign Relations--Hong Kong
p296
sg5
V"Hong Kong: Transition Back to China" by Chu, Gregory H. - Focus ...
p297
sa(dp298
g3
VSince the return of Hong Kong\u2019s sovereignty to the PRC, ... but also welcome foreign, overseas Chinese and Hong Kong ... At the same time, some in Hong Kong, ...
p299
sg5
VWPR Article | Hong Kong, China and Taiwan: Prospects for a Greater ...
p300
sa(dp301
g3
VHong Kong has a mature and active foreign ... On 1 July 1997 China resumed its sovereignty over Hong Kong ... There is no summer time clock change. Sources Hong Kong ...
p302
sg5
VHong Kong - OffshoreOn.com - Offshore Tax and Business News
p303
sa.