(lp1
(dp2
S'description'
p3
V''Many people say the military ... the crushed and overturned cable car. Bodies were ... about the time the plane was thought to have hit the cable.
p4
sS'title'
p5
V20 Die in Italy As U.S. Jet Cuts A Ski Lift Cable - New York Times
p6
sa(dp7
g3
V20 Skiers Killed When Marine Plane Crashes into Cable Car ... The Italian press has reported past problem ... "Many people say the military planes even play ...
p8
sg5
V20 Skiers Killed When Marine Plane Crashes into Cable Car
p9
sa(dp10
g3
VU.S. Jet Slices Ski Lift Cable. ... "Many people have told me that the military planes entertain ... were killed when the cable car plunged about 300 ...
p11
sg5
VU.S. Jet Slices Ski Lift Cable - Washington Post: Breaking News ...
p12
sa(dp13
g3
V... 1998, near the Italian town of Cavalese, a ski resort in the ... all four men on the plane were ... 43 people, including 15 children, were killed on the same ...
p14
sg5
VCavalese cable car disaster (1998) - Wikipedia, the free encyclopedia
p15
sa(dp16
g3
VTwenty people were killed in ... The death toll equalled that of the disaster in the Italian resort of ... 1961 Military plane clips cable running ...
p17
sg5
V20 killed in cable car disaster | World news | The Guardian
p18
sa(dp19
g3
V... a cable car line at a ski resort in ... JET CUTS CABLE CAR LINE IN ITALY; 20 KILLED. ... JET BLAMED IN CABLE CAR DEATHS ITALIAN ...
p20
sg5
VMarine jet kills skiers // 20 die in freak accident in Italy ...
p21
sa(dp22
g3
V... 20 people were killed when a U.S. Marine Corps jet sliced through steel wires supporting a cable car in the Italian ... many from the local resort ...
p23
sg5
VItalians ask: Can Americans get away with murder? - CNN.com
p24
sa(dp25
g3
V... severed cables supporting a cable car and 20 people were killed. ... 20 killed as U.S. plane hits cable car wire in ... as plane hits Italian cable car ...
p26
sg5
VCNN - Lawyer in Marine cable car incident beaten to death - March ...
p27
sa(dp28
g3
V... a Marine jet sliced through the cable ... Italy clipped an aerial cable at a ski resort in ... of those that were killed in Italy are going ...
p29
sg5
VOnline NewsHour: Marine Trial -- February 3, 1999
p30
sa(dp31
g3
V... which led to the death of 20 people, occurred when a U.S. military plane ... the plane and were ... the wires of a cable car at an Italian ski resort, ...
p32
sg5
VCavalese Cable Car Disaster - Timelines.com
p33
sa(dp34
g3
VThe families of all 20 people killed when a Marine jet clipped an ... a U.S. Marine jet killed 20 skiers in an Italian cable ... were chosen as jurors ...
p35
sg5
VArticles about Military Accidents Italy - Los Angeles Times
p36
sa(dp37
g3
V... a Marine jet that cut a gondola cable in the Italian ... or whether any were wounded or killed. ... with killing 20 people at an Italian ski resort.
p38
sg5
VArticles about Ea 6b Prowler - Orlando Sentinel
p39
sa(dp40
g3
VA military jury has cleared a US Marine pilot of all charges relating to the deaths of 20 people killed when his jet hit ... resort of Mount Cermis in ... the cable ...
p41
sg5
VBBC News | Americas | Pilot cleared of cable car charges
p42
sa(dp43
g3
V... jet sliced a gondola cable in the Italian Alps, sending 20 people to ... the area where the jet hit the cable. The restrictions were ... killed in Wake County ...
p44
sg5
VHearing Begins for Marines Accused in Italian Cable Car Deaths ...
p45
sa(dp46
g3
VA Marine pilot whose jet clipped a ski gondola cable ... deaths of 20 people on an Italian ski gondola was ... accident that killed 20 people went on trial ...
p47
sg5
VRichard J. Ashby News - The New York Times
p48
sa(dp49
g3
VThe lift and its cabins were manufactured by a former Italian ... which saw seven people killed when two cabins plunged ... were injured after 2 cable cars ...
p50
sg5
VGondola lift - Wikipedia, the free encyclopedia
p51
sa(dp52
g3
VFamilies are grieving after a horrific bus crash and Switzerland 28 people 22 of them children. Were killed when ... There were some. Wires ... plane and ...
p53
sg5
VSwitzerland Videos and Video Clips - ABC News
p54
sa(dp55
g3
VThe impact on top was very violent and in the first 200 yards 49 people were ... 1961 Military plane clips cable running between L ... Eleven people killed.
p56
sg5
V25 years ago, the country's worst lift accident
p57
sa(dp58
g3
V... killed when a Marine jet clipped an Italian ski ... a resort Saturday. At least 36 people were ... gondola cable last year, killing 20 people ...
p59
sg5
VFeatured Articles about Gondola - Page 4 - Los Angeles Times
p60
sa(dp61
g3
VOn the hook with Sascha (Cable island Magdeburg), Breathtaking Views from Skyrail Cable Car, Lantau Island, Hong Kong (DON'T MISS THE ENDING), Dursey Island Cable Car ...
p62
sg5
VCable Island
p63
sa(dp64
g3
VHave you got your wires crossed? The electricity cable ... Power to the people: Last year 670 million Indians were ... 18:25 EST, 8 May 2013 A great Italian ...
p65
sg5
VHave you got your wires crossed? The electricity cable nightmare ...
p66
sa(dp67
g3
VHow To Take Apart Your Xbox 360 AV Cable, Drake Ft. Rihanna - Take Care (DJ Cable Edit), How to take apart an Xbox 360 AV Cable, [[XBOX 360]] take apart a/v cable for ...
p68
sg5
VCable Take
p69
sa(dp70
g3
V... of Burgstadt who were killed by the American jet. ... struck the cable at a ... Marine commanders were told that then-Italian Prime ...
p71
sg5
VWashingtonpost.com: National News - Washington Post: Breaking News ...
p72
sa(dp73
g3
VWhat were the names of the laws Andrew Johnson made? In: US Presidents Asked: 2 minutes ago. ... Do many people use ocean water for drinking and farming?
p74
sg5
VWikiAnswers - The Q&A wiki
p75
sa(dp76
g3
VDozens of children and teenagers were killed on the cable ... So many young people, who were here to ... the Italian ski resort of Cavalese in ...
p77
sg5
V170 perish in Alpine tunnel inferno - Telegraph
p78
sa(dp79
g3
VABC News reports on United States politics, crime, education, legal stories, celebrities, weather, the economy and more
p80
sg5
VU.S. News | National News - Latest Headlines, Videos, Photos - ABC ...
p81
sa(dp82
g3
VCable Television Corp. Videos; Video Details; Lyrics; Images; Wiki; News; Related; Collage; BBC Results; Shopping; Twitter; history add--Sign up and save ...
p83
sg5
VCable Television Corp
p84
sa(dp85
g3
VSister appeals over priest killed in Chile. Patricia Woodward spoke out after two Chilean naval officers were jailed for their role in the death of Father Michael ...
p86
sg5
VUK News | The Times
p87
sa(dp88
g3
V... MGM Resorts International CFO Dan D'Arrigo said ... of a smaller plane as they were taxiing for ... for some of the 14 people killed in the ...
p89
sg5
VWave Broadband | Local: News & Information
p90
sa(dp91
g3
VA US Marine Corps Prowler jet severed the cable a ... Two people were killed and at least 48 ... Ten people at the Whistler Blackcomb ski resort were injured ...
p92
sg5
Villicit snowboarding: A Visual Compendium of Ski Lift Accidents
p93
sa(dp94
g3
V... MD of Cable Europe at Cable Congress 2013 in London, ... Both World Wars were largely focused upon Europe, ... people living in insular areas such as Ireland, ...
p95
sg5
VCable Europe
p96
sa(dp97
g3
VI did not realized that there were people killed but my mum began ... the 4th plane was shown. To many ... in America so the clips being shown were of the ...
p98
sg5
VWhere Were You on 9/11?
p99
sa(dp100
g3
VGolf Cart Accessories by Quick Cable, World Racing 2- Golf 3 GL 2.0 goes wild, Exercise For Golf Swing Speed - Punch Pull Rotations with Tube or Cable. -LOOK! Must ...
p101
sg5
VGolf Cable World
p102
sa(dp103
g3
VFighter jets intercept Detroit-bound plane after passengers \u2018make out ... One killed as remnants of Hurricane Katia batter ... Cable News; Crazy; Crime; Disasters;
p104
sg5
VBreaking News | Wire Update News | News Wires -
p105
sa(dp106
g3
VGeek Vs Geek: Cut Cable, Watch the Internet? Your Weight Loss Silver Bullet: The Internet; 5 Tips to Survive Your Next Tech Disaster; The Truth and Fiction About ...
p107
sg5
VeHow | How to Videos, Articles & More - Discover the expert in you ...
p108
sa(dp109
g3
VTopic galleries provide easy access to stories and photos about people, places, organizations, events and subjects of interest to you. They bring together rich ...
p110
sg5
VTopic Galleries -- chicagotribune.com
p111
sa(dp112
g3
V... Manager of the local resort and Ben's ... in case you were ... This scene makes sense once you realize that more people are killed by God every year ...
p113
sg5
VShark Attack 3: Megalodon B-Movie Review - Badmovies.org
p114
sa(dp115
g3
VSames goes for the Italian lira which uses the same abbreviation ... More people are killed annually by donkeys than die in ... All three were on the same plane that ...
p116
sg5
VDid You Know? - Tavern / Bar For Sale - Kelly's Bar - Elkhorn ...
p117
sa(dp118
g3
VRome cable demolition, Jim Rome - Mike in Chicago, GEDs and basic cable (3-15-11), Comcast Rome Georgia - Comcast Cable Offers Rome GA, Rome Cable TV, Time Roman ...
p119
sg5
VRome Cable
p120
sa(dp121
g3
VAnother useless videoclip I made by mixing up one of my favourite documentary (Man on wire...
p122
sg5
VWire 415
p123
sa(dp124
g3
VOnly two people were killed. ... All 260 people aboard the plane and 5 people on ... but instead found a family monument whose Italian inscription spoke of ...
p125
sg5
VFires of New York City [Archive] - Wired New York Forum
p126
sa(dp127
g3
V"I noticed another plane sitting next to ours because the people were walking to the plane ... who were killed or ... wire transfers from Pakistan were ...
p128
sg5
VKilltown's: 9/11 coincidences and oddities page! - 9/11
p129
sa(dp130
g3
V... cable, and broadband ... first "plane" strike at 8:46AM. Few people were likely left dwelling around snapping pictures. ... If they were killed with gas prior to ...
p131
sg5
V911 Plane Illusions are Op. Northwoods recycled [Archive] - David ...
p132
sa(dp133
g3
V... all of whom were killed when the plane ... an Italian Airlines Fiat G.212 CP carrying the Torino ... but three people on the ground were killed and ...
p134
sg5
VPlane crash, crash video plane, airplane crash, aircraft crashes ...
p135
sa(dp136
g3
VSimone Lahbib Wire the Blood Clips ep1 ... possibly with the migration of people by land bridges and short sea ... about 60,000 were killed and another ...
p137
sg5
VAustralia Wire
p138
sa(dp139
g3
VMany people will die, ... the officers were told how to use his employment as a plumber as further evidence ... Video concludes with related MKULTRA information clips.
p140
sg5
VChris Zucker - FREEDOMFIGHTERS FOR AMERICA - THIS ORGANIZATION ...
p141
sa(dp142
g3
VI did not want the mouse to be killed but the hawk needed him to survive. ... sweater clips mohair sweaters with matching skrits. ... Many people were scared to death ...
p143
sg5
V1950's memories from The People History Site
p144
sa(dp145
g3
V... he is known as "Dino" and he speaks in an Italian accent. ... jet boosters, 6 barrel ... A number of Protoforms were killed in the Chicago Battle though a number ...
p146
sg5
VTransformers: Dark of the Moon (2011) - FAQ
p147
sa(dp148
g3
VSound Clips; Video Clips; Photographs; Posters; TV. TV Schedule; Related Items. NewsDesk; Showtimes; Professional Services. Get more at IMDbPro; Add posters & stills ...
p149
sg5
VGhost Ship (2002) - IMDb
p150
sa(dp151
g3
VHelp your child make a skeleton out of recycled milk jugs and wire for a ... as many as 60 people. Longhouses were typically long ... on the Italian peninsula ...
p152
sg5
VMake Models - How To Information | eHow.com
p153
sa(dp154
g3
VSound Clips; Video Clips; Photographs; Posters; TV. TV Schedule; Related Items. NewsDesk; Showtimes; Professional Services. Get more at IMDbPro; Add posters & stills ...
p155
sg5
VGhost Ship (2002) - IMDb
p156
sa(dp157
g3
VHelp your child make a skeleton out of recycled milk jugs and wire for a ... as many as 60 people. Longhouses were typically long ... on the Italian peninsula ...
p158
sg5
VMake Models - How To Information | eHow.com
p159
sa(dp160
g3
VMovie Cable News. Videos; Video Details; Lyrics; Images; Film; News; Related; Collage; BBC Results; Shopping; Twitter; history add. Uploaded: Today; This Week; This ...
p161
sg5
VMovie Cable News
p162
sa(dp163
g3
VThe KLM jet departed without permission and struck the Pan Am jet as it taxied along the same runway. ... Some 396 people, including 16 crew, were onboard.
p164
sg5
VHistory of Air Crashes - Scribd
p165
sa(dp166
g3
VMany people pick up a book and read it ... 12 dialogue clips, ... Their satire was so popular that excerpts and illustrations were published for The Wire\u2019s 10th ...
p167
sg5
VThe Wire - Mandel Maven's Nest
p168
sa(dp169
g3
VCable & Cord Anchorage Test as per IEC 60598-1 Clause Number 5.2.10.1 & IS 302, Comcast - Anchorage - (877) 745-6802 - Anchorage, Utah - UT - Authorized Retailer ...
p170
sg5
VAnchorage Cable
p171
sa(dp172
g3
VHow to watch digital channels without cable TV or satellite for FREE?, Malai Asia Resort, Get Free to Air and Paid HD Channels by OpenBox Satellite Receiver, Astro ...
p173
sg5
VAsia Cable Satellite
p174
sa(dp175
g3
VBicycle Gear Cable Repair Tips - Clarks Sport Replacement Set - BikemanforU, Cor Powersports Cable Sport Sprint Race, TrakHandle Sport functional training cable ...
p176
sg5
VSport Cable
p177
sa(dp178
g3
V... many of which were ... "The Comcast cable ... delayed passing on information for an air raid planned against a Palestinian city after 22 people were killed ...
p179
sg5
VGood clips
p180
sa(dp181
g3
VThere were "structured wire transfers" whereby "it was ... enforcement people were disappointed to see ... banks and the 30,000 people killed in ...
p182
sg5
VHow a big US bank laundered billions from Mexico's murderous drug ...
p183
sa(dp184
g3
VFormer Rome CIA station chief Jeffrey Castelli and the two other defendants were ... and many regard people ... cable car line at an Italian ski resort ...
p185
sg5
VJeffrey Castelli, Ex-CIA Rome Chief, Sentenced To Jail In Abu Omar ...
p186
sa(dp187
g3
VThe mud slid onto the Sankay Inn resort in Angra ... a German and an Italian -- were killed, Maratheftis said ... on how many people were on board the plane.
p188
sg5
VPicasa Web Albums - Thomas Pallam - 2010 Through ...
p189
sa(dp190
g3
VThere were actually some tight valleys where they would have a cable strung across ... missions and how many were dropping people ... the plane was killed ...
p191
sg5
VSnyder, Arthur L. (Part 1) - ROHA Home
p192
sa(dp193
g3
VI remember my dad pointing up at the sky a day later and noting that there were no jet ... I didn\u2019t know it killed people. ... not many people were in ...
p194
sg5
VWhere Were You on 9/11?
p195
sa(dp196
g3
VPanama Rainforest Jungle Cable Car Excursion by BK Bazhe.com, Fortunato Bertello, Cable & Wireless, Panama, Meduca Panama - Chiriqui Gana Concurso de Oratoria, How To ...
p197
sg5
VPanama Cable
p198
sa(dp199
g3
VPeople Of Walmart (Sexy And I Know It - LMFAO), Justin Bieber ... WN Digital Cable. Videos; Video Details; Images; Wiki; News; Related; Collage; BBC Results; Shopping ...
p200
sg5
VWN Digital Cable
p201
sa(dp202
g3
VPeople like speaking about how many times they've been killed in ... Cable Water Skiing and ... In the beginning it was a struggle because black people were not ...
p203
sg5
VJohannesburg for tourists - Cheap flights, car rentals, hotels ...
p204
sa(dp205
g3
VStill, many people react to spiders ... There's video clips, ... No human lives were lost but officials estimate thousands of wild animals were killed including many ...
p206
sg5
VCNN.com - Transcripts
p207
sa(dp208
g3
VThe Atlantic Wire featuring politics, business, entertainment, technology, and news.
p209
sg5
VThe Atlantic Wire
p210
sa(dp211
g3
V... Cable, Movies Fuel ... penetrating the foreign cultures that were part of many of his ... tell people: He unintentionally killed his friend ...
p212
sg5
VAll The News
p213
sa(dp214
g3
Vruby digi cable tv world news burma story, ruby digi cable tv world news 29-08-2012, ruby digi cable tv world news assam story, ruby digi cable tv world news 31-08 ...
p215
sg5
VCable World News
p216
sa(dp217
g3
VCable Laying Joints and ... These routes were an alternative to the Red Sea route used ... providing both income and employment to the people of the Persian ...
p218
sg5
VUae Cable
p219
sa(dp220
g3
VDavao Zipline at Eden Nature Park and Resort ... This article is about the People's ... The borders of present-day Bangladesh were established with the ...
p221
sg5
VBangladesh Resort
p222
sa(dp223
g3
V... As many as 1,000 people were killed when a ... mission hit cable car lines at the Cermis ski resort in ... wires, which would have made the plane ...
p224
sg5
VAirplane Disasters, Aviation Disasters: Fear of Flying Site
p225
sa(dp226
g3
VWe would like to show you a description here, but the site you\u2019re looking at won't allow us.
p227
sg5
VTimes Online
p228
sa(dp229
g3
VProposal cable bridge in Nigeria - Moreno Group Plc ... slavery became a permanent racial caste to which people of African descent were confined.
p230
sg5
VNigeria Cable
p231
sa(dp232
g3
VMount Faber and Singapore Cable Car on TTV "Inside Singapore", ... there were around 1,000 people living in Singapore, ... (called Integrated Resorts) ...
p233
sg5
VSingapore Cable
p234
sa(dp235
g3
VSeven people were killed when an IRA bomb exploded at ... An Italian air force jet crashes at air ... A cable car wire was sliced by a jet at a ski resort ...
p236
sg5
Vbhepple.freeshell.org
p237
sa(dp238
g3
V03:51 ITALIAN PRIME MINISTER FANZANI ARRIVES AT WHITE HOUSE. ... 23:32 RESORT TOWN IN URUGUAY, ... along with several cable networks.
p239
sg5
VAP Archive | Search
p240
sa(dp241
g3
V... as many people can well remember, ... when the telegraph and the Atlantic cable were the most wonderful things in the world, ... Wires were strung; ...
p242
sg5
VThe History of the Telephone - Telephone Tribute Home Page
p243
sa(dp244
g3
V... raped and killed enough people to fill a ... The Plane The first successful test flights were made by The ... Da Vinci was an Italian Renaissance ...
p245
sg5
VPeople | Top 10 List
p246
sa(dp247
g3
V... some spools of wire and a metal shed. The plane was ... These clips were ... What is the difference? it has been a long time since people were killed for ...
p248
sg5
VQuestion about the 9/11 Pentagon incident
p249
sa(dp250
g3
V... A vintage World War II-era fighter plane ... Bloodied bodies were spread across the area as people ... ugly comments made about the pilot & the people killed ...
p251
sg5
VPlane Crashes Into Crowd at Reno Air Race \u2014 Multiple Dead, Over ...
p252
sa(dp253
g3
VNine people were killed while 23 others ... which was surrounded with a triple perimeter of concertina-wire fencing. Most prisoners were left ... we did not resort ...
p254
sg5
VTorture Jet - Planes fly across Europe using false identity ...
p255
sa(dp256
g3
VOver 1,000 were killed by the storm. Over 500,000 people were left homeless and without jobs. ... Following German, Italian, and Japanese aggression, ...
p257
sg5
VUnited States Facts, information, pictures | Encyclopedia.com ...
p258
sa(dp259
g3
VSeveral weeks after nine people were killed in a ... a small plane has killed nine people, ... a radio tower guy wire in Aurora, IL., crashed, and killed all ...
p260
sg5
VHelicopter and Plane Crash Lawyer - Helicopter Crashes
p261
sa(dp262
g3
V"I propose to you that many people in Jackson County did not know what ... six other black people were ... situated inside cable fence that measures 38 ...
p263
sg5
VNews Clips - Justice4Kids
p264
sa(dp265
g3
VManhattan Public Access cable TV, Dee Dee TV Season 17 -Episode #1- San Francisco Public Cable Access, SELFRIDGE MILITARY AIR MUSEUM SHELBY PUBLIC ACCESS CABLE TV ...
p266
sg5
VCable Public Tv
p267
sa(dp268
g3
V"We are clarifying how many people there were in the ... The Italian setup metastasized into other ... Those people in that plane are killed in the worst moment ...
p269
sg5
VPrint Page - NATO strike? Polish elite assassinated in downed ...
p270
sa(dp271
g3
V... the yellow wire for the pilot light on Italian ... you may need to resort to #3.b above if it is still tight ... Many people just remove some material ...
p272
sg5
VLambretta Works Tech Center
p273
sa(dp274
g3
VGeorge Washington Cable, Madtv (Season 6, episode 28) Denzel's Cable, 2012-04-19 Bellingham Washington Cable Television Critique., Cloud Services by Time Warner Cable ...
p275
sg5
VWashington Cable
p276
sa(dp277
g3
V"Although many in my platoon were killed and wounded, ... MacGuire had been studying the Italian and German Fascist ... no matter how many millions of people were ...
p278
sg5
VThe Business of War
p279
sa(dp280
g3
VNO_EDIT_KOREA - Seoul Tower Cable Car, Walk the Way are Gwanghwamun, to, Seoul, Everland Seoul, Cable Car Ride, Cable Car ride from Seoul Tower down to the base of ...
p281
sg5
VSeoul Cable
p282
sa(dp283
g3
V... Getting to know the Italian people and the beauty of the ... About 20,000 residents were killed by ... , some cable TV station will send me back to ...
p284
sg5
VLife lessons from living in Italy...
p285
sa(dp286
g3
VTake a look at the marketing videos for Google\u2019s Glass and you\u2019ll notice a diverse group of people are ... Solar Plane Makes Last ... The Atlantic Wire ...
p287
sg5
VTech News Headlines - Yahoo! News
p288
sa(dp289
g3
V"Television over wire lines, ... People were more obliged than we are to notice what neighbours were missing and could not reach, ... On a less exhalted plane, ...
p290
sg5
VThe Food Timeline: history notes--restaurants, chefs & foodservice
p291
sa(dp292
g3
VThis feature documentary from Italian ... The bodies of the people known to be on the plane were ... Was it a real commercial jet, have they killed the ...
p293
sg5
VZero: An Investigation into 9/11 | Watch Free Documentary Online
p294
sa(dp295
g3
VFirst for breaking news and analysis: Compelling world news stories from NBC News journalists. Follow us on Twitter and Facebook.
p296
sg5
VWorld News - travel
p297
sa(dp298
g3
VQuestions From May 21 06. 66001. What is Lisi Harrison's birthday? 66003. What came first, the chicken or the egg? 66004. Can anyone tell me what rhymes with orange?
p299
sg5
VQuestions and Answer - FunTrivia.com : Archive 132
p300
sa.