(lp1
(dp2
S'description'
p3
VYou've got to hand it to John Prine. On the first song on this collection of duets, he plunges valiantly into "(We're Not) The Jet Set," singing the part made famous ...
p4
sS'title'
p5
VAmazon.com: In Spite Of Ourselves: John Prine: Music
p6
sa(dp7
g3
VAlbums; Songs; Playlists; Also on Myspace Movies; Celebrity; Television; Events; Themes; IM; ... In Spite of Ourselves by John Prine: Listen to, download, ...
p8
sg5
VIn Spite of Ourselves by John Prine | Album | Listen for Free and ...
p9
sa(dp10
g3
VPrine followed in 1999 with In Spite of Ourselves, ... The Songs of John Prine. The album features members of the modern folk revival including My Morning Jacket, ...
p11
sg5
VJohn Prine - Wikipedia, the free encyclopedia
p12
sa(dp13
g3
VIn Spite of Ourselves songs . Also Bought. Fair & Square CD (2005) Top Seller. ... Additional Search Terms For John Prine, John Prine - In Spite of Ourselves CD: ...
p14
sg5
VJohn Prine - In Spite of Ourselves CD Album
p15
sa(dp16
g3
VAlbum Savings: $6.85 compared to buying all songs. Original Release Date: September 14, 1999 ; Format - Music: MP3; Compatible with MP3 Players (including with iPod ...
p17
sg5
VAmazon.com: In Spite of Ourselves: John Prine: MP3 Downloads
p18
sa(dp19
g3
VBuy John Prine In Spite Of Ourselves vinyl records and CDs. ... Prine sounds like he knows the people in these songs ... PRINE,JOHN : In Spite Of Ourselves Cd ...
p20
sg5
VJohn Prine - In Spite Of Ourselves Vinyl Records, CDs and LPs
p21
sa(dp22
g3
VIn Spite of Ourselves is John Prine's tribute to the ... to take the time to write a review on this absolutely excellent CD! Why??? The songs on this disc are ...
p23
sg5
VIn Spite of Ourselves by Oh Boy, John Prine | Barnes & Noble
p24
sa(dp25
g3
VTop Albums and Songs By John Prine 1. Fair and Square; ... In Spite of Ourselves: 3:33: $0.99: View In iTunes: 2. Angel from Montgomery: Tribute to Steve Goodman: 4:38:
p26
sg5
ViTunes - Music - The Missing Years by John Prine
p27
sa(dp28
g3
VFind John Prine bio, songs, ... while Prine was working on an album of male/female ... which was released as In Spite of Ourselves and featured contributions ...
p29
sg5
VJohn Prine - Music Biography, Credits and Discography : AllMusic
p30
sa(dp31
g3
VFind album reviews, stream songs, credits and award information for In Spite of Ourselves - John Prine on AllMusic - 1999 - In Spite of Ourselves is John Prine's ...
p32
sg5
VIn Spite of Ourselves - John Prine : Songs, Reviews, Credits ...
p33
sa(dp34
g3
VIn Spite of Ourselves is John Prine's tribute to the music he grew up with -- good country songs written by folks like Roger Miller and Jack Clement.
p35
sg5
VEZ Rock - More Music Variety :: In Spite of Ourselves :: Album Details
p36
sa(dp37
g3
VDownload & listen to In Spite of Ourselves by John Prine at eMusic. ... 11, 15, although the whole album is worth downloading. Great Songs Covered Right! szarka.
p38
sg5
VDownload In Spite of Ourselves by John Prine | eMusic
p39
sa(dp40
g3
VJohn Prine "In Spite Of Ourselves" Lyrics from the Album "In Spite Of Ourselves". ... Songs From The Album. In Spite Of Ourselves; Release Date: Sep 1999; Buy on iTunes;
p41
sg5
VJOHN PRINE - IN SPITE OF OURSELVES LYRICS
p42
sa(dp43
g3
VJohn Prine - In spite of ourselves LYRICS from album In Spite of Ourselves. New ringtone, video, music, cd, sheetmusic
p44
sg5
VIn spite of ourselves Lyrics \u2014 John Prine | Album: In Spite of ...
p45
sa(dp46
g3
VIn Spite of Ourselves is John Prine's tribute to the music he grew up with -- good country songs written by folks like Roger Miller and Jack Clement.
p47
sg5
VIn Spite of Ourselves by John Prine @ARTISTdirect
p48
sa(dp49
g3
VIn Spite of Ourselves by John Prine, ... Immediate download of 16-track album in your choice of high-quality MP3, ... Standard Songs for Average People. Apr 2007.
p50
sg5
VIn Spite of Ourselves | John Prine
p51
sa(dp52
g3
VIn Spite of Ourselves is John Prine's tribute to the music he grew up with -- good country songs written by folks like Roger Miller and Jack Clement.
p53
sg5
VJohn Prine: In Spite Of Ourselves - Welcome to Shazam
p54
sa(dp55
g3
VJohn Prine In Spite Of Ourselves Free mp3 download, ... songs and albums. John Prine In Spite Of Ourselves Download Mp3, Listen to John Prine In Spite ...
p56
sg5
VJohn Prine In Spite Of Ourselves Download Mp3
p57
sa(dp58
g3
VJohn Prine Albums In Person & On Stage ... In Spite Of Ourselves Lyrics. 1999. The Missing Years Lyrics. ... Other Featured Songs. Together You And I Lyrics
p59
sg5
VJohn Prine Albums - Song Lyrics - MetroLyrics
p60
sa(dp61
g3
VPreview and download top songs and albums by John Prine on the iTunes Store. ... In Spite of Ourselves: 3:33: $0.99: View In iTunes: 2. Angel from Montgomery:
p62
sg5
ViTunes - Music - John Prine - Apple
p63
sa(dp64
g3
VJohn Prine - In Spite of Ourselves Lyrics. ... Top Albums; Upcoming Songs; Upcoming Albums; Billboard Hot 100; SongLyrics. Advertise on SL; Featured Blogs; Contact Us ...
p65
sg5
VJOHN PRINE - IN SPITE OF OURSELVES LYRICS
p66
sa(dp67
g3
VJohn Prine with Iris DeMent - In Spite Of Ourselves Lyrics. ... Miscellaneous Album; In Spite Of Ourselves Lyrics; ... Upcoming Songs; Upcoming Albums; Billboard Hot 100;
p68
sg5
VJOHN PRINE WITH IRIS DEMENT - IN SPITE OF OURSELVES LYRICS
p69
sa(dp70
g3
VIN SPITE OF OURSELVES BY JOHN PRINE ... I only recall a few of the songs on the album from the past but they are all good, honest, songs.
p71
sg5
VIn Spite Of Ourselves
p72
sa(dp73
g3
VIn Spite of Ourselves appears on the album 2003-11-18: Moncton Coliseum, Moncton, ... The album John Prine included his signature songs "Illegal Smile", ...
p74
sg5
VJohn Prine \u2013 In Spite of Ourselves \u2013 Listen and discover music ...
p75
sa(dp76
g3
VListen free to John Prine \u2013 In Spite of Ourselves (Dear John (I Sent Your Saddle Home), ... The album John Prine included his signature songs "Illegal Smile", ...
p77
sg5
VIn Spite of Ourselves \u2013 John Prine \u2013 Discover music at Last.fm
p78
sa(dp79
g3
VJohn Prine & Mac Wiseman: Standard Songs for Average People CD NEW G-35. From Canada. ... John Prine - In Spite Of Ourselves CD 1999 Oh Boy Records HDCD. Time left: $ ...
p80
sg5
Vjohn prine in CDs | eBay - Electronics, Cars, Fashion ...
p81
sa(dp82
g3
VAlbums . Music Library ... In Spite of Ourselves 16 songs. Lucky 13 13 songs. Live on Tour ... Great Days: The John Prine Anthology. If She Were You. lyrics.
p83
sg5
VJohn Prine Lyrics - Lyrics.com - your music community with the ...
p84
sa(dp85
g3
Vlogin video lessons chords dictionary tutorials & lessons riff lessons guitarpro songs. in ... all artists albums composers ... John Prine - In Spite Of Ourselves ...
p86
sg5
VIn Spite Of Ourselves chords by John Prine
p87
sa(dp88
g3
VPrine John - Dear John Lyrics, album In Spite Of Ourselves. John Prine ringtone, MP3, sheet music, song video >>
p89
sg5
VDear John Lyrics | John Prine | Album: In Spite Of Ourselves
p90
sa(dp91
g3
VThe album John Prine included his signature songs \u201cIllegal Smile\u201d, ... Prime Prine: The Best of John Prine: Sweet Revenge: In Spite of Ourselves: The Missing Years:
p92
sg5
VJohn Prine Wiki, biography, pictures, John Prine songs & albums
p93
sa(dp94
g3
VAlbum: In Spite of Ourselves ... The In Spite Of Ourselves lyrics by John Prine is copyrighted and eLyrics.net is featuring all john prine songs for non ...
p95
sg5
VIN SPITE OF OURSELVES Lyrics - JOHN PRINE - Song Lyrics - eLyrics.net
p96
sa(dp97
g3
VBuy "In Spite of Ourselves" on. Google Play AmazonMP3 eMusic iTunes; Artist ... 9:56 How I learn John Prine fingerpicking songs by jordanthecat 126,287 views
p98
sg5
VJohn Prine - In Spite of Ourselves - YouTube
p99
sa(dp100
g3
VPrine John - In Spite of Ourselves Lyrics, album In Spite Of Ourselves. John Prine ringtone, MP3, sheet music, song video >>
p101
sg5
VIn Spite of Ourselves Lyrics | John Prine | Album: In Spite Of ...
p102
sa(dp103
g3
VJohn Prine In Spite of Ourselves song lyrics. ... Songwriters: John Prine. Other Album Songs. Back Street Affair Lyrics; I Know One Lyrics; In a Town This Size Lyrics;
p104
sg5
VJOHN PRINE - IN SPITE OF OURSELVES LYRICS - Song Lyrics - MetroLyrics
p105
sa(dp106
g3
VJohn Prine news and reviews of his Album repertoire. Incluedes Standard Songs for Average People, Grammy winning Fair & Square, Souveinirs, In Spite of Ourselves ...
p107
sg5
VJohn Prine Concert and Album Reviews, Information
p108
sa(dp109
g3
VListen to music by John Prine on ... titled debut album; though not a commercial success, songs like "Sam Stone ... as In Spite of Ourselves and featured ...
p110
sg5
VJohn Prine - Listen to Free Music by John Prine on Pandora ...
p111
sa(dp112
g3
VDiscover more great music in our Proper Music store, where you can find out about the very best of Proper Music's latest and forthcoming releases.
p113
sg5
VPRINE,JOHN-IN SPITE OF OURSELVES: Amazon.co.uk: Music
p114
sa(dp115
g3
VSend "John Prine" Ringtones to your Cell. Albums: Year: Tracks  In Spite Of Ourselves Lyrics: 1999: 4  Lost Dogs And Mixed Blessings Lyrics
p116
sg5
VJohn Prine | Albums
p117
sa(dp118
g3
VBasement Songs: John Prine and Iris Dement, ... I had never heard a Prine song before I stumbled upon \u201cIn Spite of Ourselves,\u201d from his 1999 album of the same name.
p119
sg5
VBasement Songs: John Prine and Iris Dement, \u201cIn Spite of ...
p120
sa(dp121
g3
VJohn Prine new music, ... Drive-By Truckers Team Up For John Prine Tribute Album. ... In Spite of Ourselves (1999) Oh Boy. John Prine.
p122
sg5
VJohn Prine | New Music And Songs | MTV - New Music Videos, Reality ...
p123
sa(dp124
g3
VAverage rating for John Prine songs is 8.54 / 10 ... In Spite of Ourselves [1999] John ... Besides John Prine song lyrics you can also browse John Prine images/album ...
p125
sg5
VJOHN PRINE Lyrics - Song Lyrics - eLyrics.net
p126
sa(dp127
g3
VJohn Prine songs. Angel From Montgomery chords; Hello In There chords; Sam Stone chords; Clay Pigeons chords; ... John Prine Album: In Spite of Ourselves Year: ...
p128
sg5
VIn Spite Of Ourselves chords & tabs by John Prine @ 911Tabs
p129
sa(dp130
g3
VFull list of songs by John Prine including albums. ... In Spite Of Ourselves (1999) John Prine. John Prine (1990) Live On Tour (1997) Lost Dogs & Mixed ...
p131
sg5
VJohn Prine Songs, Complete list of John Prine Music
p132
sa(dp133
g3
VMostly downs though since there are a ton of great cheating songs at the core of this album. John had ... In Spite of Ourselves. John Prine w ...
p134
sg5
VJohn Prine and Iris Dement's duets on "In Spite of Ourselves"
p135
sa(dp136
g3
VShe don't like her eggs all runny She thinks crossin' her legs is funny She looks down her nose at money She gets it on like the Easter Bunny She's my baby I'm her ...
p137
sg5
VIn Spite Of Ourselves Lyric Meaning - John Prine Meanings
p138
sa(dp139
g3
VJohn Prine: Album: In Spite Of Ourselves: Title: In A Town This Size: In a town this size, there's no place to hide ... Vote for John Prine! Other songs by John Prine.
p140
sg5
VLyrics: John Prine - In A Town This Size
p141
sa(dp142
g3
VPrime Prine: The Best of John Prine music CD album $11.99 in stock at CD Universe, ... In Spite of Ourselves CD (1999) ... Prime Prine: The Best of John Prine songs .
p143
sg5
VPrime Prine: The Best of John Prine CD Album
p144
sa(dp145
g3
VJohn Prine In Spite Of Ourselves ... When you're adding John Prine songs to your playlist by ... John Prine's latest or related album is John Prine Which ...
p146
sg5
VJOHN PRINE Songs - SongArea.com | Create playlist, Listen to free ...
p147
sa(dp148
g3
VBrowse John Prine albums and cds in the John Prine discography. ... In Spite of Ourselves Album 1999-09-14 itunes amazon. ... New Country Songs; New Metal Music;
p149
sg5
VJohn Prine Albums - AOL Music - Free Music Videos, Song Lyrics ...
p150
sa(dp151
g3
Valbums: upcoming: top new: request: submit: ... John Prine In Spite Of Ourselves lyrics. Send "In Spite Of Ourselves" Ringtone to your Cell. Songwriters: JOHN PRINE.
p152
sg5
VJohn Prine - In Spite Of Ourselves Lyrics
p153
sa(dp154
g3
VJohn Prine In Spite Of Ourselves ... When you're adding John Prine songs to your playlist by ... John Prine's latest or related album is John Prine Which ...
p155
sg5
VJOHN PRINE Songs - SongArea.com | Create playlist, Listen to free ...
p156
sa(dp157
g3
VBrowse John Prine albums and cds in the John Prine discography. ... In Spite of Ourselves Album 1999-09-14 itunes amazon. ... New Country Songs; New Metal Music;
p158
sg5
VJohn Prine Albums - AOL Music - Free Music Videos, Song Lyrics ...
p159
sa(dp160
g3
Valbums: upcoming: top new: request: submit: ... John Prine In Spite Of Ourselves lyrics. Send "In Spite Of Ourselves" Ringtone to your Cell. Songwriters: JOHN PRINE.
p161
sg5
VJohn Prine - In Spite Of Ourselves Lyrics
p162
sa(dp163
g3
VJohn Prine (born , 1946, in Maywood ... Prine later said was his favorite of all his songs. The album received many ... offering since In Spite of Ourselves, the ...
p164
sg5
VJohn Prine | Biography - Lyrics, Song Lyrics \u2013 LyricsFreak.com
p165
sa(dp166
g3
Vlyrics to In Spite Of Ourselves / John Prine John Prine ... From the album In Spite Of Ourselves. ... John Prine Songs Lyrics | New Lyrics ...
p167
sg5
VIN SPITE OF OURSELVES lyrics - JOHN PRINE
p168
sa(dp169
g3
VIN SPITE OF OURSELVES was nominated for the 2000 Grammy Award for Best Contemporary Folk Album. Personnel: John Prine ... SPITE OF OURSELVES, ... songs with Prine
p170
sg5
VRakuten.com - In Spite Of Ourselves CD
p171
sa(dp172
g3
VTop Albums Diamonds in the Rough John Prine Fair & Square In Spite of Ourselves The Missing Years Top Songs Illegal Smile Sam Stone Hello In There Paradise
p173
sg5
VJohn Prine - News, Videos, Lyrics and Images
p174
sa(dp175
g3
VIn Spite of Ourselves by John Prine - CD for $15.28 from OLDIES.com Folk ... and five others share 16 songs with Prine...and it works splendidly..." - Rating: B+.
p176
sg5
VJohn Prine : In Spite of Ourselves CD - Oh Boy : OLDIES.com
p177
sa(dp178
g3
V... In Spite of Ourselves by John Prine, ... feeds for this album, this artist. about. ... Standard Songs for Average People. Apr 2007.
p179
sg5
VJohn Prine/Iris DeMent - In Spite of Ourselves | John Prine
p180
sa(dp181
g3
VList includes John Prine album cover artwork in many cases, ... In Spite of Ourselves. John Prine. buy@amazon . 12. ... Standard Songs for Average People.
p182
sg5
VJohn Prine Albums List: Full John Prine Discography (34 Items)
p183
sa(dp184
g3
VIn Spite Of Ourselves Tabs Tabs, ... Guitar John Prine Tabs. For Acoustic ... It is played in a basic country-blues style alternating bass picture of his album "Sweet ...
p185
sg5
VIn Spite Of Ourselves Tabs - John Prine - GUITAR TABS & CHORDS : A - Z
p186
sa(dp187
g3
VJohn Prine was the first album by American country/folk ... and the riffs, and the rhythms." All songs ... John Prine and Iris DeMent - In Spite of Ourselves ...
p188
sg5
VJohn Prine | Celebrity Net Worth
p189
sa(dp190
g3
VUp to date John Prine Music Videos, Lyrics, Albums, News, ... Latest lyrics and songs. ... In Spite Of Ourselves Rating: -
p191
sg5
VJohn Prine - News, Lyrics, Videos and Albums
p192
sa(dp193
g3
VOver 6.5 Million songs. ... John Prine In Spite of Ourselves Year: 1999: ... Live concert albums of your favorite band.
p194
sg5
VJOHN PRINE - free mp3 downloads
p195
sa(dp196
g3
VJohn Prine: Songs. Overview. Biography. Albums. Songs. Similar Artists. News. Celebrity Page. Song title. Album (We're Not) The Jet Set. In Spite Of Ourselves ...
p197
sg5
VJohn Prine - Songs on MSN Music
p198
sa(dp199
g3
Vthumbnail  CMA  Kristie Wood Weldon
p200
sg5
VJohn Prine : Rhapsody
p201
sa(dp202
g3
VMSN Music presents complete John Prine information including Albums, ... as In Spite of Ourselves and featured ... Prine re-recorded 15 of his best-known songs ...
p203
sg5
VJohn Prine - Biography on MSN Music
p204
sa(dp205
g3
VThe version I am tabbing this from is on Youtube and features a picture of his album ... John Prine - In Spite Of Ourselves ... played these songs by John Prine:
p206
sg5
VIn Spite Of Ourselves Tab - John Prine - Guitar Chords v3
p207
sa(dp208
g3
VSinger-songwriter John Prine was ... folk album. Prine's 2007 release, Standard Songs for ... his 1999 album, In Spite of Ourselves. John Prine resides ...
p209
sg5
VJohn Prine Biography - Facts, Birthday, Life Story - Biography.com
p210
sa(dp211
g3
VPrine emerged in 1971 with a highly acclaimed debut album titled John Prine. ... The album included his signature songs "Illegal ... In Spite of Ourselves. I Know One;
p212
sg5
VJohn Prine guitar chords, guitar tabs and lyrics - chordie
p213
sa(dp214
g3
VIn Spite of Himself, John Prine Comes Up Grinning ... But for his latest album, In Spite of Ourselves, ... Don't those songs dredge up a lot of bad memories though?
p215
sg5
VIn Spite of Himself, John Prine Comes Up Grinning | Music News ...
p216
sa(dp217
g3
VWhen John Prine released his self-titled debut album in 1971, ... In Spite of Ourselves John Prine. ... The live tape has a bassist backing Prine on a few songs, ...
p218
sg5
VBARNES & NOBLE | Singing Mailman Delivers by Oh Boy, John Prine
p219
sa(dp220
g3
VJohn Prine has been around singing his ballads and songs and writing ... John Prine with Iris Dement singing In Spite of ... i like th album "in spite of ourselves"
p221
sg5
VJohn Prine & Iris Dement - Listen to Free Music by John Prine ...
p222
sa(dp223
g3
VThe two-disc CD is called John Prine: ... Prine went on to write hundreds of songs but ... Jesus The Missing Years and In Spite Of Ourselves, which ...
p224
sg5
VJohn Prine: The Singing Mailman Delivers, CD review - Telegraph
p225
sa(dp226
g3
VThe album John Prine included his signature songs "Illegal Smile", "Sam Stone", ... In 1997 Prine followed with In Spite of Ourselves, ...
p227
sg5
Vjohn prine | free piano sheet music | PianoFiles
p228
sa(dp229
g3
VIn 1999 Prine issued In Spite of Ourselves, an homage to the ... His 1971 debut album John Prine was widely ... The album drew raves; Prine's songs, many written ...
p230
sg5
VJohn Prine Facts, information, pictures | Encyclopedia.com ...
p231
sa(dp232
g3
VThe Steve Goodman-produced album gave listeners songs such as \u201cThe Hobo Song ... JOHN PRINE COMPACT DISC CD JOHN ... JOHN PRINE - IN SPITE OF OURSELVES - NEW CD.
p233
sg5
VJohn Prine - Digital Music Center
p234
sa(dp235
g3
VFind out the latest biography details including John Prine's ... debut album; though not a commercial success, songs like "Sam ... In Spite of Ourselves and ...
p236
sg5
VJohn Prine Bio | John Prine Career | MTV - New Music Videos ...
p237
sa(dp238
g3
VPrine followed in 1999 with In Spite of Ourselves, ... The Songs of John Prine. The album features members of the modern folk revival including My ...
p239
sg5
VJohn Prine | Exequy's Blog
p240
sa(dp241
g3
VAlbums. Prime Prine: ... john prine songs; john prine tour; john prine youtube; john prine in spite of ourselves; Mobile: Find Friends: Badges: People: Pages: Places ...
p242
sg5
VJohn Prine | Facebook
p243
sa(dp244
g3
VIn Spite Of Ourselves lyrics (1999, 16 songs) 7. ... Would you please SUBMIT another John Prine album to us? Hottest John Prine songs lyrics: 1.
p245
sg5
VSong Lyrics :: John Prine lyrics - Albums and songs by John Prine ...
p246
sa(dp247
g3
VIn Spite Of Ourselves Tab by John Prine with guitar ... John Prine Album: In Spite of Ourselves ... In Spite Of Ourselves Tab also played these songs by ...
p248
sg5
VIn Spite Of Ourselves Tab - John Prine - Guitar Chords v2
p249
sa(dp250
g3
VJohn Prine & Mac Wiseman: Standard Songs for Average People CD NEW G-35. From Canada. ... John Prine - In Spite Of Ourselves CD 1999 Oh Boy Records HDCD. Time left: $ ...
p251
sg5
Vjohn prine | eBay - Electronics, Cars, Fashion, Collectibles ...
p252
sa(dp253
g3
VAlbums; Songs; Comments; ... John Prine was born October 10, ... with In Spite of Ourselves appearing in 1999 and Souvenirs in 2000. ...
p254
sg5
Vthe biography of John Prine - singer life story
p255
sa(dp256
g3
VHelm has made two wonderful recent albums but John Prine\u2019s ... He writes anti-war and love songs with equal aplomb. Many of these ... In Spite Of Ourselves John Prine
p257
sg5
VIn Person & On Stage - John Prine - Buy @ SmokeCDs.com music cd store
p258
sa(dp259
g3
VJohn Prine Lyrics, Songs, Albums And More at SongMeanings! song lyrics, song meanings, albums, music and more. ... In Spite Of Ourselves: 7: Iron Ore Betty: 0:
p260
sg5
VJohn Prine Lyrics, Songs, Albums And More at SongMeanings!
p261
sa(dp262
g3
V... releasing the powerful John Prine. The album ... Over the years Prine achieved cult status, his songs ... 1999\u2019s In Spite Of Ourselves, saw Prine ...
p263
sg5
VJohn Prine Biography : OLDIES.com
p264
sa(dp265
g3
VThis is a review of John Prine ... but only occasionally have his songs succeeded in bubbling ... During In Spite of Ourselves, Prine and DeMent revel in a ...
p266
sg5
VJohn Prine - In Person & On Stage (Album Review)
p267
sa(dp268
g3
VJohn Prine's In Person and On Stage Bands who release multiple live albums are often doing so for completely capitalistic reasons. After all, there isn't
p269
sg5
VJohn Prine "In Person and On Stage" review - National jam bands ...
p270
sa(dp271
g3
VIt\u2019s called In Spite of Ourselves. ... FYI: there is a brand new cd of John Prine songs done by assorted artists entitled \u201cBroken Hearts and Dirty Windows ...
p272
sg5
VJohn Prine "Bruised Orange"  Cool Album of the Day
p273
sa(dp274
g3
VFind and buy John Prine tickets at ... It went so well that Prine suggested they each make up a list of songs ... His 1999 duets album In Spite of Ourselves ...
p275
sg5
VJohn Prine tickets, 2013 tour dates, John Prine concerts | AXS.com
p276
sa(dp277
g3
VJohn Prine. John Prine [Atlantic, 1971] A; ... In Spite of Ourselves [Oh Boy, 1999] A; Fair and Square ... Good songs, useless album. B-
p278
sg5
VRobert Christgau: CG: John Prine
p279
sa(dp280
g3
VListening to Mac Wiseman and John Prine\u2019s new album \u201cStandard Songs for Average People,\u201d it\u2019s nearly ... His 1999 duets album In Spite of Ourselves earned a ...
p281
sg5
VJohn Prine Biography - ArtistData Profile Pages
p282
sa(dp283
g3
VJohn Prine So Sad (To Watch Good Love ... Top Songs. Contact Us. Song Lyrics. New Lyrics. ... lyrics are part of the In Spite Of Ourselves album that features an ...
p284
sg5
VJohn Prine - So Sad (To Watch Good Love Go Bad) Lyrics
p285
sa(dp286
g3
VThe album "John Prine" included his signature songs ... Later albums include ... In 1997 Prine released "In Spite of Ourselves," a compilation of mostly ...
p287
sg5
VJohn Prine
p288
sa(dp289
g3
VJOHN PRINE lyrics - 201 song lyrics ... album: "In Spite Of Ourselves" (1999) ... album: "Standard Songs For Average People" (2007) (w/ MAC WISEMAN) Blue Eyed Elaine
p290
sg5
VJOHN PRINE lyrics - A-Z Lyrics Universe
p291
sa(dp292
g3
VA list of cover songs by John Prine. ... , was covered on the John Prine album "In Spite of Ourselves." ...
p293
sg5
VJohn Prine Cover Songs - The Covers Project
p294
sa(dp295
g3
VJohn Prine teams up with a host of female ... His new album, In Spite of Ourselves, ... As for the other 16 songs on his album, Prine harbors no illusions about ...
p296
sg5
VMusic: Happy Marriages (Nashville Scene . 11-15-99) - Weekly Wire
p297
sa(dp298
g3
VThat first Prine album came out of nowhere in 1972 and is just a powerhouse. About a year ago, he released a two-disc set of recordings of a radio concert and a club ...
p299
sg5
VJohn Prine's ''Hello In There'' this song moves me almost to tears ...
p300
sa(dp301
g3
VIllegal Smile Spanish Pipedream Hello In There Sam Stone Paradise Pretty Good Your Flag Decal...
p302
sg5
VJohn Prine Lyrics - Lyric Wiki - song lyrics, music lyrics
p303
sa.