(lp1
(dp2
S'description'
p3
V... Merck's corporate Web site home; ... Company Statements; Media Contacts; ... a subsidiary of Merck & Co., Inc.
p4
sS'title'
p5
VMerck. A global healthcare leader working to help the world be well.
p6
sa(dp7
g3
VMerck & Co., Inc. (NYSE: MRK), d.b.a. Merck Sharp & Dohme, MSD outside the United States and Canada, is an American pharmaceutical company and is one of the largest ...
p8
sg5
VMerck & Co. - Wikipedia, the free encyclopedia
p9
sa(dp10
g3
VCompany Statements; Media Contacts; Investor Contacts; Job Seekers. Recruiting; Benefits; ... a subsidiary of Merck & Co., Inc. All rights reserved. Privacy; Terms of ...
p11
sg5
VMerck Products
p12
sa(dp13
g3
VTRENTON, N.J. (AP) \u2014 Merck & Co., the world's third-biggest drugmaker by revenue, will tout a big surge in the company's pipeline of experimental drugs ...
p14
sg5
VEarnings Preview: Merck to key on coming new drugs - Businessweek
p15
sa(dp16
g3
VThat is why the Company provides its medicines and adult vaccines for free to people who do not have prescription drug or ... a subsidiary of Merck & Co., Inc., ...
p17
sg5
VMerck Programs to Help Those in Need
p18
sa(dp19
g3
VMain page for Careers section of Merck.com. home; investors; newsroom; ... Company Statements; Media Contacts; ... a subsidiary of Merck & Co., Inc.
p20
sg5
VCareers - Merck. A global healthcare leader working to help the ...
p21
sa(dp22
g3
VDoes Merck fall into this trap? ... How much a company earns is not as important as how much cash is actually coming in the ... Merck & Co., Inc. CAPS Rating:
p23
sg5
VWhat Merck Does With Its Cash (MRK) - Fool.com: Stock Investing ...
p24
sa(dp25
g3
VContact information for Merck & Co., Inc. ... Thank you for your interest in learning more about our company. In an effort to answer your inquiries, the following ...
p26
sg5
VContact Us
p27
sa(dp28
g3
VSanford Heisler Files $100m+ Discrimination Suit Against Pharma Giant Merck & Co., Inc. Class Action Asserts Company ... giant Merck & Co ...
p29
sg5
VSanford Heisler Files $100m+ Discrimination Suit Against Pharma ...
p30
sa(dp31
g3
VMerck & Co. CEO Kenneth C. Frazier is convinced nearly everyone, from patients to long-term investors, wants the world's third-largest drugmaker to take ...
p32
sg5
VMerck CEO says taking risks is key for the company to succeed ...
p33
sa(dp34
g3
VRead about the history of Merck & Co., Inc. Explore the company's history, profile, and timeline. Find the key facts you're looking for!
p35
sg5
VHistory of Merck & Co., Inc. \u2013 FundingUniverse
p36
sa(dp37
g3
VBBB's Business Review for Merck & Co., Inc., ... Merck & Company, Inc. is headquartered at 1 Merck Drive in Whitehouse Station, NJ. BBB file opened: ...
p38
sg5
VMerck & Co., Inc. Business Review in Durham, NC - Eastern North ...
p39
sa(dp40
g3
VMerck &amp; Co. (NYSE:MRK) is one of the largest pharmaceutical companies in the world, producing a wide assortment of medications. The company...
p41
sg5
VStock:Merck (mrk) - See your portfolio in a whole new light ...
p42
sa(dp43
g3
VRichard Spoor, senior vice-president of global procurement at Merck & Co., Inc., discusses the company's strategy and progress made in its supply strategy that ...
p44
sg5
VMerck Makes Strides in Executing a New Supply Strategy ...
p45
sa(dp46
g3
VIn the United States and Canada Merck is officially Merck & Co., Inc. Internationally Merck is called Merck Sharp & Dohme (MSD). There is also a Germany ...
p47
sg5
VWhat is the full form of "Merck" in Merck pharmaceutical company ...
p48
sa(dp49
g3
VMerck & Co., Inc. Company Profile. Merck makes medicines for a number of maladies, from stuffy noses and asthma to hypertension and arthritis.
p50
sg5
VMerck & Co., Inc. | Company Profile from Hoover\u2019s
p51
sa(dp52
g3
VMerck is one of the world's leading companies in innovative pharmaceuticals, life science solutions and cutting-edge performance materials and technologies.
p53
sg5
VHome - Merck United Kingdom
p54
sa(dp55
g3
VMerck & Co., Inc. provides various health solutions through its prescription medicines, vaccines, ... Fundamental company data provided by Capital IQ.
p56
sg5
VMRK: Summary for Merck & Company, Inc. Common St- Yahoo! Finance
p57
sa(dp58
g3
V\u2191 Company Description: Merck, ... \u2191 Merck & Co. Inc. (MRK:New York): Financials, Bloomberg BusinessWeek, online corporate profile, accessed September 13, 2012
p59
sg5
VMerck - SourceWatch
p60
sa(dp61
g3
VMerck & Co., Inc. describes itself as "a global research-driven pharmaceutical company dedicated to putting patients first." "Putting patients first" has so far "led ...
p62
sg5
VMerck and Co. Inc. - Powerbase
p63
sa(dp64
g3
VWhy can't Merck Pharmaceutical Co. make more "shingles" vaccine? I'm looking for a rebate for shingles vaccine; Sign in to read all of Quora.
p65
sg5
VWhy can't Merck Pharmaceutical Co. make more "shingles" vaccine ...
p66
sa(dp67
g3
VMerck & Co., Inc. Competition. Merck makes medicines for a number of maladies, from stuffy noses and asthma to hypertension and arthritis. The pharmaceutical giant's ...
p68
sg5
VMerck & Co., Inc. Names of Competitors - Hoovers | Company ...
p69
sa(dp70
g3
VTo help offset those risks, one of the first things dividend investors do is look for companies operating in stable, ... Merck & Co., Inc. CAPS Rating: Home;
p71
sg5
VDoes Merck's Dividend Have Room to Soar? (MRK)
p72
sa(dp73
g3
VMerck company home page; Investor Relations; CEO Letter and Financials from 2006 Annual Review; Merck's Vioxx Information Center; ... The New York Times Co. Posts a Loss;
p74
sg5
VMerck & Company Inc. (MRK) News - Company Information - The New ...
p75
sa(dp76
g3
VMerck & Co., Inc. provides various health solutions through its prescription medicines, vaccines, biologic therapies, animal health, and consumer care products worldwide.
p77
sg5
VMRK Profile | Merck & Company, Inc. Common St Stock - Yahoo! Finance
p78
sa(dp79
g3
VMerck is one of the world's leading companies in innovative pharmaceuticals, life science solutions and cutting-edge performance materials and technologies.
p80
sg5
VHome - Merck Indonesia
p81
sa(dp82
g3
VTwo new reports involving the painkiller Vioxx raise fresh concerns about how drug companies influence the interpretation and publication of medical ...
p83
sg5
VArticles about Merck Co - Los Angeles Times
p84
sa(dp85
g3
VMerck is one of the world's leading companies in innovative pharmaceuticals, life science solutions and cutting-edge performance materials and technologies.
p86
sg5
VHome - Merck India
p87
sa(dp88
g3
V... The Food and Drug Administration has ordered Merck & Co. to correct numerous manufacturing ... who added that the company does not distribute ...
p89
sg5
VMerck - Vaccine information
p90
sa(dp91
g3
VThe company that makes it is Merck. Be aware that this is a bad drug. I just. What pharmaceutical company makes lexapro? what company makes lexapro
p92
sg5
VWhat pharmaceutical company makes adderall - The Q&A wiki
p93
sa(dp94
g3
VHome > Company > Case Studies. Merck & Co. Inc. 110 Blocks Bring Order to Multi-Location Cabling Project. When the pharmaceutical giant Merck & Co. Inc. faced the ...
p95
sg5
VMerck and Co. Inc. - Siemon - Network Structured Cabling and Data ...
p96
sa(dp97
g3
VMerck Base Case. Company: Merck & Co., Inc. Headquarters: 1 Merck Drive, Whitehouse Station, NJ 08889 Phone: (908) 423-1000 Business: Prescription drug maker
p98
sg5
VMerck Seeks a Cure - Information Technology Planning ...
p99
sa(dp100
g3
VRUNNING HEAD: MERCK & CO. INC. MANAGING ORGANIZATIONAL ... merger when completed will make this company one of the top 5 Pharmaceutical Companies in the world ...
p101
sg5
VRUNNING HEAD: MERCK & CO. INC. MANAGING ORGANIZATIONAL Merck & Co ...
p102
sa(dp103
g3
VRead exclusive insider information and reviews on Merck & Co. . Get Merck & Co. salaries, interview advice, culture, diversity and green programs.
p104
sg5
VMerck & Co. Profile Overview | Vault.com
p105
sa(dp106
g3
VMerck & Co Inc (NYSE:MRK) Add to Watch List. Set ... Disclaimer The Dow Jones Indexes SM are proprietary to and distributed by Dow Jones & Company, Inc. and have been ...
p107
sg5
VMRK - Merck & Co Inc Stock quote - CNNMoney.com
p108
sa(dp109
g3
VA Merck & Co. sales representative is suing the drugmaker for at ... Drug companies that take advantage of government programs like this force people to choose ...
p110
sg5
VMerck News, Photos and Videos - ABC News - ABCNews.com - Breaking ...
p111
sa(dp112
g3
VMerck & Co., Inc. (NYSE:MRK) ... Along with Merck, companies such as Pfizer Inc. (NYSE:PFE), AstraZeneca, Sanofi, Forest Laboratories, Bristol-Myers Squibb, ...
p113
sg5
VMerck & Co., Inc. (MRK)\u2019s Latest Drug and Strategy Concoctions ...
p114
sa(dp115
g3
V528 Merck reviews. A free inside look at company reviews and salaries posted anonymously by employees.
p116
sg5
VMerck Reviews | Glassdoor
p117
sa(dp118
g3
V* Company: Merck & Co. Inc. * Title: Vice President, Global Marketing Communications * Education: BS, Medical Technology, Kent State University (Ohio ...
p119
sg5
VMerck & Co, Inc. - Free Online Library - Free News, Magazines ...
p120
sa(dp121
g3
VMerck & Co, Inc is one of the largest pharmaceutical companies in the world. Its most common products include Singulair, an asthma medication, and Gardasil, the ...
p122
sg5
VResponsible Shopper Profile: Merck & Co, Inc.
p123
sa(dp124
g3
VGARDASIL does not treat cancer or genital warts. GARDASIL is given as 3 injections over 6 months. Your Friend's E-mail: ... a subsudiary of Merck & Co., Inc.
p125
sg5
VGardasil - Merck
p126
sa(dp127
g3
VNews: NEW YORK (AP) \u2014 Merck & Co. CEO Kenneth C. Frazier is convinced nearly everyone, from patients to long-term investors, ... Still, the company, ...
p128
sg5
VCEO: Risks key for Merck to succeed, help patients - Yahoo! News
p129
sa(dp130
g3
VMerck & Co. Inc. MRK ... For companies with multiple common share classes, ... does not make any express or implied warranties of any kind regarding the ...
p131
sg5
VMRK Stock Price Today - Merck & Co. Inc. Stock Quote - WSJ.com
p132
sa(dp133
g3
VMerck is one of the world's leading companies in innovative pharmaceuticals, life science solutions and cutting-edge performance materials and technologies.
p134
sg5
VHome - Merck Israel
p135
sa(dp136
g3
VMerck & Co., which operates as Merck Sharp and Dohme (MSD) outside the U.S. and Canada, is now an independent company. Merck KGaA operates mainly in Europe, ...
p137
sg5
VMerck KGaA - Wikipedia, the free encyclopedia
p138
sa(dp139
g3
VMerck is one of the world's leading companies in innovative pharmaceuticals, life science solutions and cutting-edge performance materials and technologies.
p140
sg5
VHome - Merck South Africa
p141
sa(dp142
g3
VMerck & Co., Inc., does not review or control the content of any non-Merck site. ... Following the merger, Merck incorporated his company as Merck & Co., Inc. ...
p143
sg5
VWhat is MERCK MEDCO MERGER?
p144
sa(dp145
g3
VNews: Merck & Co. CEO Kenneth C. Frazier is convinced nearly everyone, ... Still, the company, which has annual revenue of about $50 billion, ...
p146
sg5
VCEO: Risks key for Merck to succeed, help patients - Yahoo! News
p147
sa(dp148
g3
VMerck & Co., Inc. manufactures, markets and/or distributes more than 142 drugs in the U.S. and has 5 drugs in the top 100 drugs by U.S. sales (Q4 2012).
p149
sg5
VMerck & Co., Inc. Company Information | Drugs.com
p150
sa(dp151
g3
VMerck is one of the world's leading companies in innovative pharmaceuticals, life science solutions and cutting-edge performance materials and technologies.
p152
sg5
VHome - Merck Thailand
p153
sa(dp154
g3
V\u201c Merck is an excellent company and they take care of their employees. ... Pros \u2013 great co-workers, ... Cons \u2013 make interns work more than full time employees ...
p155
sg5
VMerck Company Reviews | Glassdoor
p156
sa(dp157
g3
VMerck & Co., Inc., as a partner of ... Energy management at Merck and Company has continued to evolve to better serve the needs of program personnel and the company.
p158
sg5
VMerck : ENERGY STAR
p159
sa(dp160
g3
VMerck & Co., Inc. (\u201cMerck\u201d or the \u201cCompany\u201d) is a global health care company that delivers innovative health solutions through its prescription medicines ...
p161
sg5
VMRK stock quote - Merck & Company, Inc. stock price - NASDAQ.com
p162
sa(dp163
g3
VMERCK & CO., INC., a corporation, and MERCK-MEDCO MANAGED CARE, ... having initiated an investigation of the acquisition by respondent Merck and Company, Inc., ...
p164
sg5
VMerck & Co., Inc. - D&O - Federal Trade Commission
p165
sa(dp166
g3
VWhat's the company culture at Merck?. Merck jobs forums.
p167
sg5
VWhat's the company culture at Merck? - Merck Jobs | Indeed.com
p168
sa(dp169
g3
VMerck & Co. Inc. is one of the largest pharmaceutical companies in the world. Drug treating high cholesterol, hypertension, and heart disease are among the company ...
p170
sg5
VMerck & Co.: News - Business Exchange
p171
sa(dp172
g3
VMerck Receives 2013 ENERGY STAR Sustained Excellence Award. > Learn More; Transparency Disclosures; ... a subsidiary of Merck & Co., Inc. All rights reserved.
p173
sg5
VCorporate Responsibility
p174
sa(dp175
g3
VThe company is known as Merck in the United States and Canada. Everywhere else, we are known as MSD. PRODUCT PIPELINE view. ... Merck.com Global Site; Investors;
p176
sg5
VMSD - We believe the most important condition is the human one.
p177
sa(dp178
g3
VOnce the world's largest drug company, Merck is now No. 6. Failure haunts it like never before. ... though he does say the company spoke to FitzGerald, ...
p179
sg5
VWill Merck Survive Vioxx? - November 1, 2004
p180
sa(dp181
g3
VMerck & Co. Q3 2012 Earnings Call October 26, 2012 8:00 AM ET. ... Cowen and Company, LLC, Research Division. And I know 2013 guidance comes in 2013, ...
p182
sg5
VMerck & Co. Management Discusses Q3 2012 Results - Earnings Call ...
p183
sa(dp184
g3
VMerck KGaA and Merck & Co. History; Publications; ... We are one of the world's leading companies in innovative ... In the USA and Canada we do business in ...
p185
sg5
VHome - EMD Group
p186
sa(dp187
g3
VI\u2019ve seen first hand how this company gives its people opportunities to develop and grow professionally. More about Frederique\u2019s story >> ... At Merck Serono, ...
p188
sg5
VHome - Merck Serono S.A.
p189
sa(dp190
g3
VMerck's participation in PPA underscores the company's commitment to helping the uninsured gain access to Merck medicines. ... a subsidiary of Merck & Co., Inc.
p191
sg5
VPatient Assistance Programs - Corporate Responsibility
p192
sa(dp193
g3
VMerck Makes Phony Peer-Review Journal ... It is this attitude within companies like Merck and among doctors that allows scandals precisely like this to happen.
p194
sg5
VMerck Makes Phony Peer-Review Journal | Bioethics.net
p195
sa(dp196
g3
VMerck & Co. Q1 2012 Earnings ... Steve Scala - Cowen and Company, LLC, Research Division. ... where we see that it really does make a difference.
p197
sg5
VMerck & Co.'s CEO Discusses Q1 2012 Results - Earnings Call ...
p198
sa(dp199
g3
VMerck & Co., Inc. (MRK) Description. A global research-driven pharmaceutical company that discovers, develops, manufactures and markets a range of innovative products ...
p200
sg5
VMerck & Co., Inc. Stock Quote MRK | DailyFinance
p201
sa(dp202
g3
VMerck & Co. Inc. (NYSE: MRK), ... More in Companies 'Iron Man 3' Tops 'The Avengers,' Sends Walt Disney Co. Shares To New 52-Week High. Honda Recall 2013: ...
p203
sg5
VMerck & Co. Inc. (MRK) Earnings Preview: Q1 Falls On Generic ...
p204
sa(dp205
g3
VMore Details for Merck & CO Inc. Merck & CO Inc in Elkton, VA is a private company categorized under Pharmaceutical Laboratory Manufacturers. Register for free to see ...
p206
sg5
VMerck & CO Inc, Elkton, VA - Company Profiles & Company ...
p207
sa(dp208
g3
VThis Summary Plan Description (SPD) describes the Merck & Co., Inc. Retirement Plan, ... that provides services to a Company) do not participate in the
p209
sg5
VYour Retirement Benefits - Merck Retirees - Welcome
p210
sa(dp211
g3
VMERCK & CO. INC. (MRK) stock price & investing information. Find MERCK & CO. INC. historical stock quotes, key competitors, stock data, executives and company news.
p212
sg5
VMERCK & CO. INC. (MRK:New York): Stock Quote & Company Profile ...
p213
sa(dp214
g3
VMerck is one of the world's leading companies in innovative pharmaceuticals, ... Merck Serono Co. Ltd. China. 10F, Tower B, Gemdal Plaza, No.91 Jianguo Road,
p215
sg5
VHome - Merck China
p216
sa(dp217
g3
V... stocks are announcing Investment Highlights on Ford Motor Company, Sirius XM Radio Inc, Merck & Co. The head of Ford Motor Company ... A study of Merck & Co., Inc
p218
sg5
VAccesswire - Newswire service for online press release ...
p219
sa(dp220
g3
VMerck is one of the world's leading companies in innovative pharmaceuticals, life science solutions and cutting-edge performance materials and technologies.
p221
sg5
VHome - Merck Japan
p222
sa(dp223
g3
VMerck is one of the world's leading companies in innovative pharmaceuticals, life science solutions and cutting-edge performance materials and technologies.
p224
sg5
VHome - Merck South Korea
p225
sa(dp226
g3
V... so this is really terrific time for the pharmaceutical companies to make a real advance in the ... Merck & Co Inc also known as Merck Sharp & Dohme or MSD ...
p227
sg5
VPharmaTelevision - Innovation- Merck's Answer To The Challenges Ahead
p228
sa(dp229
g3
VNEW YORK, March 01, 2013 - vb-news.net, one of the leaders in providing investment alerts on U.S. stocks are announcing Investment Highlights on Ford Motor Company ...
p230
sg5
VVolume Buzz: Ford Motor Company, Sirius XM Radio Inc, Merck & Co
p231
sa(dp232
g3
V... How Winning Leaders Make Great Calls,\u201d Mr. Tichy and a co-author take the Merck board to ... divorced from the way the companies really do ...
p233
sg5
VDoes Merck Agreement Pave a Road Toward Change? - NYTimes.com
p234
sa(dp235
g3
VMerck & Co. Inc. (MRK) today (Monday) agreed to pay $41.1 billion in stock and cash for Schering-Plough Corp. ... While the deal may make sense for both companies, ...
p236
sg5
VStock:Merck (MRK)/Bulls - See your portfolio in a whole new light ...
p237
sa(dp238
g3
VMerck & Co., Inc.(NYSE:MRK - News) ... Fundamental company data provided by Capital IQ. Historical chart data and daily updates provided by Commodity Systems, Inc. (CSI).
p239
sg5
VWhat\u2019s Going On: Eco Trade Corp, Merck & Co, Gilead Sciences ...
p240
sa(dp241
g3
VFind MERCK & CO. INC. (MRK) financials to make informed financial statement analysis. ... Tech companies fare well, as do producers of famous brands, such as Disney ...
p242
sg5
VMERCK & CO. INC. (MRK:New York): Financial Statements - Businessweek
p243
sa(dp244
g3
VMerck & Co. Inc. MRK (U.S.: NYSE) AD: ... A company's dividend expressed as a percentage of its ... does not make any express or implied warranties of any kind ...
p245
sg5
VMRK Stock Price Today - Merck & Co. Inc. Stock Quote - Barrons.com
p246
sa(dp247
g3
V... Owned by Merck & Co. Audio by Merck & Co. Public Online Dist ... 16:53 Corrupt and Criminal Pharmaceutical Companies by Top Wonks 391 views ...
p248
sg5
VMerck & CO. Global Engineering Services - Our Journey to Target ...
p249
sa(dp250
g3
VMerck Settles FTC Charges that Its Acquisition of Medco Could Cause Higher Prices and Reduced Quality for Prescription Drugs Company Agrees to Preserve Competition in ...
p251
sg5
VMerck and Co., Inc. (August 1998) - Federal Trade Commission
p252
sa(dp253
g3
VAt Merck Serono India, ... The most versatile co ... enables pharmaceutical and biotechnology companies to develop and manufacture clinical and commercial drug ...
p254
sg5
VProducts - Merck India
p255
sa(dp256
g3
VAdweek and others are reporting that Merck & Co. has leeched itself onto ... As might be expected, Merck company officials disputed the connection. ...
p257
sg5
VMerck news, articles and information: - Natural health news
p258
sa(dp259
g3
VEPA/JUSTIN LANE A view of a sign for Merck & Co. at the company's complex in ... The deal also would let Merck do the same thing Pfizer is trying to do with its ...
p260
sg5
VMerck agrees to merge with Schering-Plough in $41B deal | NJ.com
p261
sa(dp262
g3
V... and other legislation now requires pharmaceutical companies to make this information available ... do you think Merck would put that ... 12 more co -signatories ...
p263
sg5
VDocuments Show Merck Paid This Popular Website $3.5 Million ...
p264
sa(dp265
g3
VNews Review: Merck & Co, Time Warner Inc, the Dow Chemical Company, Altria Group Inc
p266
sg5
VNews Review: Merck & Co, Time Warner Inc, the Dow Chemical Company ...
p267
sa(dp268
g3
VMerck & Co., Inc. The Challenge: To ... As a company, Merck has 60,000-plus people in its divisions worldwide and eight major research centers in the United States ...
p269
sg5
VClient Results: Merck & Co., Inc. - Leadership Training ...
p270
sa(dp271
g3
VMerck & Co., Inc. (''the Company'l It has been agreed that the following wil 'occur: 1. Active Emolovment Status - Your active employment with the Company wil ...
p272
sg5
VRe: Merck & Co., Inc. - U.S. Securities and Exchange Commission ...
p273
sa(dp274
g3
VRaymond V. Gilmartin is the former Chairman, President and Chief Executive Officer of Merck & Co., Inc., a global research-driven pharmaceutical company that ...
p275
sg5
VRaymond Gilmartin, Former CEO of Merck & Co, Inc | JYI \u2013 The ...
p276
sa(dp277
g3
VMerck & Co. is buying Schering-Plough Corp. for $41.1 billion. Which pharmaceutical company sells botox? ... How do pharmaceutical companies make money?
p278
sg5
VWhy is the pharmaceutical company Merck merging with Schering-Plough
p279
sa(dp280
g3
VMerck & Co. announced today that it anticipates its first quarter earnings per ... Sales of Merck products were consistent with the company\u2019s expectations.
p281
sg5
VMerck Raises Outlook | WebProNews
p282
sa(dp283
g3
V... Deakin University\u2019s Philip Soos examines pharmaceutical giant Merck. Merck & Co Inc is one of the world\u2019s leading ... the company is known as Merck, ...
p284
sg5
VThe most powerful companies you've never heard of: Merck
p285
sa(dp286
g3
VGerman drugmaker Merck & Co., Inc. ... The shareholders and funds had sued the company for losses sustained due to Merck\u2019s handling of a clinical trial that caused ...
p287
sg5
VMerck & Co., Inc. (NYSE:MRK) agrees to pay $688 mln to settle ...
p288
sa(dp289
g3
VWhat pharmaceutical company makes Glucophage? Glucophage is a medication to treat type 2 diabetes and made by several manufacturers. The United States manufacturer is ...
p290
sg5
VWhat pharmaceutical company makes Glucophage? | Answerbag
p291
sa(dp292
g3
VRichard Clark was flustered and unprepared when he was thrust into the CEO job at Merck & Co. ... And Merck's labs, which other companies once hailed as a ...
p293
sg5
VIs Merck's Medicine Working? - Businessweek
p294
sa(dp295
g3
VPublished by Merck & Co., Inc. - Rahway, N.J., U.S.A. Sixth Edition Abbreviations The MERCK INDEX of Chemicals and Drugs ... Merck & Company Web Site.
p296
sg5
VMerck Index of Chemicals and Drugs - 6 th. Edition - HBC
p297
sa(dp298
g3
VHow Much Money Do Pharmaceutical Sales Reps Make?. ... Representatives working for Merck & Company as well as Johnson & Johnson report earnings of $90,000 a year, ...
p299
sg5
VHow Much Money Do Pharmaceutical Sales Reps Make? | eHow.com
p300
sa(dp301
g3
V... a subsidiary of Merck & Co., Inc., Whitehouse Station, N.J., U.S.A., ... It was published by the United States pharmaceutical company Merck & Co ...
p302
sg5
VWhat is IEXPENCE MERCK?
p303
sa.