(lp1
(dp2
S'description'
p3
VHow did Shakespeare die? Shakespeare at eNotes ... It is fairly well established that Shakespeare died on 23 April, 1616, his fifty-second birthday.
p4
sS'title'
p5
VWilliam Shakespeare How did Shakespeare die?
p6
sa(dp7
g3
VWilliam Shakespeare died on 23rd April 1616 at his home in Stratford-upon-Avon, and was buried on 25 April. It is often said that he died on his 52nd birthday, but ...
p8
sg5
VWhen did William Shakespeare die - The Q&A wiki
p9
sa(dp10
g3
VTHE BEST WILLIAM SHAKESPEARE FACTS: when, where and how he died, plus new theories on what caused his death. Learn more.
p11
sg5
VWhen Where And How Did William Shakespeare Die? What Caused ...
p12
sa(dp13
g3
VWhat religion was William Shakespeare? Read More Read Less What is Shakespeare famous for? Read More Read Less. How did Shakespeare ... When did Shakespeare die, ...
p14
sg5
VShakespeare FAQs - Shakespeare Birthplace Trust
p15
sa(dp16
g3
VWilliam Shakespeare (26 April 1564 (baptised) \u2013 23 April 1616) [nb 1] was an English poet and playwright, widely regarded as the greatest writer in the English ...
p17
sg5
VWilliam Shakespeare - Wikipedia, the free encyclopedia
p18
sa(dp19
g3
VWilliam Shakespeare: The Biography of William Shakespeare. What did Shakespeare die of? What words are on his tombstone? Where was he buried? Monuments to Shakespeare?
p20
sg5
VThe Death of William Shakespeare
p21
sa(dp22
g3
VHow Did Shakespeare Die? ... Shakespeare. New York: William Morrow, Inc., 1992. Levi, Peter. The Life and Times of William Shakespeare. London: Macmillan, 1988.
p23
sg5
VHow Did Shakespeare Die?
p24
sa(dp25
g3
VShakespeare's death From the Oxford Dictionary of National Biography: "On 23 April 1616 Shakespeare died. John Ward, a clergyman living in Stratford in the 1660s ...
p26
sg5
VHow did William Shakespeare die - The Q&A wiki
p27
sa(dp28
g3
VWilliam Shakespeare died in Stratford-upon-Avon, on April 23, 1616 -- his 53rd birthday. His burial was recorded in the register of the Holy Trinity Church ...
p29
sg5
VBen Arogundade: How Did William Shakespeare Die?
p30
sa(dp31
g3
VWilliam Shakespeare. You've probably heard of him. ... 18. Yet, all of Shakespeare's known grandchildren died, meaning he has no recognized descendents. 19.
p32
sg5
VCelebrating William Shakespeare's 449th birthday with 44.9 fun ...
p33
sa(dp34
g3
VWilliam Shakespeare died April 23rd 1616 at the age of 52 (His birth date has been estimated as 26th April 1564). The cause of his death is unknown.
p35
sg5
VWhen Was Did Shakespeare Died - Ask.com
p36
sa(dp37
g3
Vwhere did william shakespeare die? how did Shakespeare die? Where is the line "and he died" in Shakespeare? How old was Shakespeare when he died?
p38
sg5
VHow did Shakespeare die? - Yahoo! Answers
p39
sa(dp40
g3
VBest Answer: The cause of Shakespeare's death is unknown - he died April 23rd 1616 at the age of 52 (William Shakespeare's birth date has been estimated as ...
p41
sg5
VWhat did william shakespeare died of? - Yahoo! Answers
p42
sa(dp43
g3
VHow did william shakespeare die? ChaCha Answer: The cause of Shakespeare's death is a mystery, but an entry in the diary of John Ward...
p44
sg5
VHow did william shakespeare die? | ChaCha
p45
sa(dp46
g3
VHow Did William Shakespeare Die Shakespeare died when he was 52 years old in 1616 on April 23. However, this date was based on the old
p47
sg5
VHow Did William Shakespeare Die - Famous People Biography: Albert ...
p48
sa(dp49
g3
VDuring that time, medical knowledge was not up to speed, so no one knows for sure how Shakespeare died. It is speculated that he was ill quite a while befo...
p50
sg5
Vhow did william shakespeare die - Ask.com
p51
sa(dp52
g3
VWhat day was Shakespeare born, and what day did he die? Question #38134. Asked by Jug Head. (Aug 29 03 8:37 AM) sequoianoir: ... When was William Shakespeare born?
p53
sg5
VWhat day was Shakespeare born, and what day did he die?
p54
sa(dp55
g3
VBest Answer: THE DEATH OF WILLIAM SHAKESPEARE - THE GREAT BARD OF STRATFORD The cause of Shakespeare's death is unknown - he died April 23rd 1616 at the ...
p56
sg5
VHow did William Shakespeare die? Any illnesses or disease? - Yahoo ...
p57
sa(dp58
g3
VDid William Shakespeare Die a Papist? JENNIFER ROCHE In the ongoing enterprise to reveal the mysterious person behind the prized poet and playwright William ...
p59
sg5
VDid William Shakespeare Die a Papist? - Catholic Education ...
p60
sa(dp61
g3
VShakespeare's Life: Questions and Answers When was Shakespeare born? Where was Shakespeare born? How did Shakespeare die? How old was Shakespeare when he died?
p62
sg5
VShakespeare's Life: Top questions about William Shakespeare
p63
sa(dp64
g3
VWilliam Shakespeare died on April 23, 1616, and was buried two days later in the chancel of Holy Trinity Church where he had been baptized exactly 52 years earlier.
p65
sg5
VWilliam Shakespeare Shakespeare Biography
p66
sa(dp67
g3
VBefore he died he told his fianc e who did it, ... William Shakespeare married Anne Hathaway on November 28, 1582, in Worcester, in Canterbury Province.
p68
sg5
VWilliam Shakespeare Biography - Facts, Birthday, Life Story ...
p69
sa(dp70
g3
VHow many Brothers and Sisters did William Shakespeare have? When were they born? ... Did they get married? When did they die? Scandals? Grandchildren? 1592:
p71
sg5
VWilliam Shakespeare Biography
p72
sa(dp73
g3
VWilliam Shakespeare Biography describes the life of William Shakespeare. From birth to death ... William's only son died in 1596, just eleven years old ...
p74
sg5
VShakespeare Biography at AbsoluteShakespeare.com
p75
sa(dp76
g3
VWilliam Shakespeare died on 23 April 1616, according to his monument, and lies buried in the chancel of the Holy Trinity Church in Stratford upon Avon.
p77
sg5
VWilliam Shakespeare - Biography and Works. Search Texts, Read ...
p78
sa(dp79
g3
VFind out about the life and work of William Shakespeare, the famous English playwright and poet. ... Shakespeare died at age 52 of unknown causes on April 23, ...
p80
sg5
VWilliam Shakespeare \u2014 History.com Articles, Video, Pictures and ...
p81
sa(dp82
g3
VWhen did Shakespeare live? William Shakespeare was born in 1564. He grew up in Tudor England in the time of Queen Elizabeth I. ... Shakespeare died in 1616. Back to top.
p83
sg5
VBBC - Primary History - Famous People - William Shakespeare
p84
sa(dp85
g3
VWhat Year did Shakespeare Die? ChaCha Answer: William Shakespeare died at his home, 'New Place', in Stratford upon Avon on 23rd April...
p86
sg5
VWhat Year did Shakespeare Die? | ChaCha - Questions & Answers | ChaCha
p87
sa(dp88
g3
VJohn was poor when he died, ... (a kind of poem that has 14 lines in it) were published, and Mister William Shakespeare here, did not want them to be.
p89
sg5
VWILLIAM SHAKESPEARE - Explorations...
p90
sa(dp91
g3
VWhen William Shakespeare died in his birthplace of Stratford-upon- Avon, he was recognized as one of the greatest English playwrights of his era.
p92
sg5
VThe Life of William Shakespeare (1564\u20131616) | Shakespeare in ...
p93
sa(dp94
g3
VOn 23 April 1616, his 52nd birthday, William Shakespeare died. He was buried in Holy Trinity Church in Stratford, the same place he was baptized.
p95
sg5
VWilliam Shakespeare: Death - Shmoop: Homework Help, Teacher ...
p96
sa(dp97
g3
VHe died on April 23, 1616, and was buried April 25. It is ... Mr. William Shakespeare was wont to goe into Warwickshire once a yeare, ...
p98
sg5
VShakespeare's Life and Times
p99
sa(dp100
g3
VVisit this site dedicated to the playwright William Shakespeare and his famous works. William Shakespeare plays like Hamlet, Othello, King Lear, Macbeth and the Tempest.
p101
sg5
VWILLIAM SHAKESPEARE
p102
sa(dp103
g3
VShmoop guide to William Shakespeare. Biography & history of William Shakespeare, ... In the 400 or so years since Shakespeare died on his 52nd birthday in 1616, ...
p104
sg5
VWilliam Shakespeare - Shmoop: Homework Help, Teacher Resources ...
p105
sa(dp106
g3
VVisit this William Shakespeare Biography site including information about his mother and father. ... she died one year later 1564 William Shakespeare was born
p107
sg5
VThe Parents of William Shakespeare
p108
sa(dp109
g3
VThe Shakespeare authorship question is the argument about whether someone other than William Shakespeare of Stratford-upon-Avon wrote the works attributed to him.
p110
sg5
VShakespeare authorship question - Wikipedia, the free encyclopedia
p111
sa(dp112
g3
VWilliam Shakespeare 1564 - 1616 ... Shakespeare died in 1616, with some amount of mystery surrounding his dealth. There is a legend of how he died, ...
p113
sg5
VWilliam Shakespeare - Welcome to Whyville!
p114
sa(dp115
g3
VWilliam Shakespeare died on April 23, 1616, at the age of 52\u2014not bad for an era when the average life expectancy ranged between 30 and 40 years.
p116
sg5
V10 Things You Didn\u2019t Know About William Shakespeare \u2014 History ...
p117
sa(dp118
g3
VHamnet, Shakespeare's only son, died in 1596, at the age of 11. ... A Biography of the Mind of William Shakespeare by Jonathan Bate (2009); Shakespeare: ...
p119
sg5
VWilliam Shakespeare - www.kirjasto.sci.fi
p120
sa(dp121
g3
VWelcome to William Shakespeare Literature ... in Stratford, on his 52nd birthday he died. Tragedy Tragedy. Antony and Cleopatra. Coriolanus. Hamlet. Julius Caesar ...
p122
sg5
VWilliam Shakespeare - Complete Works of Shakespeare, Biography ...
p123
sa(dp124
g3
VLittle is absolutely certain about William Shakespeare's death, which occurred at his home, 'New Place', in Stratford upon Avon on 23rd April, 1616.
p125
sg5
VFacts About Shakespeare | Suite101
p126
sa(dp127
g3
VWhat did William Shakespeare leave his wife when he died? According to biographer Peter Ackroyd, William Shakespeare scarcely mentioned his wife, Anne, in his will ...
p128
sg5
VWhat did William Shakespeare leave his wife when he died? | Answerbag
p129
sa(dp130
g3
VHow Did William Shakespeare Die? The 13 Best Othello Covers Of All Time. copyright arogundade limited: fine ebooks - black history - contemporary shakespeare ...
p131
sg5
VBEST WORDS AND PHRASES William Shakespeare Invented: New ...
p132
sa(dp133
g3
VThe saying goes you live by the sword you shall die by the sword ... "Did William Shakespeare hide a message in the King James translation of the Bible?"
p134
sg5
VWilliam Shakespeare - Wikiquote
p135
sa(dp136
g3
VWilliam Shakespeare was born in Stratford-upon-Avon in Warwickshire and was baptised a few days later on 26 April 1564. ... but their son died when he was 11 years old.
p137
sg5
VBBC History - William Shakespeare
p138
sa(dp139
g3
VSince William Shakespeare did not have much ... Penn Leary has written extensively on the Baconian ciphers he finds in Shakespeare's works. Leary died on ...
p140
sg5
VShakespeare Authorship
p141
sa(dp142
g3
V\u201cImmortal! William Shakespeare ... Only De Vere seems to have died naturally though the inquest did wonder why the Earl of Oxford ...
p143
sg5
VWilliam Shakespeare - Uncyclopedia, the content-free encyclopedia
p144
sa(dp145
g3
VWilliam Shakespeare was the son of John Shakespeare, an alderman and a successful glover originally from Snitterfield, ... since Shakespeare died 23 April 1616.
p146
sg5
VThe biography of William Shakespeare
p147
sa(dp148
g3
VWilliam Shakespeare was born on April 23, ... Shakespeare's last direct descendant died in 1670. It was his granddaughter Elizabeth who never had any children.
p149
sg5
VWelcome To the William Shakespeare Home Page!
p150
sa(dp151
g3
VOn 23 April, 1616, (or thereabouts) William Shakespeare died, and was buried in the chancel of the Holy Trinity Church on 25 April. After his death, ...
p152
sg5
VShakespeare - www.watson.org
p153
sa(dp154
g3
VOn 23 April, 1616, (or thereabouts) William Shakespeare died, and was buried in the chancel of the Holy Trinity Church on 25 April. After his death, ...
p155
sg5
VShakespeare - www.watson.org
p156
sa(dp157
g3
VA SHORT BIOGRAPHY OF WILLIAM SHAKESPEARE. By Tim Lambert. ... However Hamnet died when he was 11. William Shakespeare probably went to Stratford Grammar School.
p158
sg5
VA Short Biography of William Shakespeare - A World History ...
p159
sa(dp160
g3
VDid Oxford die in 1604? Is he buried in Poet\u2019s Corner? Shakespeare\u2019s patrons; ... that such a man should ever have been born as William Shakespeare.
p161
sg5
VWhat Shakespeare did | politicworm
p162
sa(dp163
g3
VWilliam Shakespeare\u2019s purse must have made a considerable difference. ... Shakespeare died, and as a tithe-owner was buried in the chancel of the parish church.
p164
sg5
VBiography of William Shakespeare
p165
sa(dp166
g3
VSourced Hamlet (1600-02) Thou know'st 'tis common; all that lives must die, Passing through nature to eternity. Act I, scene 2, line 72. I do not set my life at a pin ...
p167
sg5
VWilliam Shakespeare quotes about death - Wikiquote
p168
sa(dp169
g3
VSimilarly, what precise date or month did William Shakespeare die during 1616 is also an enigma which remains to be validated.
p170
sg5
VWhen did William Shakespeare Start to Write?
p171
sa(dp172
g3
VWilliam Shakespeare (baptised 26 April 1564 \u2013 23 April 1616) ... Shakespeare died on 23 April 1616, and was survived by his wife and two daughters.
p173
sg5
VWilliam Shakespeare - 2008/9 Wikipedia Selection for schools
p174
sa(dp175
g3
VVisit this site dedicated to providing information about William Shakespeare.Fast and ... At least two more of his siblings died of the plague which Shakespeare ...
p176
sg5
VWilliam Shakespeare - ELIZABETHAN ERA
p177
sa(dp178
g3
VThis is the time when William Shakespeare is said ... Shakespeare not only did not die penniless but was a frequent performer ...
p179
sg5
VShakespeare FAQ at Absolute Shakespeare
p180
sa(dp181
g3
VWilliam Shakespeare 1564-1616, English dramatist and poet, b. Stratford-on-Avon. ... and the payee for this was likely to have been William. He died, ...
p182
sg5
VWilliam Shakespeare Facts, information, pictures | Encyclopedia ...
p183
sa(dp184
g3
VWilliam Shakespeare You can call him Will, and you can call him Bill, ... and where they did proceed?" Shakespeare died in 1616 at the age of 52, ...
p185
sg5
VWilliam Shakespeare - rotten.com: This is rotten dot com
p186
sa(dp187
g3
VShakespeare's son, Hamnet, died in 1596. His daughter Susanna died in 1649. ... William Shakespeare: A Compact Documentary Life. New York: Oxford University Press
p188
sg5
V51 Random Facts about William Shakespeare
p189
sa(dp190
g3
VWilliam Shakespeare's birthdate is assumed from his baptism on April 25. ... rather than having been written by a scribe. Hamilton died in 1996. William Beeston, ...
p191
sg5
VWilliam Shakespeare (I) - Biography
p192
sa(dp193
g3
VWilliam Shakespeare wrote his will in 1611, bequeathing his properties to his daughter Susanna ... William Shakespeare allegedly died on his birthday, April 23, 1616.
p194
sg5
VShakespeare Resource Center - Shakespeare's Biography
p195
sa(dp196
g3
VWilliam Shakespeare. April 23, 1564-April 23, 1616. ... This must have been a comfort to John Shakespeare in his declining years (he died in 1601), ...
p197
sg5
VWilliam Shakespeare Biography - Brandeis Users' Home Pages
p198
sa(dp199
g3
VWilliam Shakespeare was born on April 23, 1564, in Stratford-on-Avon. ... He died on April 23, 1616, and was buried two days later at Stratford Church.
p200
sg5
VWilliam Shakespeare- Poets.org - Poetry, Poems, Bios & More
p201
sa(dp202
g3
VIn the mid-sixteenth century, William Shakespeare's father, John Shakespeare, ... baptized Hamnet and Judith Shakespeare. Hamnet died at the age of eleven, ...
p203
sg5
VBiography of William Shakespeare | List of Works, Study Guides ...
p204
sa(dp205
g3
Vchildren, and William was their first son. Shakespeare did not have an extensive education. ... 1616, and died on April 23, 1616. He was fifty two years old.
p206
sg5
VQUEEN ELIZABETH WILLIAM SHAKESPEARE - Shakespeare by the Sea
p207
sa(dp208
g3
VThe hardest part to swallow is that de Vere died in ... If Shakespeare did not ... a particular inn where William Shakespeare was their usual ...
p209
sg5
VDid Shakespeare Really Write Shakespeare? - Carson-Newman
p210
sa(dp211
g3
VWilliam Shakespeare remains a mysterious figure regarding to his personal history. ... On May 3, 1616, Shakespeare died - he was 52 at the time.
p212
sg5
VWilliam Shakespeare - Free Online Library
p213
sa(dp214
g3
VWilliam Shakespeare's Hamlet ... When did Shakespeare die? 10. Extra Credit: What famous playwright is rumored to have faked his death and assumed
p215
sg5
VWilliam Shakespeare's Hamlet
p216
sa(dp217
g3
VBorn: April 23, 1564 Stratford-upon-Avon, England Died: April 23, 1616 Stratford-upon-Avon, England English dramatist and poet
p218
sg5
VWilliam Shakespeare Biography - life, family, children, story ...
p219
sa(dp220
g3
VWilliam Shakespeare is known as the 'father of English literature' who wrote more than 37 plays, 154 sonnets, 2 narrative poems and two "lost plays". First ...
p221
sg5
VHow Many Plays did Shakespeare Write? - Buzzle
p222
sa(dp223
g3
VWilliam Shakespeare (1564-1616) ... Tradition has it that he died after an evening's drinking with some of his theatre friends. In his will Shakespeare left his ...
p224
sg5
VWilliam Shakespeare (1564-1616) - Academic Resources at Missouri ...
p225
sa(dp226
g3
VWilliam Shakespeare (baptised April 26 1564, died April 23 1616) was an English poet and playwright widely regarded as the greatest writer of the English language ...
p227
sg5
VWilliam Shakespeare - encyclopedia article - Citizendium
p228
sa(dp229
g3
VWilliam Shakespeare is the grand literary figure of the Western world. ... in part because he also died on 23 April in 1616. ...
p230
sg5
VWilliam Shakespeare Biography - Birthday, Photos - Who2.com
p231
sa(dp232
g3
VWhat university did William Shakespeare attend? ... When did playwright William Shakespeare die? In what year was William Shakespeare born? ANSWERBAG BUZZ
p233
sg5
VWhat university did William Shakespeare attend? | Answerbag
p234
sa(dp235
g3
VWilliam Shakespeare was born in Stratford-on-Avon, Warwickshire, England, ... but because Shakespeare would also die on April 23, fifty-two years later.
p236
sg5
VWilliam Shakespeare
p237
sa(dp238
g3
VWho was William Shakespeare? Shakespeare was born in Stratford-upon-Avon, Warwickshire, in 1564. ... He died and was buried there in 1616. What did he write?
p239
sg5
VBasic facts about William Shakespeare, his life, his plays and the ...
p240
sa(dp241
g3
VThis poses no difficulty for the concept of William Shakespeare, actor and playwright, ... Sonnet 81: \u201cThough I, once gone, to all the world must die\u201d.
p242
sg5
VYes, Shakespeare Really Did Write Shakespeare - Forbes
p243
sa(dp244
g3
VWilliam Shakespeare Facts: 5. Shakespeare died a rich man. He made several gifts to various people but left his property to his daughter, Susanna.
p245
sg5
VShakespeare Facts: 30 Interesting Facts About William Shakespeare
p246
sa(dp247
g3
VThe life and works of William Shakespeare. WILLIAM SHAKESPEARE @ WILLIAMSHAKESPEARES.COM THE BARD IS BACK. ... To die: to sleep; No more; and by a sleep to say we end
p248
sg5
VWilliamShakespeares.com WILLIAM SHAKESPEARE: Hamlet & Shakespeare ...
p249
sa(dp250
g3
VWilliam Shakespeare, Shakespeare also spelled Shakspere, byname Bard of Avon or Swan of Avon (baptized April 26, 1564, Stratford-upon-Avon, Warwickshire, Eng.\u2014died ...
p251
sg5
VWilliam Shakespeare (English author) -- Encyclopedia Britannica
p252
sa(dp253
g3
VWelcome to the Web's first edition of the Complete Works of William Shakespeare. This site has offered Shakespeare's plays and poetry to the Internet community since ...
p254
sg5
VThe Complete Works of William Shakespeare
p255
sa(dp256
g3
VWilliam Shakespeare was baptized on April 26, ... where he died three years later. Shakespeare produced most of his known work between 1589 and 1613.
p257
sg5
VWilliam Shakespeare | American Players Theatre
p258
sa(dp259
g3
VHomework Help: English: Authors: William Shakespeare by Emily Hall ... Shakespeare was born in 1616, however he died only a year later at the age of 1.
p260
sg5
VJiskha Homework Help - English: Authors: William Shakespeare
p261
sa(dp262
g3
VIn 1582 the license for the marriage of William Shakespeare and Anne Hathaway was entered in the town records. ... In 1601 John Shakespeare died; the widow, ...
p263
sg5
VWilliam Shakespeare - Theatre Database
p264
sa(dp265
g3
VWilliam Shakespeare By: Courtney Cornelius William Shakespeare was born April 23rd, 1564 in Stratford-upon ... William Shakespeare died April 23rd, ...
p266
sg5
VWilliam Shakespeare - HRSBSTAFF Home Page
p267
sa(dp268
g3
VA collection of Mr William Shakespeare's Comedies, ... must have been seen by and likely enough had the approval of Mrs Shakespeare, who did not die until August 1623.
p269
sg5
VWilliam Shakespeare - 1911 Encyclopedia Britannica - Free Online
p270
sa(dp271
g3
VWILLIAM SHAKESPEARE, Romeo and Juliet. You take my life when you take the means whereby I live. ... To die: to sleep; No more; and by a sleep to say we end
p272
sg5
VWilliam Shakespeare Quotes
p273
sa(dp274
g3
VAnne Shakespeare died seven years after him in 1623, ... William Shakespeare: A Reader's Guide (New York, 1963). The handiest biography is Samuel Schoenbaum, ...
p275
sg5
VWILLIAM SHAKESPEARE (1564 - 1616) - Department of English ...
p276
sa(dp277
g3
VDid William Shakespeare Write His Plays. By: Derek Gerry. ... However, de Vere died in 1604, years before many Shakespeare plays were published.
p278
sg5
VDid William Shakespeare Write His Plays - Life123
p279
sa(dp280
g3
VThe cause is unknown. Confusion reigns in respect of his death. Some records state that he died from congestion of the lungs as a result of a chill he caught while ...
p281
sg5
VShakespeare, William - Fun Facts and Information
p282
sa(dp283
g3
VA timeline is available at Terry Gray's excellent web site Mr William Shakespeare and the Internet. If you are coming to Stratford with a group, ...
p284
sg5
VShakespeare's life and times - Shakespeare Birthplace Trust
p285
sa(dp286
g3
VHistory Of William Shakespeare; How Did William Shakespeare Die ? Weird Facts Of William Shakespeare; Where Did William Shakespeare Live For Most Of His Life ?
p287
sg5
VWhere Did William Shakespeare Live For Most Of His Life
p288
sa(dp289
g3
VWilliam Shakespeare (1564-1616) was born in Stratford-upon-Avon, a small country town. Stratford was famous for its malting. ... Shakespeare died on April 23, 1616.
p290
sg5
VWilliam Shakespeare - Books, Biography, Quotes - Read Print
p291
sa(dp292
g3
VWilliam Shakespeare, by universal consent the greatest author of England, ... and there he died prematurely in 1616, just as he was completing his fifty-second year.
p293
sg5
VWilliam Shakespeare - A History of English Literature
p294
sa(dp295
g3
VWilliam Shakespeare was baptised on 26 April 1564 and died 23 April 1616. ... Richard, and Thomas. Shakespeare Quiney died at six months of age, ...
p296
sg5
VResearch on shakespeare, england in his time
p297
sa(dp298
g3
VWhere did John Shakespeare (William Shakespeare's father) move to and what was his ocupation? ... died at the age of 70. His loyal wife Mary, ...
p299
sg5
VWhere did John Shakespeare (William Shakespeare's father) move to ...
p300
sa(dp301
g3
VThe volume is titled Mr. William Shakespeare's Comedies, Histories, ... entitled "On the death of William Shakespeare, who died in Aprill, Anno. Dom. 1616." 5n.
p302
sg5
VHow We Know That Shakespeare Wrote Shakespeare: The Historical Facts
p303
sa.