(lp1
(dp2
S'description'
p3
VOne of Travelver reviews about bombay palace recent experience: AS soon as we walked in Bombay palace in Beverly hills i felt like i was in my indian home.i was ...
p4
sS'title'
p5
VBombay Palace - Beverly Hills, CA - Indian Restaurant | Facebook
p6
sa(dp7
g3
VHungry for Indian food delivery in Beverly Hills? View Indian restaurants menus, coupons and reviews. Order Online - Eat24Hours
p8
sg5
VIndian Delivery Beverly Hills | Indian Restaurant Delivery Beverly ...
p9
sa(dp10
g3
VBeverly Hills has a warm and moderate Mediterranean climate, ... Indian Springs; Juniper Hills; Kagel Canyon; Kinneloa Mesa; Largo Vista; Llano; Malibu Vista; Monte Nido;
p11
sg5
VBeverly Hills, California - Wikipedia, the free encyclopedia
p12
sa(dp13
g3
VIn business for just over 25 years, Bombay Palace Beverly Hills is a popular Los Angeles destination for contemporary Indian cuisine. The unique dining room displays ...
p14
sg5
VBombay Palace Beverly Hills - Beverly Hills, CA Patch
p15
sa(dp16
g3
V170 listings of Indian Restaurants in Beverly Hills on YP.com. Find reviews, directions & phone numbers for the best indian restaurants in Beverly Hills, CA.
p17
sg5
VBeverly Hills Indian restaurants | Indian restaurants in Beverly ...
p18
sa(dp19
g3
VAt Bombay Palace we have aspired to bring to your table a menu that reflects the cosmopolitan culture and culinary specialties Of Northern India. Serving Indian food ...
p20
sg5
VBombay Palace - Beverly Hills Restaurant - Beverly Hills, CA ...
p21
sa(dp22
g3
VAwarded one of the Top 10 Indian Restaurants in Los Angeles. TANZORE is a Beverly Hills restaurant offering the best exotic indian food. Elegant and intimate dining ...
p23
sg5
VBest Indian Restaurant in Los Angeles - Exotic fusion Cuisine that ...
p24
sa(dp25
g3
V(310) 786-7858  "The manager of Nawab of India (Santa Monica) switched to Maurya about 6 months ago and took most of his staff along with him. I believe ...
p26
sg5
VMaurya Indian Cuisine - Beverly Hills - Beverly Hills, CA
p27
sa(dp28
g3
VBeverly Hills Former Gaylord Indian Restaurant - NEWS BlazeSleek, modern, sexy, three words that describe the atmosphere at Beverly Hills fine dining Indian ...
p29
sg5
VBest Indian Restaurant in Los Angeles - Exotic fusion Cuisine that ...
p30
sa(dp31
g3
VThe city of Beverly Hills, California has a few (4) Indian restaurants. Note that Indian restaurants are constantly going out of business or changing management and ...
p32
sg5
VIndian restaurants in Beverly Hills, California (CA)
p33
sa(dp34
g3
VIndian Restaurants in Beverly Hills, CA on Yahoo! Local Get Ratings & Reviews on Indian Restaurants with Photos, Maps, Driving Directions and more.
p35
sg5
VIndian Restaurants in Beverly Hills, CA on Yahoo! Local
p36
sa(dp37
g3
VSo my father bought a cologne when he was in USA. He bought Beverly hills Polo Club Classic this one ( http://www.fragrancex.com/images/products/parent ...
p38
sg5
VWhich is the equivalent of Club Polo Beverly Hills Classic in ...
p39
sa(dp40
g3
VBest Indian restaurants Beverly Hills, CA: 8 restaurants with reviews, ratings, menus and discounts.
p41
sg5
VBest Indian restaurants Beverly Hills, CA
p42
sa(dp43
g3
VDr. Sejal M. Patel, a plastic surgeon in Beverly Hills, Calif., ... In the study, Indian American women were divided into three surgical categories.
p44
sg5
VBeverly Hills Surgeon Explores Challenges of Ethnic Rhinoplasty
p45
sa(dp46
g3
VThe historic movie house, which opened in 1937, is owned by Indian conglomerate Spice Global, which had planned to show Bollywood films there. The Beverly ...
p47
sg5
VBeverly Hills' Fine Arts Theater for Sale at $4 Million (Exclusive ...
p48
sa(dp49
g3
VLuxury Iconic Hotel - The Beverly Hills Hotel & Bungalows, Los Angeles Official Site, Part of Dorchester Collection of Luxury 5 Star Hotels.
p50
sg5
VBeverly Hills Hotel, Luxury 5 Star Hotel Beverly Hills, Hotels Los ...
p51
sa(dp52
g3
VRecently named one of Los Angeles Magazines BEST 75 Restaurants! Sleek. Modern. Sexy. This is Tanzore, the spectacular Modern Indian Restaurant located on La Cienega ...
p53
sg5
VTanzore Restaurant - Beverly Hills, CA | OpenTable
p54
sa(dp55
g3
VBeverly Hills Pawn Shop, ... It belonged once to Nizam of Hyderabad, an Indian prince. Like  Comment  Share. ... equivalent to the weight of about 3,000 people.
p56
sg5
VBeverly Hills Pawn Shop - Beverly Hills, CA - Pawn Shop | Facebook
p57
sa(dp58
g3
VThe top Indian restaurant in Los Angeles. Located in Beverly Hills. Chef from Bhukara in New Delhi
p59
sg5
VGALLERY | Nirvana Beverly HillsNirvana Beverly Hills
p60
sa(dp61
g3
Vindian reservations for Beverly Hills, CA. Find phone numbers, addresses, maps, driving directions and reviews for indian reservations in Beverly Hills, CA.
p62
sg5
Vindian reservations Beverly Hills | Find indian reservations in ...
p63
sa(dp64
g3
VTaj Mahal of India, Indian Restaurant in Beverly Hills. Reviews from critics, food blogs and fellow diners.
p65
sg5
VTaj Mahal of India - Beverly Hills - Los Angeles | Urbanspoon
p66
sa(dp67
g3
VSaffron in Beverly Hills is close to my internship on Mondays. ... and cheap Indian eats in LA without driving down to Cerritos (the hub of all things Indian).
p68
sg5
VSaffron - Beverly Hills | Urbanspoon - Welcome to Urbanspoon
p69
sa(dp70
g3
VHire Bellytwins: BELLY DANCE of Beverly Hills, California for your Wedding, Corporate Event, or Private Party. ... They spoke first about Bollywood, ...
p71
sg5
VBellytwins: BELLY DANCE - Belly Dancer - Beverly Hills
p72
sa(dp73
g3
VBeverly Center is Southern California's premier fashion destination with 160 distinctive specialty boutiques reflecting the diverse styles and tastes of Los Angeles ...
p74
sg5
VBeverly Center: Beverly Center
p75
sa(dp76
g3
VThe Top Rated Indian restaurant in Los Angeles. Bombay Palace in Beverly Hills, CA. View Bombay Palace menu, Order Healthy Authentic Indian food to delivery from ...
p77
sg5
VBombay Palace - Beverly Hills, CA | Order Food Online | Clorder
p78
sa(dp79
g3
VWhere the Stars Live: a look at the community of Beverly Hills, and its Hollywood connections.
p80
sg5
VBeverly Hills - SEEING STARS: the Ultimate Guide to Hollywood ...
p81
sa(dp82
g3
VFull-Time Equivalent Teachers; ... Beverly Hills Int includes grades 07 through 08 and has a total of 1,002 students, ... American Indian/Alaska Native Students: 1:
p83
sg5
VBeverly Hills Int - Houston, TX. Students, Teachers, and Facts
p84
sa(dp85
g3
VThe top Indian restaurant in Los Angeles. Located in Beverly Hills. Chef from Bhukara in New Delhi
p86
sg5
VNirvana Beverly HillsNirvana Beverly Hills
p87
sa(dp88
g3
VWe are pleased to feature a new concept in Indian Cuisine for Californians. ... 326 S. Beverly Dr. Beverly Hills, CA 90212 (310) 203-3367 Full map and directions .
p89
sg5
VPradeep's - Beverly Hills, CA - LA.com - Your Guide to Los Angeles ...
p90
sa(dp91
g3
VCount of American Indian/Alaskan Native Students: 0: ... Number of Full-Time Equivalent Teachers; ... FAQ for Beverly Hills Rc School in Los Angeles, ...
p92
sg5
VBeverly Hills Rc School - Los Angeles, California | Private School ...
p93
sa(dp94
g3
VHungry for Beverly Hills food delivery? Order food online, Its Free. Browse Beverly Hills restaurants delivery menus. Sushi, Chinese, Pizza, Indian, Thai | Eat 24 Hours
p95
sg5
VBeverly Hills Food Delivery | Beverly Hills Restaurant Delivery ...
p96
sa(dp97
g3
VAmerican Indian alone - 29 (0.09%) Native Hawaiian and Other Pacific Islander alone ... Beverly Hills-area historical earthquake activity is above California state ...
p98
sg5
VBeverly Hills, California (CA) profile: population, maps, real ...
p99
sa(dp100
g3
VRecently Reviewed Hotels around Beverly Hills Beverly Terrace Hotel. 3.5 out of 5, 229 Reviews. ... Indian; Irish; Italian; Japanese; Mediterranean; Mexican/Southwestern;
p101
sg5
VBeverly Hills, CA Restaurants: See 212 restaurants with 4,885 ...
p102
sa(dp103
g3
V230 S Beverly Dr, Beverly Hills CA 90212 34.064121-118.399211 (At Charleville Blvd) (310) 248-5211; 0. Profile & Reviews; ... You can have the basics of Indian food here.
p104
sg5
VSaffron - Beverly Hills Restaurant - MenuPages Indian Restaurant ...
p105
sa(dp106
g3
V(310) 652-3838  Recently named one of Los Angeles Magazines BEST 75 Restaurants! Sleek. Modern. Sexy. This is Tanzore, the spectacular Modern Indian ...
p107
sg5
VTanzore in Beverly Hills | Tanzore (310) 652-3838 # 50 N La ...
p108
sa(dp109
g3
VProperty valuation of Beverly Estate Drive, Beverly Hills, CA: 1207, 1211, 1217, 1223, 1230, 1245, 1259, 1265, 1271, 1275 (tax assessments)
p110
sg5
VProperty valuation of Beverly Estate Drive, Beverly Hills, CA ...
p111
sa(dp112
g3
VHAPPY HOURS Sun-Fri 4:30 pm-7:00 pm ( Bar and Lounge only ) Champagne brunch buffet Sunday 11:30am- 3:00 pm Lunch Hours : Monday -Sat 11:30 am -3pm Dinner : Sun-Thur ...
p113
sg5
VIndian Cuisine,indian food,Indian restaurant,bar - :: Chakra ::
p114
sa(dp115
g3
VA Beverly Hills restaurant landmark for several generations, the Brighton Coffee Shop features ... Indian Bombay Palace $$ 8690 Wilshire Blvd (310) 659-9944
p116
sg5
Vbeverly hills restaurants, los angeles restaurants, menus
p117
sa(dp118
g3
VThe sultry siren Chitrangada Singh inaugurates the first exclusive store of desiner wear Beverly Hills Polo Club in Mumbai. For Daily Updates And Fun Stuff ...
p119
sg5
VBollywood World - Chitrangada Singh at Beverly Hills Polo Club ...
p120
sa(dp121
g3
VFind Meetup Groups in Beverly Hills, CA, us about Indian Professionals
p122
sg5
VIndian Professionals Meetups near Beverly Hills, California ...
p123
sa(dp124
g3
VMember of Priyanka's US entourage found dead in Beverly Hills hotel. Home > Bollywood > Titbits ... John is one of the nicest guys I have ever met in Bollywood.
p125
sg5
VOMG! Member of Priyanka's US entourage found dead in Beverly Hills ...
p126
sa(dp127
g3
VFind out more about Tanzore in Beverly Hills, ... Sexy. Tanzores dining room is both chic and elegant accented with subtle reflections of Indian culture.
p128
sg5
VTanzore in Beverly Hills: Get Discounted Gift Certificates, Menus ...
p129
sa(dp130
g3
V"My husband and I are always searching for quality Indian food when we travel. Almost ..."  "This is a great Indian restaurant - and the food is actually ...
p131
sg5
VChakra, Beverly Hills - Restaurant Reviews - TripAdvisor
p132
sa(dp133
g3
VBest restaurant in Beverly Hills. Experience fine dining as only the farm has to offer - warm and charming ambience, wonderful food and friendly service
p134
sg5
VWelcome to the Farm of Beverly Hills
p135
sa(dp136
g3
VIndian/Pakistani Restaurants; Indonesian Restaurants; Restaurants by Neighborhood . Los Angeles; Central City; ... 300 S Doheny Dr Beverly Hills CA 90211 (310) 273-2222.
p137
sg5
VFind Restaurants in Beverly Hills - Los Angeles Hotels ...
p138
sa(dp139
g3
VHome > Restaurants > California > Los Angeles Area > Beverly Hills. Change Location Los ... Tanzore is a modern Indian restaurant from Sudesh Sood and ...
p140
sg5
VTanzore Restaurant & Lounge Beverly Hills Los Angeles CA Reviews ...
p141
sa(dp142
g3
VBeverly Hills Elementary School located in Concord, North Carolina. Find Beverly Hills Elementary School test scores, student and teacher info, and parent reviews.
p143
sg5
VBeverly Hills Elementary School in Concord, NC | Education.com
p144
sa(dp145
g3
V"Restaurants Beverly Hills" If You Want a Unique and Private Fine Dining Experience Including World Class Entertainment at Crustacean Restaurant in the Heart of ...
p146
sg5
VRestaurants Beverly Hills
p147
sa(dp148
g3
VWatch The Real Housewives of Beverly Hills Season 2 Episode 8 The Opposite of ... If you want to get latest updates on the Indian Television Industry or ...
p149
sg5
VWatch The Real Housewives of Beverly Hills Season 2 Episode 8 ...
p150
sa(dp151
g3
VBeverly Hills Club 31555 Southfield Rd. Beverly Hills, MI 48025 248-642-8500
p152
sg5
VSwim | Beverly Hills Club
p153
sa(dp154
g3
VBeverly Hills Elementary School located in Concord, North Carolina. Find Beverly Hills Elementary School test scores, student and teacher info, and parent reviews.
p155
sg5
VBeverly Hills Elementary School in Concord, NC | Education.com
p156
sa(dp157
g3
V"Restaurants Beverly Hills" If You Want a Unique and Private Fine Dining Experience Including World Class Entertainment at Crustacean Restaurant in the Heart of ...
p158
sg5
VRestaurants Beverly Hills
p159
sa(dp160
g3
VWatch The Real Housewives of Beverly Hills Season 2 Episode 8 The Opposite of ... If you want to get latest updates on the Indian Television Industry or ...
p161
sg5
VWatch The Real Housewives of Beverly Hills Season 2 Episode 8 ...
p162
sa(dp163
g3
VBeverly Hills Club 31555 Southfield Rd. Beverly Hills, MI 48025 248-642-8500
p164
sg5
VSwim | Beverly Hills Club
p165
sa(dp166
g3
VVisit Beverly Wilshire, an historic Beverly Hills luxury hotel on Wilshire Boulevard near Rodeo Drive, offering fine dining restaurants, spa and pool.
p167
sg5
VBeverly Hills Hotels | Hotel in Beverly Hills | Beverly Wilshire
p168
sa(dp169
g3
VFrom the best Beverly Hills wedding photographers to top Beverly Hills wedding locations; ... Indian Weddings; Jewish Weddings; Muslim Weddings; Hindu Weddings;
p170
sg5
VBeverly Hills, CA Weddings \u2013 Beverly Hills Wedding Planning ...
p171
sa(dp172
g3
VBeverly Hills restaurants listing with Australian Explorer featuring restaurants and cafes located in Beverly ... Indian. 465 King Georges Road Beverly Hills, ...
p173
sg5
VBEVERLY HILLS RESTAURANTS, EATING OUT IN BEVERLY HILLS ...
p174
sa(dp175
g3
VBollywood Hottest Model Chitrangada Singh At Beverly Hills Polo Club Store Launch, ... Bollywood Hottest Model Chitrangada Singh At Beverly Hills Polo Club Store ...
p176
sg5
VBollywood Hottest Model Chitrangada Singh At Beverly Hills Polo ...
p177
sa(dp178
g3
VBeverly Elementary School located in Beverly Hills, Michigan. Find Beverly Elementary School test scores, student and teacher info, and parent reviews.
p179
sg5
VBeverly Elementary School in Beverly Hills, MI | Education.com
p180
sa(dp181
g3
VTanzore reflects the contemporary movement of Indian cuisine toward more modern taste and culinary sensibilities. Come with us and experience the evolution of Indian ...
p182
sg5
VTanzore Restaurant & Lounge in Beverly Hills, CA - Menu, Reviews ...
p183
sa(dp184
g3
Vrestaurant beverly hills - the farm - experience fine dining as only the farm has to offer - dining los angeles - warm and charming ambience, wonderful food and ...
p185
sg5
VThe Farm of Beverly Hills - Our original location on North Beverly ...
p186
sa(dp187
g3
VCity of Beverly Hills Concludes Discussions with Broad Art Foundation of the property. In a letter to Eli Broad, Beverly Hills City Manager Jeff Kolin said, "While ...
p188
sg5
Vwebsite - City Of Beverly Hills
p189
sa(dp190
g3
V18305 Beverly Rd, Beverly Hills, MI 48025 | (248) 203-3164. ... Total Full Time "Equivalent" Teachers: ... American Indian: 1: 0.3%: Black: 30: 8.1%: Asian: 5: 1.4% ...
p191
sg5
VBeverly Elementary School in Beverly Hills, MI 48025
p192
sa(dp193
g3
VTakeOutTonight.com is the restaurant search engine, featuring restaurants in Beverly Hills, CA, restaurant menus in Beverly Hills, ... Cuisine: Indian Misc
p194
sg5
VBeverly Hills, CA Restaurant Menus - Beverly Hills, CA Restaurants ...
p195
sa(dp196
g3
VWatch travel videos about Beverly Hills, California at VideoSurf Video Search Engine, where you'll find the best videos from across the web about Beverly Hills, ...
p197
sg5
VBeverly Hills, California Vacations, Tourism, Guides, Hotels ...
p198
sa(dp199
g3
VShe looks like Alex McCord and she has the soul hollowness of a cigar store Indian. ... friend in the RHOBH equivalent of ... of Beverly Hills or Orange ...
p200
sg5
VThe Real Housewives of Beverly Hills Recap: The Vanderpump Gambit
p201
sa(dp202
g3
VVery Delicious Mediterranean Food - Delivery Online - in Beverly Hills, CA. Order Mediterranean Cuisine Delivery Online from Aram Restaurant. Our online food tastes ...
p203
sg5
VAram Restaurant | 90212 | Beverly Hills | Order Online ...
p204
sa(dp205
g3
VBEVERLY HILLS, CA, Jan. 9 / PRNewswire / ... Indian fashion designer Suneet Varma, recently showcased his new collection at the India Splendor Festival in Los Angeles.
p206
sg5
VBeverly Hills fashion | fashion videos and interviews | Men's and ...
p207
sa(dp208
g3
VOriginally based around the lives of a group of high school students living in the wealthy Beverly Hills neighborhood, then later moving on to their college days as ...
p209
sg5
VBeverly Hills, 90210 (TV Series 1990\u20132000) - IMDb
p210
sa(dp211
g3
VI am selling two pair of breading indian ringneck mix blue and green only under three years old they gave me lovley baby last year 250. ... Beverly Hills. 06/05/2013.
p212
sg5
VINDIAN RINGNECK BREADING PAIR | Birds | Gumtree Australia ...
p213
sa(dp214
g3
V50 N La Cienega Blvd, Beverly Hills, CA 90211. ... amazing moms food, very expensive indian food, recommend indian restaurant, great personalized service, ...
p215
sg5
VMap of Tanzore Restaurant & Lounge in Beverly Hills
p216
sa(dp217
g3
VRestaurants in Beverly Hills CA California, Fine Dining, Menus, Nightclubs, ... Gangadin Indian Cuisine 326 South Beverly Drive \u2022 Beverly Hills, CA 90212
p218
sg5
VRestaurants Beverly Hills CA California + Fine Dining - City Guide
p219
sa(dp220
g3
VIndian; Italian; Japanese/Sushi; Korean ... Drive on this special day to celebrate the automobile equivalent of Rodeo ... free event which kicks off Italian Week in ...
p221
sg5
VRodeo Drive Concours D'Elegance - Visit Beverly Hills | Hotels ...
p222
sa(dp223
g3
VAre you excited to see Manish Dayal on Beverly Hills, 90210? Share your thoughts. Previous Article. ... Bollywood; Hip-Hop/R&B; Pop/Fusion; Urban Desi; Music. All ...
p224
sg5
VManish Dayal to Play Raj on 'Beverly Hills, 90210' - on desihits.com
p225
sa(dp226
g3
VBeverly Hills Cop on IMDb: Movies, TV, Celebs, and more...
p227
sg5
VBeverly Hills Cop (1984) - Full cast and crew
p228
sa(dp229
g3
VRestaurant menu, map for Chakra located in 90211, Beverly Hills CA, 151 S Doheny Dr. Chakra. ... Tandoor cooked mushrooms stuffed with indian spices & paneer.
p230
sg5
VChakra menu - Beverly Hills, CA 90211 - (310) 246-3999
p231
sa(dp232
g3
VChakra Restaurant & Lounge Restaurant Review: This stylish Beverly Hills destination offers contemporary Indian cuisine in a vibrant setting. The main dining room is ...
p233
sg5
VChakra Restaurant & Lounge Beverly Hills Los Angeles CA Reviews ...
p234
sa(dp235
g3
VGangadin Indian Cuisine 326 South Beverly Drive Beverly Hills, CA 90212 310-553-0995 website. Combining the ... Beverly Hills Area Attractions. Gagosian Gallery
p236
sg5
VGangadin Indian Cuisine - Beverly Hills, CA - 90212 Dining, Restaurant
p237
sa(dp238
g3
VGossip - Real Housewives of Beverly Hills \u2014 the latest RHoBH gossip, photos, videos, music, spoilers, and recaps.
p239
sg5
VGossip - Home - wetpaint.com
p240
sa(dp241
g3
VA member of Priyanka's entourage found dead in Beverly Hills hotel. ... Bollywood's 'desi girl' Priyanka Chopra has donned the look of a spiritual diva in a new ...
p242
sg5
VA member of Priyankas entourage found dead in Beverly Hills hotel ...
p243
sa(dp244
g3
VDavita Beverly Hills Dialysis Center is a large dialysis clinic with 24 stations ... Staff is made up of the full time equivalent of 7.76 ... Indian: 43 (0.13% ...
p245
sg5
VDavita Beverly Hills Dialysis Center in Beverly Hills, CA ...
p246
sa(dp247
g3
VIndian; 8689 Wilshire Blvd, Beverly Hills CA 90211 34.06678-118.381216 (At N Hamel & N Willaman Dr) (310) 657-5040; 0. Profile & Reviews;
p248
sg5
VNirvana - Beverly Hills Restaurant - MenuPages Indian Restaurant ...
p249
sa(dp250
g3
VBeverly Hills Plastic Surgeon, Dr. Raj Chopra is a medical professional dedicated to excellence in Facial Plastic Surgery, Peels, Fillers & Laser treatments. Located ...
p251
sg5
VBeverly Hills Plastic Surgeon - Raj Chopra MD, FACS - Facial ...
p252
sa(dp253
g3
VIndian Lawyers in Beverly Hills, California, US - Legal & Government & Immigration - Copper Pages\u2122. The Largest Indian US Yellow Pages for the South Asian, Desi ...
p254
sg5
VIndian Lawyers in Beverly Hills, California, US - Legal ...
p255
sa(dp256
g3
VAnd your yard is now the farming equivalent ... dinner at a Moroccan restaurant that Kim mistook for an Indian ... "The Real Housewives of Beverly Hills ...
p257
sg5
VRebecca Shapiro: 'Real Housewives Of Beverly Hills' Recap ...
p258
sa(dp259
g3
VBeverly Hills Board Track Racing (1921) Sponsor: Indian Motocycle Company. Production Company: Unknown. Transfer Note: Digital file made from a 35mm print preserved ...
p260
sg5
VNational Film Preservation Foundation: Beverly Hills Board Track ...
p261
sa(dp262
g3
V\u201dI have a lot of history here at the Beverly Hills ... Porn star Priya Rai Goes to Bollywood ... the Bank of Japan announced it would pump the equivalent of ...
p263
sg5
V100th Anniversary of the Beverly Hills Hotel and Bungalows ...
p264
sa(dp265
g3
VWhat does Beverly mean? Beverly origin. Popularity of name Beverly. ... Famous as a place name referring to Beverly Hills. The English spelling is usually Beverley.
p266
sg5
VBeverly | meaning of Beverly | name Beverly (girl)
p267
sa(dp268
g3
VCount of American Indian/Alaskan Native Students: 0: ... Number of Full-Time Equivalent Teachers; ... FAQ for Kabbalah Children's Academy in Beverly Hills, ...
p269
sg5
VKabbalah Children's Academy - Beverly Hills, California | Private ...
p270
sa(dp271
g3
VMuch like mankind's ability to cry during sunsets, Indian cuisine has been cultivated over thousands of years. ... Beverly Hills, California 90211 (310) 659-9944
p272
sg5
VBombay Palace \u2013 Beverly Hills
p273
sa(dp274
g3
VThe Beverly Hills Summer Academy, a program of the Beverly Hills Education Foundation, ...
p275
sg5
VBeverly Hills Unified School District
p276
sa(dp277
g3
VBeverly Hills > Rental 980168 Back to Search Write a Review Experience the Beauty of Miracle Mile. Overview ... Approximate equivalent in: ...
p278
sg5
VBeverly Hills Apartment Rental: Experience The Beauty Of Miracle ...
p279
sa(dp280
g3
VLos Angeles Indian Community, Los Angeles Desi Community, ... Beverly Hills; Artesia; Anaheim; Santa Monica; Irvine; Glendale; Burbank; Encino; West Hollywood ...
p281
sg5
VLos Angeles Indian Community, Los Angeles Desi Community (Los ...
p282
sa(dp283
g3
VThe heart of Beverly Hills, in the exclusive residential district, north of Santa Monica and south of Sunset Blvd. ... Approximate equivalent in: ...
p284
sg5
VBeverly Hills Studio Rental: Rodeo Drive Studio | HomeAway
p285
sa(dp286
g3
VBeverly Hills Polo Club, ... Bollywood. Tags: Chitrangada Singh. Other articles related to this page. Chitrangada Singh @ Titan\u2019s Obaku collection Launch \u2013 Pics;
p287
sg5
VChitrangada Singh launches Beverly Hills Polo Club in Mumbai
p288
sa(dp289
g3
VBeverly Hills Chihuahua (2008) [Megavideo] Video - watch Megavideo Movies new films online tv series Bollywood Hollywood WWS Tamil dubbed quicksilverscreen movie ...
p290
sg5
VBeverly Hills Chihuahua (2008) [Megavideo] Video - watch Megavideo ...
p291
sa(dp292
g3
VView current Beverly Hills, CA Restaurants for Lease and Rent on LoopNet.com. Get Beverly Hills Restaurants recent sales comparables, Beverly Hills commercial real ...
p293
sg5
VBeverly Hills Restaurants For Lease - LoopNet - #1 in Commercial ...
p294
sa(dp295
g3
VHave your wedding at Beverly Wilshire, a luxury hotel on Rodeo Drive in the heart of Beverly Hills. Find information on wedding venues, wedding planning and more.
p296
sg5
VBeverly Hills Weddings | Los Angeles Weddings | Beverly Wilshire
p297
sa(dp298
g3
VJulie Klausner on season three's MVP. ... Do you feel that in the air? The warm breeze of spring? Things are changing, winding down, starting anew.
p299
sg5
VReal Housewives of Beverly Hills Reunion 2 Recap -- Vulture
p300
sa(dp301
g3
VHollywood Landmarks: a unique park, running for two miles through Beverly Hills.
p302
sg5
Vthe city of Beverly Hills, CA. / (310) 271-8174
p303
sa.