(lp1
(dp2
S'description'
p3
VBest Answer: 4 films. Superman 1, 2, 3, and 4. He also played a small but crucial role in the television show Smallville (which of course is Superman-related).
p4
sS'title'
p5
VHow many superman films did christopher reeves play in? - Yahoo ...
p6
sa(dp7
g3
VReeve still did not think he had much of a chance. ... Following the first Superman movie, Reeve found that Hollywood producers wanted him to be an action star.
p8
sg5
VChristopher Reeve - Wikipedia, the free encyclopedia
p9
sa(dp10
g3
VWhat were the films christopher reeves played Superman in? He Played Him In Superman I-II-III-IV. Did christopher reeves play Superman? Yes, but he died after being ...
p11
sg5
VIn how many films did Christopher Reeves play Superman - The Q&A wiki
p12
sa(dp13
g3
VConsidering that \u201cYou\u2019ll Believe a Man Can Fly\u201d was the tagline for Richard Donner\u2019s 1978 Superman: The Movie, ... to resemble Christopher Reeve. He was never ...
p14
sg5
VZack Snyder Talks \u2018Violent\u2019 Flight in \u2018Man of Steel ...
p15
sa(dp16
g3
VChristopher Reeve was born September 25, 1952, in New York City. ... Many artists drew Reeve as Superman flying away from the wheelchair. In one picture, ...
p17
sg5
VChristopher Reeve - Biography
p18
sa(dp19
g3
VReeve said, "What makes Superman a hero is not that he has power, ... DC Comic's Superman II The Movie Magazine 1981. The Christopher Reeve Scrapbook by Margery ...
p20
sg5
VBiography (Christopher Reeve Homepage)
p21
sa(dp22
g3
V2010 - 'Justice League: Crisis on Two Earths' Animated Movie 2010 - 'Superman/Batman: Apocalypse' Animated Movie 2010 - 'Superman/Shazam!: The Return of Black Adam ...
p23
sg5
VSuperman Homepage - Movies
p24
sa(dp25
g3
VGet the complete biography of Christopher Reeve on Yahoo! Movies. ... the then-unknown Reeve became an overnight success when he was cast in "Superman: The Movie" ...
p26
sg5
VChristopher Reeve Biography - Yahoo! Movies
p27
sa(dp28
g3
VThere are 5 Superman movies. 1)Superman The Movie-Christopher Reeve 2) Superman II-Christopher Reeve 3)Superman III-Christopher Reeve 4)Superman IV-The Quest For ...
p29
sg5
VHow many Superman movies are there - The Q&A wiki
p30
sa(dp31
g3
VThrough the early '80s such films as "Superman II," "Deathtrap ... It's a good deal more to work as hard as Reeve does to make that life useful. "Chris has put a ...
p32
sg5
Vwashingtonpost.com: Style Live: Style: Style Showcase
p33
sa(dp34
g3
VFind the complete movie career of Christopher Reeve, including filmography, awards and biography on Yahoo! ... Superman/Clark Kent: Christopher Reeve: Courageous Steps:
p35
sg5
VChristopher Reeve | Movies and Biography - Yahoo! Movies
p36
sa(dp37
g3
VActor: Superman (1978)  The Remains of the Day (1993)  Superman II (1980)  Superman III (1983). Christopher Reeve was born September 25, 1952, in New York City ...
p38
sg5
VChristopher Reeve - IMDb
p39
sa(dp40
g3
VThe four Christopher Reeve films were again released on November 28, 2006, in new DVD releases to coincide with Superman Returns, also released in that year.
p41
sg5
VSuperman in film - Wikipedia, the free encyclopedia
p42
sa(dp43
g3
VChristopher Reeve Superman Photos, Images, Movies, Videos and More! ... on the weight training he did for Superman-The Movie \u2013 undated. ...
p44
sg5
VChristopher Reeve Quotes | CapedWonder\u2122 Superman Imagery ...
p45
sa(dp46
g3
VWe've all seen the movies, or at least heard about them. The Superman movies. In these movies, actor Christopher Reeve played a superhero named Superman ...
p47
sg5
VNot Only was Christopher Reeve a Film Star, He was Also a Real ...
p48
sa(dp49
g3
VIncludes: SUPERMAN THE MOVIE 4-DISC SPECIAL EDITION 2000 Expanded Edition Movie with Commentary by Director Richard Donner and Creative Consultant Tom Mankiewicz 2 ...
p50
sg5
VThe Christopher Reeve Superman Collection (Superman - The Movie ...
p51
sa(dp52
g3
VChristopher Reeve Movies Though he has played a variety of leading roles, tall, ... This is an HBO documentary narrated by Superman himself, Christopher Reeve.
p53
sg5
VChristopher Reeve Movies
p54
sa(dp55
g3
VSynopsis: Director Richard Donner brings the legendary character Superman to the big screen, with Golden Globe-nominee Christopher Reeve as the Man of Steel. Starring ...
p56
sg5
VAmazon.com: The Superman Movie: Marlon Brando, Gene Hackman ...
p57
sa(dp58
g3
VChristopher Reeve, Brandon Routh, and Henry Cavill Superman movies news, images, information, and discussions.
p59
sg5
VSuperman the movies
p60
sa(dp61
g3
VThus, Christopher Reeve has become Superman for real. ... He wasn't just here to be an actor. He was Superman. Superman: The Movie director Richard Donner.
p62
sg5
VChristopher Reeve - Wikiquote
p63
sa(dp64
g3
VChristopher Reeve Homepage! - Information on Christopher Reeve. Including Movie Reviews, News and Information, Huge List of Relevant Links, Fundraising Information ...
p65
sg5
VSuperman IV: The Quest for Peace (1987) - Christopher Reeve Homepage
p66
sa(dp67
g3
VGreetings Friends! Welcome to CapedWonder\u2122.com. Here you will be able to enjoy a large variety of rare, unique and high-quality Christopher Reeve and Superman movie ...
p68
sg5
VCapedWonder\u2122 Superman Imagery. Christopher Reeve Superman Photos ...
p69
sa(dp70
g3
VBest Answer: He was the actor who played as Superman in the original Superman movies.How do you not know Christopher Reeves?There were 6 Superman movies ...
p71
sg5
VWho is Christopher Reeves that Eminem mentions in his songs ...
p72
sa(dp73
g3
VSuperman Movies - Man of Steel - Superman Returns - Christopher Reeve - Brandon Routh - Henry Cavill ... Christopher Nolan will produce the reboot, ...
p74
sg5
VSuperman Movies - Man of Steel - Superman Returns - Christopher ...
p75
sa(dp76
g3
VRichard Donner shares his thoughts on what Christopher Reeve meant to him and the character of Superman on screen.
p77
sg5
VRichard Donner On Christopher Reeve and Superman
p78
sa(dp79
g3
V... the suit didn\u2019t make him Superman, he did. ... What makes Christopher Reeve\u2019s run as Superman so memorable was that ... for Untitled Sci-Fi Chase Movie ...
p80
sg5
VSuit Me Up: Superman Pt. 2 | News & Views on all Superhero films ...
p81
sa(dp82
g3
VAskville Question: How did Christopher Reeve die? How did his wife die? : Conditions & Diseases. Ask a Question ... Which Superman movie do you like?" (2 answers)
p83
sg5
VHow did Christopher Reeve die? How did his wife die?
p84
sa(dp85
g3
VACTOR and writer Danny Arroyo was recently welcomed to The Christopher & Dana Reeve Foundation as an ambassador. The foundation works to improve the quality of life ...
p86
sg5
VWhy Christopher Reeve's Superman: The Movie is the best superhero ...
p87
sa(dp88
g3
VFor many fans \u2014 especially those under 50 \u2013 their mental image of Superman is the face of Christopher Reeve ... films did I ever see Superman is ...
p89
sg5
VRichard Donner: No one will ever play Superman the way Christopher ...
p90
sa(dp91
g3
VWell i am an expert on this plus i own all the Films lol. Christopher Reeve's Superman is by far the more Powerful out of the Movie Supermen, Christopher Reeve's ...
p92
sg5
VSuperman (Christopher Reeves) vs Superman (Brandon Routh ...
p93
sa(dp94
g3
VChristopher Reeve is was an asshole. For those of you who don't know, Christopher Reeve is the guy who played "Superman" in all four coma-inducing movies during the 80's.
p95
sg5
VChristopher Reeve was an asshole.
p96
sa(dp97
g3
VYup, this is nuts. The films themselves may be flawed but Christopher Reeve was ... there weren't enough performances in batman and robin, catwoman, steel, etc. to ...
p98
sg5
VChristopher Reeve: As Superman was one of the best or worst comic ...
p99
sa(dp100
g3
VFor anyone doubting the impact Christopher Reeve had on audiences in his interpretation of Superman, they need look no farther than the world\u005c's reaction to his ...
p101
sg5
VSUPERMAN: THE MOVIE - The Making of the Motion Picture - Mania.com
p102
sa(dp103
g3
VBryan Singer's superman was doomed because he made a sequel to the Reeve's Superman movies. ... I liked Chris Reeves, even saw Superman when it first came out in ...
p104
sg5
VZack Snyder won\u2019t look back: \u2018There\u2019s been no other Superman ...
p105
sa(dp106
g3
VOne of the facts about George that a lot of people get wrong is they think he's his Superman successor Christopher Reeve's ... Reeve's Lois Lane in the Superman movies.
p107
sg5
VThe Actors Who Played Superman - Squidoo : Welcome to Squidoo
p108
sa(dp109
g3
VChristopher Reeve - Superman. 704 likes  11 talking about this. ... the then-unknown Reeve became an overnight success when he was cast in \u201cSuperman: The Movie\u201d ...
p110
sg5
VChristopher Reeve - Superman - About | Facebook
p111
sa(dp112
g3
V... the year of his final Superman movie, Reeve was asked by Ariel Dorfman to lead a public ... He created the Christopher Reeve Foundation to speed up ...
p113
sg5
VChristopher Reeve | The Gallery of Heroes
p114
sa(dp115
g3
VA film review by Craig J. Koban : RANK: #5 : SUPERMAN: THE MOVIE . A Retrospective Review of Christopher Reeve's greatest film role
p116
sg5
VSUPERMAN: THE MOVIE - CrAiGeR's Cinema Corner
p117
sa(dp118
g3
VFor a whole generation of Superman fans, Christopher Reeve represents the iconic version of the character after having played the part in four films in the 1980s. But ...
p119
sg5
VNewsarama.com : Writer Details the SUPERMAN Movie (5) That Never ...
p120
sa(dp121
g3
VChristopher Reeve's leading role in Superman ... and starred in several other films, stage plays and TV movies. In May of 1995 Reeve was thrown from his horse in a ...
p122
sg5
VTHE CHRISTOPHER REEVE MEMORIAL on Myspace
p123
sa(dp124
g3
VChristopher Reeve, star of the 1970s and 1980s "Superman" movies, rose to even greater fame as an advocate for the disabled after he was paralyzed from the neck down ...
p125
sg5
VChristopher Reeve - Hollywood Star Walk - Los Angeles Times
p126
sa(dp127
g3
VSuperman - Theatrical trailer for the first of the four Superman films. Christopher Reeve commercials. Christopher Reeve Paralysis Foundation commercial ...
p128
sg5
VWhat's Online About Christopher and Dana Reeve
p129
sa(dp130
g3
VCHRISTOPHER REEVE. Superman had shown up in movie theaters before. ... Christopher Reeve starred as Superman in four movies. Then years later, in 2006, ...
p131
sg5
VNewsarama.com : Agent of S.T.Y.L.E. - SUPERMAN Goes to the Movies
p132
sa(dp133
g3
VChristopher Reeve pictures and biography ... Why is He famous. Reeve played the Man of Steel in a series of four Superman films between 1978 and 1987.
p134
sg5
VChristopher Reeve - AskMen
p135
sa(dp136
g3
VChristopher Reeve was a famous movie actor. He played Superman. He had an accident when riding a horse. The accident left him paralysed from the neck down. But Reeve ...
p137
sg5
VMy hero Christopher Reeve - DiVine
p138
sa(dp139
g3
VOk so obviously not in the movie. But gotta love Gary Frank bringing him back to the ... I love Gary Franks work on Superman. ... Welcome to three years ago.
p140
sg5
VChristopher Reeve Is Back As Superman? - Comic Book Resources Forums
p141
sa(dp142
g3
VChristopher Reeve found the Superman within and we celebrate his courage to be free. Name: Christopher Reeve ... While Christopher appeared in other films, ...
p143
sg5
VChristopher Reeve as a Role Model - Role Models on the Web
p144
sa(dp145
g3
VHe is best known for playing Clark Kent/Superman in the 1970s-1980s series of Superman films. ... Christopher Reeve's leading role in Superman (1978) ...
p146
sg5
VWhat is Christopher Reeve Famous for - Ask.com
p147
sa(dp148
g3
VChristopher Reeve's lookalike son Will, 17, pays tribute to his tragic parents. By Daily Mail Reporter ... the star of Hollywood's Superman movies, ...
p149
sg5
VChristopher Reeve's son Will pays tribute to tragic parents | Mail ...
p150
sa(dp151
g3
VActor Christopher Reeve, best known for his role as Superman, is paralyzed and cannot breathe without the help of a respirator after breaking his neck in a ...
p152
sg5
VRiding Accident Paralyzes Actor Christopher Reeve (washingtonpost.com)
p153
sa(dp154
g3
VChristopher Reeve. By Mitch Horowitz. ... The Superman of the movies was left quadriplegic in a horseback riding accident more than eight years ago.
p155
sg5
VMitch Horowitz - Christopher Reeve Profile
p156
sa(dp157
g3
VTo this day, people see Superman in Christopher Reeve. ... Margot Kidder, who played Lois Lane in the Superman films continued the plot as Swann's assistant.
p158
sg5
VChristopher Reeve Biography - RootsWeb: Freepages
p159
sa(dp160
g3
VI could and did. That's part of what makes Superman such an iconic and great hero. ... the only really good thing about those movies was Christopher Reeves ...
p161
sg5
VIs Superman (1978) the Best Super Hero Movie Ever ...
p162
sa(dp163
g3
VSeveral cast members from the Christopher Reeve Superman movies have roles in the series. Annette O'Toole from Superman III plays Clark Kent's mother, ...
p164
sg5
VThe Truth About the Superman Curse - Paranormal Phenomena
p165
sa(dp166
g3
VThe October 11, 2004 clip of NBC Today when Chris Reeve passed away. Sign in . Upload. Search . ... As many Superman movies they'll make from here on ...
p167
sg5
VNBC Today: Christopher "Superman" Reeve Has Died - YouTube
p168
sa(dp169
g3
VThe Superman costume worn by Christopher Reeve in his fourth man of steel movie is set to fetch over 20,000 at auction. The suit, which was worn by Reeve in ...
p170
sg5
VSuperman costume worn by Christopher Reeve set to fetch 20,000 ...
p171
sa(dp172
g3
VI don;t care who says what about the comic book film adaptations since, Superman: The Movie is still the best. ... * Christopher Reeve as Clark Kent / Superman: ...
p173
sg5
VSuperman: The Movie - Squidoo : Welcome to Squidoo
p174
sa(dp175
g3
VChristopher Reeve, ... Reeve made four Superman movies; the fourth arrived in theaters in 1987. He was not related to Steve Reeves, ...
p176
sg5
VUSATODAY.com - Superhero to the end - USA TODAY: Latest World and ...
p177
sa(dp178
g3
VInspiration from Christopher Reeve. Christopher ... Acting jobs did not come to Reeve; he had to ... screen tested for the 1978 movie Superman, ...
p179
sg5
VChris Reeve - Yahoo! Voices - voices.yahoo.com
p180
sa(dp181
g3
VBut what he won't have is the red briefs of previous big-screen Supermen played by Christopher Reeve ... the many criticisms of "Superman ... book movies can ...
p182
sg5
VWHERE DID SUPERMAN'S RED UNDIES GO? - Yahoo!7 - Yahoo!7 Movies
p183
sa(dp184
g3
VIn 1978 he auditioned for the movie Superman, ... To get where he is today, Christopher Reeve had to overcome a huge obstacle in his life.
p185
sg5
VThe My Hero Project - Christopher Reeve
p186
sa(dp187
g3
VAnd I think before that he acted in some Superman movies." Some pictures depicted Reeve arriving in heaven, ... people see Superman in Christopher Reeve.
p188
sg5
VChristopher Reeve Biography, Bio, Profile, pictures, photos from ...
p189
sa(dp190
g3
VWhen I first heard that Superman Returns was going to be a sequel to the Christopher Reeves' Superman films, I was dubious. After so many years, ...
p191
sg5
VSuperman Returns - Three Movie Buffs Movie Reviews
p192
sa(dp193
g3
V... and like Christopher Reeve before the first Superman movie, he has been ... and is frequently compared to Christopher Reeve the former Superman and Tom ...
p194
sg5
VThe Superman Super Site - Brandon Routh
p195
sa(dp196
g3
VSuperman: The Movies - What They Did and Didn't Get Right ... Christopher Reeve is so pure as Superman: Superman isn't just about being super-powered, ...
p197
sg5
VSuperman: The Movies - What They Did and Didn't Get Right ...
p198
sa(dp199
g3
V"In 1977, Christopher Reeve convinced me that a man can fly. ... (Richard Donner, Superman: The Movie director) "He (Reeve) was put on this Earth for ...
p200
sg5
VChristopher Reeve - Who or What is Christopher Reeve? Find out more
p201
sa(dp202
g3
VBook review of "Christopher Reeve ... his performance in the "Superman" movies, how he felt about each of them as well as performances in other movies such as ...
p203
sg5
VChristopher Reeve - Still Me - Wikinut : write, share and earn ...
p204
sa(dp205
g3
VIn those earlier '70s epics Star Wars and Close Encounters, the sum of the movie was greater than the acting parts. But the latest, Superman, was destined ...
p206
sg5
VLook! It's Christopher Reeve - Superman, Christopher Reeve ...
p207
sa(dp208
g3
VIn a major departure from the tone of the preceding two Superman adventure films, this mix of vile deeds and fantasy heroics drops the "S" out of cosmic and goes for ...
p209
sg5
VChristopher Reeve Superman Collection by Warner Home Video | DVD ...
p210
sa(dp211
g3
VThere's just something about Christopher Reeve, he IS Superman. The montage of rescues from Superman The Movie after he saves Lois is probably my favourite ...
p212
sg5
VChristopher Reeve as Superman Bust Review - YouTube
p213
sa(dp214
g3
VWhat makes Superman a hero is not that he has power, ... 11:01 Movie Star Bios - Christopher Reeve by mnctventertainment 4,651 views; 1:26 NBC Today: ...
p215
sg5
VChristopher Reeve Quotes
p216
sa(dp217
g3
VWhile Christopher Reeve was growing up, he was exposed to fine ... he was Superman. Reeve said, "What makes Superman a hero is ... He also did some other films during ...
p218
sg5
VThe My Hero Project - Christopher Reeve
p219
sa(dp220
g3
VOct. 14, 2004 \u2014 To many who admired Christopher Reeve as Superman in the movies, his best starring role was as a superhero championing the cause of spinal cord ...
p221
sg5
VChristopher Reeve: An Expert Interview With John W. McDonald, MD, PhD
p222
sa(dp223
g3
VWhat I was promised was a return to the continuity of my childhood because it would be a direct sequel to Superman: The Movie ... way that Christopher Reeve did.
p224
sg5
V'Man of Steel' Countdown: Whatever Happened to the 'Superman ...
p225
sa(dp226
g3
VJust as George Reeves defined Superman for a generation, Christopher Reeve did ... The New Adventures of Superman as Christopher Reeve had from the films, he would be ...
p227
sg5
V'Man of Steel' Countdown: The Superman Curse | Movie News | Movies.com
p228
sa(dp229
g3
VChristopher Reeve/Brandon Routh, ... we\u2019ll look at Superman\u2019s return to the movie screen. Jaws showed us that a blockbuster could make a lot of money in the summer.
p230
sg5
VChristopher Reeve | FilmBuffOnline
p231
sa(dp232
g3
VNov 11, 2006 Superman The Movie (1978) When Christopher Reeve put on the famous blue, red and yellow suit he looked exactly like he had walked right out of the pages ...
p233
sg5
VTHE CHRISTOPHER REEVE MEMORIAL | blog on Myspace
p234
sa(dp235
g3
V... to so many different people and seeing Christopher Reeve as Superman he is so ... really been a decent Superman movie since Christopher Reeve in ...
p236
sg5
VChristopher Reeve - First thoughts about
p237
sa(dp238
g3
V"Americans embrace Superman partly because he captured so many things that ... It picks up with the filming of the 1978 big Christopher Reeve movie ...
p239
sg5
VIt's A Bird, It's A Plane, It's A New Superman Bio! : NPR
p240
sa(dp241
g3
VCLICK HERE and WATCH Today's FREE MOVIES! CHRISTOPHER REEVE SUPERMAN The Man of Steel 1978 \u2013 1987, Superman, Superman II, Superman III, Superman IV
p242
sg5
VCHRISTOPHER REEVE SUPERMAN - 1978 \u2013 1987, Superman, Superman II ...
p243
sa(dp244
g3
VHe embodies Superman *and* Christopher Reeve without aping Reeve\u2019s performance, ... The first two Christopher Reeves Superman movies were FABULOUS!!!!
p245
sg5
VIt's A Bird! It's A Plane! It's Chris Nolan! He'll Mentor Superman ...
p246
sa(dp247
g3
VHow many superman films have starred Christopher Reeve? Superman is Cool! 4. ... but what did he suspect she was? Superman - all those "L.L."s: A foreign spy.
p248
sg5
VSuperman - Fun Facts and Information - Fun Trivia Quizzes - World ...
p249
sa(dp250
g3
VIt is like watching little half hour films and the first season is outstanding. ... I guess I never had a problem with Christopher Reeve as Superman, ...
p251
sg5
VGeorge Reeves as Superman Pro and Con in TV Terrors Forum
p252
sa(dp253
g3
VDC Comics announced earlier this year that besides Batman and Superman movies there are no ... villain in the original Christopher Reeves superman films ...
p254
sg5
VHenry Cavill in Man of Steel Will Make An Awesome Superman: Here ...
p255
sa(dp256
g3
VIn a major departure from the tone of the preceding two Superman adventure films, ... Christopher Reeve got away from Superman and related costume roles in this ...
p257
sg5
VChristopher Reeve Filmography
p258
sa(dp259
g3
VBuy Superman - 4 Film Favorites. Superman - 4 Christopher Reeve Film Favorites One Super Low Price! Best deal you can get on the Christopher Reeve Superman movies.
p260
sg5
VSuperman Christopher Reeve Movie Set - Superman from comics, tv ...
p261
sa(dp262
g3
VChristopher Reeve was my hero because of what he did outside the movies. One day, he ... he shared many of Superman ... Come to Christopher Reeve, "who makes ...
p263
sg5
VThat's All I've Got to Say: Christopher Reeve (1952-2004)
p264
sa(dp265
g3
VThe success of Superman opened the door for other masked marvels in colorful costumes \u2014 and 1978's Superman: The Movie did the ... the Christopher Reeve films, ...
p266
sg5
VSuperman - Television Tropes & Idioms
p267
sa(dp268
g3
V... each denying -- and completing -- the other: Christopher Reeve, ... movie actor who had ... Don Quixote than Superman, but he was a ...
p269
sg5
VChristopher Reeve, Another Kind Of Superhero (washingtonpost.com)
p270
sa(dp271
g3
VChristopher Reeve. Superman actor who became a ... Reeve appeared in a total of 17 feature films, ... What makes Superman a hero is not that he has ...
p272
sg5
VObituary: Christopher Reeve | Film | guardian.co.uk
p273
sa(dp274
g3
VChristopher Reeve Foundation. ... and not just because he played Superman in the movies of my childhood. I am a fan of Chris's because of the hero he truly was.
p275
sg5
VChristopher Reeve Foundation - Ian Tyson - IT Presentations
p276
sa(dp277
g3
V1.5Mb QuickTime movie. Reeve's book ... So people who are making out checks make it out to the Christopher Reeve ... this is pre-Superman? REEVE: ...
p278
sg5
VCNN - Christopher Reeve on Larry King Live - May 6, 1998
p279
sa(dp280
g3
VChristopher D'Olier Reeve (September 25, 1952 \u2013 October 10, ... He was a famous theater actor before playing the role of Superman in four movies, from 1978 to 1987.
p281
sg5
VChristopher Reeve - Simple English Wikipedia, the free encyclopedia
p282
sa(dp283
g3
VMattyCollector 12" Christopher Reeve Superman; If this is your first visit, ... I mean, it looks exactly like it did in the movie. Reeve was wearing spandex.
p284
sg5
VMattyCollector 12" Christopher Reeve Superman - Page 2 - He-Man.org
p285
sa(dp286
g3
V'Thor' actor Tom Hiddleston says he's seen a complete cut of the film and likens Chris Hemworth's performance to Christopher Reeve's in Richard Donner's 'Superman'.
p287
sg5
VTom Hiddleston Compares \u2018Thor\u2019 To \u2018Superman: The Movie\u2019
p288
sa(dp289
g3
VThis item was auctioned in December 2006, sold on eBay by 1qq as \u201cChristopher Reeve Superman Movie 1978 Costume Suit Prop; The \u201choly Grail of Superman Films!\u201d:
p290
sg5
VSuperman Costumes in the Marketplace Retrospective: \u201cDeal or No ...
p291
sa(dp292
g3
VHe's Christopher Freakin Reeve! I still can't believe he's available 4 days after he went on sale. ... For those interested in the Reeve Superman movies, ...
p293
sg5
VMattyCollector 12" Christopher Reeve Superman - He-Man.org
p294
sa(dp295
g3
VIs it true that the christopher reeves superman movies hav been enhanced in the way that lex luthor has been made to be bald to coincide with smallville and superman ...
p296
sg5
VIs it true that the christopher reeves superman movies hav been ...
p297
sa(dp298
g3
VSuperman II -The 1980 Action / Adventure movie featuring Christopher Reeve and Gene Hackman at the award winning 80s Movies Rewind. 8 pages of info, trailer, pictures ...
p299
sg5
VSuperman II Movie - The 80s Movies Rewind
p300
sa(dp301
g3
VSuperman (marketed as Superman: The Movie), is the 1978 theatrical adaption of Superman. The...
p302
sg5
VSuperman: The Movie - Superman Wiki
p303
sa.