(lp1
(dp2
S'description'
p3
VVisit this site dedicated to William Shakespeare including information about When & Where was he was born.Fast and accurate details about When & Where was William ...
p4
sS'title'
p5
VWhen & Where was William Shakespeare born
p6
sa(dp7
g3
VMaybe many people ask Where Was Shakespeare Born? here the answer. William Shakespeare was a playwright and actor who has appeared in England in the latter part of ...
p8
sg5
VWhere Was Shakespeare Born
p9
sa(dp10
g3
VWilliam Shakespeare was born on 23rd of April 1564 in Stratford-upon-Avon, Warwickshire, England. It is a market town and civil parish in south Warwickshire, England ...
p11
sg5
VWhen and where was William Shakespeare born and when did he die
p12
sa(dp13
g3
VWhen was Shakespeare born? ... What religion was William Shakespeare? Read More Read Less What is Shakespeare famous for? Read More Read Less. How did ...
p14
sg5
VShakespeare FAQs - Shakespeare Birthplace Trust
p15
sa(dp16
g3
VWhere was Shakespeare Born? William\u2019s father, John Shakespeare, owned a large family house in the town center which is presumed to be the birthplace of the Bard.
p17
sg5
VWhere was Shakespeare Born?
p18
sa(dp19
g3
VAlso on This Day Lead Story William Shakespeare born, 1564 American Revolution John Paul Jones burns Whitehaven, England, 1778
p20
sg5
VWilliam Shakespeare born \u2014 History.com This Day in History \u2014 4 ...
p21
sa(dp22
g3
V"Some are born great, some achieve greatness, and some have greatness thrust upon them." ... William Shakespeare married Anne Hathaway on November 28, 1582, ...
p23
sg5
VWilliam Shakespeare Biography - Facts, Birthday, Life Story ...
p24
sa(dp25
g3
VWilliam Shakespeare is a great poet and playwrite. He has written many famous poems in English. He is often referred to as national poet of England because of the ...
p26
sg5
VWhen Was William Shakespeare Born
p27
sa(dp28
g3
VWilliam Shakespeare (26 April 1564 (baptised) \u2013 23 April 1616) [nb 1] was an English poet and playwright, widely regarded as the greatest writer in the English ...
p29
sg5
VWilliam Shakespeare - Wikipedia, the free encyclopedia
p30
sa(dp31
g3
VWilliam Shakespeare, the greatest English poet and playwright, was born at Stratford-upon-Avon on April 23, 1564. The poet\u2019s birthplace is getting ready to ...
p32
sg5
VRecalling William Shakespeare | The Daily Star
p33
sa(dp34
g3
VWilliam Shakespeare Biography describes the life of William Shakespeare. From birth to death, Shakespeare ... William was born in 1564.
p35
sg5
VShakespeare Biography at AbsoluteShakespeare.com
p36
sa(dp37
g3
V1564 - William Shakespeare is born in April (probably the 23rd) in Stratford-On-Avon (94 miles from London.) 1582 - Marries Anne Hathaway on November 27.
p38
sg5
VWilliam Shakespeare - Complete Works of Shakespeare, Biography ...
p39
sa(dp40
g3
VWilliam Shakespeare was born in the town of Stratford-upon-Avon in Warwickshire, England.
p41
sg5
VWhere was William Shakespeare born - The Q&A wiki
p42
sa(dp43
g3
VWILLIAM SHAKESPEARE. BORN: 23 APRIL 1564 DIED: 23 APRIL 1616 . Portrait of William Shakespeare, attributed to John Taylor NPG London
p44
sg5
VWilliam Shakespeare - TudorHistory.org
p45
sa(dp46
g3
VWhen Was William Shakespeare Born And When Did He Die - This article is based on When Was William Shakespeare Born And When Did He Die. An English playwright and poet ...
p47
sg5
VWhen Was William Shakespeare Born
p48
sa(dp49
g3
VWilliam Shakespeare was born on April 23, 1564, in Stratford-on-Avon. The son of John Shakespeare and Mary Arden, he was probably educated at the King Edward IV ...
p50
sg5
VWilliam Shakespeare- Poets.org - Poetry, Poems, Bios & More
p51
sa(dp52
g3
VWithin the class system of Elizabethan England, William Shakespeare did not seem destined for greatness. He was not born into a family of nobility or significant wealth.
p53
sg5
VThe Life of William Shakespeare (1564\u20131616) | Shakespeare in ...
p54
sa(dp55
g3
VWilliam Shakespeare was born in Stratford-upon-Avon on April 23, 1564. It is believed that Shakespeare obtained his primary education from Stratford Grammar School ...
p56
sg5
VWilliam Shakespeare | Biography, Books and Facts
p57
sa(dp58
g3
VWilliam, the eldest son, was born in 1564, probably on April 23, several days before his baptism on April 26, 1564. ... William Shakespeare died on April 23, ...
p59
sg5
VWilliam Shakespeare Shakespeare Biography
p60
sa(dp61
g3
VWilliam Shakespeare (1564-1616), ... the first of the four sons born to John Shakespeare (c1530-1601) and Mary Arden (c1540-1608), who also had four daughters.
p62
sg5
VWilliam Shakespeare - Biography and Works. Search Texts, Read ...
p63
sa(dp64
g3
VYoung William was born of John Shakespeare, a glover and leather merchant, and Mary Arden, a landed local heiress. William, according to the church register, was the ...
p65
sg5
VShakespeare Resource Center - Shakespeare's Biography
p66
sa(dp67
g3
VWhen & Where was William Shakespeare born? Where was he baptised? Why is there confusion regarding his date of birth? 1558 - 1580:
p68
sg5
VWilliam Shakespeare Biography
p69
sa(dp70
g3
VA biography of William Shakespeare and analysis of his poetic ... John and Mary Arden Shakespeare were his parents. He was born in the little town of Stratford ...
p71
sg5
VWilliam Shakespeare
p72
sa(dp73
g3
VWilliam Shakespeare William Shakespeare was born, lived and lies buried in Stratford-upon-Avon. William Shakespeare, 1564-1616 William Shakespeare ...
p74
sg5
VWilliam Shakespeare
p75
sa(dp76
g3
VWilliam Shakespeare\u2019s purse must have made a considerable difference. The prosecutions for debt ceased, ... of Sir William D~venant, who was born in February 1606.
p77
sg5
VBiography of William Shakespeare
p78
sa(dp79
g3
VWilliam Shakespeare was born on April 23, 1564 to John Shakespeare and Mary Arden in Stratford-upon-Avon who by today's standards would be considered middle-class.
p80
sg5
VWelcome To the William Shakespeare Home Page!
p81
sa(dp82
g3
VWilliam Shakespeare was born in Stratford-upon-Avon, a bustling market town 100 miles northwest of London, and baptized there on April 26, 1564.
p83
sg5
VWilliam Shakespeare \u2014 History.com Articles, Video, Pictures and ...
p84
sa(dp85
g3
VFamous as: Poet, play wright and greatest dramatist. Born on: 15 April 1564. Born in: Stratford Upon Avon, England Died in: 1616 Major works and
p86
sg5
VBiography of William Shakespeare
p87
sa(dp88
g3
VBest Answer: William Shakespeare (baptised 26 April 1564; died 23 April 1616)[nb 1] was an English poet and playwright, widely regarded as the greatest ...
p89
sg5
V(a) When was William Shakespeare born ? (b) Where was he buried ...
p90
sa(dp91
g3
VAs Dennis Kay proposes in his book Shakespeare: If Shakespeare was indeed born on Sunday, April 23, ... William Shakespeare of Stratford: Shakespeare's Birth.
p92
sg5
VShakespeare's Birth
p93
sa(dp94
g3
VWould you like to learn about William Shakespeare? ... Where Was Shakespeare Born? Where better to start than with the birth of William Shakespeare back in 1564.
p95
sg5
VAbout William Shakespeare - Shakespeare \u2013 Free Shakespeare ...
p96
sa(dp97
g3
VThe most well known of Stratford-upon-Avon citizens is William Shakespeare, born in 1564 exact date unknown but he was baptised on 26th April 1564.
p98
sg5
VStratford-upon-Avon's William Shakespeare
p99
sa(dp100
g3
VWilliam Shakespeare, - sometimes, called the "BARD OF AVON", was born, ... William Shakespeare was born in Stratford-upon-Avon, a small country town.
p101
sg5
VWhere was Shakespeare born? - Yahoo! Answers
p102
sa(dp103
g3
VWhere was William Shakespeare born? Stratford-upon-Avon, Warwickshire was birthplace of William Shakespeare. Now known as Shakespeare Counrty, come and v isit the ...
p104
sg5
VBirthplace of William Shakespeare
p105
sa(dp106
g3
VWilliam Shakespeare was born in Stratford-upon-Avon in April 1564, and his birth is traditionally celebrated on April 23. The facts of his life, known from surviving ...
p107
sg5
VAmazon.com: William Shakespeare: Books, Biography, Blog ...
p108
sa(dp109
g3
VWilliam Shakespeare Biography - The Parents of William Shakespeare JOHN SHAKESPEARE ( FATHER ) - THE EARLY YEARS John Shakespeare was born in 1531.
p110
sg5
VThe Parents of William Shakespeare
p111
sa(dp112
g3
VShakespeare was born and raised in Stratford-upon-Avon. ... \u2015 William Shakespeare, A Midsummer Night's Dream. tags: love. 15,020 people liked it.
p113
sg5
VWilliam Shakespeare (Author of Romeo and Juliet)
p114
sa(dp115
g3
VVisit this site dedicated to the playwright William Shakespeare and his famous works. William Shakespeare plays like Hamlet, Othello, King Lear, Macbeth and the Tempest.
p116
sg5
VWILLIAM SHAKESPEARE
p117
sa(dp118
g3
VAn in-depth and accurate biography of William Shakespeare, from your trusted Shakespeare source
p119
sg5
VShakespeare's Biography: Information on Shakespeare's Parents ...
p120
sa(dp121
g3
VWilliam Shakespeare is born in Stratford-upon-Avon (the third child born to John and Mary and then their only child, following the infant deaths of Joan and ...
p122
sg5
VShakespeare Timeline | William Shakespeare Facts
p123
sa(dp124
g3
VWILLIAM SHAKESPEARE. A story by Jonathan Henshaw - E-mail ... was William, was born, and grew up in a place called Stratford-upon-Avon in England.
p125
sg5
VWILLIAM SHAKESPEARE - Explorations...
p126
sa(dp127
g3
VWilliam Shakespeare: The Complete Works, The Complete Pelican Shakespeare, general editor Alfred Harbage ... Whether Shakespeare was born on 23 April, ...
p128
sg5
VWilliam Shakespeare Biography - Brandeis Users' Home Pages
p129
sa(dp130
g3
VWilliam Shakespeare was born in Stratford-upon-Avon in Warwickshire and was baptised a few days later on 26 April 1564. His father, John Shakespeare, was a glove ...
p131
sg5
VBBC History - William Shakespeare
p132
sa(dp133
g3
VWilliam Shakespeare, the best-known figure in Renaissance literature, if not all of literature, was born April 23, 1564 in Stratford-upon-Avon ...
p134
sg5
VWilliam Shakespeare - Yahoo! Voices - voices.yahoo.com
p135
sa(dp136
g3
VThe house remained in the family until it was handed down for the final time to William Shakespeare\u2019s daughter and, given that he was born in 1564, ...
p137
sg5
VShakespeare's Birthplace - Wikipedia, the free encyclopedia
p138
sa(dp139
g3
VWilliam Shakespeare. Born: 23-Apr-1564 Birthplace: Stratford-upon-Avon, England Died: 23-Apr-1616 Location of death: Stratford-upon-Avon, England Cause of death ...
p140
sg5
VWilliam Shakespeare
p141
sa(dp142
g3
VWilliam Shakespeare Quotes from WorldofQuotes. Quotations by William Shakespeare, Author and Film writer, Born on April 23, 1564.
p143
sg5
VWilliam Shakespeare Quotes - Page 40 - WorldofQuotes.
p144
sa(dp145
g3
VINTRODUCTION Shakespeare was known as the greatest dramatist and finest poet who has written in the English language. BACKGROUND. Shakespeare was born April 23, 1564 ...
p146
sg5
VWILLIAM SHAKESPEARE - Yukon Education Student Network
p147
sa(dp148
g3
Vshakespeare.com - also known as The Shakespeare Web - has returned to its original home, after an absence of several years. It is undergoing a sea change, into ...
p149
sg5
VShakespeare
p150
sa(dp151
g3
Vwilliam shakespeare Quotes from WorldofQuotes. Quotations by william shakespeare, Author and Film writer, Born on April 23, 1564.
p152
sg5
Vwilliam shakespeare Quotes - Page 19 - WorldofQuotes.
p153
sa(dp154
g3
VAnswer (1 of 6): William Shakespeare was an English writer acclaimed as the greatest of all English writers. He is also one of the greatest writers in western literature.
p155
sg5
VWhere Was William Shakespeare Born? - Blurtit
p156
sa(dp157
g3
VWilliam Shakespeare, Stratford on Avon, ... and under that was I born."-- Spoken by Beatrice in an exchange with Don Pedro: Act II. Scene I, "Much Ado About Nothing"
p158
sg5
VWilliam Shakespeare | Facebook
p159
sa(dp160
g3
VBiography of Williams Shakespeare William Shakespeare was an English poet and playwright, ... Shakespeare was born and raised in Stratford-upon-Avon; ...
p161
sg5
VBiography of William Shakespeare
p162
sa(dp163
g3
VWilliam Shakespeare born, Stratford-upon-Avon. The traditional "April 23" part is a guess. 27 Nov 1582: William Shakespeare and Anne Hathaway marry. 1585: The Hidden ...
p164
sg5
VWilliam Shakespeare - rotten.com: This is rotten dot com
p165
sa(dp166
g3
VWilliam Shakespeare (April 1564 \u2013 23 April 1616) was an English author who wrote 38 plays and also many poems in his lifetime. He lived in Stratford-upon-Avon, in ...
p167
sg5
VWilliam Shakespeare - Simple English Wikipedia, the free encyclopedia
p168
sa(dp169
g3
V1564 April 23 William Shakespeare was born; 1582 November 28, A Marriage Bond on the episcopal register records issue to William Shagspeare and Anne Hathwey of ...
p170
sg5
VWilliam Shakespeare - ELIZABETHAN ERA
p171
sa(dp172
g3
VWatch videos & listen free to William Shakespeare: 2 - Act 2, Sonnet 18 & more, plus 7 pictures. There are ... (born 1950), also known as John Cabe or Billy Shake.
p173
sg5
VWilliam Shakespeare \u2013 Free listening, concerts, stats ...
p174
sa(dp175
g3
VShakespeare was born in Stratford-upon-Avon in England on April 23 1564. ... William Shakespeare was an English poet and playwright,widely regarded as ...
p176
sg5
VWilliam Shakespeare Biography - Essay - Bbnomuzzle15
p177
sa(dp178
g3
VWilliam Shakespeare was born in Stratford-upon-Avon, a small country town. Stratford was famous for its malting. The black plague killed in 1564 one out of seven ...
p179
sg5
VWilliam Shakespeare - www.kirjasto.sci.fi
p180
sa(dp181
g3
VWilliam Shakespeare (1564 - 1616) has a reputation reveled, ... After Shakespeare\u2019s children were born, the historical record becomes sketchy from 1585 through 1592.
p182
sg5
VWilliam Shakespeare - English Author - Biography
p183
sa(dp184
g3
VThe English playwright, actor and poet William Shakespeare is thought to have been born as the son of the shop owner John Shakespeare and his wife Mary, nee Arden, on ...
p185
sg5
VWilliam Shakespeare Biography - Infos - Art Market
p186
sa(dp187
g3
VWilliam Shakespeare was born in April, 1564 in Stratford-upon-Avon, Warwickshire, about 100 miles northwest of London. According to the records of Stratford's Holy ...
p188
sg5
VWilliam Shakespeare Biography - Books & Literature Classics
p189
sa(dp190
g3
VIt wasn't where he was born: Stratford is still a pretty small town even today. ... What is the intended audience of the play Macbeth by William Shakespeare?
p191
sg5
VWilliam Shakespeare Study Guide & Homework Help - eNotes.com
p192
sa(dp193
g3
VWilliam Shakespeare is regarded as the greatest writer and poet ever known in the English language who authored world's ... son Hamnet and daughter Judith were born.
p194
sg5
VWilliam Shakespeare Biography - William Shakespeare Childhood ...
p195
sa(dp196
g3
VBlog posts mentioning William Shakespeare. Dick Francis, Reliable 'Jeopardy!' Answer, Dead at 89; ... Their daughter Susannah was born in 1583, ...
p197
sg5
VWilliam Shakespeare Biography - Birthday, Photos - Who2.com
p198
sa(dp199
g3
VSmart, fresh history of William Shakespeare Biography by PhDs and Masters from Stanford, Harvard, Berkeley. ... Shakespeare was born during the Renaissance, ...
p200
sg5
VWilliam Shakespeare: Biography - Shmoop: Homework Help, Teacher ...
p201
sa(dp202
g3
VBrief Bio William Shakespeare was born to John Shakespeare and mother Mary Arden some time in late April 1564 in Stratford-upon-Avon.
p203
sg5
Vwilliam shakespeare, william shakespeare poem, william shakespeare ...
p204
sa(dp205
g3
Villiam Shakespeare was born in April of 1564. There is no specific date of birth because at that time the only date of importance was the date of baptism, though ...
p206
sg5
VWilliam Shakespeare Biography - William Shakespeare Biography for Kids
p207
sa(dp208
g3
VIn his will Shakespeare left his wife the 'second-best bed'. Pencils were invented about the time Shakespeare was born. In winter rich people watched plays indoors by ...
p209
sg5
VBBC - Primary History - Famous People - William Shakespeare
p210
sa(dp211
g3
VThe English playwright, poet, and actor William Shakespeare was a popular dramatist. He was born six years after Queen Elizabeth I (1533\u20131603) ascended the ...
p212
sg5
VWilliam Shakespeare Biography - life, family, children, story ...
p213
sa(dp214
g3
VWilliam Shakespeare, Shakespeare also spelled Shakspere, ... born to William Shakespeare, was baptized on May 26, 1583. On February 2, 1585, twins were baptized, ...
p215
sg5
VWilliam Shakespeare (English author) -- Encyclopedia Britannica
p216
sa(dp217
g3
VWelcome to the latest edition of Mr. William Shakespeare and the Internet. ... William Warburton (1698 - 1779) was born the son of a Newark attorney.
p218
sg5
VMr. William Shakespeare and the Internet
p219
sa(dp220
g3
VBest Answer: William Shakespeare (also spelled Shakspere, Shakspear, Shakespere, Shakspere, Shaksper, Shaxper, and Shake-speare, since in Elizabethan times ...
p221
sg5
VWhen was William Shakespeare born? - Yahoo! Answers
p222
sa(dp223
g3
VWilliam Shakespeare (1564 - 1616) was born at Stratford-upon-Avon in a house in Henley Street. This is preserved intact. His mother, Mary Arden, was one of the ...
p224
sg5
VStratford-on-Avon: William Shakespeare
p225
sa(dp226
g3
VWilliam Shakespeare (bapteesed 26 Aprile 1564 \u2013 23 Aprile 1616) wis an Inglis makar an playwricht , nou cried the brawest writer in the Inglis leid an the warld's ...
p227
sg5
VWilliam Shakespeare - Wikipedia
p228
sa(dp229
g3
VWilliam Shakespeare, - sometimes, called the "BARD OF AVON", was born, ... William Shakespeare was born in Stratford-upon-Avon, a small country town.
p230
sg5
VWhere was Shakespeare born? - Yahoo! UK & Ireland Answers
p231
sa(dp232
g3
VWilliam Shakespeare quotes such as "To be, or not to be" and "O Romeo, Romeo! wherefore art thou ... "Be not afraid of greatness: some are born great, ...
p233
sg5
VWilliam Shakespeare Quotes at AbsoluteShakespeare.com
p234
sa(dp235
g3
V1000 William Shakespeare - Known during his lifetime as a gifted actor, ... and under that was I born." \u2014 William Shakespeare Add Category or Author. Add Category.
p236
sg5
VWilliam Shakespeare - 1000 quotes - Famous Quotes - Over 2.5 ...
p237
sa(dp238
g3
VWilliam Shakespeare was born on April 23, 1564 to an affluent family in Stratford-on-Avon, England. His father, John Shakespeare was a public official and his ...
p239
sg5
VWilliam Shakespeare - Welcome to Whyville!
p240
sa(dp241
g3
VShakespeare was born and raised in Stratford-upon-Avon. At the age of 18 he married Anne Hathaway, ... The Plays of William Shakespeare. By Sir John Gilbert, 1849.
p242
sg5
VWilliam Shakespeare - 2008/9 Wikipedia Selection for schools
p243
sa(dp244
g3
VWhere was William Shakespeare born& raised? William Shakespeare, the famous English poet and playwright was born on April 23, 1564, in Stratford-upon-Avon in England.
p245
sg5
VWhere was William Shakespeare born& raised? | Answerbag
p246
sa(dp247
g3
VWilliam Shakespeare's Romeo and Juliet (1996) Like. 3. Yahoo! users: star3plus3.68. ... If you like your Shakespeare with a modern twist and rather over-the-top, ...
p248
sg5
VWilliam Shakespeare's Romeo and Juliet | Trailer and Cast - Yahoo ...
p249
sa(dp250
g3
VShakespeare was born and raised in Stratford-upon-Avon. At the age of 18, ... William Shakespeare's Works: List of Works Classification of The Plays
p251
sg5
VThe biography of William Shakespeare
p252
sa(dp253
g3
VWilliam Shakespeare is the most widely taught playwright in the English language. By 1588, Shakespeare had left his wife and children to live in London as an actor.
p254
sg5
VIn 1564, William Shakespeare was born on this day. - ReadWriteThink
p255
sa(dp256
g3
VWilliam Shakespeare (1564-1616) was born in Stratford-upon-Avon, a small country town. Stratford was famous for its malting. The black plague killed in 1564 one out ...
p257
sg5
VWilliam Shakespeare - Books, Biography, Quotes - Read Print
p258
sa(dp259
g3
VShakespeare, William, 1564\u20131616, English dramatist and poet, b. ... They had three children: Susanna, born in 1583, and twins, Hamnet and Judith, born in 1585.
p260
sg5
VShakespeare, William definition of Shakespeare, William in the ...
p261
sa(dp262
g3
VWilliam Shakespeare was born in Stratford-upon-Avon, baptized on 26 April 1564, according to the parish register of the Holy Trinity Church. His birthday is popularly ...
p263
sg5
VShakespeare - www.watson.org
p264
sa(dp265
g3
VThey had three children: Susanna, born in 1583, and twins, Hamnet and Judith, born in 1585. ... More on William Shakespeare Life from Infoplease:
p266
sg5
VWilliam Shakespeare: Life | Infoplease.com
p267
sa(dp268
g3
VWilliam Shakespeare, by universal consent the greatest author of England, if not of the world, ... Two girls and a boy were born from it.
p269
sg5
VWilliam Shakespeare - A History of English Literature
p270
sa(dp271
g3
V1000 William Shakespeare quotes - Little is known of William Shakespeare's early years, except that he was born in Stratford-upon-Avon in 1564 and married Anne ...
p272
sg5
VWilliam Shakespeare Quotes 1000 quotes by William Shakespeare
p273
sa(dp274
g3
VA biography of English dramatist William Shakespeare; includes a list of related links. ... Two girls were born and died in infancy. William, the third child, ...
p275
sg5
VWilliam Shakespeare - Theatre Database
p276
sa(dp277
g3
VBiography of William Shakespeare, best known for Sonnet collections, tragedy, comedy and historical plays; and for his imagery and characters.
p278
sg5
VWilliam Shakespeare Biography | Suite101
p279
sa(dp280
g3
VBorn, Stratford-on-Avon, 1564 Died, Stratford, 1616. This document was originally published in Minute History of the Drama. ... "William Shakespeare, Gent."
p281
sg5
VWilliam Shakespeare - TheatreHistory.com
p282
sa(dp283
g3
VSusanna was born in May of 1583, twins Hamnet and Judith in January of 1585. ... William Beeston, son of Shakespeare's friend actor Charles Beeston, ...
p284
sg5
VWilliam Shakespeare (I) - Biography
p285
sa(dp286
g3
VBelow is a range of 30 little known facts about William Shakespeare. ... Their first child was born six months after the wedding. William Shakespeare Facts: 4.
p287
sg5
VShakespeare Facts: 30 Interesting Facts About William Shakespeare
p288
sa(dp289
g3
VHi William Shakespeare (ginbunyag 26 Abril 1564 \u2013 23 Abril 1616), hya usa nga Inglis nga maniniday ngan dramaturgo, ginkikilala nga giuupayi nga manunurat ha ...
p290
sg5
VWilliam Shakespeare - Wikipedia
p291
sa(dp292
g3
VWilliam Shakespeare was born to John Shakespeare, who was a successful alderman from Snitterfield, and Mary Arden, who was the daughter of a rich farmer.
p293
sg5
VWhere Did William Shakespeare Live For Most Of His Life
p294
sa(dp295
g3
VDespite his fame, William Shakespeare's personal life is shrouded in mystery. When exactly was he born? Where was he educated? Did he really write his plays? This ...
p296
sg5
VTheater Inspirations | William Shakespeare | Presented by Theater ...
p297
sa(dp298
g3
VWilliam Shakespeare. 1564-1616. ... It is thought that Shakespeare was born in Henley Street in Stratford in 1564 \u2013 the son of John Shakespeare ...
p299
sg5
VWilliam Shakespeare - Poets Graves
p300
sa(dp301
g3
VWilliam Shakespeare scarcely needs an introduction. Born in 1564, he was an English playwright, poet, actor, favorite dramatist of queens and kings, inventor of words ...
p302
sg5
VWilliam Shakespeare - Shmoop: Homework Help, Teacher Resources ...
p303
sa.