(lp1
(dp2
S'description'
p3
V... President and Chief Executive Officer, H. J. Heinz Company. ... for Heinz shareholders, Heinz has become one of ... and Chief Executive Officer on April 30, 1998.
p4
sS'title'
p5
VHeinz - William R. Johnson - Discover the World of Heinz
p6
sa(dp7
g3
VAt Burger King Worldwide Inc., CEO Bernardo Hees became known for squeezing costs. Now, he\u2019s moving on to ketchup. H.J. Heinz Co. on Thursday said Mr. Hees will ...
p8
sg5
VHeinz\u2019s New CEO Cut His Teeth at Burger King - Wall Street ...
p9
sa(dp10
g3
V... president and CEO of H.J. Heinz Co., ... ambition would become reality when he was named CEO in 1998, ... running the Heinz pet food business, ...
p11
sg5
VA look at CEO Bill Johnson, the man behind H.J. Heinz Co ...
p12
sa(dp13
g3
V... become Chief Executive Officer of H.J. Heinz ... Chief Executive Officer of H.J. Heinz Company ... 1998 as a logistics analyst. About Heinz.
p14
sg5
VBernardo Hees to be Appointed Chief Executive Officer of H.J ...
p15
sa(dp16
g3
VThe H. J. Heinz Company ... He became CEO in 1979 and chairman in 1987, ... Tony O'Reilly left Heinz in 1998 after issues with the company's performance, ...
p17
sg5
VH. J. Heinz Company - Wikipedia, the free encyclopedia
p18
sa(dp19
g3
VHaving turned around H.J. Heinz Co., Chief Executive Officer Bill ... became Heinz\u2019s sixth CEO in 1998, ... of H.J. Heinz Co., speaks during the company ...
p20
sg5
VHeinz CEO Johnson May Reap $100 Million From Buyout - Businessweek
p21
sa(dp22
g3
VThe H.J. Heinz Company certainly ... By the time Howard's son H.J. Heinz II (known as Jack) became president of the ... In late 1998 the company took a $150 ...
p23
sg5
VHistory of H.J. Heinz Company \u2013 FundingUniverse
p24
sa(dp25
g3
VHaving turned around H.J. Heinz Co., Chief Executive Officer Bill ... who became Heinz\u2019s sixth CEO in 1998, ... food business,\u201d said Koehn. \u201cHeinz ...
p26
sg5
VHeinz CEO Johnson May Reap $100 Million From Buyout - Bloomberg
p27
sa(dp28
g3
VH.J. Heinz Co. Chief Executive Officer Bill Johnson could receive more than ... who became Heinz\u2019s sixth CEO in 1998, ... The company\u2019s existing debt ...
p29
sg5
VHeinz CEO Johnson Would Get $200 Million in Post-Berkshire Exit ...
p30
sa(dp31
g3
V... Bernardo Hees prepares to become the CEO of H.J. Heinz Co. ... once he moves to the role of CEO of H.J. Heinz when that company is acquired by 3G ...
p32
sg5
VBurger King sees comparable sales down, CEO to head to Heinz - The ...
p33
sa(dp34
g3
VBernardo Hees To Become CEO Of H.J. Heinz ... in the process of taking Ketchup king H.J. Heinz Co. ... the position of President and CEO in April 1998, ...
p35
sg5
VBurger King CEO Bernardo Hees Named To Head Heinz After Deal Closure
p36
sa(dp37
g3
VApril 11--H.J. Heinz Co. CEO William ... who's been at the Heinz helm since 1998, ... which is known for shaking up companies it buys. Hees, a 3G partner, became CEO ...
p38
sg5
VBurger King CEO to take Heinz reins after deal [The ...
p39
sa(dp40
g3
VH. J. Heinz Company, ... 1979 O'Reilly became company's CEO and chairman. 1987 H. J. Heinz II died, ... H. J. Heinz Co: Salad Cream; See Also.
p41
sg5
VH. J. Heinz Co
p42
sa(dp43
g3
V... and pictures about H.J. Heinz Company at ... By the time Howard \u2019 s son H.J. Heinz II (known as Jack) became president of ... "H.J. Heinz Company." 1998 ...
p44
sg5
VH.J. Heinz Company Facts, information, pictures | Encyclopedia.com ...
p45
sa(dp46
g3
VThe CEO of H.J. Heinz on ... would work when I became CEO, and that is running the business ... in 1991 as President and CEO. He became Chairman in 1998.
p47
sg5
VQ&A: Heinz CEO William Johnson on Leadership - Newsweek and The ...
p48
sa(dp49
g3
VInvestment firms buying H.J. Heinz Co. made the first of ... 15 years since he became CEO in 1998. ... deals because Heinz is a healthy company with ...
p50
sg5
VBurger King CEO to take Heinz reins after deal | TribLIVE
p51
sa(dp52
g3
VBernardo Hees will succeed Bill Johnson as CEO of Heinz. ... as chief executive of Pittsburgh ketchup maker H.J. Heinz Co ... company, where he started in 1998 as ...
p53
sg5
VBurger King CEO to take over Heinz after 3G, Berkshire Hathaway ...
p54
sa(dp55
g3
V... which are currently in the process of taking Ketchup king H.J. Heinz Co. ... become chief executive officer of Heinz ... President and CEO in April 1998, ...
p56
sg5
VBurger King CEO Bernardo Hees Named To Head Heinz After Deal Closure
p57
sa(dp58
g3
VPreparing CEOs for Success. Heinz at a Glance. Heinz is a $11.6 billion global company; ... H.J. Heinz Company Foundation; Global Websites; Contact Heinz; Popular ...
p59
sg5
VHeinz - Our Company
p60
sa(dp61
g3
V... Heinz is being acquired from a position of strength," said Heinz Chairman, President and CEO ... H.J. Heinz Company to be Acquired by ... H.J. Heinz Co.
p62
sg5
VFood Industry News: What's Next for H.J. Heinz?
p63
sa(dp64
g3
V1998: Independent Director ... as the Independent Director of H.J. Heinz Company, ... Director of H.J. Heinz Co. He is Chief Executive Officer and a founding partner ...
p65
sg5
VH.J. Heinz Co (HNZ) People | Reuters.com - Business & Financial ...
p66
sa(dp67
g3
VBernardo Hees to be Appointed Chief Executive Officer of H.J. Heinz Company: ... Hees will become Chief Executive Officer of H.J. Heinz Company ... in 1998 as a ...
p68
sg5
VBernardo Hees to be Appointed Chief Executive Officer of H.J ...
p69
sa(dp70
g3
VThis undated photo provided by Burger King Corp. shows the company's chief executive officer, ... became CEO of Burger King ... speculation that H.J. Heinz Co. could ...
p71
sg5
VNew owners move Burger King CEO to Heinz helm | CNS News
p72
sa(dp73
g3
VBernardo Hees will become CEO of Heinz... ... that Bernardo Hees will become Chief Executive Officer of H.J. Heinz Company ... at ALL in 1998 as a ...
p74
sg5
VBernardo Hees to be appointed CEO of H.J. Heinz Company following ...
p75
sa(dp76
g3
VTony O'Reilly made his name in international business at H. J. Heinz & Co. ... He became CEO in 1979 and ... O'Reilly left Heinz in 1998 in response to ...
p77
sg5
VWhat is the history of heinz ketchup? - Yahoo! Answers
p78
sa(dp79
g3
VFool.co.uk Fool.com.au ... Chief Executive Officer of H.J. Heinz Company Following Completion ... Bernardo Hees will become Chief Executive Officer of H.J. Heinz ...
p80
sg5
VBernardo Hees to be Appointed Chief Executive Officer of H.J ...
p81
sa(dp82
g3
VBernardo Hees to be Appointed Chief Executive Officer of H.J. Heinz Company Following ... will become Chief Executive Officer of H.J. Heinz ... H.J. Heinz Co.
p83
sg5
VBernardo Hees to be Appointed Chief Executive Officer of H.J ...
p84
sa(dp85
g3
V... Latin America's largest railroad and logistics company. He will remain CEO at Burger King until the deal ... H.J. Heinz Co. 3G Capital; ... 1998-2012. All rights ...
p86
sg5
VBurger King CEO to take Heinz reins after deal
p87
sa(dp88
g3
VDiscuss Supply Chain Management of H.J. Heinz Company ... By the time Howard's son H.J. Heinz II (known as Jack) became president ... In late 1998 the company ...
p89
sg5
VSupply Chain Management of H.J. Heinz Company - ManagementParadise ...
p90
sa(dp91
g3
VBurger King chief Bernardo Hees will leave to take the helm of Heinz once the ... BUSINESS; Updated April 11, 2013, 7:32 p.m. ET; Heinz's New CEO Cut ...
p92
sg5
VBurger King CEO Moves to Heinz - WSJ.com
p93
sa(dp94
g3
V... Mon Oct 26 1998 00 ... the chief executive of H.J. Heinz Co., called the company's 100 top managers to ... the chief executive of H.J. Heinz Co., ...
p95
sg5
VH.J. Heinz Company: News & Videos about H.J. Heinz Company - CNN.com
p96
sa(dp97
g3
VMoran has been the Chief Executive Officer and President of Heinz North America & Global Infant/Nutrition at H. J. Heinz Company ... to Become China's YouTube ... Co ...
p98
sg5
VDavid Moran: Executive Profile & Biography - Businessweek
p99
sa(dp100
g3
V... Executive Officer of the H.J. Heinz Company. He was named President and Chief Operating Officer in June 1996 and CEO on April 30, 1998. ... co.uk . Get content ...
p101
sg5
VPR Newswire UK: Heinz elects Johnson Chairman
p102
sa(dp103
g3
VThe H. J. Heinz Company ... He became CEO in 1979 and chairman in 1987, ... Tony O'Reilly left Heinz in 1998 after issues with the company's performance, ...
p104
sg5
VH. J. Heinz Company
p105
sa(dp106
g3
VThe Newport-based pet food and seafood businesses of H.J. Heinz Co ... a Heinz executive ... "About 90 percent of Heinz's worldwide pet-food business is in Heinz ...
p107
sg5
VBusiness - The Enquirer - March 1, 1998
p108
sa(dp109
g3
VHeinz is bringing in Burger King CEO ... 3G's strategy of aggressive cost-cutting and overhauling at companies had prompted speculation that H.J ... H.J. Heinz Co.
p110
sg5
VHeinz taps Burger King CEO as new owners take over
p111
sa(dp112
g3
V... president and chief executive officer of H.J. Heinz Company ... in June 1996 and became president and CEO in April 1998. ... Co. H.J. Heinz Co. Stock Market XML ...
p113
sg5
VEmerson Names Heinz CEO William Johnson to Board of Directors ...
p114
sa(dp115
g3
V... business, it was natural that questions\u2014and eyebrows\u2014should be raised when the job of president of H. J. Heinz Co ... Heinz stock to become ...
p116
sg5
VThe Double Life of O'Reilly: Heinz Chief and Irish Tycoon : People.com
p117
sa(dp118
g3
VAnd so it is that anybody at H.J. Heinz Co ... will become Heinz\u2019 CEO ... Latin America's largest railroad and logistics company, where he began his career in 1998 ...
p119
sg5
VBK's and 3G's Hees To Take CEO Slot At Heinz
p120
sa(dp121
g3
V... its chief executive Bernardo Hees to H.J. Heinz Co. once ... at Heinz, will also become vice chairman ... buying Heinz ketchup company.
p122
sg5
VWhen Buffett gets Heinz, he'll also add Burger King CEO Hees ...
p123
sa(dp124
g3
VAt the heart of the $23 billion buyout of iconic American company H.J. Heinz Co is a low profile ... First Boston in 1998. ... and Heinz CEO Bill ...
p125
sg5
VBurger King's Brazilian owner at heart of all-American Heinz deal ...
p126
sa(dp127
g3
VBernardo Hees to be Appointed Chief Executive Officer of H.J. Heinz Company Following Completion of the Acquisition by 3G Capital and Berkshire HathawayBusiness Wire ...
p128
sg5
VHNZ: Summary for H.J. Heinz Company Common Stock- Yahoo! Finance
p129
sa(dp130
g3
V... picked up in a $2.3-billion spinoff from Pittsburgh-based H.J. Heinz Co., ... Monte since he became CEO in ... $5.5 million in its fiscal 1998 to $38.5 ...
p131
sg5
VDel Monte Digests Heinz Brands - Los Angeles Times
p132
sa(dp133
g3
VReports that Heinz Co. has become the first company to ... and chief executive officer, effective April 30, 1998 ... the name of H.J. Heinz Co. executive ...
p134
sg5
VArticles citations with the tag: H.J. Heinz Co
p135
sa(dp136
g3
VHaving turned around H.J. Heinz Co., Chief Executive Officer ... who became Heinz\u2019s sixth CEO in 1998, ... 1% of Heinz shares. The food company has been increasing ...
p137
sg5
VBuffett joins ranks of recent buyouts with Heinz deal | Talking ...
p138
sa(dp139
g3
VShares of H.J. Heinz ... who on Feb. 26 disclosed that his fund now owns a 5.5% stake in jeweler Tiffany & Co. ... who became CEO in 1998, ...
p140
sg5
VWho's Really Shaking Up Heinz - Businessweek - Business News ...
p141
sa(dp142
g3
V... into the same role at H.J. Heinz Co. ... who is being promoted to chief operating officer and will become its new CEO ... Company fundamental data ...
p143
sg5
VBurger King CEO Hees to Lead Heinz Once Deal Closes | Fox Business
p144
sa(dp145
g3
VBillionaire investor Warren Buffett is dipping into the ketchup business as part of a $23.3 billion deal to buy the Heinz ketchup company. H.J. Heinz Co ...
p146
sg5
VWarren Buffett: Heinz ketchup company to be bought by Buffet firm ...
p147
sa(dp148
g3
VJohnson joined Heinz in 1982 and became president and CEO in 1998. ... Hees will become Chief Executive Officer of H.J. Heinz Company ... for Burton's Biscuit Co.
p149
sg5
VBurger King boss Hees to lead Heinz
p150
sa(dp151
g3
V... became CEO of Burger King ... The firm's strategy of aggressive cost-cutting and overhauling at companies had prompted speculation that H.J. ... Heinz Co. could ...
p152
sg5
VNew owners tap Burger King for Heinz helm - The Reporter
p153
sa(dp154
g3
VHeinz Company Chairman, President ... are teaming up to buy ketchup maker H.J. Heinz Co for $23 ... became the second high-profile casualty at the ...
p155
sg5
VBuffett, Brazil's 3G team up for $23 billion Heinz buyout - Yahoo ...
p156
sa(dp157
g3
VSam Hwi Lee was named President and Chief Executive Officer of StarKist Co ... 1998 to work for H.J. Heinz Co ... Co., a world-class fisheries company, ...
p158
sg5
VManagement Team | StarKist
p159
sa(dp160
g3
V... will run the company. In addition to condiments, H.J. Heinz Co ... King's CEO, would take the top ... over his 30 years at the company. Heinz said it ...
p161
sg5
VHeinz shareholders OK acquisition - The Reporter
p162
sa(dp163
g3
VJohnson joined Heinz in 1982 and became president and CEO in 1998. ... announced that Bernardo Hees will become Chief Executive Officer of H.J. Heinz Company ...
p164
sg5
VBurger King boss Hees to lead Heinz
p165
sa(dp166
g3
VH.J. Heinz Co. is selling its Canadian-based bakery products unit ... Ontario, is a $200million business that makes unbaked . ... Heinz president and chief .
p167
sg5
VHeinz To Sell Its Canadian-Based Bakery Products Unit to Pillsbury ...
p168
sa(dp169
g3
V... H.J. Heinz Co. also makes baked beans, ... Best Buy hires new CEO for China business; ... Become a Fan; Follow Us; RSS
p170
sg5
VHeinz shareholders approve acquisition by 3G, Berkshire ...
p171
sa(dp172
g3
V... will buy ketchup and baby food maker H.J. Heinz Co for $23.2 ... with 3G over the details of Heinz's future management. The company, ... set in 1998 - having ...
p173
sg5
VHeinz $23 billion sale to Buffett, 3G to spur consolidation ...
p174
sa(dp175
g3
VH.J. Heinz Company Shareholders Overwhelmingly ... Heinz Chairman, President and ... The William O'Neil + Co. Database and all data contained herein are ...
p176
sg5
VH.J. Heinz Company Shareholders Overwhelmingly Approve Acquisition ...
p177
sa(dp178
g3
V... deal to buy H.J. Heinz Co., ... Heinz CEO William Johnson said at a news conference that taking the company private would give Heinz the ...
p179
sg5
VBuffett's firm dips into $23B Heinz ketchup deal - Yahoo! News
p180
sa(dp181
g3
VThe H.J. Heinz Company manufactures thousands of food products in plants on six continents, ... Chief Executive Officer; 4/30/1998-Edit; Delete; ... H.J. HEINZ CO.
p182
sg5
VH. J. Heinz Company - Freebase
p183
sa(dp184
g3
VH.J. HEINZ COMPANY , et al., ... The merger would cause a market that is already highly concentrated to become ... (8th Cir. 1998); FTC v. Coca-Cola Co., 641 F ...
p185
sg5
VH.J. Heinz Company ("Heinz") - Memorandum - Federal Trade Commission
p186
sa(dp187
g3
VInvestor Nelson Peltz won seats on the board of the H. J. Heinz Company, ... 54.40 when William R. Johnson became chief executive in 1998, ... Heinz, H J, Co;
p188
sg5
VPeltz Is Seen With 2 Seats at Heinz - New York Times
p189
sa(dp190
g3
V... President and CEO of Heinz ... H.J. Heinz Company will locate its ... MY name is tychanda williams and i want to become an employee of your company.
p191
sg5
VH.J. Heinz Company to Locate Manufacturing Facility in Florence |
p192
sa(dp193
g3
V... 23.3 billion deal to buy the Heinz ketchup company. H.J. Heinz Co. says it's the ... Heinz CEO William Johnson said in a ... of rain would become reality ...
p194
sg5
VWarren Buffett buys Heinz in deal worth $23B - World - CBC News
p195
sa(dp196
g3
V... referring to Berkshire's pending takeover with Brazilian investment firm 3G Capital of H.J. Heinz Co (>> H.J. Heinz Company), ... to become Berkshire's CEO. ...
p197
sg5
VBuffett says economy on mend, bonds 'terrible' investment | 4-Traders
p198
sa(dp199
g3
V... President and Chief Executive Officer, H.J. Heinz Company ... Henry J. Heinz became one of few in the ... H.J. \u201cJack\u201d Heinz was a co-founder and member of ...
p200
sg5
VEdgar Filing: HEINZ H J CO - Form DEFA14A
p201
sa(dp202
g3
V... H.J. Heinz Co. plans to ... Del Monte will become a larger ... who succeeded Anthony O'Reilly as CEO in 1998, made his mark at the company while running the ...
p203
sg5
VNo more Heinz on North Side - Post-Gazette.com
p204
sa(dp205
g3
VHEINZ H J CO Form 10-K Download PDF. June 17, 2005 ...
p206
sg5
VEdgar Filing: HEINZ H J CO - Form 10-K - Boston.com - Boston, MA ...
p207
sa(dp208
g3
V... buyout of iconic American company H.J. Heinz Co is a low profile Brazilian group ... Suisse First Boston in 1998. ... Buffett and Heinz CEO Bill ...
p209
sg5
VBurger King's Brazilian owner at heart of all-American Heinz deal
p210
sa(dp211
g3
V"Chief Executive Officer" shall mean the Chief Executive Officer of H. J. Heinz ... H. J. Heinz Co. (the "Company") ... grants and will become exercisable at ...
p212
sg5
VHEINZ H J CO - HNZ Annual Report (10-K) EXHIBIT 10.A.16
p213
sa(dp214
g3
VIn addition to condiments, H.J. Heinz Co. also ... King\u2019s CEO after 3G bought ... he accrued over his 30 years at the company. Heinz said it expects the ...
p215
sg5
VHeinz shareholders OK acquisition - Lake County News-Sun
p216
sa(dp217
g3
VBernardo Hees To Become CEO Of H.J. Heinz ... H.J. Heinz Co. ... The company stated that it is waiting for antitrust clearance in China, ...
p218
sg5
VH.J. Heinz Shareholders Okay Acquisition By Berkshire Hathaway And ...
p219
sa(dp220
g3
VPrior to joining the Company, DiDonato served the H.J. Heinz Co. as Chief People ... he became Executive Vice President of ... From September 1998 to ...
p221
sg5
VHuman Resource Executive Online | The Pepsi HR Generation
p222
sa(dp223
g3
VHeinz is one step closer to going private. ... H.J. Heinz Co. announced that Bernando Hees, a 3G partner and Burger King's CEO, ...
p224
sg5
VHeinz shareholders OK acquisition - Business - Modbee.com
p225
sa(dp226
g3
VInvestor Warren Buffett says he expects Berkshire Hathaway to own a stake in ketchup-maker H.J. Heinz Co ... Generally Berkshire buys entire companies ... 8 CEO pay ...
p227
sg5
VBuffett defends structure of $23B Heinz deal : Business
p228
sa(dp229
g3
VCEO and president, H.J. Heinz Company. ... Johnson was appointed president and chief executive officer of H.J. Heinz Company in 1998 and was ... Trust Co. vs J. R ...
p230
sg5
VJohnson, William R. 1949\u2013 \u2013 FREE Johnson, William R. 1949 ...
p231
sa(dp232
g3
VBusiness. Monday, May. 06, 2013 ... Investor Warren Buffett says he expects Berkshire Hathaway to own a stake in ketchup-maker H.J. Heinz Co. forever, ...
p233
sg5
VBuffett defends structure of $23B Heinz deal - Business ...
p234
sa(dp235
g3
V... President and Chief Executive Officer, H.J. Heinz Company ... Henry J. Heinz became one of few ... Heinz India estab- In 1998, ...
p236
sg5
VHeinz Company Corporate Social Responsibility
p237
sa(dp238
g3
VIf any of the nominees become unable or ... President and Chief Executive Officer of Heinz (1998 ... Chairman and co-founder of INOV8 Beverage Company ...
p239
sg5
VH.J. HEINZ COMPANY DEF 14A - U.S. Securities and Exchange ...
p240
sa(dp241
g3
V... to buy the Heinz ketchup company. Shares in H.J. Heinz Co. bounced 20 ... Heinz CEO William Johnson said in a ... to become a fitness instructor ...
p242
sg5
VWarren Buffett buys ketchup company Heinz in record $23BILLION ...
p243
sa(dp244
g3
VDIRECTOR OF SALES at H.J. HEINZ ... Developed Customer Level Business Plan Template which became company ... President & Chief Executive Officer at Mack-Cali ...
p245
sg5
VMitch Hersh | LinkedIn
p246
sa(dp247
g3
V... when he teamed up with Brazil's 3G Capital investment firm to buy H.J. Heinz Co for $23.2 billion. ... for the company's ... president of Henry H ...
p248
sg5
VWarren Buffett: As Berkshire Grows, the Oracle Faces Big Questions
p249
sa(dp250
g3
VWilliam R. Johnson is president, CEO and chairman of H. J. Heinz ... owned company boasted 1998 sales of ... president and CEO of Heinz Frozen Food Co., ...
p251
sg5
VHeinz Expands Frozen Food Stake With UB, Quality Chef Takeovers ...
p252
sa(dp253
g3
VHEINZ H J CO 10 -K 2008. Documents ... of all of the executive officers of H. J. Heinz Company indicating all positions and ... the Company\u2019s products become ...
p254
sg5
VH.J. HEINZ COMPANY 10-K - See your portfolio in a whole new light ...
p255
sa(dp256
g3
VRead about the history of M.A. Gedney Co. Explore the company's history, ... 1998: Gedney Tuttle turns over the CEO post to ... H.J. Heinz Company; Kraft Foods Inc ...
p257
sg5
VHistory of M.A. Gedney Co. \u2013 FundingUniverse
p258
sa(dp259
g3
VChairman and Co-CEO of ... he was named president and chief executive officer of The Minute Maid Company. He became president and ... President and CEO of H.J. Heinz.
p260
sg5
VVIP Distinguished Speaker Series | McCombs School of Business
p261
sa(dp262
g3
VHeinz CEO William Johnson said at a news conference that taking the company private would give Heinz the ... General Re in 1998. Heinz shareholders will ...
p263
sg5
VBuffett's firm dips into $23B Heinz ketchup deal | The Daily Caller
p264
sa(dp265
g3
VHeinz CEO's 1.Henry J. Heinz 2.Howard Heinz ... 6.Bill Johnson The H.J. Heinz Company uses more tomatoes than any other company in the ... CO 80104 TOLL FREE: ...
p266
sg5
VFun Facts About Heinz Ketchup
p267
sa(dp268
g3
V... Brazilian investment firm 3G Capital of H.J. Heinz Co , ... alluded as being candidates to become Berkshire's CEO. ... co/E7XVTRFw3K #business.
p269
sg5
VBuffett says economy on mend, bonds 'terrible' investment ...
p270
sa(dp271
g3
VBuffett conducted interviews Monday on CNBC and the Fox Business Network cable channels ... of ketchup-maker H.J. Heinz Co ... take over as CEO if ...
p272
sg5
VOMAHA, Neb.: Buffett: Stocks still reasonable but bonds awful ...
p273
sa(dp274
g3
V... and laid out plans for a revamped leadership team as Chief Executive Bernardo Hees prepares to become the CEO of H.J. Heinz Co. ... international, business, and ...
p275
sg5
VBurger King sees comparable sales down, CEO to head to Heinz - The ...
p276
sa(dp277
g3
V"If you're the director of a company like ... are the men to whom Buffett has alluded as being candidates to become Berkshire's CEO. ... H.J. Heinz Co ...
p278
sg5
VUPDATE 2-Buffett says economy on mend, bonds 'terrible' investment ...
p279
sa(dp280
g3
Vh. j. heinz company, proxy statement, fiscal year, forward-looking statements, vice president, new york ny, h.j. heinz, chief executive officer, nelson peltz, ...
p281
sg5
VH. J. Heinz Company World Headquarters 600 GrantStreet Pittsburgh
p282
sa(dp283
g3
V... chief executive officer of ... department in the 1970s and became director of the firm\u2019s ... such as the bids for Dell and H.J. Heinz Co., ...
p284
sg5
VSFGate Business News \u2014 San Francisco Bay Area Business, Real ...
p285
sa(dp286
g3
V... the CEO and chairman of Berkshire ... Buffett's company recently announced that it would buy half of condiment maker H.J. Heinz Co. in a $23.3 billion ...
p287
sg5
VBerkshire Hathaway buys the rest of IMC for $2.05B - Business Wire ...
p288
sa(dp289
g3
V(EMAILWIRE.COM, January 22, 2002 ) When adult taste buds talked, H.J. Heinz Company (NYSE: HNZ) listened! Today, Heinz officially launched Ketchup KICK'RS(TM), a line ...
p290
sg5
VAre You a Flavor Craver? With New Flavored Ketchup KICK'RS From ...
p291
sa(dp292
g3
VAn affiliate of the Smithsonian Institution, the History Center is Pennsylvania's largest history museum and presents the most compelling stories from American ...
p293
sg5
VHeinz History Center
p294
sa(dp295
g3
VWarren Buffett said the U.S. economy is gradually improving, but low interest rates have made bonds "terrible investments" while stocks remain "reasonably priced."
p296
sg5
VBuffett says US economy on mend, bonds 'terrible' investment ...
p297
sa(dp298
g3
VRent or Buy Cases in Strategic Management and Business Policy - 9780131424067 by Wheelen, Tom for as low as $0.01 at eCampus.com. Voted #1 site for Buying Textbooks.
p299
sg5
VRent or Buy Cases in Strategic Management and Business Policy ...
p300
sa(dp301
g3
VSearch the world's largest database of company and industry information. Find contact information, get competitive reports, build targeted lists
p302
sg5
VHoovers | Company Information | Industry Information | Lists
p303
sa.