(lp1
(dp2
S'description'
p3
V... designed to be used expressly for off-the-air purposes ... It's Howdy Doody Time: A 40-Year Celebration, ... The Canadian Howdy Doody Show made its debut on ...
p4
sS'title'
p5
VHowdy Doody - Wikipedia, the free encyclopedia
p6
sa(dp7
g3
V... The Howdy Doody Show was a ... Howdy's popularity exploded that year--the show received a quarter of ... where they stayed until the show went off the air in ...
p8
sg5
VHowdy Doody
p9
sa(dp10
g3
VIt was the first NBC series to air ... vandals broke in and chopped off its head! Howdy Doody did not make an ... It's time to start the show, so kids let's go!
p11
sg5
VThe Howdy Doody Show - TV Shows
p12
sa(dp13
g3
VThese lines were heard at the beginning of The Howdy Doody Show, ... Why did this show air? ... It was created before there were examples to build off.
p14
sg5
VHowdy Doody - TV.com
p15
sa(dp16
g3
VHe was given four days to create this show and get it on the air. ... The theme song of 'The Howdy Doody Show' was sung to the ... walked off the show in a ...
p17
sg5
VHowdy Doody - Fun Facts and Information - Fun Trivia Quizzes ...
p18
sa(dp19
g3
VBuy Avalide Pills - Brand and Generic Drugs without Prescription. Cheap Price. Wolrdwide Delivery. Season Discounts. Free shipping available.
p20
sg5
VBuy Avalide Pills - Buy Drugs Online No Prescription Needed ...
p21
sa(dp22
g3
VHowdy Doody went off the air ... but it was not until today--at age 31--that I saw the show for the first time with my five year ... Let me go back to the ...
p23
sg5
V"The Howdy Doody Show" Reviews & Ratings - IMDb
p24
sa(dp25
g3
VDuring the show's first year, only one Howdy Doody marionette was ... When the New Howdy Doody Show went off the air, ... Go from Howdy Doody Marionette page to ...
p26
sg5
VThe Howdy Doody Marionette - Boomer Nostalgia
p27
sa(dp28
g3
VIt was always when the Howdy Doody Show, came on the air every day. Howdy would tell us, ... is here, it's time to start the show, so kids let's go ...
p29
sg5
VWhen is Howdy doodie time? - Yahoo! Answers
p30
sa(dp31
g3
VRelease Date: 27 December 1947 (USA ... 3:41 PM, PDT) Google goes Gumby in honor of creator Art Clokey's ... Howdy Doody went off the air fourteen years before I ...
p32
sg5
V"The Howdy Doody Show" (1947)
p33
sa(dp34
g3
VThe Howdy Doody Show was the first nationally televised children's television show and was also the first NBC show to air ... day of us going to ...
p35
sg5
VApril Fools Day on the Howdy Doody Show (April 1, 1952) - YouTube
p36
sa(dp37
g3
VDVD Release Date: November 4, 2008; Run Time: 600 minutes; ... The Howdy Doody Show went on to air 2,543 episodes, before running its final episode on September 24, 1960.
p38
sg5
VAmazon.com: The Best of Howdy Doody - 20 Episodes: Bob Keeshan ...
p39
sa(dp40
g3
VWhat was the first children's television show? Howdy Doody, 1947 - 960 . Howdy Doody, 1947 - 960 How many seasons did the television show Friends air?
p41
sg5
VWhen did the television show friends first air - The Q&A wiki
p42
sa(dp43
g3
VThe Howdy Doody Show went on to air ... the first show on the air each day ... I bought the Mill Creek Howdy Doody 40 Episodes off of Ebay after finally ...
p44
sg5
VAmazon.com: The Howdy Doody Show- 40 Episode Collection: Bob Smith ...
p45
sa(dp46
g3
VLyrics to song The Howdy Doody Show Theme Songs by Howdy Doody ... kids let\u2019s go! THE HOWDY DOODY SHOW CLOSING ... English 584 Lyrics Marty Robbins The air That ...
p47
sg5
VTHE HOWDY DOODY SHOW THEME SONGS Lyrics HOWDY DOODY & Buffalo Bob ...
p48
sa(dp49
g3
V... the host of The Howdy Doody Show, ... went on the air, then we took off ... One day Clarabell would come out and do the show with me, and one day ...
p50
sg5
VI Remember Howdy : People.com
p51
sa(dp52
g3
V... The Howdy Doody Show: ... Howdy Doody, with the 'Chipmunk of the Year'award, ... You Go to My Head. Ep 3. Who's Sorry Now? Ep 2. Richie's Car. Ep 1.
p53
sg5
VHappy Days - Season 2, Episode 17: The Howdy Doody Show - TV.com
p54
sa(dp55
g3
VListen to full ( Heart and Soul ) CD Listen to full ( A Feral Distinction ) CD. Contact Us
p56
sg5
VBadFashion
p57
sa(dp58
g3
VIn the midst of all the premieres the beloved children\u2019s program Howdy Doody was going off the air, ... Andy Griffith Show, which had a healthy eight-year run ...
p59
sg5
VTV in 1960: Farewell to Howdy Doody, Hello to The Flintstones and ...
p60
sa(dp61
g3
Vdid it really go off the air then? ... The original Howdy Doody show went off the air 2 days before my 5th ... because that was their guest star day.
p62
sg5
VYour favorite childhood TV show & Memories - Topix
p63
sa(dp64
g3
V... The Howdy Doody Show entertained young ... a radio broadcast after the live television show went off the air. ... shows and then go home and ...
p65
sg5
VMartin Grams: THE HOWDY DOODY RADIO SHOW
p66
sa(dp67
g3
V... but still with a provenance going back to the ... The original "Howdy Doody Show" went off the air in ... it was the _very same day_ that vandals later ...
p68
sg5
VThe Magic Cafe Forums - Dilly Dally -- Howdy Doody Show
p69
sa(dp70
g3
V"It's going to break her ... "The Howdy Doody Show" lasted 13 seasons and more than ... Smith was never bitter after the show went off the air, saying: "We had a ...
p71
sg5
VCNN - 'Buffalo Bob' remembered as 'the real star of the show ...
p72
sa(dp73
g3
VThe Howdy Doody Show aired on NBC from 1947 to 1960 for a total run ... Buffalo Bob started off the song with the ... It's time to start the show, so kids let's go!
p74
sg5
VHowdy Doody - Squidoo : Welcome to Squidoo
p75
sa(dp76
g3
VHe is the Howdy figure that was used in Howdy Doody still photo sessions for the Howdy Doody Show and ... show first went on the air ... head off. Photo Doody sold ...
p77
sg5
VPhoto Doody (Howdy) - Wikipedia, the free encyclopedia
p78
sa(dp79
g3
VThe Howdy Doody Show, ... Playhouse - debuted at 5 p.m., the first show of the day ... up his puppets and went off to do other things. The show carried ...
p80
sg5
VHowdy Doody Show - Pop-Cult.Com
p81
sa(dp82
g3
VWhen \u201cThe Howdy Doody Show\u201d went off the air in ... intended that the Howdy Doody puppet go to ... year: Rufus Rose could have given Howdy to the DIA ...
p83
sg5
VUNITED STATES DISTRICT COURT DISTRICT OF CONNECTICUT THE DETROIT ...
p84
sa(dp85
g3
V... (now known as "Ugly Doody"). When he walked off the show ... A thank you goes to Jack Koch's Howdy Doody ... It's called It's Howdy Doody Time! A 40 Year ...
p86
sg5
VRemembering HOWDY DOODY's Cast of Characters - Sitcoms Online ...
p87
sa(dp88
g3
VShe was called Princess SummerFallWinterSpring. the character was American Indian but might have been a (take-off) on Princess Lee Radziwill.
p89
sg5
VWho was the princess on the Howdy Doody show - The Q&A wiki
p90
sa(dp91
g3
VThe Howdy Doody Show. ... markets takes time but it is a relaxing way to spend a day off for most ... of a moving picture magically appearing out of thin air.
p92
sg5
VHowdy Doody Collectibles - Marye Audet on HubPages
p93
sa(dp94
g3
V... an interesting piece of history about The Howdy Doody Show. ... designed to be used expressly for off-the-air purposes ... day. hour. hours. FREE shipping.
p95
sg5
VHowdy Doody Marionette 1950s | eBay - Electronics, Cars, Fashion ...
p96
sa(dp97
g3
V... \u201cThe Jerry Springer Show,\u201d popped up on a regular a day at the office. \u201cHowdy Doody ... show went off the air. ... do or not do. If the show didn't go ...
p98
sg5
VGrub Street | The Grub Street Interview - Grubstreet.ca | Read ...
p99
sa(dp100
g3
VHowdy Doody ! I'm rushing straight off to fb to ... Can't make it this time of year. Enjoy everything about Air Force except ... again Or go on the Howdy Doody show?
p101
sg5
VHowdy Doody - First thoughts about
p102
sa(dp103
g3
VWas this from an off air broadcast in 1976-1977 since it has the original opening credits not ... 29:13 April Fools Day on the Howdy Doody Show (April ...
p104
sg5
VHowdy Doody Theme Song - YouTube
p105
sa(dp106
g3
VSorry to go off topic but I\u2019m still searching. ... You may not know two things about the Howdy Doody Show. ... and was off the show for over a year.
p107
sg5
VLost UPA Cartoon: Howdy Doody and his Magic Hat | Cartoon Brew
p108
sa(dp109
g3
V... the owner of the hot daily NBC-TV show Howdy Doody. ... off. I\u2019m sure it\u2019s not what the Howdy Doody ... Allen did it live on air for over a year, ...
p110
sg5
VCartoon Brew TV #22: Howdy Doody and His Magic Hat (1953 ...
p111
sa(dp112
g3
VTitle page has upper right corner torn off. Otherwise ... HOWDY DOODY "PUPPET SHOW AND STORY BOOK. ... HOWDY DOODY AND THE AIR-O-DOODLE.
p113
sg5
VHOWDY DOODY toys and collectibles for sale from Gasoline Alley ...
p114
sa(dp115
g3
VThe Howdy Doody Show was turned on every day-no fail! ... Cheap air tickets; Fishing books; Ink cartridge on the go; Homework;
p116
sg5
VHowdy Doody : HOWDY DOODY WAS A KID'S BEST FRIEND BACK IN THE 1950'S!
p117
sa(dp118
g3
VHowdy Doody Lines How-dee du-dee linz ... but deep crevices that don't go away...or do they? ... frequently appearing on CBS' The Early Show, ...
p119
sg5
VMY FABULOUS 40th BIRTHDAY: Fab 40 Definition #14: Howdy Doody Lines
p120
sa(dp121
g3
V... Mr. Fucking Howdy Doody!": Wyoming Head Coach Goes On ... as the stadium on a day-to-day basis, and the Air Force ... Howdy-Doody in your profanity ...
p122
sg5
V"Look At Me, Mr. Fucking Howdy Doody!": Wyoming Head Coach Goes On ...
p123
sa(dp124
g3
VHowdy Doody, Mr. Spock, ... It marks the end of a two-year custody battle between the museum and the family ... studio after the show went off the air in ...
p125
sg5
VHowdy Doody, Mr. Spock, Repulsive Energy, and David Bowie!
p126
sa(dp127
g3
VConan O'Brien to Revive Howdy Doody Show : ... In a statement on-air, ... Lindsay Lohan Says David Letterman Begged Her Not To Walk Off His Show.
p128
sg5
VThe Spoof : Conan O'Brien to Revive Howdy Doody Show funny satire ...
p129
sa(dp130
g3
VOccasionally I was fortunate enough to be one of the kids in the Howdy Doody Show ... to go to the show and ... day, I remember watching the last Howdy Doody ...
p131
sg5
VR.I.P. Clarabell, Howdy Doody Show - TalkLeft: The Politics Of Crime
p132
sa(dp133
g3
V... crave the memories the happy-go-lucky puppet inspires and ... the show ran a "Howdy Doody for President of the ... Buffalo Bob Nears Sign-off ...
p134
sg5
VAs A Collectible, It's Definitely Howdy Doody Time - Chicago Tribune
p135
sa(dp136
g3
VCabbie angrily denied the accusation on the air, but Howard wanted the doody sent out for DNA ... Howard told her to get out, ... which chronicles each day's show, ...
p137
sg5
VDead end doody - The Howard Stern Show - HowardStern.com ...
p138
sa(dp139
g3
VThe Howdy Doody Show ran from Dec ... (and the crew off camera) laugh even harder. All this goes right over the heads of the ... this show lasted on the air until ...
p140
sg5
VHowdy Doody:Scuttlebutt: Amazon.ca: Bob Smith, Nick Nicholson ...
p141
sa(dp142
g3
VIt\u2019s Howdy Doody time! Bob Smith and Howdy do. ... It\u2019s time to start the show. So kids let\u2019s go! ... and then one day he was shooting at some food.
p143
sg5
VClassic TV Trivia - Part I - Amazon.com: Online Shopping for ...
p144
sa(dp145
g3
VMy favorite shows were \u201cSuperman\u201d and \u201cHowdy Doody ... there was \u201cThe Red Skelton Show,\u201d \u201cOur Miss Brooks,\u201d \u201cThe ... The following year, ...
p146
sg5
VTed Stillwell: John Cameron Swayze, Howdy Doody and other old-time ...
p147
sa(dp148
g3
VThe Howdy Doody show's various marionettes were created and built by puppeteers ... designed to be used expressly for off-the-air purposes ... day. hour. hours. FREE ...
p149
sg5
V2 Vintage Howdy Doody Character Contemporary Pocket Watch Runs ...
p150
sa(dp151
g3
VIt's time to start the show, So kids, let's go! Howdy Doody ... Network with new host David Hirsh but went off the air in 1989. Dick Clark's first day as host was 7 ...
p152
sg5
V~Buffalo Gal's Attic~ \u2122 - Remember When
p153
sa(dp154
g3
VCabbie angrily denied the accusation on the air, but Howard wanted the doody sent out for DNA ... Howard told her to get out, ... which chronicles each day's show, ...
p155
sg5
VDead end doody - The Howard Stern Show - HowardStern.com ...
p156
sa(dp157
g3
VJoin Date: 18 February 2000. Location: ... The show then went abruptly off the air. ... Happy Dan, Howdy Doody, Captain O'Hap's Popeye Clubhouse, ...
p158
sg5
V'Leroy farted!' - snopes.com
p159
sa(dp160
g3
VIt\u2019s Howdy Doody time! Bob Smith and Howdy do. ... It\u2019s time to start the show. So kids let\u2019s go! ... and then one day he was shooting at some food.
p161
sg5
VClassic TV Trivia - Part I - Amazon.com: Online Shopping for ...
p162
sa(dp163
g3
VGO. Art, Antiques ... Clocks, Collectibles, Air Guns & More > Lot #64 Mr. Bim from the Howdy Doody Show. ... Preview Date & Times: Preview Wednesday, ...
p164
sg5
VMr. Bim from the Howdy Doody Show | Proxibid Auctions
p165
sa(dp166
g3
VThe Howdy Doody Show ran from Dec ... (and the crew off camera) laugh even harder. All this goes right over the heads of the ... this show lasted on the air until ...
p167
sg5
VHowdy Doody:Scuttlebutt: Amazon.ca: Bob Smith, Nick Nicholson ...
p168
sa(dp169
g3
VMy favorite shows were \u201cSuperman\u201d and \u201cHowdy Doody ... there was \u201cThe Red Skelton Show,\u201d \u201cOur Miss Brooks,\u201d \u201cThe ... The following year, ...
p170
sg5
VTed Stillwell: John Cameron Swayze, Howdy Doody and other old-time ...
p171
sa(dp172
g3
VThe Howdy Doody show's various marionettes were created and built by puppeteers ... designed to be used expressly for off-the-air purposes ... day. hour. hours. FREE ...
p173
sg5
V2 Vintage Howdy Doody Character Contemporary Pocket Watch Runs ...
p174
sa(dp175
g3
V... Bob on The Canadian Howdy Doody Show. ... Trek if the show did succeed. Boldly Going Where ... than the show did when it was originally on the air and ...
p176
sg5
VLet\u2019s Have a Shatnerpalooza! - Neatorama
p177
sa(dp178
g3
VIt's time to start the show, So kids, let's go! Howdy Doody ... Network with new host David Hirsh but went off the air in 1989. Dick Clark's first day as host was 7 ...
p179
sg5
V~Buffalo Gal's Attic~ \u2122 - Remember When
p180
sa(dp181
g3
VTypos and spelling errors just go with this ... This marionette was featured in the 1955 Howdy Doody TV show. ... Air Canada Flight 143 Lands Safe on 23 ...
p182
sg5
V"Ajacks' I Don't Know Why, I just do": Princess Summerfall ...
p183
sa(dp184
g3
VAnd since the day that he was born, ... long after The Howdy Doody Show went off the air in ... It's just going to be one of those names that will have some kind of ...
p185
sg5
VGenerational Divide: Is This Name Stylish or Clownish? | NameCandy
p186
sa(dp187
g3
V\u201cThe Howdy Doody Show\u201d ... He hops back on his skateboard and goes off, OUT OF FRAME. ... What are we gonna do? INT. MALT SHOP \u2013 DAY
p188
sg5
VBACK TO THE FUTURE - Science Fiction and Fantasy Movie Scripts
p189
sa(dp190
g3
VI\u2019ve been watching Howdy Doody DVD\u2019s ... Smith to the edge of breaking up during the show. ... for this office be held in the off-mayor election year, ...
p191
sg5
VHowdy Doody, November 15, 2009 - DCWatch home page
p192
sa(dp193
g3
V... \u201cI\u2019m President of the Howdy Doody ... have worn off, but he doesn\u2019t want the feeling to go ... enjoying the show any more than I did this year. ...
p194
sg5
V"Mad Men" Season Finale Review: "The Phantom" (Season 5 Episode 13 ...
p195
sa(dp196
g3
V... but they perhaps don\u2019t go with \u201cThe Howdy Doody Show.\u201d ... also an afternoon show called \u201cQueen for a Day.\u201d ... Girls\u201d is really off the ...
p197
sg5
VTV shows were \u2018Golden\u2019 | DailyComet.com
p198
sa(dp199
g3
VEven though the TV show went off the air in 1960 after 13 ... It is sad that his death comes in his and Howdy's 50th anniversary year. ... The Howdy Doody Show ...
p200
sg5
VBuffalo Bob Smith - Factbites
p201
sa(dp202
g3
VPictures include Flub-a-Dub, Tricycle pull toy, tin litho toy - "Doing the Howdy Doody", puppet show, vinyl doll, ... This Day in Humor - November 27 - Humor History;
p203
sg5
VHowdy Doody Memorabilia and Toy Values -- Prices and Values for ...
p204
sa(dp205
g3
VMany of us boomers remember Howdy Doody and ... The Howdy Doody show was nonsense ... not even Buffalo Bob or Howdy, but their legacy as culture goes on ...
p206
sg5
VHowdy Doody and Charlie McCarthy - 20th Century Cultural Icons
p207
sa(dp208
g3
VWhat year did Wilmington have it ... The kids could appear on the show and were on a set much like the old Howdy Doody Show. ... Is the state going to pave Highway ...
p209
sg5
VMyReporter.com What year did Wilmington have it first TV station ...
p210
sa(dp211
g3
V"The Howdy Doody Show" went on the air in 1947, ... Six million Howdy comic books were sold a year, ... GOING PLACES-- The first half is about train sets, ...
p212
sg5
VIntro for "The Toy Book" - Hello, My Name Is Gil Asakawa
p213
sa(dp214
g3
V... do drawings, take photo's, go raving, ... howdy doody mrs hoody has 209 friends. ... and Fez from That 70's Show. He rocks my world. Details.
p215
sg5
VYasmin Hood (howdy doody mrs hoody) on Myspace
p216
sa(dp217
g3
VOne year he did an ... he said he made more money off Howdy Doody than Velma Dawson did. ... don't get me started on the "show-going etiquette" of ...
p218
sg5
VArticles on Puppetry: writing about Puppets
p219
sa(dp220
g3
VThe show was going to be part of a mini-series ... When Howdy Doody went off the air in the fall ... / Our Gang / Doris Day Show / 1970's ...
p221
sg5
VTVparty TV Blog / Classic Television Blog / Television Blog ...
p222
sa(dp223
g3
VHowdy 97.7 WWKY, Madisonville, KY ... Show starts at 7:30 pm. at the Capitol Arts Center. ... First one of the year and I'm afraid I didn't do a good job spreading ...
p224
sg5
VHowdy 97.7 WWKY - Madisonville, KY - Local Business | Facebook
p225
sa(dp226
g3
VZip was a live chimp from the Howdy Doody Show. ... Loraine misses watching the cute dressed chimps as they showed off their ... like Zippy Goes To School were ...
p227
sg5
VZip was found! Zip - Zippy the Chimp - Howdy Doody - Chimp ...
p228
sa(dp229
g3
VAnderson reprised his role on \u201cThe New Howdy Doody Show\u201d ... After the program left the air, ... It's possible that your browser cookies are turned off.
p230
sg5
VFamous Iowans - Lew Anderson | The Des Moines Register ...
p231
sa(dp232
g3
V... Clarabell from the 'Howdy Doody Show ... when he led an uprising over more money minutes before going on the air live in ... with a year off in ...
p233
sg5
VCaptain Kangaroo
p234
sa(dp235
g3
VOliver Assayas on "Something in the Air" By Eric Hynes. ... Claiming that The Howdy Doody Show inspired his own career, ... "because who was ever going to do that again?"
p236
sg5
VHowdy Doo-doo - - Movies - New York - Village Voice
p237
sa(dp238
g3
V... soon renamed The Howdy Doody Show. ... going off the air in 1993. ... But the Captain did just that, day after day, ...
p239
sg5
VFloridian: A birthday surprise for Captain Kangaroo fans
p240
sa(dp241
g3
VLooking like Howdy Doody and Alfred E. Newman from "MAD ... more concerned that the cute singer makes it to the show's finale ... Go Off Script; ...
p242
sg5
V'Idol's' Scotty McCreery Looks like Howdy Doody, Alfred E. Newman ...
p243
sa(dp244
g3
V... (Howdy Doody, Princess Summerfall ... of any reality show. All the producers can do is shut off the lights ... me when it would air. To get on a reality show, you ...
p245
sg5
VReality Show Casting Secrets - Reality Show Producer Tells All ...
p246
sa(dp247
g3
VWith some 500 million Twinkies produced a year, ... on as a sponsor of the "Howdy Doody" show during the ... we lose if Twinkies really did go away?
p248
sg5
VWhat happens if Twinkies really do go away? - Yahoo! News
p249
sa(dp250
g3
V... "How's your day/week going?"."So ... from which comes the texas "howdy" and the colloquial "howdy doody" 6 ... does it mean to go "off ...
p251
sg5
VWhat does 'how do you do' mean? - Yahoo! Answers
p252
sa(dp253
g3
V... Buffalo Bob Smith from Howdy Doody, for advice. ... Unfortunately the show was pulled off the air in October, ... we are going to make it on the air.
p254
sg5
VWhy My Show Must Succeed - The Daily Beast
p255
sa(dp256
g3
VIt's Howdy Doody Time. Bob Smith and Howdy Do ... It's time to start the show, So kids let's go! ... and a blast off Everything is GO Astro boy.
p257
sg5
VThe Cable Connection
p258
sa(dp259
g3
VHOWDY DOODY VOL. 2 \u2014Four more ... the-scenes look at the making of a local Kids show, examples of the show itself going back to ... he did in his office all day!
p260
sg5
VKineVideo : Vintage Television Programming
p261
sa(dp262
g3
V"Being pregnant is one of the most natural things in the world and I'm not going to hide it. I'll go off air ... as the Howdy Doody Show's ... the day off." "Thanks ...
p263
sg5
VThe Rich Hancock Radio Show: May 2006
p264
sa(dp265
g3
V... and would be on the air in one show or ... The future version took place in the far off year of ... Another puppet show. This one imitated Howdy Doody very ...
p266
sg5
VHiya Kids! A 50's Saturday Morning Box : DVD Talk Review of the ...
p267
sa(dp268
g3
VI can even remember the day they took the bandages off! ... When the "ugly" Howdy Doody was still still on the show I sent for a ... stories into the air.
p269
sg5
VKnickerbocker Village: It's Howdy Doody Time
p270
sa(dp271
g3
VAlso featured is "THE TROUBLE WITH FATHER" from 1953 titled "The Day the Circus Came to Town ... THE HOWDY DOODY SHOW ... didn't Howdy go off the air a long ...
p272
sg5
VChildren's TV etc
p273
sa(dp274
g3
V... Puppet Playhouse went on the air as NBC's first show of the day at ... became The Howdy Doody Show and we traded our ... the show went off the air in ...
p275
sg5
VA Month in the Life of the Comics - Collectors Society Message Boards
p276
sa(dp277
g3
VI believe that this show was taken off the air much too song. ... We'll sing and play the day away and one more thing I'm going to do ... Howdy Doody Show, right?
p278
sg5
Vmudcat.org: Songs from Kids Shows, that you remember
p279
sa(dp280
g3
VThe next day the squad runs off on him once again he puts them on report. ... #33- The Howdy Doody Show ... , and Richard J. Cunningham is forced to go on the air.
p281
sg5
VHappy Days: Season 2 episode guide - Sitcoms Online - Sitcom news ...
p282
sa(dp283
g3
VAfter the loss to Air Force we saw a ... Heading into the year Wyoming was ... and I'll be damned if this video doesn't prove to me that he'll go to hell ...
p284
sg5
VCoach Christensen Gains Popularity With "Howdy Doody" Rant ...
p285
sa(dp286
g3
VYou go to heaven if you do it.\u201d ... work on The Howdy Doody Show as Clarabell the Clown. DID YOU ... holidays did the early Puritans celebrate each year?
p287
sg5
VPOTPOURRI #30 8/29/6 There is enough stone in the Great Wall of ...
p288
sa(dp289
g3
VHowdy buds and buddetts from the sunshine state. ... With all that's going on in MSM in the spotlight, ... Misery-- It's Missouri- you have to 'Show Me'... Posts 4,923.
p290
sg5
VBig Howdy, from Sacramento-California
p291
sa(dp292
g3
V\u201cI wanted to see if I could take the edge off the ... and played Ranger Bob on The Canadian Howdy Doody Show. ... Shatner\u2019s World will air later in the year, ...
p293
sg5
VWilliam Shatner\u2019s \u2018juices are stirring\u2019 | Movies | Arts ...
p294
sa(dp295
g3
VThey had separated a year ... time is it? It\u2019s Howdy Doody time ... a host of others joined "Howdy Doody" on NBC-TV. The show stayed on the air for 13 ...
p296
sg5
VThose Were the Days, Today in History - December 27
p297
sa(dp298
g3
VSeries Description: The Goldbergs TV show was a comedy series about a Jewish family's dealings with the day-to-day obstacles of life. The stories were told through ...
p299
sg5
VThe Goldbergs TV Show
p300
sa(dp301
g3
V3 EDINBURGH PREVIEWS THIS WEEK! Sorry I've been hopeless at keeping this updated recently. This week Nick has three previews of this year's Edinburgh show, 'Look At ...
p302
sg5
VNick Doody | Facebook
p303
sa.