(lp1
(dp2
S'description'
p3
VDoes john prine still smoke? Answer It! In: Uncategorized [Edit categories] Relevant answers: Did ... yes he is dead in the year of 1990 aged 53 years
p4
sS'title'
p5
VDoes john prine still smoke - The Q&A wiki
p6
sa(dp7
g3
VWhich cigarette brand does John Abraham smoke? He doesnt smoke. What brand of cigarette did John Lenon smoke? kent What brand of cigarettes did john Lennon smoke
p8
sg5
VWhat brand of cigarettes did john Wayne smoke - The Q&A wiki
p9
sa(dp10
g3
VJohn Prine (born October 10, 1946) is an American country / folk singer-songwriter. He has been active as a composer, recording artist and live performer since the ...
p11
sg5
VJohn Prine - Wikipedia, the free encyclopedia
p12
sa(dp13
g3
VWhat we did Lynn and. Home; Subscribe; ... we relied on advertising data that we and John Geer purchased from the Nielsen Company. ... but in a year like ...
p14
sg5
VHow Much Did the 2012 Air War and Ground Game Matter? \u2014 The ...
p15
sa(dp16
g3
VJohn Prine, twenty five years in, is in control. His audience is solid and expanding, if not by leaps and bounds, then by steps and hops.
p17
sg5
VJohn Prine- a big, fat retrospective- Perfect Sound Forever
p18
sa(dp19
g3
VBut John spent many summers of his childhood with relatives in the Appalachian coal ... Like a lot of guitar players I have been singing John Prine songs for years.
p20
sg5
VJohn Prine Tells the Stories Behind His Most Loved Songs
p21
sa(dp22
g3
VMany episodes ended on a ... John Dehner portrayed a dubious New Orleans businessman ... Judson Pratt, Andrew Prine, Denver Pyle, Chips Rafferty (Australian ...
p23
sg5
VGunsmoke - Wikipedia, the free encyclopedia
p24
sa(dp25
g3
VHow many packs of cigarettes did John Wayne smoke a day? ChaCha Answer: It is rumored that John Wayne smoked about five packs of ciga...
p26
sg5
VHow many packs of cigarettes did John Wayne smoke a day? | ChaCha
p27
sa(dp28
g3
VThen I'll put on something by the writers I've admired and used for years (Rodney Crowell, John Prine, Guy Clark, and the late Steve Goodman are my Big Four) ...
p29
sg5
VJohn Prine | Biography - Lyrics, Song Lyrics \u2013 LyricsFreak.com
p30
sa(dp31
g3
VHow many years has she been playing on Pogo as a club member? ... D john prine 13. How long has she been married? A 23 years Ty delainia for having this comtest!
p32
sg5
VGames Forums Home | View topic - Cornchk2 is having a Birthday ...
p33
sa(dp34
g3
VYou gotta love John Prine and Steve goodman ... I had this concert on video cassette many years ago. John did the song 'Paradise' in this concert and I've ...
p35
sg5
VJohn Prine steve goodman Souvenirs - YouTube
p36
sa(dp37
g3
VDid John Daly smoke one too many cigarettes to play at Augusta this ... maybe he got 15 years for his us open but he probably hasn't won it in 15 years at ...
p38
sg5
VDid John Daly smoke one too many cigarettes to play at Augusta ...
p39
sa(dp40
g3
VJohn Prine : Jesus The Missing Years ... John Prine is a musicians' musician and a songwriters' songwriter. I respect and appreciate\ufeff his music.
p41
sg5
VJohn Prine : Jesus The Missing Years - YouTube
p42
sa(dp43
g3
VHAPPY NEW YEAR FROM THE PRINE SHRINE! CONCERTS: Set Lists | ... John Prine is one of the many wonderful artists featured on a great, ...
p44
sg5
VJohn Prine | Official Fan Site - jpshrine.org
p45
sa(dp46
g3
VThe album John Prine included his signature songs "Illegal Smile", "Sam Stone", ... I lived in Romania for a year, and the only CD I had was John Prine Live.
p47
sg5
VJohn Prine \u2013 Free listening, concerts, stats, & pictures at Last.fm
p48
sa(dp49
g3
VDid Jackie Kennedy smoke and if so how long did she? ... Jackie Kennedy was married to John Fitzgerald K... 15 days ago. How tall was Jackie Kennedy?
p50
sg5
VDid Jackie Kennedy smoke and if so how long did she? | ChaCha
p51
sa(dp52
g3
VBut one thing you shouldn\u2019t see much of is smoke. The John Deere lawn tractor should be a ... Although the lawn tractor engine is designed to last for many years, ...
p53
sg5
VJohn Deere Tractors - How To Information | eHow
p54
sa(dp55
g3
VJohn Wayne\u2019s Change of Heart About Smoking Cigarettes ... and the second was 20 years later, when he did a public service announcement for the American Cancer ...
p56
sg5
VJohn Wayne\u2019s Change of Heart About Smoking Cigarettes \u2013 My ...
p57
sa(dp58
g3
VWhen George Washington was 27 years old, he married Martha Dandridge Custis on January 6, 1759. Martha already had two children, Martha Patsy Custis and John Custis ...
p59
sg5
VHow Many Children Did George Washington Have
p60
sa(dp61
g3
VThe Missing Years, Oh Boy, 1991. John Prine Christmas, Oh Boy, 1994. Lost Dogs & Mixed Blessings, Oh Boy, 1995. ... John Prine sold poorly, as did subsequent albums.
p62
sg5
VJohn Prine Facts, information, pictures | Encyclopedia.com ...
p63
sa(dp64
g3
VIn New York City last year, for example, 37 of the 90 smoke detectors in buildings that had fatal fires did not work, said John Hodgens, ...
p65
sg5
VCONSUMER'S WORLD; How Long Do Smoke Detectors Last? - New York Times
p66
sa(dp67
g3
VLast year I bought the tape of John Prine for my car. I hadn't heard it in twenty five years...but it seems as relevant today as it was twenty five years ago.
p68
sg5
VAmazon.com: John Prine: John Prine: Music
p69
sa(dp70
g3
VMore than 20,000 Illinoisans die each year as a result of cigarette smoking. ... that giving up smoking has immediate health benefits," said Dr. John R ...
p71
sg5
VSMOKING - Illinois Department of Public Health Home Page
p72
sa(dp73
g3
V... John Prine's Wedding Day in Funeralville is ... Many years ago along the ... they come at us like meteors trailing the smoke and flames of ...
p74
sg5
VThe Celestial Monochord: John Prine
p75
sa(dp76
g3
VWhat Year did John Wayne die and how old was he? 5 years ago; Report ... within a few years of his operation he chewed tobacco and began smoking cigars. ...
p77
sg5
VWhat Year did John Wayne die and how old was he? - Yahoo! Answers
p78
sa(dp79
g3
VCheck out John Prine Tour Dates and buy your John Prine Concert ticket today. ... In 1991 John Prine received a Grammy award for his album, The Missing Years, ...
p80
sg5
VJohn Prine Tickets - John Prine Tour Dates at StubHub!
p81
sa(dp82
g3
VJack Nicholson's girlfriend for 17 years. ... \u2022 Judge John L. Kane. Chief Judge from the US District Court ... SO many people have or still do smoke it, ...
p83
sg5
VFamous people that smoke weed. - Cannabis.com
p84
sa(dp85
g3
VExceptionally talented singer/songwriter John Prine has enjoyed a 30 plus year career that encompasses such diverse music genres ... The Weed-Smoking, Ball ...
p86
sg5
VJohn Prine - IMDb
p87
sa(dp88
g3
V\u201d I had to know what a glass-smoking hippie with a ... but one that has been living in Germany for the past ten years ... I would say that John Prine probably put ...
p89
sg5
VJohn Prine at the Paramount in Seattle (4.17.2010) | Monster Fresh
p90
sa(dp91
g3
VI returned to the Vatican for NBC News in 1996 after many years working in the ... rather than a transformational one like John Paul II. The white smoke came ...
p92
sg5
V35 years waiting for smoke: A witness to Vatican history - World News
p93
sa(dp94
g3
VI can\u2019t count how many times I\u2019ve seen John Prine and Richard Thompson. ... A year later Lowell George was dead and that magic would never happen again.
p95
sg5
Vsomething itches
p96
sa(dp97
g3
VJohn Prine The Bottomless Lake song ... We are falling down Down to the bottom of a hole in the ground Smoke 'em if you got 'em I'm so ... 3 A Thousand Years ...
p98
sg5
VJOHN PRINE - THE BOTTOMLESS LAKE LYRICS - Song Lyrics - MetroLyrics
p99
sa(dp100
g3
VSmoking-related diseases cause an estimated 440,000 American deaths each year. Smoking costs the United States over $150 billion ... John Quincy Adams on Smoking
p101
sg5
V101 Smoking Facts - The Facts About Smoking
p102
sa(dp103
g3
VJohn Thune; Live Blog; Marco Rubio; ... it was not as hard as many said. Did the patch and never looked back. ... (me for 7 years after smoking for 33 years) ...
p104
sg5
V44 - Michelle Obama: The president has quit smoking
p105
sa(dp106
g3
VBuy John Prine tickets from the official Ticketmaster.com site. Find John Prine tour schedule, concert details, reviews and photos.
p107
sg5
VJohn Prine Tickets | John Prine Concert Tickets & Tour Dates ...
p108
sa(dp109
g3
VAt 72 years old, John Wayne died of stomach cancer, making him one of the many celebrities that have died from smoking. At the time of his death, ...
p110
sg5
V10 Celebrities That Have Died From Smoking | Made Manual
p111
sa(dp112
g3
VI know you hear that all of the time (or, sadly, the opposite), but I am amazed that, after 14 years, ... This leads me to John Prine and Iris Dement, ...
p113
sg5
VBasement Songs: John Prine and Iris Dement, \u201cIn Spite of ...
p114
sa(dp115
g3
VDid John Wayne die of cancer caused by a radioactive movie set? ... Thirty years later, however, half the residents of St. George had contracted cancer, ...
p116
sg5
VThe Straight Dope: Did John Wayne die of cancer caused by a ...
p117
sa(dp118
g3
VThen he got two years in Walla Walla ... Did you know that my father was the one that set ... [singing] John Wayne's teeth, hey-a, hey-a! Are they false, are ...
p119
sg5
VSmoke Signals (1998) - IMDb
p120
sa(dp121
g3
VMany celebrities struggle with smoking ... was a chain smoker for years before she reportedly did an extreme detox in 2007 to cleanse her system \u2014 and ...
p122
sg5
VHow Did These Stars Stop Smoking? - Health Information, Resources ...
p123
sa(dp124
g3
V... but if they did, to smoke Chesterfields. ... which he attributed to years of smoking. ... John Candy did mountains of Cocaine through out his career.
p125
sg5
V227 famous people who died because they smoked\u2026 | Smoke Away ...
p126
sa(dp127
g3
VWe smoke because it's time to either elevate sagging blood ... But with each passing year the odds of becoming one of the five ... John R. Polito , Founder 106 ...
p128
sg5
VWhy Quit Smoking? Because smokers can and do die young!
p129
sa(dp130
g3
VThe John Prine album also contains such classics as ... I Did Heroin For 5 Years & I Was ... Been Smoking too Long- Nick Drake/Well I go to find me some ...
p131
sg5
VMusic - Top 10 List - Top Ten List - Top 10 Heroin-Inspired Songs ...
p132
sa(dp133
g3
VFor years now, we have heard the ... Morris, John R. "Passive Smoking, the Hidden Killer." Passive Smoking, the Hidden Killer EzineArticles.com.
p134
sg5
VPassive Smoking, the Hidden Killer
p135
sa(dp136
g3
VBut I started smoking at 11 or 12 years old and not only did both of my parents smoke but my ... though we'll likely miss many many years ... let John know, ...
p137
sg5
VI'm Deborah and Smoking has Smoked this Body
p138
sa(dp139
g3
VAlthough only 5 percent of high school smokers said that they would definitely be smoking five years later, ... John Quincy Adams On Smoking. More Smoking Facts.
p140
sg5
VTeen Smoking Facts - Smoking-Facts.net
p141
sa(dp142
g3
V... Virginia are sold every year? where can i buy rave brand cigerettes in Franconia, ... Cigerette smoking and Fire Safety Cigerettes. ... Are you an Elton John fan?
p143
sg5
VHow many books on Franconia, Virginia are sold every year? where ...
p144
sa(dp145
g3
V... busy year. A sold-out show with ... But\u2026my first show that I did, I was young, I wasn\u2019t even old enough to get into the venue\u2026I snuck in ... John Gotty ...
p146
sg5
VHow To Master Marketing And Networking, As Told By Tef Poe | The ...
p147
sa(dp148
g3
VJohn Prine. John Prine. Radio Listen Now. This song appears on: In Person & On Stage Album Lyrics. ... 3 A Thousand Years Christina Perri; 4 Someone Like You Adele;
p149
sg5
VJOHN PRINE - PARADISE LYRICS - Song Lyrics - MetroLyrics
p150
sa(dp151
g3
VMarijuana Addiction Help \u2013 A \u2018Users\u2019 Guide for How To Quit Smoking Weed, Marijuana Addiction and Marijuana Withdrawal. ... How many years have been like this?
p152
sg5
VMarijuana Addiction Help \u2013 How to Stop Smoking Weed \u2014 Helping ...
p153
sa(dp154
g3
VMarijuana Addiction Help \u2013 A \u2018Users\u2019 Guide for How To Quit Smoking Weed, Marijuana Addiction and Marijuana Withdrawal. ... How many years have been like this?
p155
sg5
VMarijuana Addiction Help \u2013 How to Stop Smoking Weed \u2014 Helping ...
p156
sa(dp157
g3
VBuzzFeed\u2019s John Stanton opened the interview by telling the crowd ... \u201cdid you ever smoke ... \u201cI\u2019ve been asked that now in 20 years ...
p158
sg5
VSen. Rob Portman Says, \u2018Yes,\u2019 He Smoked Pot - ABC News
p159
sa(dp160
g3
VJohn Prine Illegal Smile meanings. ... mostly because I smoke grass and get a smile no ... I've been hearing this guy's work for years and he is great both as a ...
p161
sg5
VIllegal Smile Lyric Meaning - John Prine Meanings
p162
sa(dp163
g3
VAnd he called John Kerry a Harvard elitist. (n/t) Recommended by: MrJersey ... And I've heard this complaint about Harvard many times over the years.
p164
sg5
VDaily Kos: How did Jason Richwine Get a PhD from Harvard?
p165
sa(dp166
g3
VRead some interesting facts about the life of John Wayne in this article at The Smoking ... So many movies, in fact, that by the time John Wayne ... 18 years of age ...
p167
sg5
VJohn Wayne Facts and Information - Actor John Wayne | The Smoking ...
p168
sa(dp169
g3
VThomas Allen Reed was for many years Spurgeon's chief ... And his own smoking pattern did not indicate ... Mr. and Mrs. John Spurgeon did not remain long at ...
p170
sg5
VThe Spurgeon Archive FAQ
p171
sa(dp172
g3
VJOHN McCAIN smoked two packs a day for 25 years and no one ever talks about that! ... I know because i was a smoker for years. Smoking is NOT illegal.
p173
sg5
VObama Admits Smoking Cigarettes in Last Few Months - ABC News
p174
sa(dp175
g3
VWhat it WILL do is reduce the number of children who take up smoking every year. ... Registered address: Angel Building, 407 St John Street, London EC1V 4AD
p176
sg5
VA sad day for public health \u2013 standard packs and the path ahead ...
p177
sa(dp178
g3
VJohn_Smullen replying to tiltontrev 18:07, Tuesday 7 May 2013. ... I started smoking at 15 and would smoke heavily With the drink, but many years later i devoloped a
p179
sg5
VGiving up Smoking
p180
sa(dp181
g3
V... Year Long! Thank you John Prine for all the great songs and smiles you have brought to us . . and we always look forward to many more . . . and this "A John Prine ...
p182
sg5
VAmazon.com: A John Prine Christmas: John Prine: Music
p183
sa(dp184
g3
VChemist John Walker calls his invention "Congreves," after the rocket maker. ... CDC estimated the total cost of smoking at $3,391 a year for every smoker, ...
p185
sg5
VA brief history of cigarettes, tobacco and smoking.
p186
sa(dp187
g3
VJohn. 63 \u201cHow-to\u201d tips. your ... But I didn\u2019t buy because the only alternatives were a large cassette album or a one-year newsletter subscription. Did you ...
p188
sg5
VGetting Started in Speaking, Training, or Seminar Consulting - Scribd
p189
sa(dp190
g3
VDid John Legend cheat ... Chrissy and John got engaged in 2011 after four years of ... Miranda Kerr and Pixie Lott are all wearing the super comfy 'smoking shoe ...
p191
sg5
VDid John Legend cheat on fiancee Chrissy Teigen? R&B singer ...
p192
sa(dp193
g3
VPrine John - Please Don't Bury Me Lyrics, album Great Days: The John Prine Anthology. John Prine ringtone, MP3, sheet music, song video >>
p194
sg5
VPlease Don't Bury Me Lyrics | John Prine | Album: Great Days: The ...
p195
sa(dp196
g3
VPrine later won a Grammy for 1991\u2019s The Missing Years, which featured appearances by Bruce Springsteen and Tom Petty ... John Prine is, and always will be, ...
p197
sg5
VJOHN PRINE BIOGRAPHY - Lyrics
p198
sa(dp199
g3
VHow to quit smoking marijuana It has been a long journey since last November when I hit the point where I knew I had to do something about my marijuana addiction and ...
p200
sg5
VHow to Quit Smoking Marijuana
p201
sa(dp202
g3
VWe usually joke around and refer to Cleveland as \u201cthe factory of sadness\u201d but today the city\u2019s giving us so many smiles. Ten years ago, ... John Walsh needs to ...
p203
sg5
VCleveland Man Retells Rescuing Three Kidnapped Girls Held Captive ...
p204
sa(dp205
g3
VHe excluded all cardinals 80 years old or over from the conclave and made ... to give white smoke. Otherwise, they ... which Pope John Paul II did not ...
p206
sg5
VHow is the Pope elected? | Catholic-Pages.com
p207
sa(dp208
g3
VNo announcement had been made about that "second hand" smoke. ... Elton John, Joni Mitchell, John Prine, ... of having a zoom lens for the first time in many years.
p209
sg5
Vchuckography
p210
sa(dp211
g3
VHell I passed out the other night from sinus pills and I didn\u2019t have a fog of smoke coming from ... How many years have you ... John Prine at The ...
p212
sg5
VRelix - News - John Kadlecik Posts Statement on Bob Weir's Collapse
p213
sa(dp214
g3
VJohn F Kennedy. Politician. 8. ... \u201cI did smoke a joint and I did ... Wrote \u2018De Materia Medica\u2019, used for 1,500 years. 58. Dizzy Gillespie, Jazz musician 59. Dr ...
p215
sg5
V200 Celebrities/Famous People Who Smoke Pot - 420 MAGAZINE
p216
sa(dp217
g3
VIts a bad year on children. ... How many times did George ... George Washington was a direct descendant of John Washington, the immigrant. Q: Did ...
p218
sg5
VThe Papers of George Washington
p219
sa(dp220
g3
V... The Weed-Smoking, ... If things had gone according to plan from a couple of years ago, ... \u201cJohn Prine\u201d did not make the album, ...
p221
sg5
VMeet Kacey Musgraves: The Weed-Smoking, Ball-Busting, Girl-Kissing ...
p222
sa(dp223
g3
VConsider these great singers who smoked and/or still smoke: Paul McCartney, John Lennon, George Harrison, Frank Sinatra, ... ever since I started smoking 1 year back..
p224
sg5
VHow much can smoking change your singing voice? | Answerbag
p225
sa(dp226
g3
VJohn Locke to Ben: "You ... he is judged by the smoke ... He acted professionally in the south for many years before entering the MFA Program at the Alabama ...
p227
sg5
VBen Linus (Michael Emerson) Bio - LOST - ABC.com
p228
sa(dp229
g3
V"The goal here is to get to the truth," said House Speaker John Boehner said at a ... Act for Four More Years. ... accusation is not a smoking ...
p230
sg5
VWhat Benghazi Truthers Are Looking For - Yahoo! News
p231
sa(dp232
g3
VI have been smoking for about 2 years now and its probably the best thing that has happened to me. my grades have gone up by a lot, ... John F Kennedy. Politician. 8.
p233
sg5
VWhy you shoudn't smoke weed - mr williams on HubPages
p234
sa(dp235
g3
V... reflect the trends in smoking prevalence in past years. Figure 6.1: Smoking Prevalence and Lung ... Angel Building, 407 St John Street, London EC1V 4AD ...
p236
sg5
VSmoking : Cancer Research UK
p237
sa(dp238
g3
VIn what year did the first school allow african-americans? ... by Smoke on April 23rd, ... Where did John Hancock go to college?
p239
sg5
VUS history Questions, Answers, Polls & Debates | Answerbag
p240
sa(dp241
g3
VMaybe the stress of the last several days got to House Speaker John Boehner on ... after smoking 45 years but ... many presidents smoked, did smoke and ...
p242
sg5
VThank you for smoking \u2013 The 1600 Report - CNN.com Blogs
p243
sa(dp244
g3
VAfter one year of not smoking, the risk of heart disease is reduced by 50%. After 15 years of abstinence, the risks of health problems from smoking virtually vanish.
p245
sg5
Vsmoking - definition of smoking in the Medical dictionary - by the ...
p246
sa(dp247
g3
VDave Chorley's gig it seems was to smoke cigarettes and glower ... "We did this for two years ... And John's response? He did click some links!
p248
sg5
Vchurch of nobody
p249
sa(dp250
g3
VBut she was addicted and continued to smoke, as did my father. ... His son John, who travelled to the ... and his mother and grandparents had died many years earlier.
p251
sg5
VDeath from Smoking in the R.J. Reynolds Family
p252
sa(dp253
g3
VWhy did J.D. Salinger spend the last 60 years hiding in ... Did John Legend ... Miranda Kerr and Pixie Lott are all wearing the super comfy 'smoking shoe ...
p254
sg5
VWhy did J D Salinger spend the last 60 years hiding in a shed ...
p255
sa(dp256
g3
VDid John F. Kennedy really write ... Pulitzer, as some believe? Parmet finds no smoking gun. ... someone on the committee said his 12-year-old grandson ...
p257
sg5
VThe Straight Dope: Did John F. Kennedy really write "Profiles in ...
p258
sa(dp259
g3
VBruce Lee's iconic status and unusual death at a young age led many people to develop ... bang and saw a big cloud of smoke about 1 ... year did Bruce Lee ...
p260
sg5
VHow did bruce lee die? - Yahoo! UK & Ireland Answers
p261
sa(dp262
g3
VResearch has shown that smoking reduces life expectancy by seven to eight years. Did you ... UK as a result of smoking, many are ... John Constantine on ...
p263
sg5
VHow Smoking Affects our Environment
p264
sa(dp265
g3
VBlack Smoke Factory Diary of Talking Wallpaper. ... I think maybe I\u2019ve been going about this acting thing wrong all these years. ... John August's Blog; Kraftblog;
p266
sg5
VBlack Smoke Factory
p267
sa(dp268
g3
V... culture is unsurpassed and Hollywood honored him with a star on the world famous Walk of Fame for his many years on ... It was John Wayne ... Smoke ', that was ...
p269
sg5
VArness Fan Appreciation Page - The Official James Arness Website ...
p270
sa(dp271
g3
VThe hot burn can also cause a wetter smoke with a less pleasant flavor. John. Reply. KIT says: ... A tip that was given to me many years ago about breaking in a new ...
p272
sg5
VPipe Smoking Tips and Even Some Smoking Tricks
p273
sa(dp274
g3
VHow many years did he serve in jail? None. Whitewitch. Since it is all going to come out anyway \u2013 why here. ... So sad that John elected to repost smoking gun ...
p275
sg5
VAmanda Berry's hero Charles Ramsey jailed for domestic violence twice
p276
sa(dp277
g3
V@john search: how long does marijuana stay in the body. Your chances of passing this urine test is very high. ... @Smoke 3 years you had been a chain smoker.
p278
sg5
VHow long does marijuana stay in your system - How To Detox
p279
sa(dp280
g3
VI wanted to personally thank you for posting that John Wayne PSA that he did back in 1972. My ... My dad died five years ago due to smoking related cancer that ...
p281
sg5
VCigarette Commercials - Classic TV / TVparty!
p282
sa(dp283
g3
V... Robert E Howard's Conan, Edgar Rice Burroughs' John Carter ... that's been my private burden for so many years! ... Blowing Smoke has done so few ...
p284
sg5
VJust Blowing Smoke...
p285
sa(dp286
g3
VHow did guys like Neil Armstrong and John Glenn make it into space? electronics ... Harley-Davidson tank logos have changed many times over the years.
p287
sg5
VHowStuffWorks "Learn how Everything Works!"
p288
sa(dp289
g3
VSmoking pot does not make someone \u201cgood ... No different than John Lennon. ... You touched my heart and soul many years ago, and continue to do the ...
p290
sg5
VHow (and why) did Bob Marley Die? - World Music - Information ...
p291
sa(dp292
g3
VJohn D Lee 3 years ago Hub Author. Thank you for the comment Noel, ... I want to find out how to cure meat in a smoke house like they did in the 40's and 50's.
p293
sg5
VHow To Cure Ham at Home, It's Easier Than You Think! Wet Curing ...
p294
sa(dp295
g3
V... The Smoking Gun has ... estate was disclosed in a tax return filed three months ago by the John W. Carson ... was in trouble years ago, what did he do ...
p296
sg5
VCarnac The Munificent | The Smoking Gun
p297
sa(dp298
g3
VIn the mid-19th century\u2014baseball's formative years\u2014chewing tobacco was ... many players were suspicious of smoking. ... I Read All 23 of John Le ...
p299
sg5
VA history of baseball and chewing tobacco. - Slate Magazine
p300
sa(dp301
g3
VSeveral years ago, John McAnlis wrote a column ... the most significant automobile in world history can still be chugging along and making blue smoke when it's two ...
p302
sg5
VModel T Ford Forum: How many kids get to drive T's ???
p303
sa.