(lp1
(dp2
S'description'
p3
VJanet Wood Reno (born July 21, ... she accepted a position with the Dade County State's Attorney's Office. ... Janet Reno (1993\u20132001)
p4
sS'title'
p5
VJanet Reno - Wikipedia, the free encyclopedia
p6
sa(dp7
g3
VGovernment and Regulatory Bodies ... from 1993 to 2001. She was nominated by President of the ... What Jobs Did Janet Reno and Madeleine Albright Hold during Bill ...
p8
sg5
VWhat Is Janet Reno Doing Now? - Ask.com
p9
sa(dp10
g3
V... and pictures about Janet Reno at Encyclopedia ... She was drawn back into government service in 1978 ... In 1993 Reno was nominated to the position of U.S ...
p11
sg5
VJanet Reno Facts, information, pictures | Encyclopedia.com ...
p12
sa(dp13
g3
V... Janet Reno, December 10, 1993 ... and became president of the Women's Self Government Association. In 1960 she enrolled at ... Why does Janet Reno still have a job?
p14
sg5
VJanet "WACO" Reno - zpub
p15
sa(dp16
g3
VBiography of Janet Reno, ... Janet Reno Government Official. Born: ... She was re-elected five times, and in 1993 President Bill Clinton appointed her as U.S ...
p17
sg5
VJanet Reno Biography (Government Official) | Infoplease.com
p18
sa(dp19
g3
VJanet Reno is an impelling attorney. She was the first woman to serve as a ... 1993. She served ... she accepted a position with the Dade County State ...
p20
sg5
VWhat did Janet Reno accomplish? - Yahoo! Answers
p21
sa(dp22
g3
VJanet Reno's Biography, ... nominated by President Bill Clinton on February 11, 1993. Ms. Reno worked to reduce ... but it does not affect her activities or job ...
p23
sg5
VJanet Reno Biography and Information! !
p24
sa(dp25
g3
VShe has experience in national government. ... Good health should be a prerequisite to any official position. Therefore, I ask, Janet Reno, ... Janet Reno did not ...
p26
sg5
VFeatured Articles about Janet Reno - Page 2 - Sun Sentinel
p27
sa(dp28
g3
VJanet Reno is the first woman Attorney ... 1993. She was again appointed in 1997 by President Clinton ... In 1973 she accepted a position with the Dade County ...
p29
sg5
VWIC Biography - Janet Reno - Women\u2019s International Center ...
p30
sa(dp31
g3
V... in 1962 Reno was denied a summer job "because she was a woman" by a ... of the federal government is harnessed in a ... Janet Reno," Vogue (August 1993); ...
p32
sg5
VJanet Reno Facts - Biography
p33
sa(dp34
g3
VJanet Reno in 1993 became the first ... the authors simply assumed that the ... Not much was made about the government killing 28 children. Janet Reno got ...
p35
sg5
VJanet Reno - First thoughts about
p36
sa(dp37
g3
VSmith did not rule on the motion. "Our position remains as ... the government $6 million. Reno said she does not ... Janet Reno in August 1993 says they ...
p38
sg5
VReno says she ordered firefighting equipment to be present at ...
p39
sa(dp40
g3
VJanet Reno, the 78th attorney ... 1993. In this position she saw to ... She argued that the Justice Department must see that the power of the federal government is ...
p41
sg5
VJanet Reno biography, birth date, birth place and pictures
p42
sa(dp43
g3
VJanet Reno Attorney Office Florida ... In 1973 she accepted a position with the Dade ... Ensure that the Department of Justice reflects a diverse government, ...
p44
sg5
VJanet Reno Attorney Office Florida General Miami Dade Harvard
p45
sa(dp46
g3
VNominated by President Bill Clinton in 1993, Reno was ... Law Job Star Former Attorney General Janet ... Self Government Association. She received her ...
p47
sg5
VFormer Attorney General Janet Reno - America's First Female ...
p48
sa(dp49
g3
VWhy did Attorney General Janet Reno approve the ... 1993.) And Reno ... International Affairs and Criminal Justice Subcommittee of the House Government ...
p50
sg5
VFAQs | Waco - The Inside Story | FRONTLINE | PBS
p51
sa(dp52
g3
VPresident bill clinton appointed Janet Reno to be U.S. attorney general on February 11, 1993. She was his ... She was drawn back into government service in 1978 when ...
p53
sg5
VJanet Reno legal definition of Janet Reno. Janet Reno synonyms by ...
p54
sa(dp55
g3
VWho is the prime minister and government of Antigua and Barbuda? ... (1993-2001. Is Janet Reno dead? Not at of 9/3/2010. ... Jobs & Education;
p56
sg5
VWho is Janet Reno - The Q&A wiki
p57
sa(dp58
g3
VIn 1993, the Justice ... janet reno; David Koresh ... Beck claims there's a government cover-up surrounding bombings. His most outrageous statements; 19 ...
p59
sg5
VThe Waco Siege: April 19, 1993 - National American history ...
p60
sa(dp61
g3
VIn 1973 Janet Reno accepted a position with the Dade County State ... 1993 Janet Reno became Attorney General of ... It represents the Government in legal matters ...
p62
sg5
VJanet Reno's bio
p63
sa(dp64
g3
VNewspaper article about Janet Reno becoming the nation\u2019s first ... 1993. Home; About Us; ... said today she will cope with her new job pressures by following ...
p65
sg5
VJanet Reno: First Female U.S. Attorney General | NewsInHistory.com
p66
sa(dp67
g3
VBut the government has never convincingly ... So in mid-April of 1993 Janet Reno was in a new job, ... at some point since the F.B.I. had assumed command ...
p68
sg5
VReadings | Waco - The Inside Story | FRONTLINE | PBS
p69
sa(dp70
g3
VHow many cabinet minsters help your country for premier run the government? ... (1993-2001. Is Janet Reno dead ... Did Janet Reno have a boyfriend? She doesnt have ...
p71
sg5
VWho did Janet Reno marry - The Q&A wiki
p72
sa(dp73
g3
V... and his family as being in a risk situation that qualified for government interference." Janet Reno, ... Not if she valued her job. ... in the August 1993 "Paul ...
p74
sg5
VJanet Reno Defines 'Cultist' - Urban Legends
p75
sa(dp76
g3
V... 1993: 1st Female Attorney General Janet Reno Confirmed ... she accepted a position with the Dade County State ... The government's unsuccessful defense of the ...
p77
sg5
VJanet Reno - Mashpedia, the Real-Time Encyclopedia
p78
sa(dp79
g3
VAmericans are divided in their evaluations of the government ... Texas in April 1993. ... the public takes Janet Reno's side. Forty-six percent say she ...
p80
sg5
VPoll: Gov't Covered Up Waco - CBS News - Breaking News Headlines ...
p81
sa(dp82
g3
VIn may 1993, the Clinton White House sent Janet Reno to the ... job in Dade County. Reno did not have ... be assumed that in some respects she is ...
p83
sg5
VThe Mystery of Janet Reno - Jeffrey Goldberg
p84
sa(dp85
g3
V... and archival information about Janet Reno ... the federal government disclosed ... About 350 jobs to be slashed, aides say. Janet Reno ...
p86
sg5
VFeatured Articles about Janet Reno - Page 2 - Los Angeles Times
p87
sa(dp88
g3
V... a Washington outsider only a month into the job (see March 12, 1993), ... had assumed command ... Janet Reno says the government \u201cdoes not have the ...
p89
sg5
VJanet Reno - History Commons
p90
sa(dp91
g3
VIn 1993,] within months of Janet Reno\u2019s ... the position taken by Attorney General Janet Reno is that the ... \u2014 \u201cJudicial Watch Battles Government in ...
p92
sg5
VWhere's Janet Reno when you need her? - American Patriot Friends ...
p93
sa(dp94
g3
VJanet Reno \u2014 the former U.S. attorney general and four ... government and other fields. This ... Janet Reno was nominated for Attourney General in February of 1993 ...
p95
sg5
VJanet Reno spins America's greatest hits - Helena Andrews ...
p96
sa(dp97
g3
VJANET RENO; QUOTES. ... the law is weakened. If people are left out, if they can't get jobs, ... They did, and the court sided with the government.
p98
sg5
VJanet Reno's History and Quotes.
p99
sa(dp100
g3
VIt was reminiscent of 1993, when Attorney General Janet Reno took ... Hillary Clinton's Next Job ... Then I learned that the government will ...
p101
sg5
VHillary Clinton on Libya Echoes Janet Reno on Waco - Yahoo! Voices ...
p102
sa(dp103
g3
VAttorney General Janet Reno angrily rejected suggestions ... Jobs; Deals; Blogs; Topics; Lists; ... to the safety of government agents and to those within the ...
p104
sg5
VRENO DEFENDS ASSAULT ON CULT | Deseret News
p105
sa(dp106
g3
V... About 350 jobs to be slashed, aides say. Janet Reno, ... February 10, 1993 | DAVID LAUTER ... the government must do more and make due with less."
p107
sg5
VPresident to Cut Staff at White House : Spending: About 350 jobs ...
p108
sa(dp109
g3
VJanet Reno, Janet Wood Reno (born July 21, ... (1993\u20132001). She was nominated by President Bill Clinton on ... said that the government had turned over four million ...
p110
sg5
VJanet Reno - Politician, Lawyer... - Yatedo: Free People Search
p111
sa(dp112
g3
V... unfit to assume the position of prophet. Instead, she groomed ... Janet Reno's reason for approving the final gas ... 1993. Subsequent government-funded ...
p113
sg5
VWaco siege - Wikipedia, the free encyclopedia
p114
sa(dp115
g3
VIn 1995 Janet Reno revealed that she has Parkinson's ... 1993. Reno was responsible for ... Ms Reno has never wavered from the position that Elian belongs with ...
p116
sg5
VJanet Reno - Factbites
p117
sa(dp118
g3
V... known as the U.S. government\u2019s \u201cNazi ... \u201cI have to do a better job in ... A former deputy chief of staff to Attorney General Janet Reno is ...
p119
sg5
VJanet Reno | Main Justice
p120
sa(dp121
g3
V... the CLIPPER chip contained a "exploitable feature" which allowed the Federal Government to ... 1993. She has also supported a ... job will show up at Janet Reno ...
p122
sg5
VSIGHTINGS - rense.com
p123
sa(dp124
g3
V... Hollingsworth quit her job as an assignment ... Reno's response was to assume high ... claimed she had never met Janet Reno until after she had decided ...
p125
sg5
VThe public was shocked. Country Walk parents demanded action. An ...
p126
sa(dp127
g3
VThere are more women senators and more women in executive-level positions of ... Janet Reno shouldn\u2019t have to play into these stereotypes in 1993. Reno\u2019s image ...
p128
sg5
VHillary\u2019s girlfriends: out of the closet. | Hillary Clinton ...
p129
sa(dp130
g3
VIn 1993, Reno was nominated and ... Reno's job was at the center of ... we have a State Attorney by the name of Janet Reno. She locks brothers ...
p131
sg5
VJanet Reno - The Archangel Michael [Religion, Theology, relevant ...
p132
sa(dp133
g3
VJanet Wood Reno (born July 21, 1938 ... (1993\u20132001). She was nominated by President Bill Clinton on February 11, ... Eric Holder, Political positions of Barack ...
p134
sg5
VJanet Reno - Allvoices - Breaking News, Current Events, Latest ...
p135
sa(dp136
g3
VThis led to claims by Attorney General Janet Reno that she was ... assume that Mr. Danforth has done his job ... she has since seen the light about government ...
p137
sg5
VSecond Chance For The Truth About Waco - Accuracy In Media
p138
sa(dp139
g3
Vto position explosives ... Maliciously killed April 19th 1993. Mayanah Schneider after the government came to ... , clinton,janet,reno,government,tanks ...
p140
sg5
VCS/Cyanide gas and explosions kill 41 women and children, two of ...
p141
sa(dp142
g3
V... when the government-sponsored enterprise ... then-Attorney General Janet Reno from ... more CRA loans,\u201d she said. \u201cSome people have assumed we don ...
p143
sg5
VFormer Clinton Official Paid $26 Million by Fannie Mae Before ...
p144
sa(dp145
g3
VI\u2019m not going to defend everything Janet Reno did, ... 1993 burndown of ... of the government\u2019s position, though. The US did not claim \u201cHoriuchi was ...
p146
sg5
VJanet Reno Honored\u2026Again | The Agitator
p147
sa(dp148
g3
VWhy did the FBI murder so many children at WACO,Texas on April 19th 1993 ... good point that Janet Reno thing she should ... on the government is not ...
p149
sg5
VWhy did the FBI murder so many children at WACO,Texas on April ...
p150
sa(dp151
g3
V... represent gunfire from government positions into the Branch ... "She assumed there would be an ... Janet Reno testified that she never gave approval ...
p152
sg5
VCESNUR - Updates on Waco: March 28-29, 2000
p153
sa(dp154
g3
V... represent gunfire from government positions into the Branch ... "She assumed there would be an ... Janet Reno testified that she never gave approval ...
p155
sg5
VCESNUR - Updates on Waco: March 28-29, 2000
p156
sa(dp157
g3
VDid the government lie to us about it? ... Blame Janet Reno. 6 years ago; ... You're buying into a propagandized hatchet job, there karl.
p158
sg5
VWhy did the FBI murder at least 75 people, (including 20 children ...
p159
sa(dp160
g3
V... 1993. Attorney General Janet Reno on Thursday ... Did the government ... and she had been on the job less than five weeks when she approved the FBI's ...
p161
sg5
VThe Waco controversy, then and now - The Ross Institute Internet ...
p162
sa(dp163
g3
VThe Israeli government never ... since the FBI had assumed command and ... agents in sniper positions. On April 28, 1993 Janet Reno told the House ...
p164
sg5
VDavid Koresh | The Davidian massacre | Chapter 9 | Murderpedia ...
p165
sa(dp166
g3
V... as Attorney General Janet Reno said she remained convinced that the ... a non-tactical management job. ... all evidence the government has on the ...
p167
sg5
VWashingtonpost.com: FBI Releases Second Waco Videotape
p168
sa(dp169
g3
VAttorney General Janet Reno may look like a ... ends up standing for nothing more than good government." ... Reno was the cover girl of the July 12, 1993 Time ...
p170
sg5
VClinton's Apolitical Justice Department? | Media Research Center
p171
sa(dp172
g3
VThe 1993 Waco Disaster and Government ... and a sizable number did not, but it is fair to assume that much of what ... Janet Reno said she approved the ...
p173
sg5
VTen years after the federal government\u2019s siege just outside of ...
p174
sa(dp175
g3
VJanet Reno is a hard case, which is okay. She's the law in a town filled ... Lawton Chiles appointed Reno to his 37-member commission on government for the ... 1993 ...
p176
sg5
VJanet Reno - Orlando Sentinel - Featured Articles From The Orlando ...
p177
sa(dp178
g3
V... in 1993 which resulted in burning to ... because of the government policies which Janet Reno as attorney ... I can only assume that any White man ...
p179
sg5
VKilling Little Children -- Free Speech, September 1999
p180
sa(dp181
g3
VJanet Reno. Janet Reno was ... She couldn't get a job in Miami because she was a woman ... the last major attempt by government to legislate morality and like all ...
p182
sg5
VWomen of Achievement - THE LIZ LIBRARY | Women's law and research ...
p183
sa(dp184
g3
VBut then President Clinton and Attorney General Janet Reno did not rush to judgment ... 20 April 1993: Washington denies ... and took full responsibility for the ...
p185
sg5
VJanet Reno Topics Page - USATODAY.com - USA TODAY: Latest World ...
p186
sa(dp187
g3
VNow I know the Attorney General has said she will not do her job according ... questioning of Janet Reno. ... ties to the government of Paraguay. Id. Since 1993, ...
p188
sg5
VU.S. Department of Justice - The United States House of ...
p189
sa(dp190
g3
VSmith did not rule on the motion. "Our position remains as ... the government $6 million. Reno said she does not ... Janet Reno in August 1993 says they ...
p191
sg5
VApocalypse Forever
p192
sa(dp193
g3
V... 1953-1993 Epilogue, 1993 ... and Janet Reno, Attorney General. ... Neither the State of Florida nor the federal government entered to protect the Florida clinics ...
p194
sg5
VThe Feminist Chronicles, 1953-1993 - Epilogue, 1993 - Feminist ...
p195
sa(dp196
g3
VFrom Janet Reno. And where did Janet Reno ... 1993 she publicly accused the ... Is it the U.S. federal government's official position that "dangerous cult groups ...
p197
sg5
VWaco, the Branch Davidians, and Government Mind Manipulation
p198
sa(dp199
g3
VFrom Janet Reno. And where did Janet Reno ... 1993 she publicly accused the ... Is it the U.S. federal government's official position that "dangerous cult groups ...
p200
sg5
VWaco Branch Davidians: Is Your Church BATF Approved?
p201
sa(dp202
g3
V... MARLON PRIMES, PLAINTIFF-APPELLANT,v.JANET RENO, ... in both 1992 and 1993, ... assured that she would receive the next available position at ...
p203
sg5
V190 F3d 765 Marlon Primes v. Janet Reno US Attorney General ...
p204
sa(dp205
g3
V\u201cThe question is whether Janet Reno will go to Congress and ... It has become a consensus Democratic\u2011party position. ... Most estimates assume somewhere around ...
p206
sg5
VROLLING STONE - CAN JANET RENO BUST THE WAR ON DRUGS - 920S-000-008
p207
sa(dp208
g3
V... during 1992 and early 1993. The government's "conspiracy theory" is ... to assume that because their names ... Janet Reno, Other High Government Officials ...
p209
sg5
VThe federal prosecution of eleven Branch Davidians began January ...
p210
sa(dp211
g3
VI\u2019ve been saying she needs to be fired since she polluted our state of Arizona as Janet Reno\u2019s ... job. She would also be a FANTASTIC ... assume that what you say ...
p212
sg5
VSecretary of Homeland Security Janet Napolitano Needs to Be Fired ...
p213
sa(dp214
g3
VIt was 20 years ago yesterday that the feral government attacked the Branch ... Janet Reno was Atty ... Koresh and company were doing a fine job of that ...
p215
sg5
VWaco, Texas Feb. 28th 1993
p216
sa(dp217
g3
VDuring that fateful meeting in November 1993, Reno demanded government ... she is the new Janet Reno, ... it all adds up to a few of the reasons I left my job, ...
p218
sg5
VBarbra Streisand: The New Janet Reno - The American Partisan ...
p219
sa(dp220
g3
Vto position explosives at the ... Maliciously killed April 19th 1993. Mayanah Schneider after the government came to "rescue ... E-mail Janet Reno *When she ...
p221
sg5
VCS/Cyanide gas and explosions kill 41 women and children, two of ...
p222
sa(dp223
g3
VJanet Napolitano is the next Janet Reno she and other ... Already back in 1993 the US government demonstrated ... but later took up hidden defensive positions.
p224
sg5
VHappy Annirversary April 19 Waco /Ruby Ridge (DHS)
p225
sa(dp226
g3
V... to head an inquiry into the government's 1993 standoff ... Janet Reno has said she made it clear to the FBI during ... say Reno should leave job
p227
sg5
VTHE WACO FIRE INVESTIGATION - DREAMS OF THE GREAT EARTH CHANGES
p228
sa(dp229
g3
VJanet RENO, Attorney General, et al., ... in the same position he did before he applied: ... had he applied at all (which, we assume, he did not), ...
p230
sg5
V509 US 43 Reno v. Catholic Social Services Inc | OpenJurist
p231
sa(dp232
g3
V1991-1993: George Bush: Janet Reno: 1993 ... in a number of contradictory legal positions for the federal government. ... assumed that they themselves were ...
p233
sg5
VAttorney General Facts, information, pictures | Encyclopedia.com ...
p234
sa(dp235
g3
VBill Clinton Personally Orchestrated the 1993 ... not going to appoint Janet Reno to a second four-year term. She told him in a ... government rhetoric that ...
p236
sg5
VBill Clinton Personally Orchestrated the 1993 Waco, Texas Tragedy
p237
sa(dp238
g3
VThey told Janet Reno Janet Reno ... (1993\u20132001). She was nominated by ... and didn't change her position. She did promise several times that she would ...
p239
sg5
VRENO WEATHERS STORM OF QUESTIONS OVER FUND RAISING. - Free Online ...
p240
sa(dp241
g3
V\u201cGov. Bush talks about doing a better job of addressing the issue of abused and neglected ... \u201cGovernment is slowly being ... compound in 1993, Reno ...
p242
sg5
VReno stumps at \u2018gay\u2019 luncheon - WND - A Free Press for a Free ...
p243
sa(dp244
g3
V... to Janet Reno Dated May 21, 1993 ... A new study by the Cato Institute says that the final official government report on the 1993 ... He said he assumed ...
p245
sg5
VREMEMBER WACO! - APFN
p246
sa(dp247
g3
V1991-1993: George Bush: Janet Reno: 1993 ... in a number of contradictory legal positions for the federal government. ... assumed that they themselves were ...
p248
sg5
Vattorney general legal definition of attorney general. attorney ...
p249
sa(dp250
g3
V... and he was deputy attorney general under Janet Reno during the Clinton administration. ... (1988 to 1993) Birthday: January 21 ... Holder got a job in the Justice ...
p251
sg5
VEric Holder - The Washington Post
p252
sa(dp253
g3
VJanet RENO, Attorney General of ... The Government's position is equivalent to arguing that a statute could ban leaflets on certain subjects ... 5-27-224 (1993) (no ...
p254
sg5
VJanet RENO, Attorney General of the United States, et al ...
p255
sa(dp256
g3
VJanet Reno admits she gave little thought to the possibility ... The government eventually did pay ... 1993 Attorney General Janet Reno told the House ...
p257
sg5
VThe Davidian Massacre -- Chpt. 10 - CarolMoore.Net
p258
sa(dp259
g3
VFederal Judges Rule That CDA is Unconstitutional. In this federal court case, the ACLU convinced a three judge panel that the indecency policy in the Communications ...
p260
sg5
VACLU vs. Janet Reno - Computer Repair Services | IT Support ...
p261
sa(dp262
g3
VJANET RENO, ATTORNEY GENERAL, et al., ... in the same position he did before he applied: ... Congress may well have assumed that, ...
p263
sg5
VReno v. Catholic Social Servs., 509 U.S. 43 (1993).
p264
sa(dp265
g3
V... the OFFICIAL view of the U.S. Federal Administrative Government under ... Other parents said they assumed the ... When in 1993 Janet Reno was ...
p266
sg5
VHiddenMysteries Conspiracy Archive - HiddenMysteries Information ...
p267
sa(dp268
g3
VAttorney General Janet Reno discusses ... a Washington outsider only a month into the job (see March 12, 1993), ... 4/14/1993; House Committee on Government ...
p269
sg5
VWilliam S. Sessions - History Commons
p270
sa(dp271
g3
V... congressional republicans are calling on u-s attorney general janet reno to ... /// reno act. /// when government asks ... job a few weeks when she ...
p272
sg5
VRENO UNDER FIRE - GlobalSecurity.org - Reliable Security Information
p273
sa(dp274
g3
VAnd I think it's very sad that Janet Reno did not have the courage to ... the government said, but she did not ... the agents did an excellent job and I want ...
p275
sg5
VCNN Transcript - Breaking News: Janet Reno Addresses the INS ...
p276
sa(dp277
g3
V11 Feb 1993: President Clinton nominates the beautiful Janet Reno to be US Attorney General. ... You'll never have a socialist government where everybody's Christian."
p278
sg5
VBill Clinton
p279
sa(dp280
g3
VFor the Government of this country to consciously use CS gas in the way it did on April 19, 1993 in Waco is ... Janet Reno with a ... a professional job, ...
p281
sg5
VWACO - WHAT REALLY HAPPENED | The History The US Government HOPES ...
p282
sa(dp283
g3
V... McVeigh himself actually admitted to being motivated by the 1993 raid on ... children whom the government was trying to rescue did not ... Janet Reno said we ...
p284
sg5
VOlbermann: Limbaugh 'Hate Radio' Has 'Blood on Your Hands' for ...
p285
sa(dp286
g3
VLAST SPRING JANET RENO BECAME THE STAR OF THE ... Of course this is merely a balder version of what routinely happens when the government tries ... Jobs; Advertise ...
p287
sg5
VThe Buck Stops Where? - Newsweek and The Daily Beast
p288
sa(dp289
g3
VRENO, 509 U.S. 630 (1993) ... ET AL., APPELLANTS v. JANET RENO, ATTORNEY GENERAL ET AL. ... awarding government contracts on a racial basis excludes certain firms ...
p290
sg5
VFindLaw | Cases and Codes
p291
sa(dp292
g3
VThese excerpts from Limbaugh\u2019s book discuss how Janet Reno thwarted any ... In 1993, shortly after she was ... \u201cIt is reasonable to assume that she is under ...
p293
sg5
V\u2018Absolute power\u2019 of Clinton Justice Department
p294
sa(dp295
g3
VBill Clinton Personally Orchestrated the 1993 ... in sin JANET RENO, Secretary of DEFENSE! What did Clinton plan for OCTOBER ... a full time job, ...
p296
sg5
VBill Clinton's Legacy: MURDERS - BIBLE STUDIES: WARS, JUDGEMENT ...
p297
sa(dp298
g3
V... "Janet Reno's prosecution of elected officials isn ... internal fabric of government." ... Garcia-Pedrosa claims, are doing Reno's job for her, and shouldn't ...
p299
sg5
VJanet Reno's Greatest Hits - - News - Miami - Miami New Times
p300
sa(dp301
g3
VPoliticians and Government ... (FBI used pyrotechnic gas against the Branch Davidian compound in Waco in April 1993) ... EVER since Janet Reno, ...
p302
sg5
VThe Waco investigation.(FBI used pyrotechnic gas against the ...
p303
sa.