(lp1
(dp2
S'description'
p3
VA volume entitled "SHAKE-SPEARES SONNETS" was published in 1609, containing 154 sonnets, two of which had been published in an earlier collection entitled "The ...
p4
sS'title'
p5
VHow many sonnets did William Shakespeare write - The Q&A wiki
p6
sa(dp7
g3
VWilliam Shakespeare is known as the 'father of English literature' who wrote more than 37 plays, 154 sonnets, 2 narrative poems and two "lost plays". First ...
p8
sg5
VHow Many Plays did Shakespeare Write? - Buzzle
p9
sa(dp10
g3
VHe also wrote 154 shorter poems known as The Sonnets ... How many poems did 'William Shakespeare' write? he waas 15 yeasr old Did William Shakespeare write poems?
p11
sg5
VHow many poems did William Shakespeare write - The Q&A wiki
p12
sa(dp13
g3
VDid William Shakespeare actually write the plays and sonnets attributed to him? ... The "Sonnets of William Shakespeare", a cycle of 154 linked poems, ...
p14
sg5
VFirst Quarto of Othello by William Shakespeare book (9780521615945 ...
p15
sa(dp16
g3
VAnswer (1 of 24): William Shakespeare was well known for his sonnets, many of which had love as the main theme. There were 154 sonnets that he wrote in total and 152 ...
p17
sg5
VHow Many Sonnets Did Shakespeare Write? - Blurtit
p18
sa(dp19
g3
VHow Many Sonnets Did Shakespeare Write? By Lee Jamieson, About.com Guide June 1, 2010. My Bio; Headlines; Forum; RSS; ... william s says:
p20
sg5
VHow Many Sonnets Did Shakespeare Write? - Shakespeare \u2013 Free ...
p21
sa(dp22
g3
VHow many sonnets did shakespeare write? Identify the speaker and tone of Shakespeare's Sonnet 29, ... William Shakespeare; eTexts; Literature Critical Essays;
p23
sg5
VHow many sonnets did shakespeare write? - Question #731 - Homework ...
p24
sa(dp25
g3
VHow many sonnets did William Shakespeare write - trivia question /questions answer / answers
p26
sg5
VHow many sonnets did William Shakespeare write?
p27
sa(dp28
g3
VThis is the time when William Shakespeare is said ... How many plays did Shakespeare write? ... and 154 sonnets, Shakespeare was an ...
p29
sg5
VShakespeare FAQ at Absolute Shakespeare
p30
sa(dp31
g3
VMany people have been named in the search to find the true author of Shakespeare's ... William Shakespeare, wrote the plays attributed ... the plays and sonnets ...
p32
sg5
Vromeojuliet - (20) Did Shakespeare really write the plays ...
p33
sa(dp34
g3
VHow many sonnets did William Shakespeare write? English poet and playwright William Shakespeare (1564-1616) wrote 154 sonnets about love, beauty, time and mortality.
p35
sg5
VHow many sonnets did William Shakespeare write? | Answerbag
p36
sa(dp37
g3
VSonnets: The Sonnets of William Shakespeare. What is a sonnet? How many sonnets did William Shakespeare write? What were the themes of the Sonnets? Dedications?
p38
sg5
VWilliam Shakespeare Sonnets
p39
sa(dp40
g3
VHow many sonnets did William Shakespeare write? See the Sonnets section ; When were Shakespeare's plays performed and published? In which theater ?
p41
sg5
VWILLIAM SHAKESPEARE
p42
sa(dp43
g3
VHow Many Plays Did Shakespeare Write? ... How to Analyze a Shakespearean Sonnet How to Study Shakespeare ... Quotations About William Shakespeare
p44
sg5
VHow Many Plays Did Shakespeare Write?
p45
sa(dp46
g3
VShakespeare's sonnets are a collection of 154 sonnets, dealing with themes such as the passage of time, love, ... William Himself (i.e., Shakespeare).
p47
sg5
VShakespeare's sonnets - Wikipedia, the free encyclopedia
p48
sa(dp49
g3
VBest Answer: 154 sonnets ... According to my old memory it is 165 When I was in high school I wrote 74 ... 154 ... 154 ... there are 154 sonnets in the ...
p50
sg5
VHow many sonnets did William Shakespeare write? - Yahoo! Answers
p51
sa(dp52
g3
VWilliam Shakespeare wrote five long ... What kind of poetry styles did William Shakespeare write? How many poems, plays, and sonnets did ...
p53
sg5
VHow many poems did william shakespeare write? - Yahoo! Answers
p54
sa(dp55
g3
VWhile William Shakespeare is better known as the greatest playwright that ever lived, he also wrote many sonnets. In total, he wrote thirty-seven plays, 154 sonnets ...
p56
sg5
VHow many poems did William Shakespeare write? - Question #122945 ...
p57
sa(dp58
g3
VWilliam Shakespeare wrote five long 'narrative' poems ; He also wrote 154 shorter poems known as The Sonnets
p59
sg5
VHow Many Poems Did Shakespeare Write - Ask.com
p60
sa(dp61
g3
VHow many plays did William Shakespeare write? ... How many sonnets did William Shakespeare write? Suggested Related FunTrivia Quizzes - 90,000 currently online. 1
p62
sg5
VHow many plays did William Shakespeare write?
p63
sa(dp64
g3
VWilliam Shakespeare (26 April 1564 \u2013 23 ... but evidence suggests that Shakespeare wrote sonnets throughout his career for a private readership. ...
p65
sg5
VWilliam Shakespeare - Wikipedia, the free encyclopedia
p66
sa(dp67
g3
VHow Many Sonnets Did Shakespeare Write? Discover the answer on About.com along with answers to other essential Shakespeare questions.
p68
sg5
VHow Many Sonnets? \u2013 How Many Sonnets Did Shakespeare Write?
p69
sa(dp70
g3
V... how many sonnets did shakespeare write, how many sonnets are attributed to shakespeare, ... how many plays did william shakespeare write, ...
p71
sg5
VHow Many Plays did Shakespeare Write | How Many Are There
p72
sa(dp73
g3
VHow many poems and sonnets did William Shakespeare write? William Shakespeare wrote 154 sonnets, according to the Folger Shakespeare Library. The sonnets dealt ...
p74
sg5
VHow many poems and sonnets did William Shakespeare write? | Answerbag
p75
sa(dp76
g3
VWilliam Shakespeare wrote 6,109 lines of poetry. He wrote five poems, which were 3,953 lines combined, and 154 sonnets which were 2,156 lines in total. To see
p77
sg5
VHow many lines of poetry did shakespeare write - Ask.com
p78
sa(dp79
g3
VWilliam Shakespeare (1564-1616), `The Bard of Avon', English poet and playwright wrote the famous 154 Sonnets and numerous highly successful oft quoted dramatic works ...
p80
sg5
VWilliam Shakespeare - Biography and Works. Search Texts, Read ...
p81
sa(dp82
g3
VComprehensive text of all William Shakespeare Poems. William ... but it was highly fashionable to write ... William Shakespeare's biography - Shakespeare's sonnets ...
p83
sg5
VWILLIAM SHAKESPEARE PLAYS
p84
sa(dp85
g3
VDid Shakespeare Write His Plays? ... 154 sonnets, and 5 poems attributed to William Shakespeare were in fact not written by Shakespeare at all ...
p86
sg5
VDid Shakespeare Write His Plays? | William Shakespeare Facts
p87
sa(dp88
g3
VWilliam Shakespeare Biography ... Did Shakespeare write the 37 plays and 154 sonnets ... The earliest proof that William did indeed write 37 ...
p89
sg5
VShakespeare Biography at AbsoluteShakespeare.com
p90
sa(dp91
g3
VWhere was William Shakespeare born? a. Oxford b. Stratford-upon-Avon c. London d. Liverpool. 2. How many sonnets did Shakespeare write? a. 78 b. 256
p92
sg5
VWilliam Shakespeare Quiz - Yahoo! Voices - voices.yahoo.com
p93
sa(dp94
g3
V... and explores the entire controversy and explains the simple reasons why it\u2019s clear that William Shakespeare wrote ... In Sonnet 72 Shakespeare asks ...
p95
sg5
VYes, Shakespeare Really Did Write Shakespeare - Forbes
p96
sa(dp97
g3
VIf Shakespeare did not write his ... inn where William Shakespeare was their usual ... Vere wrote all the sonnets as part of a homosexual ...
p98
sg5
VDid Shakespeare Really Write Shakespeare? - Carson-Newman
p99
sa(dp100
g3
VWilliam Shakespeare Sonnets What is a sonnet? How many sonnets did he write? What were the themes? Dedications? Payments? ... Did he write any other plays?
p101
sg5
VWilliam Shakespeare Biography
p102
sa(dp103
g3
V... William Shakespeare: ... How many words did Shakespeare write? ... What reading would you suggest about Shakespeare\u2019s sonnets? Shakespeare\u2019s Sonnets.
p104
sg5
VShakespeare FAQs-Folger Shakespeare Library
p105
sa(dp106
g3
V17 Apr 2011 ... William Shakespeare was a dramatist who wrote some of the world's most famous ... His poem, Sonnet 116, is one of his most famous poems.
p107
sg5
VWhen Did Shakespeare Write Sonnet 116 - Ask Jeeves
p108
sa(dp109
g3
VThe plays of William Shakespeare. How many did he write and how were they received. ... Why Is Shakespeare Called the Bard? Sonnet Examples. Examples of Lyric Poetry.
p110
sg5
VThe Plays of William Shakespeare - Reference
p111
sa(dp112
g3
VWhy did William Shakespeare write Hamlet? ChaCha Answer: ... How many sonnets did William Shakespeare write? Wow - Shakespeare wrote 154 sonnets!
p113
sg5
VWhy did William Shakespeare write Hamlet? | ChaCha
p114
sa(dp115
g3
VWilliam Shakespeare (National Portrait Gallery, London) 12. "When I do count the clock that tells the time" ... Check out The Amazing Web Site of Shakespeare's Sonnets.
p116
sg5
VWilliam Shakespeare - Sonnet Central
p117
sa(dp118
g3
VAnswer (1 of 5): William Shakespeare Wrote 37 Play Altogether In A Life Time.
p119
sg5
VHow Many Poems,sonnets,plays Did William Shakespeare Write ...
p120
sa(dp121
g3
VShakespeare most likely wrote more plays than you think; some that aren\u2019t included in your Complete Works of William Shakespeare. There isn\u2019t a lot of original ...
p122
sg5
VHow Many Plays Did Shakespeare Write? | The Bard Blog ...
p123
sa(dp124
g3
VA look at your top questions about William Shakespeare, ... Shakespeare wrote 154 sonnets, ... How many plays did Shakespeare write?
p125
sg5
VMost Common Questions About Shakespeare
p126
sa(dp127
g3
VWilliam Shakespeare wrote one hundred fifty-four sonnets. ... Shakespeare wrote his sonnets (and many of the lines in his plays) in iambic pentameter, ...
p128
sg5
VShakespearean Sonnet - Free Study Guides for Shakespeare and Other ...
p129
sa(dp130
g3
VHow many plays did Shakespeare write? ... 6:01 Is William Shakespeare Really William Shakespeare? by wnycradio 1,811 views 0:29 Church Fight!
p131
sg5
VHow many plays did Shakespeare write? - YouTube
p132
sa(dp133
g3
VFacts and questions about William Shakespeare's mysterious life. ... How many brothers and sisters did Shakespeare have? A: ... Because he also wrote sonnets, ...
p134
sg5
VWilliam Shakespeare's Life
p135
sa(dp136
g3
V... you might want to look into the debate over who wrote William Shakespeare\u2019s plays. ... Who Wrote Shakespeare? ... Tragedies and Sonnets of Shakespeare. ...
p137
sg5
VDid Shakespeare Really Write His Plays? A Few Theories Examined ...
p138
sa(dp139
g3
VThis is what we often think of when we think of William Shakespeare, but is this man really the author of all those plays and sonnets?
p140
sg5
VWilliam Shakespeare and The Authorship Debate: Did he Write His ...
p141
sa(dp142
g3
VHow many plays did Shakespeare write? ChaCha Answer: Shakespeare wrote 37 plays and 154 sonnets. ... What are three William Shakespeare plays?
p143
sg5
VHow many plays did Shakespeare write? | ChaCha
p144
sa(dp145
g3
VFind out about the life and work of William Shakespeare, ... the sonnets did not enjoy the same success as ... the dramatist Ben Jonson wrote of his late ...
p146
sg5
VWilliam Shakespeare \u2014 History.com Articles, Video, Pictures and ...
p147
sa(dp148
g3
VShakespeare, William; Did Shakespeare write the ... Shakespeare did not write his own ... Why did Shakespeare intended to write a vast amount of plays and sonnets ?
p149
sg5
VDid Shakespeare write the plays? - Page 2
p150
sa(dp151
g3
VDid William Shakespeare write Hamlet ... and the 154 sonnets commonly attributed to William Shakespeare, son of an illiterate glove-maker from Stratford-upon-Avon?
p152
sg5
VDid Shakespeare write Shakespeare? Yes, no - and who cares - The ...
p153
sa(dp154
g3
VFind out about the life and work of William Shakespeare, ... the sonnets did not enjoy the same success as ... the dramatist Ben Jonson wrote of his late ...
p155
sg5
VWilliam Shakespeare \u2014 History.com Articles, Video, Pictures and ...
p156
sa(dp157
g3
VShakespeare, William; Did Shakespeare write the ... Shakespeare did not write his own ... Why did Shakespeare intended to write a vast amount of plays and sonnets ?
p158
sg5
VDid Shakespeare write the plays? - Page 2
p159
sa(dp160
g3
VDid William Shakespeare write Hamlet ... and the 154 sonnets commonly attributed to William Shakespeare, son of an illiterate glove-maker from Stratford-upon-Avon?
p161
sg5
VDid Shakespeare write Shakespeare? Yes, no - and who cares - The ...
p162
sa(dp163
g3
VWilliam Shakespeare, born in April of 1564, ... While the play houses were closed from 1592-1594 William wrote many of his sonnets and some plays, ...
p164
sg5
VWilliam Shakespeare - HyperHistory.net
p165
sa(dp166
g3
VThe focus of the "fair youth" poems was most likely William Herbert, ... The Art of Shakespeare's Sonnets (Cambridge, MA: Harvard University Press, 1997).
p167
sg5
VShakespeare's Sonnets - h a n d p r i n t
p168
sa(dp169
g3
VHome Page > AB-Answers > Education > How many books did william shakespeare write ? ... 154 sonnets and 52 years of genius ALL we have are six scrawled signatures ...
p170
sg5
VHow many books did william shakespeare write ?
p171
sa(dp172
g3
VThe Sonnets; FAQs; Tags ... these \u2018lost years\u2019 William Shakespeare was a relatively unknown ... exactly how many plays Shakespeare wrote, ...
p173
sg5
VHow Many Plays Did Shakespeare Write? - What's It All About ...
p174
sa(dp175
g3
VSome believe that he didn't write the ... poems and sonnets\u2014and the other is official documentation such as ... William Shakespeare married Anne Hathaway on ...
p176
sg5
VWilliam Shakespeare Biography - Facts, Birthday, Life Story ...
p177
sa(dp178
g3
VGood evidence that William Shakespeare wrote the plays and poems bearing his name is the fact that his name ... the volume Shake-speares Sonnets was published by ...
p179
sg5
VHow We Know That Shakespeare Wrote Shakespeare: The Historical Facts
p180
sa(dp181
g3
VWilliam Shakespeare's sonnets are widely considered as possibly the greatest of all. Shakespeare did not really follow the traditional 'love story' style ...
p182
sg5
VWilliam Shakespeare and the Sonnet - Yahoo! Voices - voices.yahoo.com
p183
sa(dp184
g3
VHow many plays did he write? How many sonnets? 11. On what play do many scholars believe Othello is based? 12. ... William Shakespeare Scavenger Hunt Author:
p185
sg5
VWilliam Shakespeare Scavenger Hunt - Anchorage School District
p186
sa(dp187
g3
VWhen did Shakespeare live? William Shakespeare was born in 1564. ... What else did Shakespeare write? ... and lots of short poems called sonnets.
p188
sg5
VBBC - Primary History - Famous People - William Shakespeare
p189
sa(dp190
g3
VThe most obvious evidence that William Shakespeare wrote ... Since William Shakespeare did ... John Rollett's notion that the dedication to Shakespeare's Sonnets ...
p191
sg5
VShakespeare Authorship
p192
sa(dp193
g3
VWilliam Shakespeare wrote 154 sonnets. Shakespearean sonnets consist of a poem of fourteen lines. Shakespearean sonnets, also referred to as English sonnets, ...
p194
sg5
VThe Sonnets of William Shakespeare - Love Poems and Poetry
p195
sa(dp196
g3
VShakespeare used many kinds of rhythmic variation in his ... The upshot of this means that if a young poet is striving to write a good Shakespearean Sonnet, ...
p197
sg5
VHow to Write a Shakespearean Sonnet - Writing.Com
p198
sa(dp199
g3
VShakespeare 101: how many plays did William Shakespeare write? Arts & Entertainment; July 16, 2009; By: Emma Poltrack; Subscribe; Tweet. 0 Email. Books ...
p200
sg5
VShakespeare 101: how many plays did William Shakespeare write ...
p201
sa(dp202
g3
VIf I think Will Kempe wrote The Tempest is that 'view' as valid as the 'view' that William Shakespeare did?" ... the more orthodox conjecture that he wrote the Sonnets.
p203
sg5
VDid Shakespeare write Shakespeare? | The Globe | LibraryThing
p204
sa(dp205
g3
VWhat is WILLIAM SHAKESPEARE DID HE WRITE HIS OWN PLAYS? ... Was William Shakespeare the actual author of his plays and sonnets, ...
p206
sg5
VWhat is WILLIAM SHAKESPEARE DID HE WRITE HIS OWN PLAYS?
p207
sa(dp208
g3
VA lack of hard evidence has led some scholars to believe that William Shakespeare didn't write the plays that bear his name.
p209
sg5
VDid William Shakespeare Write His Plays - Life123
p210
sa(dp211
g3
VHe also declares his conviction that Shakespeare did write Shakespeare ... \u201cWilliam Shakespeare ... or the other that he wrote the plays and the sonnets.
p212
sg5
VDid Shakespeare really write Shakespeare? | Inquirer Lifestyle
p213
sa(dp214
g3
VThe questions of the William Shakespeare Quiz are craftily compiled and will enable you to gauge how well you know about ... How many Sonnets did Shakespeare write?
p215
sg5
VWilliam Shakespeare Quiz - ProProfs: Knowledge Sharing Tools ...
p216
sa(dp217
g3
VWho did Shakespeare write his sonnets for? 2 Like. Unlike. Answer. Comment. Flag. Widget. Tags: humanities. ... although Shakespeare's later patron, William Herbert, ...
p218
sg5
VWho did Shakespeare write his sonnets for?
p219
sa(dp220
g3
VPoems by William Shakespeare : All poetry of William Shakespeare, poet, ... During these years Shakespeare wrote his earliest sonnets and two long narrative poems, ...
p221
sg5
VWilliam Shakespeare Poems - Classic Famous Poet - All Poetry.
p222
sa(dp223
g3
VWilliam Shakespeare (1564-1616) - Sonnet 18 (c. 1595) notes: line 1: summer's day = summer season ... Shakespeare wrote a series of sonnets, ...
p224
sg5
VWilliam Shakespeare -- Sonnet 18 -- info - Home Page of Jos van Geffen
p225
sa(dp226
g3
VSonnet #116 Bio and History: William Shakespeare was a dramatist who wrote some of the world\u2019s most famous poems and plays.
p227
sg5
VJacob Wischmeyer - Poetry Analysis: Sonnet #116- William Shakespeare
p228
sa(dp229
g3
VComplete Sonnets of William Shakespeare, full-text; ... how I faint when I of you do write. Sonnet 81. Or I shall live your epitaph to make Sonnet 82 ...
p230
sg5
VSonnets of William Shakespeare, full-text; sonnets of William ...
p231
sa(dp232
g3
VSome of Shakespeare's sonnets are ... An Analysis of Cryptographic Systems Used as Evidence that some Author other than William Shakespeare Wrote the Plays ...
p233
sg5
VWilliam Shakespeare - rotten.com: This is rotten dot com
p234
sa(dp235
g3
VRumors arise from time to time that he did not write his ... Some of his 154 sonnets, ... A Biography of the Mind of William Shakespeare by Jonathan Bate ...
p236
sg5
VWilliam Shakespeare - www.kirjasto.sci.fi
p237
sa(dp238
g3
V... Alias Shakespeare) and it is not believed by many that Oxford wrote the sonnets attributed ... supports the fact that William Shakespeare did author his own ...
p239
sg5
VWilliam Shakespeare - The Only Author of his Plays and Sonnets ...
p240
sa(dp241
g3
V... Interested in facts about William Shakespeare? ... Shakespeare wrote 37 plays and 154 sonnets! ... that Shakespeare did not write the Shakespeare ...
p242
sg5
VShakespeare Facts: 30 Interesting Facts About William Shakespeare
p243
sa(dp244
g3
V... Shakespeare's sonnets were never ... of the "fair youth" William Shakespeare addresses in his sonnets. ... Nor did he have to write them to see ...
p245
sg5
VDid Shakespeare Want To Suppress His Sonnets? : NPR
p246
sa(dp247
g3
VFor other Shakespeare resources, visit the Mr. William Shakespeare and the Internet Web site. ... The Sonnets A Lover's Complaint The Rape of Lucrece Venus and Adonis
p248
sg5
VThe Complete Works of William Shakespeare
p249
sa(dp250
g3
VSome basic facts about William Shakespeare's life, ... What did he write? Shakespeare wrote plays and poems. ... Shakespeare\u2019s best-known poems are The Sonnets, ...
p251
sg5
VBasic facts about William Shakespeare, his life, his plays and the ...
p252
sa(dp253
g3
VLearn to write a sonnet in iambic pentameter, just like Shakespeare did. Discover the rhythm and rhyme scheme of the quatrains and couplets that make up a Shakespearean
p254
sg5
VWriting a Sonnet - For Dummies
p255
sa(dp256
g3
VThen there are matters pertaining to his professional life such as, \u201cwhy did Shakespeare write Romeo and Juliet? ... When did William Shakespeare Start to Write?
p257
sg5
VWhy did Shakespeare Write | Wrote | Romeo and Juliet
p258
sa(dp259
g3
VWilliam Shakespeare - poetry, poems. ... Sonnet #29; Sonnet #30; Sonnet #116; Sonnet #129; ... Who wrote the works of Shakespeare? A: ...
p260
sg5
VWilliam Shakespeare - poetry, poems
p261
sa(dp262
g3
VAswell as the plays and sonnets, Shakespeare wrote two narrative poems called Venus and Adonis and The Rape of Lucrece, ... WILLIAM SHAKESPEARE'S LIFE.
p263
sg5
VWilliam Shakespeare - Queen Elizabeth I (1533-1603)
p264
sa(dp265
g3
VFor sheer longevity, no conspiracy theory can match the notion that William Shakespeare did not write tile plays that have been attributed to him.
p266
sg5
VWho Wrote Shakespeare's Plays?
p267
sa(dp268
g3
VWilliam Shakespeare was the son of John Shakespeare, ... but evidence suggests that Shakespeare wrote sonnets throughout his career for a private readership.
p269
sg5
VThe biography of William Shakespeare
p270
sa(dp271
g3
VFor centuries, people have been debating whether William Shakespeare actually wrote the plays credited to him. ... other poems, the sonnets) ...
p272
sg5
VDid Shakespeare Actually Write His Plays? | KPBS.org
p273
sa(dp274
g3
VAbout Sonnets: Shakespeare's sonnets have been dissected and speculated upon for profound ... William Shakespeare, ... Shakespeare wrote at a time when ...
p275
sg5
VThe Greatest Literature of All Time - William Shakespeare
p276
sa(dp277
g3
VWho wrote Shakespeare's plays? ... doubts still remain among some that the Stratford man wrote \u201cThe Collected Works of William Shakespeare.\u201d ... The Sonnets and ...
p278
sg5
VMuch Ado About Shakespeare - Shakespeare - Netplaces
p279
sa(dp280
g3
VHow much did Shakespeare write? 1 play, 38 sonnets and 154 epic narrative poems: ... How many words did Shakespeare actually 'invent'? About 3,000: None! About 1,000:
p281
sg5
VWilliam Shakespeare Quiz - SchoolHistory.co.uk - online history ...
p282
sa(dp283
g3
V... King John (1594-96), Shakespeare wrote a second sequence of plays on ... There are many echoes of his plays in the Sonnets, ... eds., William Shakespeare: ...
p284
sg5
VWILLIAM SHAKESPEARE (1564 - 1616) - Department of English ...
p285
sa(dp286
g3
VHow to Write a Sonnet Like Shakespeare. Shakespeare's sonnets are considered the greatest examples in the genre, though Italians might argue that Petrarch's are better.
p287
sg5
VHow to Write a Sonnet | eHow.com
p288
sa(dp289
g3
VWilliam Shakespeare was born on April 23, ... Shakespeare's sonnets were composed between 1593 and 1601, ... Shakespeare wrote more than 30 plays.
p290
sg5
VWilliam Shakespeare- Poets.org - Poetry, Poems, Bios & More
p291
sa(dp292
g3
VWilliam Shakespeare, Sonnets ... One might find it interesting that a supremely ambitious poet like Shakespeare did not specifically write a "sonnet cycle" with ...
p293
sg5
VShakespeare--sonnets - Goucher College
p294
sa(dp295
g3
VOne of the many sonnets that inspired me to write sonnets! I love this one so, so much. ... I think you should definitely post William Shakespeare Sonnet 130 ...
p296
sg5
VSonnet 18: by William Shakespeare Classic Famous Poet - All Poetry.
p297
sa(dp298
g3
VPoet: William Shakespeare ... 154 sonnets, two long narrative poems, ... Click here to write your comments about William Shakespeare.
p299
sg5
VPoet: William Shakespeare - All poems of William Shakespeare
p300
sa(dp301
g3
VWho really wrote Shakespeare? ... not to mention revising several sonnets. ... "Who wrote William Shakespeare?"
p302
sg5
VWho really wrote Shakespeare? | Culture | The Observer
p303
sa.