(lp1
(dp2
S'description'
p3
VGeorge Foreman discusses his fight for the heavyweight championship ... It was Foreman's only defeat by knockout in his ... George Foreman to Floyd Mayweather, who ...
p4
sS'title'
p5
VGeorge Foreman Biography - Facts, Birthday, Life Story - Biography.com
p6
sa(dp7
g3
VGeorge won the Heavyweight Championship of the ... But then along came George Foreman on his improbable quest to ... take an easy fight for his first ...
p8
sg5
VGeorge Foreman's Record-Setting Heavyweight Championship Win ...
p9
sa(dp10
g3
VNotable: Mikey Garcia (31-0, 26 KOs) will be making his first title ... and former heavyweight champion George Foreman attended ... Who do you think Mark ...
p11
sg5
VGeorge Foreman hopes family promotion business carries a punch ...
p12
sa(dp13
g3
VUnited States was the first fight between ... and many of the men who won them are ... after his ''Rumble in the Jungle'' defeat of George Foreman to reclaim ...
p14
sg5
VGeorge Foreman - Fox Sports Search for
p15
sa(dp16
g3
V... at age 45, he regained the Heavyweight Championship by ... whom his mother had married when George was ... in his first ever fight). Foreman turned ...
p17
sg5
VGeorge Foreman - Wikipedia, the free encyclopedia
p18
sa(dp19
g3
V... Joe Frazier's 1973 heavyweight defense against George Foreman ... who paid to see George Foreman ... championship in 1959. From the first ...
p20
sg5
VJoe Frazier-George Foreman I opened the door to a heavyweight ...
p21
sa(dp22
g3
V... becomes boxing's oldest heavyweight champion when he defeats 26-year-old ... after winning his first 37 ... Foreman, who has five sons, all named George, ...
p23
sg5
VGeorge Foreman becomes oldest heavyweight champ \u2014 History.com ...
p24
sa(dp25
g3
VForeman continued his march toward the undisputed heavyweight title, winning all 12 of his ... and George Chuvalo, whom he ... It was Foreman\u2019s first defeat, ...
p26
sg5
VGeorge Foreman is a former heavyweight champion.
p27
sa(dp28
g3
VWho defeated George Foreman in the heavyweight boxin championship bout 1974? ... It was the first. Who defated george foreman in the heavywieght boxing championship ...
p29
sg5
VWho defeated George Foreman in the heavyweight boxing championship ...
p30
sa(dp31
g3
VFrom my first Olympic Gold ... While I had the discipline to capture the heavyweight championship ... I bought this book for a friend who has a George Foreman grill ...
p32
sg5
VGeorge Foreman's Indoor Grilling Made Easy: More Than 100 Simple ...
p33
sa(dp34
g3
VGeorge Edward Foreman was born ... in 1974 for beating notorious heavyweight Ken Norton - who was known for not only breaking ... Foreman\u2019s first defeat.
p35
sg5
VGeorge Foreman - Biography on Bio.
p36
sa(dp37
g3
VWho did george foreman beat in 1994 to retain his ... In April 1995, Foreman defended his IBF title for the first time ... Did Edge retain the world heavyweight title ...
p38
sg5
VWho did george foreman beat in 1994 to retain his world title
p39
sa(dp40
g3
VGeorge Foreman, who had lost his heavyweight championship ... from his first stint as champion, George looked ... heavyweight championship 20 ...
p41
sg5
VGeorge Foreman: The Architect of the Most Successful Comeback in ...
p42
sa(dp43
g3
VIt pitted then World Heavyweight Champion George Foreman ... to regain the World Heavyweight Championship. ... Before the end of the first round, Foreman caught ...
p44
sg5
VGeorge Foreman vs. Muhammad Ali - Boxrec Boxing Encyclopaedia
p45
sa(dp46
g3
VIn his first comeback fight George Foreman took the ... he regained the heavyweight championship by defeating an ... swarming heavyweight who ever lived would defeat ...
p47
sg5
VGeorge Foreman - Cox's Corner
p48
sa(dp49
g3
V... minister who was world Heavyweight champion. His ... a world Heavyweight championship bout. In his next ... Foreman suffered his first defeat, ...
p50
sg5
VGeorge Foreman - Filmbug - Filmbug Movie Stars
p51
sa(dp52
g3
VForeman got his shot at the world heavyweight championship when he ... first-ever broadcast. Foreman ... he once did. However, the George Foreman ...
p53
sg5
VGeorge Foreman . BigGeorge.com
p54
sa(dp55
g3
V... Edward so that each would known who his father was. Foreman learned as an adult that he was ... Won his first 40 ... of his book, "George Foreman's Big ...
p56
sg5
VGeorge Foreman - Biography
p57
sa(dp58
g3
VGeorge Foreman had won the heavyweight ... who had been hit so hard in the first round that he ... again to win the heavyweight championship. ...
p59
sg5
VBoxing's Greatest Fighters: George Foreman - boxing - ESPN
p60
sa(dp61
g3
VWho did Mohammad Ali defeat for his four ... Ali won 3 Heavyweight championships. Beat Sonny Liston for his first championship Beat George Foreman for ...
p62
sg5
VWho did Mohammad Ali defeat for his four heavyweight championships ...
p63
sa(dp64
g3
VWon the 1967 Parks Diamond Belt Heavyweight Championship ... George Foreman a $1 million advance on his $10 ... George. He played a retired boxer who opens ...
p65
sg5
VGeorge Foreman - Boxrec Boxing Encyclopaedia
p66
sa(dp67
g3
VWho trained George Foreman in his ... Who are the only three men to win the world heavyweight championship three times? Who ... Evander Holyfield defeats George ...
p68
sg5
VGeorge Foreman - First thoughts about
p69
sa(dp70
g3
VWhen the George Foreman grill hit ... prior to his brutal defeat of Joe Frazier in 1973 to gain the heavyweight championship belt. At 24, Foreman seemed an ...
p71
sg5
VGeorge Foreman Grill History - SoYouWanna.com | Learn What You ...
p72
sa(dp73
g3
V... the shortest heavyweight championship match; Foreman ... who need direction like he once did. ... the George Foreman Center. Foreman proved his ...
p74
sg5
VGeorge Foreman: Keynote Speaker on Motivation, Sports, Inspiration ...
p75
sa(dp76
g3
VGeorge Foreman is one of the most powerful ... Foreman was never a championship factor ... when he resumed training, and fighting his first fight at ...
p77
sg5
VGeorge Foreman Bio, Stats, and Results | Olympics at Sports ...
p78
sa(dp79
g3
V... George Chuvalo, who was known for having ... the fastest ever for a world Heavyweight championship bout. In his next ... Foreman suffered his first defeat, ...
p80
sg5
VGeorge Foreman Biography - Rotten Tomatoes
p81
sa(dp82
g3
VGeorge Foreman. The five boxers who ... In which city did Joe Louis first win the heavyweight championship of ... Who did Jack Johnson defeat to become the ...
p83
sg5
VHeavyweight Boxing of the Past - Fun Facts, Questions, Answers ...
p84
sa(dp85
g3
VIn his first comeback fight George Foreman took the ... he regained the heavyweight championship by defeating an ... swarming heavyweight who ever lived would defeat ...
p86
sg5
VGeorge Foreman - King of the Super Heavweights | The Boxing ...
p87
sa(dp88
g3
VGeorge Foreman shocked the world when he regained the heavyweight boxing championship at ... His wins, his defeats, his ... George Foreman - from his birth to ...
p89
sg5
VBy George: The Autobiography of George Foreman: George Foreman ...
p90
sa(dp91
g3
V... the shortest heavyweight championship match; Foreman also ... for kids who need direction like he once did. ... and licensing his George Foreman Lean ...
p92
sg5
VGeorge Foreman - AskMen
p93
sa(dp94
g3
VJoe Frazier defends his Heavyweight Championship against the murderous punching George Foreman. ... me," then go on to give him his first defeat, ...
p95
sg5
VGeorge Foreman vs Joe Frazier HD - YouTube
p96
sa(dp97
g3
VIt pitted the undefeated world Heavyweight champion George Foreman against ... regain the heavyweight championship ... the first round, Foreman began ...
p98
sg5
VThe Rumble in the Jungle - Wikipedia, the free encyclopedia
p99
sa(dp100
g3
V... he came back to the ring willing to fight to regain his heavyweight ... his first professional fight ... lost his championship title to George Foreman.
p101
sg5
VMuhammad Ali - Biography of Muhammad Ali - Page 2
p102
sa(dp103
g3
VThe Foreman who stepped onto ... George Foreman passed most of his first incarnation ... When a guy close to 50 wins the heavyweight championship of ...
p104
sg5
VGeorge Foreman : People.com
p105
sa(dp106
g3
VHere is the official on-site program to the Joe Frazier-George Foreman heavyweight championship fight ... midway into the first ... Foreman, who weighed ...
p107
sg5
VFrazier-Foreman program - fighttoys.com
p108
sa(dp109
g3
V... Texas, George Foreman ... who was on a comeback trail after losing his last fight in his first career to Jimmy Young ... the heavyweight championship of ...
p110
sg5
VThis Month in Boxing History: April 1991- Evander Holyfield vs ...
p111
sa(dp112
g3
VGeorge Edward Foreman ... the fastest ever for a world Heavyweight championship bout. In his next defense, ... Foreman suffered his first defeat, ...
p113
sg5
VGeorge Foreman - Academic Kids
p114
sa(dp115
g3
VMuhamed Ali had won and Foreman, suffering his first ... Who did he want to fight first? ... he once again won the world heavyweight championship title by ...
p116
sg5
VGeorge Foreman: A Knockout Comeback - Welcome to the Athlete ...
p117
sa(dp118
g3
V... who is considered one of the greatest heavyweight championship boxers. ... who had already lost his title to George Foreman. ... It was Foreman\u2019s first defeat, ...
p119
sg5
VMuhammad Ali is a three-time World Heavyweight champion.
p120
sa(dp121
g3
V... Golden Age of Heavyweight -OR- Is the Klitschko era the first heavyweight ... his era) and George Foreman (who ... defeat an outside fighter. However when do ...
p122
sg5
VGeorge Foreman vs Wladimir Klitschko \u2013 Who is the hardest hitter ...
p123
sa(dp124
g3
VIt was the George Foreman-Ron Lyle heavyweight ... except for his crushing win over the durable and tough George Chuvalo, whom he ... Foreman's first title ...
p125
sg5
VGeorge Foreman's Greatest Fights: Foreman-Lyle - boxing - ESPN
p126
sa(dp127
g3
V... Foreman did have his eye on ... Wins World Heavyweight Championship, ... through pitching his low-fat-cooking George Foreman Grills on TV commercials, ...
p128
sg5
VGeorge Foreman Facts, information, pictures | Encyclopedia.com ...
p129
sa(dp130
g3
VIt pitted then World Heavyweight Champion George Foreman against ... the first round and Foreman ... Heavyweight Championship. Foreman later pointed ...
p131
sg5
VMuhammad ali and george foreman fight in africa
p132
sa(dp133
g3
V... defeating reigning champion Joe Frazier in four minutes and 35 seconds to win the heavyweight championship ... George Foreman pulls off a ... Foreman the first ...
p134
sg5
VForeman beats Frazier to win heavyweight title in Jamaica ...
p135
sa(dp136
g3
V... and he chooses a 45 year old George Foreman for his first ... who would really ... actually decide the Heavyweight Championship of ...
p137
sg5
VQuestion about the Michael Moorer vs George Foreman heavyweight ...
p138
sa(dp139
g3
VThe George Foreman we see today ... won the heavyweight championship for the first time in 1973 and ... and Foreman, who sold his name and image for a ...
p140
sg5
VGolden: Foreman remains a force in boxing world | www.mystatesman.com
p141
sa(dp142
g3
VFrom his first pro fight on ... (and almost his head) to George Foreman in early ... who hung up the gloves after losing his light heavyweight championship to Jose ...
p143
sg5
VJoe Frazier: The Heavyweight Who Would Be King - Boxing.com
p144
sa(dp145
g3
VWho is George Foreman? Encyclopedia: G: ... the fastest ever for a world Heavyweight championship bout. In his next defense, ... Foreman suffered his first defeat, ...
p146
sg5
VGeorge Foreman - Who or What is George Foreman? Find out more
p147
sa(dp148
g3
VLegendary boxer George Foreman won a ... Foreman lost the championship to Muhammad ... After easy victories in his first two fights, Foreman met Bobby ...
p149
sg5
VGeorge Foreman - Springfield-Greene County Library District
p150
sa(dp151
g3
V21 years after he first became heavyweight champion, Foreman does ... Sanogo who beat Nate Miller\ufeff who beat Gurov who beat Shaun George who beat ...
p152
sg5
VForeman vs Moorer 10th rd ko - YouTube
p153
sa(dp154
g3
V21 years after he first became heavyweight champion, Foreman does ... Sanogo who beat Nate Miller\ufeff who beat Gurov who beat Shaun George who beat ...
p155
sg5
VForeman vs Moorer 10th rd ko - YouTube
p156
sa(dp157
g3
VForty years gone by as the anniversary of George Foreman winning the Heavyweight ... who could have kept up with George Foreman. ... his mind it was the first ...
p158
sg5
VTime in a Hurry\u2014Foreman Was Never Better - Boxing.com
p159
sa(dp160
g3
V... minister who was world Heavyweight champion. His ... a world Heavyweight championship bout. In his next ... Foreman suffered his first defeat, ...
p161
sg5
VGeorge Foreman World Round Boxing Knockout Heavyweight Champion
p162
sa(dp163
g3
VForeman's first defense of his ... , the fastest ever knockout in a world Heavyweight Championship bout. His second ... George Foreman and his wife ...
p164
sg5
VGeorge Edward Foreman - The Robinson Library
p165
sa(dp166
g3
VIn his career Foreman had 15 first round knockouts and ... Muhammad Ali did not defeat George Foreman ... Lyle was himself a super-heavyweight who ...
p167
sg5
VGEORGE FOREMAN King of the Super-Heavyweights | Monte Cox
p168
sa(dp169
g3
VForeman III, the son of former heavyweight world champion George Foreman, ... just like my first three,\u201d said Foreman III, who had ... Championship bout is the ...
p170
sg5
VNews: George Foreman III; John Molina Jr; Finnish Boxing
p171
sa(dp172
g3
V... and whose first defeat was to ... all 5 of his sons are named George Edward Foreman and his daughters ... he regained the Heavyweight Championship by ...
p173
sg5
VGeorge Foreman Net Worth | Celebrity Net Worth
p174
sa(dp175
g3
VIt pitted then World Heavyweight Champion George Foreman against ... the first round, Foreman taken ... Heavyweight Championship. Foreman later ...
p176
sg5
VMuhammad ali and george foreman fight in africa - Sports
p177
sa(dp178
g3
VNews about George Foreman. ... became the oldest fighter to win a major world championship, taking the World Boxing Council light heavyweight title from Jean ...
p179
sg5
VGeorge Foreman News - The New York Times
p180
sa(dp181
g3
VIf George Foreman\u2019s retirement after being defeated by Jimmy Young in ... Despite his two defeats, ... He made his first comeback in a one-off ...
p182
sg5
VGeorge Foreman and the 10 Greatest Boxing Comebacks of All Time ...
p183
sa(dp184
g3
VFather of George 'Monk' Foreman III. 76 Wins, 5 Losses, 68 KOs. ... (Won WBC Heavyweight Title) (Won WBA Heavyweight Title) 04-28 -- Lonnie Bennett, Las Vegas, NV, Exh 2
p185
sg5
VGeorge Foreman
p186
sa(dp187
g3
VGeorge Clooney. Fred Astaire; ... Before he died he told his fianc e who did it, but his declaration leaves more questions than answers. ... The First 48: Tiny ...
p188
sg5
VMuhammad Ali Pictures - Biography.com
p189
sa(dp190
g3
V... Muhammad Ali knocked out George Foreman to regain the World Heavyweight Championship. ... George Foreman for defeat. ... First hand report by renown author who ...
p191
sg5
VBoxing Strategy in Ali-Foreman Fight by Ron Kurtus - Succeed in ...
p192
sa(dp193
g3
VHe first won the heavyweight title in 1973 with a ... Ali was the only mover or boxer who could've defeated Foreman at his ... His name is George Foreman, ...
p194
sg5
VGeorge Foreman a physical freak of nature [Archive] - Boxing Forum
p195
sa(dp196
g3
VOnly 20 months after his first boxing match, Foreman's talent for ... the heavyweight championship from ... that he did not know who his ...
p197
sg5
VGeorge Foreman Biography - life, family, children, name, school ...
p198
sa(dp199
g3
VLAS VEGAS \u2014 George Foreman ... bout against his outclassed opponent in his first bout since last ... of a classic heavyweight championship ...
p200
sg5
VMayweather makes it look easy in defeating Guerrero
p201
sa(dp202
g3
V... and George Chuvalo, whom he ... the fastest-ever knockout for a heavyweight championship bout. Foreman's next defense ... It was Foreman's first defeat, ...
p203
sg5
VGeorge Foreman Biography, Bio, Profile, pictures, photos from ...
p204
sa(dp205
g3
VGeorge: No, it has nothing to do with who you ... and win a second championship. Do I have that right? George: ... That's George Foreman, two-time heavyweight ...
p206
sg5
VGeorge Foreman - Knockout Entrepreneur - The BusinessMakers Radio Show
p207
sa(dp208
g3
VMuhammad Ali vs George Foreman very rare ... He was the first man in history to win the Heavyweight championship 3 ... Following the first defeat of his career to Joe ...
p209
sg5
VMuhammad Ali Vs George Foreman Very Rare Fight Souvenir Medallion ...
p210
sa(dp211
g3
VBut there was also George Foreman, the other heavyweight among ... Jamaica, Foreman won the heavyweight championship ... Foreman and Ali are the only men who ever ...
p212
sg5
VGeorge Foreman remembers Joe Frazier - Dan Rafael Blog - ESPN
p213
sa(dp214
g3
V... Foreman was a fearsome boxer and ferocious puncher who first took the ... his sons George Foreman ... time defeat to England four years later. George ...
p215
sg5
VSt George's Day: Top 10 sporting Georges | Metro News
p216
sa(dp217
g3
VGeorge Foremen has the net worth of a champ ... and whose first defeat was to Muhammad ... George Foreman is that jolly guy on TV who sells Meineke mufflers and ...
p218
sg5
VGeorge Foreman Net Worth | Celebrity Net Worth
p219
sa(dp220
g3
V... Muhammad Ali KO8 George Foreman October ... second man in history to regain the world heavyweight championship. ... His first defeat ruined the career ...
p221
sg5
VThe Ten Greatest ever world Heavyweight title fights part2
p222
sa(dp223
g3
VUnited States was the first fight between ... and many of the men who won them are ... after his ''Rumble in the Jungle'' defeat of George Foreman to reclaim ...
p224
sg5
VGeorge Foreman - FOX Sports on MSN l Sports News, Scores ...
p225
sa(dp226
g3
V... did in the first place. His chin had nothing to do ... his championship to George Foreman and ... His style was a style that no heavyweight who ever ...
p227
sg5
VMike Tyson vs. George Foreman | Beats, Boxing and Mayhem
p228
sa(dp229
g3
VGeorge Foreman is right. Both were in Dallas on Thursday to promote a the World Featherweight Championship boxing match ... for the first fight that even ...
p230
sg5
VBoxing has a quality, not a race, problem - The Big Mac Blog
p231
sa(dp232
g3
VGeorge Foreman and Mike Tyson were two ... able to overwhelm George within the first two or three ... , George Foreman, Heavyweight Championship, Mike ...
p233
sg5
VGeorge Foreman Vs. Mike Tyson: Who Would Win This Classic ...
p234
sa(dp235
g3
VHow old was George Foreman when he last won the ... when he won his last heavyweight title against a guy called Michael moorer ... Who found this ...
p236
sg5
VHow old was George Foreman when he last won the heavy weight title ...
p237
sa(dp238
g3
VGeorge Foreman: \u201cMike Tyson\u2019s ... to retirement and spreading the word of God before returning to the ring and regaining his championship in ... First of all, how ...
p239
sg5
VGeorge Foreman: \u201cMike Tyson\u2019s Got a Future in Boxing\u201d
p240
sa(dp241
g3
VIn what was the highest-profile and signature fight of his career, George Foreman ... Foreman who hadn't tasted defeat ... heavyweight history; Foreman did ...
p242
sg5
VGeorge Foreman: What Was, What Could've Been, Nothing Short Of ...
p243
sa(dp244
g3
VWhat George Foreman could do was ... In Foreman's first march to the heavyweight ... Ali was the only mover or boxer who could've defeated Foreman at his peak.
p245
sg5
VGeorge Foreman: A Physical Freak Of Nature - TheSweetScience.com
p246
sa(dp247
g3
VGeorge Foreman would give them a little under ... Foreman lost the heavyweight championship of ... Spoiler Jimmy Young handed Lyle his second defeat in ...
p248
sg5
VBeloved Onslaught: Random Classics - George Foreman vs. Ron Lyle
p249
sa(dp250
g3
VIf Vitali Klitschko wins the heavyweight championship from Lennox Lewis ... George Foreman says he is ... vowing to avenge his brother's defeat. That did not show ...
p251
sg5
VBy George, Foreman may return - theage.com.au
p252
sa(dp253
g3
VAnd as we know he desperatley wanted to avenge his defeat in ... who would have been wrecked by Foreman at his ... George Foreman is a Top 10 heavyweight ...
p254
sg5
VIs George Foreman really the greatest heavyweight and Muhammad Ali ...
p255
sa(dp256
g3
VA Review of George Foreman's Book, ... For the first time in his life, Foreman is at peace. ... After two unsuccessful attempts at the heavyweight championship, ...
p257
sg5
VA Review of George Foreman's Book, "God In My Corner" (c) 2007
p258
sa(dp259
g3
V... George Edward Foreman. Two-time heavyweight boxing ... he did name all five of his sons George. Foreman: ... Foreman: I beat him up for the first three ...
p260
sg5
VGeorge Foreman Five Sons All Named George | United States Online News
p261
sa(dp262
g3
VGeorge Foreman pounded ... who stopped Carl ... The 258-pound Foreman had come into the fight saying he wanted one more shot at the heavyweight championship, ...
p263
sg5
VForeman Defeats Coetzer : Boxing: He and Morrison both win in ...
p264
sa(dp265
g3
VClayton was the first black man to referee a world heavyweight championship fight. His first active ... Who did HBO boxing analyst ... what did George Foreman call ...
p266
sg5
VThe Rumble in the Jungle - Fun Facts, Questions, Answers, Information
p267
sa(dp268
g3
V... whom his mother had married when George ... one of the fastest knockouts in a heavyweight championship bout. Foreman's ... It was Foreman's first defeat, ...
p269
sg5
VGeorge Foreman : Wikis (The Full Wiki) - Students, get citable ...
p270
sa(dp271
g3
V... Who Was The Greatest Heavyweight Boxer Of ... George Foreman (2 ... Riddick Bowe became the first fighter to defeat Evander Holyfield when he beat him in 1992 ...
p272
sg5
VWho Was The Greatest Heavyweight Boxer Of All-Time? - Page 3 ...
p273
sa(dp274
g3
VGeorge Edward Foreman Author Profile, ... who encouraged Foreman to become a fighter. ... the shortest heavyweight championship match; Foreman also beat Ken Norton ...
p275
sg5
VGeorge Edward Foreman Author Profile | Biography And Bibliography ...
p276
sa(dp277
g3
V... Foreman went on to win boxing gold at the 1968 Olympics and the World Heavyweight Championship ... with his hugely successful George Foreman ... Who can't do it ...
p278
sg5
V"Big George" Foreman rumbles into Macau
p279
sa(dp280
g3
VGEORGE FOREMAN, FORMER HEAVYWEIGHT BOXING CHAMPION: ... Taking the championship title from Michael Moorer ... who want to be the next George Foreman? ...
p281
sg5
VCNN.com - Transcripts
p282
sa(dp283
g3
VThe heavyweight division ... The fact that he was still fighting for a title sixteen years after he won his first one ... "Big" George Foreman had one of ...
p284
sg5
VGeorge Foreman and the Top 10 Old Fighters Who Beat the Odds ...
p285
sa(dp286
g3
V... and George Chuvalo, whom he ... one of the fastest knockouts in a heavyweight championship bout. Foreman\u2019s next ... It was Foreman\u2019s first defeat, ...
p287
sg5
VGeorge Foreman | CWH Promotions Ltd
p288
sa(dp289
g3
VGeorge Foreman: January 22, 1973 ... "Who was the greatest heavyweight champion of all time?" ... and the first heavyweight champion, ...
p290
sg5
VThe Heavyweight Champions of All-Time - Teaching In Jiangsu ...
p291
sa(dp292
g3
VBig George Foreman is set to make his ... and George Foreman,\u201d and it sounds funny at first and ... defeat at the peak of your career, how do you ...
p293
sg5
VGeorge Foreman: "Pacquiao's legacy will not be decided on a name ...
p294
sa(dp295
g3
VLAS VEGAS \u2014 George Foreman, showing flashes of his old ... who held the heavyweight championship from ... For the first time in his comeback, Foreman also faced ...
p296
sg5
VForeman Wins Fifth Fight of His Comeback by a TKO in Third Round ...
p297
sa(dp298
g3
VWhat boxer successfully defended his title against George Foreman and ... Who was the first fighter to defeat Muhammad ... the world heavyweight championship ...
p299
sg5
VFree Boxing Trivia Questions - The Best Sports Blog
p300
sa(dp301
g3
V... the heavyweight championship. BTG: George Foreman ... heavyweight champion was or who he was in those days, but it sure did make me feel good." On his first ...
p302
sg5
VLiveLeak.com - (boxing) "Beyond the Glory: George Foreman" (2004 ...
p303
sa.