(lp1
(dp2
S'description'
p3
VWilliam Shakespeare is known as the 'father of English literature' who wrote more than 37 plays, 154 sonnets, 2 narrative poems and two "lost plays". First ...
p4
sS'title'
p5
VHow Many Plays did Shakespeare Write? - Buzzle
p6
sa(dp7
g3
VHow Many Plays Did Shakespeare Write? The general consensus is that Shakespeare wrote thirty-seven plays (see list below). ... Quotations About William Shakespeare
p8
sg5
VHow Many Plays Did Shakespeare Write?
p9
sa(dp10
g3
VA Collection of Shakespeare's plays was published by his colleagues in 1623, seven years after Shakespeare's death. This was titled Mr. William Shakespeares Comedies ...
p11
sg5
VHow many plays did William Shakespeare write - The Q&A wiki
p12
sa(dp13
g3
VHe wrote about 37 plays. His genres were comedy, history, and tragedy.
p14
sg5
VYahoo! Answers - How many plays did William Shakespeare write?
p15
sa(dp16
g3
VTopic: William Shakespeare. Question: How many plays did Shakespeare write? - Question #50431
p17
sg5
VHow many plays did Shakespeare write? - Question #50431 - Homework ...
p18
sa(dp19
g3
VHow many plays did William Shakespeare write - trivia question /questions answer / answers
p20
sg5
VHow many plays did William Shakespeare write?
p21
sa(dp22
g3
VTopic: William Shakespeare. Question: How many plays did William Shakespeare write? - Question #76567
p23
sg5
VHow many plays did William Shakespeare write? - Question #76567 ...
p24
sa(dp25
g3
VBest Answer: he wrote 37 plays here is a list of them The Plays Comedies All's Well That Ends Well, As You Like It, Cymbeline, The Comedy of Errors, Love's ...
p26
sg5
VHow many plays did william shakespeare write in total? - Yahoo ...
p27
sa(dp28
g3
VThis is the time when William Shakespeare is said to have left his family inn Stratford whilst he pursued ... How many plays did Shakespeare write?
p29
sg5
VShakespeare FAQ at Absolute Shakespeare
p30
sa(dp31
g3
VThe plays of William Shakespeare. How many did he write and how were they received.
p32
sg5
VThe Plays of William Shakespeare - Reference
p33
sa(dp34
g3
VWilliam Shakespeare wrote plays, narrative poems and a particular type of poem called sonnets. William Shakespeare wrote 154 sonnets, 2 poetic narratives with erotic ...
p35
sg5
VWhat did William Shakespeare write - The Q&A wiki
p36
sa(dp37
g3
VVisit this William Shakespeare site including information about his plays. Educational resource for famous William Shakespeare plays. Comprehensive facts about ...
p38
sg5
VWILLIAM SHAKESPEARE PLAYS
p39
sa(dp40
g3
VQuestion: How Many Plays Did Shakespeare Write Altogether? Answer: ... Arden Shakespeare published this play under the name William Shakespeare in 2010
p41
sg5
VHow Many Plays Did Shakespeare Write Altogether?
p42
sa(dp43
g3
VWilliam Shakespeare, the famed English playwright is still widely read and studied today. In total, Shakespeare is thought to have written thirty-seven plays in
p44
sg5
VHow Many Plays Did Shakespeare Write in Total? - Ask.com
p45
sa(dp46
g3
VRelated Tags: shakespeare, how many plays did shakespeare write, shakespeare photo, ... how many plays did william shakespeare write, shakespeare plays, ...
p47
sg5
VHow Many Plays did Shakespeare Write | How Many Are There
p48
sa(dp49
g3
VWilliam Shakespeare's plays have the reputation of being among the greatest in the English language and in Western literature. Traditionally, the 38 plays are divided ...
p50
sg5
VWilliam Shakespeare's plays - Wikipedia, the free encyclopedia
p51
sa(dp52
g3
VWilliam Shakespeare wrote 37 plays, 4 poems, and 154 sonnets. A play, Cardenio, was not published in the First Folio of 1623, and is therefore considered ...
p53
sg5
VHow many tragedies,comedies,histories,r\u2026 and tragicomedies did ...
p54
sa(dp55
g3
VShakespeare most likely wrote more plays than you think; some that aren\u2019t included in your Complete Works of William Shakespeare. There isn\u2019t a lot of original ...
p56
sg5
VHow Many Plays Did Shakespeare Write? | The Bard Blog ...
p57
sa(dp58
g3
VQuestion: Shakespeare - How Many Plays Did He Write? Answer: This can be a difficult question to answer. ... How Many Plays Has William Shakespeare Written?
p59
sg5
VShakespeare - How Many Plays Did He Write?
p60
sa(dp61
g3
VAnswer (1 of 67): He wrote 37! These are them in chronological order! 1. Two gentlemen of Verona 2. Taming of the Shrew 3. Henry VI part 1 4. Henry VI part 3 5.
p62
sg5
VHow Many Plays Did William Shakespeare Write? - Blurtit
p63
sa(dp64
g3
VHow many plays did William Shakespeare write? The precise number of plays that William Shakespeare wrote is the subject of some debate. Scholars set the number at 37 ...
p65
sg5
VHow many plays did William Shakespeare write? | Answerbag
p66
sa(dp67
g3
VWilliam Shakespeare wrote more than 37 plays, 154 soonets, 2 narrative poems and two
p68
sg5
VHow many plays did William Shakespeare write - Ask.com
p69
sa(dp70
g3
VIn his surviving signatures William Shakespeare did not spell his name as it appears on most Shakespeare ... but rather survived to write Shakespeare's plays. ...
p71
sg5
VShakespeare authorship question - Wikipedia, the free encyclopedia
p72
sa(dp73
g3
VIf Shakespeare did not write his plays, ... Edward de Vere as the universally recognized author of the works of William Shakespeare, so ...
p74
sg5
VDid Shakespeare Really Write Shakespeare? - Carson-Newman
p75
sa(dp76
g3
VHow many plays did William Shakespeare write? Check out Play Chronology ; Was he influenced by other Elizabethan Poets and Authors? See the William Shakespeare ...
p77
sg5
VWILLIAM SHAKESPEARE
p78
sa(dp79
g3
VHow many total works plays essays everything did William Shakespeare write in his career - trivia question /questions answer / answers
p80
sg5
VHow many total works (plays, essays, everything) did William ...
p81
sa(dp82
g3
VWith so little known about William Shakespeare\u2019s life, even this most basic question has a complicated answer. In fact, there are three answers to choose ...
p83
sg5
VShakespeare 101: how many plays did William Shakespeare write ...
p84
sa(dp85
g3
VA lack of hard evidence has led some scholars to believe that William Shakespeare didn't write the plays that bear his name.
p86
sg5
VDid William Shakespeare Write His Plays - Life123
p87
sa(dp88
g3
VHow many plays did Shakespeare write? ... 6:01 Is William Shakespeare Really William Shakespeare? by wnycradio 1,811 views 0:29 Church Fight!
p89
sg5
VHow many plays did Shakespeare write? - YouTube
p90
sa(dp91
g3
VHow Many Plays Did Shakespeare Write? There\u2019s no way of knowing exactly how many plays Shakespeare wrote, ... to William Shakespeare. ...
p92
sg5
VHow Many Plays Did Shakespeare Write? - What's It All About ...
p93
sa(dp94
g3
VBest Answer: There are like 37 give or take.... 1. Henry VI - Part I 2. Henry VI - Part II 3. Henry VI - Part III 4. Love's Labour's Lost 5. The Two ...
p95
sg5
VHow Many Plays Did William Shakespeare Write? - Yahoo! UK ...
p96
sa(dp97
g3
VDid Shakespeare Write His Plays? In the centuries after the death of William Shakespeare in 1616, comparatively few people have asked the question: Did Shakespeare ...
p98
sg5
VDid Shakespeare Write His Plays? | William Shakespeare Facts
p99
sa(dp100
g3
VHow many plays did William Shakespeare write? ChaCha Answer: The exact number of the plays written by Shakespeare is debatable,source...
p101
sg5
VHow many plays did William Shakespeare write? | ChaCha
p102
sa(dp103
g3
VWilliam Shakespeare Biography describes the life of William Shakespeare. ... Did Shakespeare write the 37 plays and 154 sonnets credited to him?
p104
sg5
VShakespeare Biography at AbsoluteShakespeare.com
p105
sa(dp106
g3
VWilliam Shakespeare, author of the plays and poems commonly attributed to William Shakespeare. (Image via Wikipedia)
p107
sg5
VYes, Shakespeare Really Did Write Shakespeare - Forbes
p108
sa(dp109
g3
VHow Many Problem Plays Did William Shakespeare Write? What Tragedies Did Shakespeare Write? How Are Shakespeare's Sonnets Different From The Classical Form?
p110
sg5
VHow Many Sonnets Did Shakespeare Write? - Blurtit
p111
sa(dp112
g3
VHow many plays did Shakespeare write? The Four Periods of Shakespeare's Work Shakespeare's Metaphors and Similes Characteristics of Shakespeare's Plays
p113
sg5
VShakespeare's Plays
p114
sa(dp115
g3
VGood evidence that William Shakespeare wrote the plays and poems bearing his name is the fact that his name appears on them as the author. 1a.
p116
sg5
VHow We Know That Shakespeare Wrote Shakespeare: The Historical Facts
p117
sa(dp118
g3
VIf the Kennedy assassination doesn\u2019t interest you, and you\u2019ve got a few extra years on your hands, you might want to look into the debate over who wrote William ...
p119
sg5
VDid Shakespeare Really Write His Plays? A Few Theories Examined ...
p120
sa(dp121
g3
VLast Month's Popular Questions for Shakespeare Plays. What are three William Shakespeare plays? This is ChaCha! I'll give you six! Julius Caesa...
p122
sg5
VHow many plays did Shakespeare write? | ChaCha
p123
sa(dp124
g3
VS. Schoenbaum, William Shakespeare: A Compact Documentary Life (Oxford, 1977) Park Honan, Shakespeare: a Life (Oxford, 1998) ... How many plays did Shakespeare write? ...
p125
sg5
VShakespeare FAQs-Folger Shakespeare Library
p126
sa(dp127
g3
VHow many plays did William Shakespeare write? ANSWERBAG BUZZ Poem that william shakespeare write. What type of poem did william shakespeare.
p128
sg5
VHow many poems did William Shakespeare write? | Answerbag
p129
sa(dp130
g3
VWilliam Shakespeare (1564-1616), `The Bard of Avon', ... Shakespeare wrote most of his plays as `quarto texts', that being on a sheet of paper folded four ways.
p131
sg5
VWilliam Shakespeare - Biography and Works. Search Texts, Read ...
p132
sa(dp133
g3
VWilliam Shakespeare is the greatest English writer and dramatist.He wrote 37 plays and most of them are comedies,he also wrote some long poems and sonnets.In
p134
sg5
VDid William Shakespeare Write His Plays? - Ask Jeeves
p135
sa(dp136
g3
VSince William Shakespeare did not have much ... Francis Bacon was the favorite candidate of those who doubted that Shakespeare wrote the plays and poems that have ...
p137
sg5
VShakespeare Authorship
p138
sa(dp139
g3
VProof that Shakespeare did not Write Shakespeare ... Is this Really William Shakespeare? Many claim that this famous ... The plays of Shakespeare are highly ...
p140
sg5
VProof that Shakespeare did not Write Shakespeare
p141
sa(dp142
g3
VHe wrote many great plays for the group. A new theater, called The Globe, ... A Biography of the Mind of William Shakespeare by Jonathan Bate (2009); ...
p143
sg5
VWilliam Shakespeare - www.kirjasto.sci.fi
p144
sa(dp145
g3
VBest Answer: William Shakespeare (1564\u20131616), `The Bard of Avon'. Comedies, listed in chronological order of performance. Taming of the Shrew first ...
p146
sg5
VYahoo! Canada Answers - How many comedy plays did shakespeare write?
p147
sa(dp148
g3
V... the notion that William Shakespeare did not write the plays and poems attributed to him may at first sight seem absurd. But step through the looking glass ...
p149
sg5
VDid Shakespeare Write \u2018Shakespeare\u2019? Much Ado About Nothing - CSI
p150
sa(dp151
g3
VWhat is WILLIAM SHAKESPEARE DID HE WRITE HIS OWN PLAYS? Mr What will tell you the definition or meaning of What is WILLIAM SHAKESPEARE DID HE WRITE HIS OWN PLAYS
p152
sg5
VWhat is WILLIAM SHAKESPEARE DID HE WRITE HIS OWN PLAYS?
p153
sa(dp154
g3
VBest Answer: William Shakespeare (1564\u20131616), `The Bard of Avon'. Comedies, listed in chronological order of performance. Taming of the Shrew first ...
p155
sg5
VYahoo! Canada Answers - How many comedy plays did shakespeare write?
p156
sa(dp157
g3
V... the notion that William Shakespeare did not write the plays and poems attributed to him may at first sight seem absurd. But step through the looking glass ...
p158
sg5
VDid Shakespeare Write \u2018Shakespeare\u2019? Much Ado About Nothing - CSI
p159
sa(dp160
g3
VWhat is WILLIAM SHAKESPEARE DID HE WRITE HIS OWN PLAYS? Mr What will tell you the definition or meaning of What is WILLIAM SHAKESPEARE DID HE WRITE HIS OWN PLAYS
p161
sg5
VWhat is WILLIAM SHAKESPEARE DID HE WRITE HIS OWN PLAYS?
p162
sa(dp163
g3
VDid Shakespeare write all his plays himself, or were others responsible? ... So he travelled to Italy and William Shakespeare didn't, as far as we know.
p164
sg5
VSo, who did write Hamlet? | The conversation | Comment is free ...
p165
sa(dp166
g3
VDid William Shakespeare write his own plays? Did Abraham Lincoln deliver the Gettysburg Address? There is a new movie out, Anonymous, that suggests that the Bard was ...
p167
sg5
VHollywood Jumps Into British History: Did William Shakespeare ...
p168
sa(dp169
g3
VHe\u2019s our best-loved playwright and wrote some of the most famous phrases in the English language. Or did he? According to new film Anonymous, William Shakespeare ...
p170
sg5
VDid Shakespeare really write those plays? | Cain on Culture
p171
sa(dp172
g3
VFor sheer longevity, no conspiracy theory can match the notion that William Shakespeare did not write tile plays that have been attributed to him.
p173
sg5
VWho Wrote Shakespeare's Plays?
p174
sa(dp175
g3
VIf someone were to ask me when did William Shakespeare start to write and I had to respond ... in light of the virtuoso manner in which Shakespeare\u2019s plays have ...
p176
sg5
VWhen did William Shakespeare Start to Write?
p177
sa(dp178
g3
VFacts about William Shakespeare's thirty seven plays - the comedies, ... Shakespeare wrote 10 plays which drew on English history: Henry VI, Part 2, created by 1591.
p179
sg5
VWilliam Shakespeare's plays - William Shakespeare in quarto
p180
sa(dp181
g3
V\u201cDone to death by slanderous tongues.\u201d So wrote William Shakespeare in his play, Much Ado About Nothing. Or did he? Even people who have never actually read ...
p182
sg5
VProbing Question: Did Shakespeare really write all those plays?
p183
sa(dp184
g3
VWhy is Shakespeare famous? Who was William Shakespeare? William Shakespeare is one of the world's greatest writers. He wrote plays for the theatre.
p185
sg5
VBBC - Primary History - Famous People - William Shakespeare
p186
sa(dp187
g3
VThis is what we often think of when we think of William Shakespeare, but is this man really the author of all those plays and sonnets?
p188
sg5
VWilliam Shakespeare and The Authorship Debate: Did he Write His ...
p189
sa(dp190
g3
VWilliam Shakespeare the Playwright When did Will start to write plays? ... Publication of William Shakespeare Plays Why didn't he publish any of his plays?
p191
sg5
VWilliam Shakespeare Biography
p192
sa(dp193
g3
VDid William Shakespeare write Hamlet ... My drinking companion professed that Shakespeare did not write the plays attributed to Shakespeare, ...
p194
sg5
VDid Shakespeare write Shakespeare? Yes, no - and who cares - The ...
p195
sa(dp196
g3
Vthe Playwright: The Biography of William Shakespeare. When did Will start to write plays? What was his first play? Did he act in his plays? Why was being a Playwright ...
p197
sg5
VWilliam Shakespeare the Playwright
p198
sa(dp199
g3
VSure we know he was a very gifted writer & thinker which pretty much covers why did Shakespeare write plays, ... When did William Shakespeare Start to Write?
p200
sg5
VWhy did Shakespeare Write (Wrote) Macbeth?
p201
sa(dp202
g3
VWilliam Shakespeare Scavenger Hunt ... 10. How many plays did he write? How many sonnets? 11. On what play do many scholars believe Othello is based? 12.
p203
sg5
VWilliam Shakespeare Scavenger Hunt - Anchorage School District
p204
sa(dp205
g3
V(18) How many plays did Shakespeare write. Name some of the most famous ones. What else did he write? ... Shakespeare's plays Research by Ethan Fry
p206
sg5
Vromeojuliet - (18) How many plays did Shakespeare write. Name some ...
p207
sa(dp208
g3
VWho wrote the plays of Shakespeare? ... An Analysis of Cryptographic Systems Used as Evidence that some Author other than William Shakespeare Wrote the Plays ...
p209
sg5
VWilliam Shakespeare - rotten.com: This is rotten dot com
p210
sa(dp211
g3
VMany people have been named in the search to find the true author of Shakespeare's plays ... William Shakespeare, wrote the plays attributed to him and that ...
p212
sg5
Vromeojuliet - (20) Did Shakespeare really write the plays ...
p213
sa(dp214
g3
VIf Shakespeare didn't write his plays then ... on it but instead probably gave it to William Shakespeare to say that he wrote it as his own or maybe William ...
p215
sg5
VDid Shakespeare Actually Write His Plays??? (History\u2019s Biggest ...
p216
sa(dp217
g3
VHere we go again. Those don't believe that William Shakespeare of Stratford-upon-Avon actually wrote the plays which are credited to his name, are about to get a ...
p218
sg5
VWilliam Shakespeare: Did He Really Write Those Plays? | Montreal ...
p219
sa(dp220
g3
VA: Williams Shakespeare wrote 37 plays which including 10 historical plays plus 17 comedies and 10 tragedies. If "The two noble kinsmen" is included then its is 38.
p221
sg5
VHow many plays did william shakespeare right ?
p222
sa(dp223
g3
VDid Shakespeare Really Write His Plays? A Few Theories Examined. By Paul Hechinger | Posted on October 24th, 2011. ... Polonius is in fact William Cecil, ...
p224
sg5
VDid Shakespeare Really Write His Plays? A Few Theories Examined ...
p225
sa(dp226
g3
VWilliam Shakespeare's works are known throughout the world, but his personal life is shrouded in mystery. Some believe that he didn't write the plays, or that he didn ...
p227
sg5
VWilliam Shakespeare Biography - Facts, Birthday, Life Story ...
p228
sa(dp229
g3
VDid Shakespeare write his plays ... Mr John Fletcher and Mr William Shakespeare. ... turns out to have been revised by Middleton many years after Shakespeare wrote ...
p230
sg5
VDid Shakespeare write his plays alone? - FT.com
p231
sa(dp232
g3
VHow much of the Bible did William Shakespeare actually write? ... A guy who wrote a few plays. Did Shakespeare write all the plays attributed to him?
p233
sg5
VHow much of the Bible did William Shakespeare actually write?
p234
sa(dp235
g3
VHome Page > AB-Answers > Education > How many books did william shakespeare write ? Question How many ... How many william shakespeare plays are there?
p236
sg5
VHow many books did william shakespeare write ?
p237
sa(dp238
g3
VFind out about the life and work of William Shakespeare, ... the \u201cBard of Avon\u201d wrote at least 37 plays and a collection of sonnets, ...
p239
sg5
VWilliam Shakespeare \u2014 History.com Articles, Video, Pictures and ...
p240
sa(dp241
g3
VThe answer is ... No. One of William Shakespeare's most famous and most celebrated plays was Romeo and Juliet. Despite its apparent originality and its ...
p242
sg5
VDid Shakespeare Write Romeo and Juliet? - Yahoo! Voices - voices ...
p243
sa(dp244
g3
VShould we care who wrote William Shakespeare's plays? On the anniversary of his death, researchers \u2013 driven by a devotion to plays which have lasted ...
p245
sg5
VShould we care who wrote William Shakespeare's plays? | Mark ...
p246
sa(dp247
g3
VA campaign is set to begin against a new Hollywood film, Anonymous, which questions the authorship of William Shakespeare's plays. The film claims the Earl ...
p248
sg5
VBBC News - Film claims William Shakespeare did not write his plays
p249
sa(dp250
g3
VSome basic facts about William Shakespeare's life, works and plays for those new to Shakespeare and the British ... What did he write? Shakespeare wrote plays and ...
p251
sg5
VBasic facts about William Shakespeare, his life, his plays and the ...
p252
sa(dp253
g3
VI'm working on a research paper now about whether or not Shakespeare really wrote his plays. ... I am going to believe William Shakespeare wrote the plays until ...
p254
sg5
VDid Shakespeare write Shakespeare? | The Globe | LibraryThing
p255
sa(dp256
g3
V1564: William Shakespeare was baptized on the 26th of April, 1564. ... How Many Plays did Shakespeare Write? Famous and Important Quotes from Hamlet;
p257
sg5
VTimeline of William Shakespeare - Buzzle
p258
sa(dp259
g3
VDoubts persist that William Shakespeare wrote the works that bear his name.
p260
sg5
VWho Wrote Shakespeare's Plays? Debate Goes On : NPR
p261
sa(dp262
g3
VDuring that time Shakespeare was still busy writing plays, ... English literature was at its peak with writers like William Shakespeare, ... Shakespeare wrote many ...
p263
sg5
VDid Shakespeare write the King James Bible?
p264
sa(dp265
g3
VFilm claims William Shakespeare did not write his plays
p266
sg5
VFilm claims William Shakespeare did not write his plays - YouTube
p267
sa(dp268
g3
VWelcome to the Web's first edition of the Complete Works of William Shakespeare. This site has offered Shakespeare's plays and poetry to the Internet community since ...
p269
sg5
VThe Complete Works of William Shakespeare
p270
sa(dp271
g3
VWilliam Shakespeare - poetry, ... So who wrote Marlowe's sodding plays? Q: OK, maybe the Earl of Oxford was Shakespeare A: NO. IT WAS THE BALD BUGGER FROM STRATFORD;
p272
sg5
VWilliam Shakespeare - poetry, poems
p273
sa(dp274
g3
VDid Shakespeare write his own plays?" The answer: Probably, ... How Many Plays Did Shakespeare Write? How Many Plays Has William Shakespeare Written?
p275
sg5
VDid Shakespeare Write His Own Plays?
p276
sa(dp277
g3
VThe Plays of William Shakespeare. ... Shakespeare did not write every word of the plays attributed to him; and several show signs of collaboration, ...
p278
sg5
VWilliam Shakespeare - 2008/9 Wikipedia Selection for schools
p279
sa(dp280
g3
V... William Shakespeare (or Shakspere) occupies a position unique in world ... this was a clear incentive to write plays that would attract a good audience.
p281
sg5
VWilliam Shakespeare
p282
sa(dp283
g3
VSome commentators claim that Shakespeare did not write his plays. ... William Shakespeare: A Compact Documentary Life. New York: Oxford University Press
p284
sg5
V51 Random Facts about William Shakespeare
p285
sa(dp286
g3
VWilliam Shakespeare. April 23, 1564-April ... and the four English history plays Shakespeare wrote between 1595 and 1599 were even more impressive in their epic ...
p287
sg5
VWilliam Shakespeare Biography - Brandeis Users' Home Pages
p288
sa(dp289
g3
VWilliam Shakespeare (I) on IMDb: Movies, ... he also wrote two long poems, ... only one of Shakespeare's many plays in which he mentions "America" ...
p290
sg5
VWilliam Shakespeare (I) - Biography
p291
sa(dp292
g3
VShakespeare facts: Interested in facts about William Shakespeare? ... Shakespeare wrote many more plays than the ones we know about.
p293
sg5
VShakespeare Facts: 30 Interesting Facts About William Shakespeare
p294
sa(dp295
g3
VWilliam Shakespeare was the son of John Shakespeare, ... After 1606\u20131607, Shakespeare wrote fewer plays, and none are attributed to him after 1613.
p296
sg5
VThe biography of William Shakespeare
p297
sa(dp298
g3
V... Who Wrote Shakespeare ... Amazon.co.uk. JAMES SHAPIRO follows his award-winning book on William Shakespeare, ... be the same man as the poet of the plays? Many ...
p299
sg5
VWilliam Shakespeare: Hero or hoax | The Economist
p300
sa(dp301
g3
VWhat year did Shakespeare write tha play Romeo And Juliet? - Shakespeare started writting the play Romeo and Juliet in 1594 and he finished it in 1596.
p302
sg5
VHow long did it take Shakespeare to write the play Romeo and Juliet?
p303
sa.