(lp1
(dp2
S'description'
p3
V<b>AEI</b> is governed by a Board of Trustees, composed of leading business and financial executives. ... Managing and <b>Founding</b> Principal ... <b>AEI</b> on Facebook ...
p4
sS'title'
p5
VBoard of Trustees - About - AEI
p6
sa(dp7
g3
VThe <b>American Enterprise Institute</b> for Public Policy Research (<b>AEI</b>) is one of the oldest and most influential of the pro-business right-wing think tanks. It promotes ...
p8
sg5
VAmerican Enterprise Institute | Right Wing Watch
p9
sa(dp10
g3
VWhen was <b>AEI founded</b>? AEI was founded in New York City in 1938 by a group of prominent business executives, ...
p11
sg5
VFAQ - Support - AEI
p12
sa(dp13
g3
V<b>AEI</b> Legal Center for the Public Interest was <b>formed</b> when the National Legal Center for the Public Interest was merged into the conservative think tank American ...
p14
sg5
VAEI Legal Center for the Public Interest - Wikipedia, the free ...
p15
sa(dp16
g3
VFellow, American Academy of Arts and Sciences, 1972-2009; <b>Founder</b>, ... 2002; John M. Olin Distinguished Fellow, <b>AEI</b>, 1988-99; <b>Founder</b> and Publisher, The ...
p17
sg5
VAEI - Scholars - Irving Kristol (1920-2009)
p18
sa(dp19
g3
VTo connect with <b>American Enterprise Institute</b>, sign up for Facebook today. <b>......</b> There was no mention of Frank/Dodd until the Bush Administration <b>created</b> two ...
p20
sg5
VAmerican Enterprise Institute | Facebook
p21
sa(dp22
g3
VThe Competitive <b>Enterprise Institute</b> (CEI) is a non-profit <b>American</b>, libertarian think tank <b>founded</b> on March 9, 1984 in Washington, D.C. by Fred L. Smith, Jr that ...
p23
sg5
VCompetitive Enterprise Institute - Wikipedia, the free encyclopedia
p24
sa(dp25
g3
V... The <b>American Enterprise Institute</b> focuses on policies to expand liberty, increase individual opportunity and strengthen free enterprise. <b>Founded</b> ...
p26
sg5
VHeritage to Co-Host Debate with AEI, CNN - Heritage Foundation
p27
sa(dp28
g3
VThe <b>American Enterprise Institute</b> for Public Policy Research (<b>AEI</b>) is a conservative think tank, <b>founded</b> in 1943. It is associated with neoconservative domestic ...
p29
sg5
VAmerican Enterprise Institute - Newsday
p30
sa(dp31
g3
Vwww.citizenship-<b>aei</b>.org. It&#39;s been a year since Columbia University re-<b>established</b> an on-campus Naval ROTC program. In the latest edition of Columbia&#39;s The ...
p32
sg5
VAEI Program on American Citizenship | Facebook
p33
sa(dp34
g3
V... In 2008, Ricketts <b>created</b> the American Film Co. to produce historically ... serving on the board of the conservative <b>American Enterprise Institute</b>.
p35
sg5
VJoe Ricketts: The new billionaire political activist - The Term Sheet ...
p36
sa(dp37
g3
VA private trust, the Foundation for Freedom of Expression, was <b>established</b> to help <b>....</b> He stated that he was still looking forward to &quot;welcoming her to <b>AEI</b>, and to ...
p38
sg5
VAyaan Hirsi Ali - Wikipedia, the free encyclopedia
p39
sa(dp40
g3
V... Bruce Kovner, a pioneer of the hedge fund industry and a <b>founder</b> of ... He is a trustee of the <b>American Enterprise Institute</b>, a conservative ...
p41
sg5
VBruce Kovner, Founder of Caxton, to Step Down - NYTimes.com
p42
sa(dp43
g3
VHis research interests at <b>AEI</b> have included the U.S. Constitution, constitution-making, political philosophy, patriotism, the <b>Founding</b>, the death penalty, freedom ...
p44
sg5
VWalter Berns - Wikipedia, the free encyclopedia
p45
sa(dp46
g3
VWe launched the <b>AEI</b>-Brookings Election Reform Project in June 2005 with ... a non-partisan public policy research and advocacy organization <b>founded</b> in 2000.
p47
sg5
VVoter Registration - AEI-Brookings Election Reform Project
p48
sa(dp49
g3
V... Jonah Goldberg is editor-at-large of National Review Online and a visiting fellow at the <b>American Enterprise Institute</b>. You can write to him by ...
p50
sg5
VWake up, socially liberal fiscal conservatives - American Enterprise ...
p51
sa(dp52
g3
V... At an event hosted by the <b>American Enterprise Institute</b> in 2008, Richwine said Jews had the highest average IQs and singled out blacks and ...
p53
sg5
VHere's Video Of Another Time The Heritage Analyst Said Blacks and ...
p54
sa(dp55
g3
V... <b>AEI</b> and the Project 2049 Institute will cohost a conference ... He is also a <b>founding</b> partner of Armitage International LLC and a senior associate ...
p56
sg5
VReconsidering America's China Policy - American Enterprise Institute
p57
sa(dp58
g3
V... Wikileaks <b>founder</b> Julian Assange seeks asylum in Ecuador, one of world&#39;s ... He is a visiting fellow at the <b>American Enterprise Institute</b> and ...
p59
sg5
VThe breathtaking hypocrisy of Julian Assange, free speech crusader ...
p60
sa(dp61
g3
V4 days ago ... Register for <b>AEI</b> events; Check your saved articles; Sign up for <b>....</b> a contributing editor to National Review, and the <b>founding</b> editor of National ...
p62
sg5
VAn agency after Obama's own heart - Politics and Public Opinion - AEI
p63
sa.