(lp1
(dp2
S'description'
p3
VQ142.3 (LPGA) <b>How many events are part of the LPGA tour</b>? PQ1. How many events did the LPGA expand its schedule to? Answer1. Under Ritts, the LPGA ...
p4
sS'title'
p5
VQuestion Answering with LCC's CHAUCER at TREC 2006
p6
sa(dp7
g3
VQ142.3 (LPGA) <b>How many events are part of the LPGA tour</b>? PQ1. How many events did the LPGA expand its schedule to? Answer1. Under Ritts, the LPGA ...
p8
sg5
VQuestion Answering with LCC's CHAUCER at TREC 2006
p9
sa.