(lp1
(dp2
S'description'
p3
VIf additional information is required please contact the <b>LPGA Headquarters</b> at ... You need to call <b>LPGA Headquarters</b> (386.274.6200) to request an application ...
p4
sS'title'
p5
VFAQs - LPGA
p6
sa(dp7
g3
VYou need to call <b>LPGA Headquarters</b> (386.274.6200) to request an ... The national headquarters of the LPGA is located at 100 International Golf Drive in ...
p8
sg5
VFAQs | Professional Golfers | Tour Schedule ... - LPGA.com
p9
sa(dp10
g3
VTeaching/Club Professional Development. Tournament Operations and <b>LPGA</b> <b>HQ</b> Sales and Market. Volunteer. Apply for Future Notification Only. Internships ...
p11
sg5
VLPGA Jobs | Ladies Professional Golf Association | Job Board
p12
sa(dp13
g3
V<b>LPGA</b> International, a premier Daytona Beach golf club, boasts two world-class four-star courses as rated by Golf Digest. The Arthur Hills Legends Course and ...
p14
sg5
VLPGA International \u2013 A premier Daytona Beach golf club
p15
sa(dp16
g3
VA world-class field will tee it up in Paradise this week at the inaugural Pure Silk-Bahamas <b>LPGA</b> Classic. The tournament, one of three new tournaments on the.
p17
sg5
VLPGA: Home | Professional Golfers | Tour Schedule, Leaderboard ...
p18
sa(dp19
g3
VThe Ladies Professional Golf Association (<b>LPGA</b>) is an American organization for female professional golfers. The organization is <b>headquartered</b> in Daytona ...
p20
sg5
VLPGA - Wikipedia, the free encyclopedia
p21
sa(dp22
g3
VThe Symetra Tour consistently produces a pipeline of talent ready for the world stage. The <b>LPGA</b> is <b>headquartered</b> in Daytona Beach, Florida. Follow the <b>LPGA</b> ...
p23
sg5
VLPGA | LinkedIn
p24
sa(dp25
g3
V<b>LPGA</b> International is a golf community, <b>located</b> in Daytona Beach, Volusia County, Florida. The golf facilities are owned by the City of Daytona Beach and ...
p26
sg5
VLPGA International - Wikipedia, the free encyclopedia
p27
sa(dp28
g3
V... The recession reached into <b>LPGA headquarters</b> Wednesday when the cash-strapped tour eliminated the deputy commissioner position and ...
p29
sg5
VLayoffs At LPGA Headquarters: Local Knowledge: Golf Digest
p30
sa(dp31
g3
VRay Volpe is hired as the LPGA&#39;s first Commissioner on July 8, 1975. As Commissioner, Volpe moves the <b>LPGA headquarters</b> from Atlanta to New York, creates ...
p32
sg5
VA History of The LPGA - WorldGolf.com
p33
sa(dp34
g3
VLPGA Evaluation Site. INFORMATION SHEET. Facility: LPGA International, 1000 Champions Drive, Daytona Beach, FL 32124. <b>LPGA Headquarters</b>, 100 ...
p35
sg5
VLPGA Evaluation Site INFORMATION SHEET - LPGA.com
p36
sa(dp37
g3
VThe <b>LPGA</b> is <b>headquartered</b> in Daytona Beach, Florida. Follow the <b>LPGA</b> on its television home, Golf Channel, and on the web via: www.<b>LPGA</b>.com ...
p38
sg5
VWegmans LPGA Championship Will Return to Locust Hill CC in 2013
p39
sa(dp40
g3
V<b>Located</b> strategically in the lush hilltop setting of Bukit Kiara amidst the prime ... Open 2010 and the inaugural Sime Darby <b>LPGA</b> Malaysia 2010 in October.
p41
sg5
Vklgcc - Sime Darby LPGA Malaysia
p42
sa(dp43
g3
V... <b>LPGA headquarters</b> in Daytona Beach, Fla., will observe a moment of silence at 3 p.m. Thursday, and players, caddies and staff will attend their ...
p44
sg5
VBrecht maintained order on LPGA, 2 strokes at a time - Golf Week
p45
sa(dp46
g3
VThe Symetra Tour consistently produces a pipeline of talent ready for the world stage. The <b>LPGA</b> is <b>headquartered</b> in Daytona Beach, Florida. Follow the <b>LPGA</b> ...
p47
sg5
VInternships - LPGA Jobs | Ladies Professional Golf Association | Job ...
p48
sa(dp49
g3
V... The Symetra Tour consistently produces a pipeline of talent ready for the world stage. The <b>LPGA</b> is <b>headquartered</b> in Daytona Beach, Florida.
p50
sg5
VLPGA Announces New International Crown Team Competition ...
p51
sa(dp52
g3
VThe tournament is designed as a tribute to the founders of the <b>LPGA</b>. ... R.R. Donnelley, a commercial printing corporation with <b>headquarters</b> in Chicago, Illinois.
p53
sg5
VRR Donnelley LPGA Founders Cup - Wikipedia, the free encyclopedia
p54
sa(dp55
g3
V... It&#39;s the first time the <b>LPGA</b> - which for most of its early history was <b>headquartered</b> in Texas - has played in the Lone Star State since the last ...
p56
sg5
VThis Week: Guan in New Orleans, LPGA Returns to Texas
p57
sa(dp58
g3
Vcompleted and submitted to <b>LPGA Headquarters</b>: \u2022 The Student Lesson Observation Form for each student/lesson observed during each 3-hour teacher ...
p59
sg5
VGuidelines for Teacher Observations - LPGA.com
p60
sa(dp61
g3
VSubmit a completed LPGA-USGA Girls Golf Site Director Application to <b>LPGA</b> <b>Headquarters</b>. Once approved, you will receive an operations manual, posters, ...
p62
sg5
VEstablish a Site - LPGA.com
p63
sa.