(lp1
(dp2
S'description'
p3
VAcronym, Definition. LPGA, Ladies Professional Golf Association (and tournament). LPGA, Liquefied Petroleum Gas Association (United Kingdom). LPGA, Laser ...
p4
sS'title'
p5
VLPGA - What does LPGA stand for? Acronyms and abbreviations by ...
p6
sa(dp7
g3
VLooking for the definition of LPGA? Find out what is the full meaning of LPGA on Abbreviations.com! The Web&#39;s largest and most authoritative acronyms and ...
p8
sg5
VWhat does LPGA stand for? - Abbreviations.com
p9
sa(dp10
g3
VRelevant answers: <b>What does lpga stand for</b> in golf? Ladies Professional Golf Association. What does .in stand for? Whatever You type while browsing internet, ...
p11
sg5
VWhat does LPGA stands for - Wiki Answers
p12
sa(dp13
g3
V<b>What does LPGA stand for</b>? Laser Programmable Gate Array. Ads by GoogleOnline Stock Trades $3.95 Stock Trades &amp; Mobile Trading Don&#39;t Pay More to Get ...
p14
sg5
VLPGA - Laser Programmable Gate Array - Acronym Finder
p15
sa(dp16
g3
Vdenition \u2013 <b>What does LPGA stand for</b>? \u2022 how \u2013 How can I eliminate stress? \u2022 why \u2013 Why did David Koresh ask the FBI for a word processor? \u2022 time-dependent ...
p17
sg5
VEncyclopaedic Question Answering - Wolverhampton Intellectual ...
p18
sa(dp19
g3
VThe qualitative results described in this section are shown in. Figure 3. For example, when the question \u201c<b>What does LPGA stand for</b>?\u201d is processed, the first two ...
p20
sg5
VIncorporation of Corpus-Specific Semantic Information into Question ...
p21
sa(dp22
g3
VWhat does golf stand for? word Golf evolved (Like most words) from other languages. Why People perpetuate this nonsense still. What does LPGA stands for?
p23
sg5
VWhat does lpga stand for in golf - WikiAnswers
p24
sa(dp25
g3
VAcronym, Definition. LPGA, Ladies Professional Golf Association (and tournament). LPGA, Liquefied Petroleum Gas Association (United Kingdom). LPGA, Laser ...
p26
sg5
VLaser Programmable Gate Array - What does LPGA stand for ...
p27
sa(dp28
g3
VAcronym, Definition. LPGA, Ladies Professional Golf Association (and tournament). LPGA, Liquefied Petroleum Gas Association (United Kingdom). LPGA, Laser ...
p29
sg5
VLPGA - What does LPGA stand for? Acronyms and abbreviations by ...
p30
sa(dp31
g3
VLooking for the definition of LPGA? Find out what is the full meaning of LPGA on Abbreviations.com! The Web&#39;s largest and most authoritative acronyms and ...
p32
sg5
VWhat does LPGA stand for? - Abbreviations.com
p33
sa(dp34
g3
VRelevant answers: <b>What does lpga stand for</b> in golf? Ladies Professional Golf Association. What does .in stand for? Whatever You type while browsing internet, ...
p35
sg5
VWhat does LPGA stands for - Wiki Answers
p36
sa(dp37
g3
V<b>What does LPGA stand for</b>? Laser Programmable Gate Array. Ads by GoogleOnline Stock Trades $3.95 Stock Trades &amp; Mobile Trading Don&#39;t Pay More to Get ...
p38
sg5
VLPGA - Laser Programmable Gate Array - Acronym Finder
p39
sa(dp40
g3
Vdenition \u2013 <b>What does LPGA stand for</b>? \u2022 how \u2013 How can I eliminate stress? \u2022 why \u2013 Why did David Koresh ask the FBI for a word processor? \u2022 time-dependent ...
p41
sg5
VEncyclopaedic Question Answering - Wolverhampton Intellectual ...
p42
sa(dp43
g3
VThe qualitative results described in this section are shown in. Figure 3. For example, when the question \u201c<b>What does LPGA stand for</b>?\u201d is processed, the first two ...
p44
sg5
VIncorporation of Corpus-Specific Semantic Information into Question ...
p45
sa(dp46
g3
VWhat does golf stand for? word Golf evolved (Like most words) from other languages. Why People perpetuate this nonsense still. What does LPGA stands for?
p47
sg5
VWhat does lpga stand for in golf - WikiAnswers
p48
sa(dp49
g3
VAcronym, Definition. LPGA, Ladies Professional Golf Association (and tournament). LPGA, Liquefied Petroleum Gas Association (United Kingdom). LPGA, Laser ...
p50
sg5
VLaser Programmable Gate Array - What does LPGA stand for ...
p51
sa.