(lp1
(dp2
S'description'
p3
V9-<b>time Pro Bowler</b> (fine print) Inducted into Hall of Fame in 2006. 1 1 1 1. Like this page? Sponsor it for $160. Your message will replace this ad. <b>Warren Moon</b> &gt; ...
p4
sS'title'
p5
VWarren Moon NFL Football Statistics - Pro-Football-Reference.com
p6
sa(dp7
g3
V<b>Moon</b> held the record for most passing yardage in <b>professional</b> football (CFL + NFL ... He had little playing <b>time</b> until his junior year, when he took over as varsity ... to convert <b>Moon</b> to another position as was the norm for <b>many</b> major colleges ...
p8
sg5
VWarren Moon - Wikipedia, the free encyclopedia
p9
sa(dp10
g3
VInducted into Hall of Fame in 2006. 9-<b>time Pro Bowler</b> (fine print). 1. <b>Warren Moon</b> Full Season Stats. Promote your website or business by sponsoring this page ...
p11
sg5
VWarren Moon - Pro-Football-Reference.com
p12
sa(dp13
g3
V... Pro Football Hall of Famer and nine-<b>time Pro Bowler Warren Moon</b> was honored Tuesday, Nov. 13, 2012 as a &quot;Hometown Hall of Famer\u2122&quot; by ...
p14
sg5
VWarren Moon honored as Hometown Hall of Famer\u2122 - YouTube
p15
sa(dp16
g3
V... Pro Football Hall of Famer and nine-<b>time Pro Bowler Warren Moon</b> was honored Tuesday, Nov. 13, 2012 as a \u201cHometown Hall of Famer\u2122\u201d by ...
p17
sg5
VWarren Moon honored as Hometown Hall of Famer - Pro Football ...
p18
sa(dp19
g3
VThen of course, there is <b>Warren Moon</b> himself, whose long list of impressive ... so <b>many</b> stars get together, these rising young stars are the real reason Warren ... This Hall of Famer was a four-<b>time Pro Bowler</b> and a &quot;member&quot; of the 10,000 ...
p20
sg5
V2012 Warren Moon Celebrity Dream Bowl - Spyder Digital Research
p21
sa(dp22
g3
V... In 1997, <b>Warren Moon</b> was a late addition to the <b>Pro</b> Bowl and ended ... because the only <b>times</b> more Seahawks went to the <b>Pro</b> Bowl came in ...
p23
sg5
VCan Russell Wilson follow in Warren Moon's Pro Bowl footsteps?
p24
sa(dp25
g3
VThis weekend was the <b>Warren Moon</b> Celevrity <b>Bowling</b> Event in Las Vegas. ... There was alot of celebrities there i had a great <b>time</b> plus it was my first <b>time</b> in ... for a bit) Always refreshing to see a <b>pro</b> athelete who hasn&#39;t let money and fame go ...
p26
sg5
VWarren Moon Celebrity Bowling Event - Yardbarker
p27
sa(dp28
g3
V... Sports 1 Marketing and <b>Warren Moon</b> are partnering with St Jude Children&#39;s ... Marshawn Lynch, as well as <b>many</b> other <b>Pro Bowlers</b> and Hall of ...
p29
sg5
VSports 1 Marketing, Warren Moon Partner with St. Jude Children's ...
p30
sa(dp31
g3
V... No matter how <b>many times Moon</b> reminded us that being black had nothing ... him to wide receiver, where he went on to become a <b>Pro Bowler</b>.
p32
sg5
VWarren Moon: The Trail Blazer | HeraldNet.com - Sports
p33
sa(dp34
g3
VOne of the most feared runners of all <b>time</b>, Brown is considered by <b>many</b> to be the ... Forced to beat back a racial stereotype, it took <b>Warren Moon</b> years to ... was an eight-<b>time Pro Bowler</b> who helped the Raiders win eight division titles and two ...
p35
sg5
VAbout Football - NFL Legends of the Game
p36
sa(dp37
g3
V... Led by six first-team All-Pro players, the Oilers were peaking. ... in 1993, which at the <b>time</b> was the most wins in franchise history. ... Butohbytheway, those departures were quarterback <b>Warren Moon</b>, and Mike ... Which is why the Oilers went from five All-Pros in 1993, to not even a single <b>Pro Bowler</b> in 1994.
p38
sg5
V1993-1994 Houston Oilers - ProFootballRosters.com
p39
sa(dp40
g3
V... Honored as three-<b>time Pro Bowler</b> <b>....</b> put on a football uniform at any position,&quot; former Houston Oilers quarterback <b>Warren Moon</b> said. ... of players and future quarterbacks, but he was the hero for kids in <b>many</b> neighborhoods.
p41
sg5
VSteve McNair shot four times, classified as homicide - ESPN
p42
sa(dp43
g3
VOn Sunday at Ford Field, the four-<b>time Pro Bowler</b> was named the MVP after helping ... Reggie White, Troy Aikman, Harry Carson, <b>Warren Moon</b>, Rayfield Wright ...
p44
sg5
VJohn Madden - ESPN.com
p45
sa(dp46
g3
V... Burnaby, BC \u2013 Due to an unforeseen personal matter, <b>Warren Moon</b> will ... As a professional, he was a six <b>time pro bowler</b>, a five <b>time</b> first team ...
p47
sg5
VSimon Fraser University - Eric Dickerson to replace Moon as ...
p48
sa(dp49
g3
V... Steve Hutchinson was a four-<b>time Pro Bowler</b> for the Vikes. ... QB <b>Warren Moon</b> \u2013 Bypassed by the NFL in 1978 when he came out of ...
p50
sg5
VNFL free-agency oddities: Poison pills, midnight strolling and ...
p51
sa(dp52
g3
V... Is Mike Vick the best black quarterback of all <b>time</b>? ... conform to the prototype of a pocket passer to be recognized as a solid <b>pro</b> that deserves ...
p53
sg5
VTop 5 Black Quarterbacks of All Time | Bleacher Report
p54
sa(dp55
g3
VHe was named a <b>Pro Bowler</b> eight <b>times</b>, six with the Vikings and one each as a member of the Falcons and 49ers. <b>....</b> <b>Warren Moon</b>, Quarterback, 1994-96 ...
p56
sg5
VMinnesota Vikings | Hall of Famers
p57
sa(dp58
g3
V... <b>Warren Moon</b> was very active during his stints in the CFL and NFL and now ... At the <b>time</b> that Warren was being scouted by the colleges across the United ... the draft, but despite the skills he portrayed on the field, <b>many</b> teams in the ... much for you to get that far in your <b>professional</b> career,\u201d explained <b>Moon</b>.
p59
sg5
VWarren Moon is genuine at heart | Pros Give Back
p60
sa(dp61
g3
VSeattle Seahawks All-Pros and <b>Pro Bowlers</b>. Regular ... Playoff Record (all-<b>time</b>) : 9-12 (Last appearance after 2012 season) ... <b>Warren Moon</b>, QB, 0, 1, 1997 ...
p62
sg5
VSeattle Seahawks All-Pros and Pro Bowlers - Pro-Football ...
p63
sa.