(lp1
(dp2
S'description'
p3
VThe <b>American Enterprise Institute</b> for Public Policy Research (AEI) is an <b>.....</b> briefing <b>President</b> Bush, <b>Vice President</b> Cheney, and othe <b>senior</b> Bush administration ...
p4
sS'title'
p5
VAmerican Enterprise Institute - Wikipedia, the free encyclopedia
p6
sa(dp7
g3
VAn executive vice president and chief credit officer for Fannie Mae until the late ... <b>Senior Vice President</b>, Marketing and Product Management, 1985-87; Vice ...
p8
sg5
VAEI - Scholars - Edward J. Pinto - American Enterprise Institute
p9
sa(dp10
g3
VThe <b>American Enterprise Institute</b> for Public Policy Research (AEI) is one of the ... W. Bush has appointed over a dozen people from AEI to <b>senior</b> positions in his ... Lynne Cheney, wife of <b>Vice President</b> Dick Cheney and former chair of the ...
p11
sg5
VAmerican Enterprise Institute | Right Wing Watch
p12
sa(dp13
g3
VAs a long-time Senate Committee on Foreign Relation <b>senior</b> professional staff ... As the <b>vice president</b> for foreign and defense policy studies at AEI, Pletka ...
p14
sg5
VAEI - Scholars - Danielle Pletka - American Enterprise Institute
p15
sa(dp16
g3
V<b>Vice President</b> Cheney&#39;s remarks at the <b>American Enterprise Institute</b>. Author: Richard B. Cheney Published May 21, 2009 ...
p17
sg5
VVice President Cheney's remarks at the American Enterprise Institute
p18
sa(dp19
g3
VThe <b>American Enterprise Institute</b> for Public Policy Research (AEI) is an <b>.....</b> Lynne Cheney, the wife of U.S. <b>Vice President</b> Dick Cheney, is an AEI <b>senior</b> fellow.
p20
sg5
VAmerican Enterprise Institute - SourceWatch
p21
sa(dp22
g3
V... <b>Senior</b> Fellow <b>American Enterprise Institute</b>-&gt;Public Opinion Studies ... <b>Vice</b> <b>President</b> &amp; Director <b>American Enterprise Institute</b>-&gt;National ...
p23
sg5
VAmerican Enterprise Institute Post-Election Analysis - C-SPAN Video ...
p24
sa(dp25
g3
VTo connect with <b>American Enterprise Institute</b>, sign up for Facebook today. <b>.....</b> The Republican Party&#39;s 2012 <b>vice presidential</b> candidate: Banks are getting really big, <b>.....</b> Paul Donner, George Kiourktsoglou, Forrest <b>Senior</b> and 4 others like this.
p26
sg5
VAmerican Enterprise Institute | Facebook
p27
sa(dp28
g3
VPrior to this, Ambassador Bolton was <b>Senior Vice President of the American</b> <b>Enterprise Institute</b> (AEI). He supervised the AEI research program, financial ...
p29
sg5
VKirkland & Ellis LLP > Bolton, John R.
p30
sa(dp31
g3
V... Danielle Pletka, the <b>Vice President</b> of Foreign and Defence Policy Studies at the <b>American Enterprise Institute</b>, and a former <b>senior</b> staff ...
p32
sg5
VDanielle Pletka, American Enterprise Institute, talks to Kasia about ...
p33
sa(dp34
g3
V... For that, we&#39;re joined by Joshua Muravchik, resident fellow at the <b>American</b> <b>Enterprise Institute</b>. John Bolton was <b>senior vice president</b> of that ...
p35
sg5
VPresident Bush Nominates John Bolton as U.S. Ambassador to U.N. ...
p36
sa(dp37
g3
V... <b>Vice President</b> Cheney will sit down at AEI for a conversation about 9/11, the decisions made since, ... <b>American Enterprise Institute</b> <b>....</b> Stephen F. Hayes is a <b>senior</b> writer at the Weekly Standard and author of two New York ...
p38
sg5
VA 9/11 Anniversary Conversation with Former Vice President ...
p39
sa(dp40
g3
V... current <b>president of the American Enterprise Institute</b>; and William Niskanen (1933-2011), ... Robert W. Hahn, <b>Senior</b> Visiting Fellow, Smith School, University of Oxford ... Jane S. Shaw, Executive <b>Vice President</b>, John William Pope Center for ...
p41
sg5
VAbout Regulation Magazine | Cato Institute
p42
sa(dp43
g3
VBolton&#39;s confirmation to the most senior administration post specifically tasked ... as <b>senior vice president</b> of the conservative <b>American Enterprise Institute</b> (AEI).
p44
sg5
VSenate Narrowly Confirms Bolton To Top Arms Control Post | Arms ...
p45
sa(dp46
g3
V... <b>American Enterprise Institute</b>: Safe house for Bush alumni. By Laurie ... Dick Cheney was a fellow at AEI before becoming <b>vice president</b>. He now ... John Bolton, former ambassador to the United Nations, now a <b>senior</b> fellow.
p47
sg5
VAmerican Enterprise Institute: Safe house for Bush alumni | Muckety ...
p48
sa(dp49
g3
V... <b>Vice President</b> for Foreign and Defense Policy Studies Danielle Pletka ... of the <b>American Enterprise Institute</b> discuss these and other questions ...
p50
sg5
VProgress in Afghanistan - American Enterprise Institute
p51
sa(dp52
g3
V<b>Senior Vice President</b> CoreLogic Dorado. Members: ... President, <b>American</b> <b>Enterprise Institute</b> ... CAO &amp; Executive Vice President, The Coca-Cola Company ...
p53
sg5
VAdvisory Board - Operation HOPE
p54
sa(dp55
g3
VKimberly O. Dennis, <b>Vice</b> Chairman ... <b>Vice President</b>, The Heritage Foundation. Officers ... Arthur C. Brooks is the <b>president of the American Enterprise Institute</b> (AEI). ... and <b>Senior</b> Fellow at the Pacific Research Institute for Public Policy in San ...
p56
sg5
VBoard of Directors - Donors Trust
p57
sa(dp58
g3
V... Former <b>Vice President</b> Dick Cheney, arguably one of the leading voices ... U.S. <b>Vice President</b> (2001-2009); <b>American Enterprise Institute</b>: Member <b>....</b> Prague with a <b>senior</b> Iraqi intelligence official five months before the attack, ...
p59
sg5
VRichard Cheney - Profile - Right Web - Institute for Policy Studies
p60
sa(dp61
g3
VHe served as a <b>senior</b> staff economist for the <b>President&#39;s</b> Council of Economic ... <b>Vice President</b>, Research, Milken <b>Institute</b>, 1991-98; <b>Senior</b> Economist, Arroyo ...
p62
sg5
VAEI - Scholars - Benjamin Zycher - American Enterprise Institute
p63
sa.