(lp1
(dp2
S'description'
p3
VQ141.2 (<b>Warren Moon) Where did Moon play in college</b>? Being Located. Location: Where. Competition. Participant: Moon. Answer: Warren Moon did not play at ...
p4
sS'title'
p5
VQuestion Answering with LCC's CHAUCER at TREC 2006
p6
sa(dp7
g3
VQ141.2 (<b>Warren Moon) Where did Moon play in college</b>? Being Located. Location: Where. Competition. Participant: Moon. Answer: Warren Moon did not play at ...
p8
sg5
VQuestion Answering with LCC's CHAUCER at TREC 2006
p9
sa.