(lp1
(dp2
S'description'
p3
V2\u20130 past. 172.1 The WTO has held meetings in what countries? ADDRESS. 1\u20131 present 143.5 <b>What is the zip code of the American Enterprise Institute</b>? NAME ...
p4
sS'title'
p5
VPDF file - ResearchGate
p6
sa(dp7
g3
V2\u20130 past. 172.1 The WTO has held meetings in what countries? ADDRESS. 1\u20131 present 143.5 <b>What is the zip code of the American Enterprise Institute</b>? NAME ...
p8
sg5
VPDF file - ResearchGate
p9
sa.