(lp1
(dp2
S'description'
p3
S'Seattle Seahawks Quarterback Warren Moon Says He May Not Return Next ... At '
p4
sS'title'
p5
S'Jet - Dec 28, 1998 - Jan 4, 1999 - Google Books Result'
p6
sa(dp7
g3
S'won-a-super-bowl'
p8
sg5
S'NFL History: The Top 25 Quarterbacks To Have Never Won a Super ...'
p9
sa(dp10
g3
S'all-time'
p11
sg5
S'The All-Time NFL Offensive Team of Undrafted Players | Bleacher ...'
p12
sa(dp13
g3
S"Memories from Pro Football's Greatest Era Tom Danyluk ... 81.5 passer rating 1) "
p14
sg5
S"The Super '70s: Memories from Pro Football's Greatest Era - Google Books Result"
p15
sa(dp16
g3
S'bowlers'
p17
sg5
S'Free Agent Additions Who Will Be Pro Bowlers | Bleacher Report'
p18
sa(dp19
g3
S'Such is surely the case with this tough Houston Oilers helmet that once belonged '
p20
sg5
S'HSC Sports Collectibles Dallas Auction Catalog #707 - Google Books Result'
p21
sa(dp22
g3
S'of-all-time-2/'
p23
sg5
S'The Top 10 Most Under-Appreciated NFL Players of All-Time'
p24
sa(dp25
g3
S'162 163 164 19510 Pro Bowl Signed Helmets (3l Offered in ... Helmet An offtcial '
p26
sg5
S'Heritage Sports Collectibles Signature Auction - Google Books Result'
p27
sa(dp28
g3
S'htm'
p29
sg5
S'Prime Time Athletes Hit the Del Mar Racetrack - Del Mar Scene'
p30
sa(dp31
g3
S'-best-pros'
p32
sg5
S'Why do so many standout USC QBs make mediocre (at best) pros ...'
p33
sa(dp34
g3
S'Warren Moon was one of the quarterbacks selected for the 1990 squad after ... '
p35
sg5
S'1990S NFL Flashback - Google Books Result'
p36
sa(dp37
g3
S'html'
p38
sg5
S'Best Football Players by Uniform Number Part 1 of 5 - Yahoo! Voices ...'
p39
sa(dp40
g3
S'/'
sg5
S"List of top undrafted players in history of each of the NFL's 32 teams ..."
p41
sa(dp42
g3
S'In 2003, he was inducted into the Pro Football Hall of Fame.* Another Oiler '
p43
sg5
S'The Power of a Name: The Origin of Professional Sports Team ... - Google Books Result'
p44
sa(dp45
g3
S'25-years'
p46
sg5
S'Top 25 Undrafted Free Agents in the NFL over the last 25 Years ...'
p47
sa(dp48
g3
S'-make-another-all-star-game'
p49
sg5
S"Pro Bowl 2012: 4 Pro Bowlers Who Shouldn't Make Another All-Star ..."
p50
sa(dp51
g3
S'pro-bowler-since-1970'
p52
sg5
S'Ranking Every Season of Each Jets One-Time Pro Bowler Since 1970'
p53
sa(dp54
g3
S'strolling-and-unwanted-qbs-turned-hall-of-famers--01251...'
p55
sg5
S'NFL free-agency oddities: Poison pills, midnight strolling and ...'
p56
sa(dp57
g3
S'Football_Hall_of_Fame_inductees'
p58
sg5
S'List of American Football Conference West Pro Football Hall of ...'
p59
sa(dp60
g3
S'Football_Hall_of_Fame_inductees'
p61
sg5
S'List of National Football Conference North Pro Football Hall of Fame ...'
p62
sa(dp63
g3
S'of-all-time'
p64
sg5
S'NFL Draft 2011: The 25 Best Undrafted Players of All Time ...'
p65
sa(dp66
g3
S'think'
p67
sg5
S"These Are the Candidates for Madden NFL's Cover This Year\xe2\x80\x94I Think"
p68
sa(dp69
g3
S'playing-in-their-last-all-star-game'
p70
sg5
S'Pro Bowl 2012: 5 Pro Bowlers That Are Playing in Their Last All-Star ...'
p71
sa(dp72
g3
S'super-bowl'
p73
sg5
S'Ranking the 20 Best Players to Never Win a Super Bowl | Bleacher ...'
p74
sa(dp75
g3
S'first-black-men'
p76
sg5
S'Another Barrier Falls Cunningham, Moon 1st Black Qbs To Start Pro ...'
p77
sa(dp78
g3
S'-nfl-history'
p79
sg5
S'The 25 Best Undrafted Free-Agent Signings in NFL History ...'
p80
sa(dp81
g3
S'could-be-nfl-pro-bowlers-in-2012'
p82
sg5
S'2011 NFL Draft: 10 College Prospects Who Could Be NFL Pro ...'
p83
sa(dp84
g3
S'played-in-a-super-bowl'
p85
sg5
S'The Top 15 NFL Hall of Famers Who Never Played in a Super Bowl ...'
p86
sa(dp87
g3
S'today'
p88
sg5
S'The Top 25 Undrafted Players in the NFL Today | Bleacher Report'
p89
sa(dp90
g3
S'tennessee-titans-of-all-time'
p91
sg5
S'AFC South Time Machine: The 10 Best Tennessee Titans of All Time ...'
p92
sa(dp93
g3
S'Hall_of_Fame.pdf'
p94
sg5
S'Tennessee Titans 2012 Media Guide History - NFL.com'
p95
sa(dp96
g3
S'php'
p97
sg5
S'Top undrafted players in NFL history - San Antonio Express-News'
p98
sa.