(lp1
(dp2
S'description'
p3
S'your-dream/'
p4
sS'title'
p5
S"Q. & A. With Warren Moon: 'Never Give Up on Your Dream ..."
p6
sa(dp7
g3
S'-of-the-greatest-in-nfl-history'
p8
sg5
S"Why Warren Moon's Underrated Career Is One of the Greatest in ..."
p9
sa(dp10
g3
S'hell-up.html'
p11
sg5
S'Can Warren Moon do everyone a favor and shut the hell up? - Sports ...'
p12
sa(dp13
g3
S'newton-is-racist/'
p14
sg5
S'Ex-Seahawk Warren Moon says criticism of Cam Newton is racist ...'
p15
sa(dp16
g3
S'past-043101337--nfl.html'
p17
sg5
S"Warren Moon's mentorship helps Russell Wilson move past calls for ..."
p18
sa(dp19
g3
S'cam-newton/'
p20
sg5
S'Warren Moon sees racial bias regarding Cam Newton ...'
p21
sa(dp22
g3
S'race-also-fuels-criticism/'
p23
sg5
S"Warren Moon Says Cam Newton Needs to 'Grow Up' But Believes ..."
p24
sa(dp25
g3
S'57358.html'
p26
sg5
S'Warren Moon, First Afro-American Quarterback Inducted into the Pro ...'
p27
sa(dp28
g3
S'mini-helmets/'
p29
sg5
S'Autographed Warren Moon Mini Helmets | NFL Signed Mini Helmet'
p30
sa(dp31
g3
S'famers'
p32
sg5
S'Warren Moon talks "Hometown Hall of Famers," his career at UW, in ...'
p33
sa(dp34
g3
S'black-qb-you-have-no-idea/'
p35
sg5
S'Warren Moon: \xe2\x80\x9cUnless you have been a black QB, you have no idea ...'
p36
sa(dp37
g3
S'photos/'
p38
sg5
S'Autographed Warren Moon Photos | NFL Signed Photo, Picture, Pic'
p39
sa(dp40
g3
S'op?...'
p41
sg5
S"Warren Moon, Cam Newton and the CFL's land of opportunity - Yahoo!"
p42
sa(dp43
g3
S'comes-to-pryors-defense'
p44
sg5
S"Terrelle Pryor: Hall of Fame QB Warren Moon Comes to Pryor's ..."
p45
sa(dp46
g3
S'legend-warren-moon/'
p47
sg5
S"TESM's Interview With NFL Legend Warren Moon | The Everyday ..."
p48
sa(dp49
g3
S'football'
p50
sg5
S'Where did Warren Moon play his college football? - Cannabis Quitter'
p51
sa(dp52
g3
S'base-possibly-racist/'
p53
sg5
S'Moon thinks criticism of Newton is off-base, possibly racist ...'
p54
sa(dp55
g3
S'8203653.html'
p56
sg5
S'I Didn\'t Know Being Critical of a Quarterback was "Blatant Racism ...'
p57
sa(dp58
g3
S'racial-bias'
p59
sg5
S'Warren Moon: Criticism of Cam Newton has racial undertones - NFL ...'
p60
sa(dp61
g3
S'take'
p62
sg5
S"Warren Moon: It's 'hard to figure out' whom Panthers will take - NFL ..."
p63
sa(dp64
g3
S'i-told-you-so-but/'
p65
sg5
S'Warren Moon on Cam Newton: I hate to say I told you so, but ...'
p66
sa(dp67
g3
S'newton/'
p68
sg5
S'Moon, Nawrocki continue to debate Cam Newton | ProFootballTalk'
p69
sa(dp70
g3
S'-should-check-out-the-cfl'
p71
sg5
S'Stapled Cleats and Warren Moon: Why NFL Fans Should Check Out ...'
p72
sa(dp73
g3
S'enshrined-in-football-hall-of-fame.html'
p74
sg5
S'Warren Moon First Black Quarterback Enshrined in Football Hall of ...'
p75
sa.