(lp1
(dp2
S'description'
p3
S'past-043101337--nfl.html'
p4
sS'title'
p5
S"Warren Moon's mentorship helps Russell Wilson move past calls for ..."
p6
sa(dp7
g3
S'-of-the-greatest-in-nfl-history'
p8
sg5
S"Why Warren Moon's Underrated Career Is One of the Greatest in ..."
p9
sa(dp10
g3
S'cam-newton/'
p11
sg5
S'Warren Moon sees racial bias regarding Cam Newton ...'
p12
sa(dp13
g3
S'183314961.html'
p14
sg5
S'Warren Moon, Stephen A. Smith and Skip Bayless agree: Tim ...'
p15
sa(dp16
g3
S'alcoholism'
p17
sg5
S"Former super-agent Leigh Steinberg's battle back from bankruptcy ..."
p18
sa(dp19
g3
S'moon.html'
p20
sg5
S"PRO FOOTBALL; Vikings Near On a Deal To Acquire Oilers' Moon ..."
p21
sa(dp22
g3
S'his-mistakes/'
p23
sg5
S"Warren Moon Hopes Current NFL Players Don't Repeat His Mistakes"
p24
sa(dp25
g3
S'in-nfl.html'
p26
sg5
S'SPORTS PEOPLE: FOOTBALL; Moon Says New Pact Is Richest in ...'
p27
sa(dp28
g3
S'football-career-and-the-qb-position/'
p29
sg5
S'Hall of Fame Quarterback Warren Moon talks football career and the ...'
p30
sa(dp31
g3
S'-/'
p32
sg5
S'Former NFL quarterback Warren Moon helping students give back to ...'
p33
sa(dp34
g3
S'base-possibly-racist/'
p35
sg5
S'Moon thinks criticism of Newton is off-base, possibly racist ...'
p36
sa(dp37
g3
S'93003414'
p38
sg5
S'Announcement from Sports 1 Marketing & Warren Moon | LinkedIn'
p39
sa(dp40
g3
S'To_Play_In_CFL/'
p41
sg5
S"Warren Moon: Tim Tebow Can't Throw Well Enough To Play In CFL ..."
p42
sa(dp43
g3
S'race-also-fuels-criticism/'
p44
sg5
S"Warren Moon Says Cam Newton Needs to 'Grow Up' But Believes ..."
p45
sa(dp46
g3
S'warren-moon/'
p47
sg5
S'Minnesota Vikings pursuing Brett Favre and Warren Moon - WCSN ...'
p48
sa(dp49
g3
S'black-qb-you-have-no-idea/'
p50
sg5
S'Warren Moon: \xe2\x80\x9cUnless you have been a black QB, you have no idea ...'
p51
sa(dp52
g3
S'up-to-his-past/'
p53
sg5
S'Warren Moon advises Cam Newton to \xe2\x80\x9cface up to\xe2\x80\x9d his past ...'
p54
sa(dp55
g3
S'1881220.php'
p56
sg5
S'Warren Moon becomes first black quarterback in Hall of Fame ...'
p57
sa(dp58
g3
S'race-related/'
p59
sg5
S'Warren Moon Blames Race In Regards To Cam Newton Criticism'
p60
sa(dp61
g3
S'comes-to-pryors-defense'
p62
sg5
S"Terrelle Pryor: Hall of Fame QB Warren Moon Comes to Pryor's ..."
p63
sa(dp64
g3
S'comments-wont-help-panthers-qb'
p65
sg5
S"Cam Newton: Warren Moon's Controversial Comments Won't Help ..."
p66
sa(dp67
g3
S'entrepreneur/'
p68
sg5
S'Warren Moon Enjoying Life as Sportscaster, Business Entrepreneur'
p69
sa(dp70
g3
S'throw-tim-play.htm'
p71
sg5
S"Warren Moon on Tebow: Quarterback Can't Make It In CFL Because ..."
p72
sa.