(lp1
(dp2
S'description'
p3
S'quarterback-cfl-1920553/'
p4
sS'title'
p5
S'Warren Moon questions whether Tim Tebow can play quarterback in ...'
p6
sa(dp7
g3
S'newton-s-case'
p8
sg5
S"Warren Moon's racist comments not helping Cam Newton's case ..."
p9
sa(dp10
g3
S'To_Play_In_CFL/'
p11
sg5
S"Warren Moon: Tim Tebow Can't Throw Well Enough To Play In CFL ..."
p12
sa(dp13
g3
S'3778796.php'
p14
sg5
S'NFL Hall of Famer Warren Moon and Nesby Glasgow Raise ...'
p15
sa(dp16
g3
S'57358.html'
p17
sg5
S'Warren Moon, First Afro-American Quarterback Inducted into the Pro ...'
p18
sa(dp19
g3
S'-should-check-out-the-cfl'
p20
sg5
S'Stapled Cleats and Warren Moon: Why NFL Fans Should Check Out ...'
p21
sa(dp22
g3
S'html'
p23
sg5
S'Hall of Fame Receipient, Warren Moon Arrested for DUI - Yahoo ...'
p24
sa(dp25
g3
S'newton-is-portrayed-in-the-media'
p26
sg5
S'Warren Moon: Does Race Factor in How Cam Newton Is Portrayed ...'
p27
sa(dp28
g3
S'Wilson'
p29
sg5
S'Warren Moon: Loosen the reins on Russell Wilson - MyNorthwest.com'
p30
sa(dp31
g3
S'hell-up-2.html'
p32
sg5
S'Can Warren Moon do everyone a favor and shut the hell up? - Page 2 ...'
p33
sa(dp34
g3
S'My Journey: Easyread Large Edition Warren Moon ... University of Washington, '
p35
sg5
S'Never Give Up on Your Dream: My Journey: Easyread Large Edition - Google Books Result'
p36
sa(dp37
g3
S'THAT-S-RACIST!'
p38
sg5
S"Warren Moon: crticizing Cam Newton? THAT'S RACIST! - Shaggybevo"
p39
sa(dp40
g3
S'donovan-mcnabb/'
p41
sg5
S'Warren Moon unloads on Eagles regarding Donovan McNabb ...'
p42
sa(dp43
g3
S'-woods/'
p44
sg5
S"Warren Moon's Ex-Wife Arrested For Having Sex In The Woods ..."
p45
sa(dp46
g3
S'history-harold-warren-moon/'
p47
sg5
S'November 18th in African American History \xe2\x80\x93 Harold Warren Moon'
p48
sa(dp49
g3
S'worth'
p50
sg5
S'How much is a Warren Moon rookie football card worth? | ChaCha'
p51
sa(dp52
g3
S'earL CaMPBeLL Running Back \xe2\x80\xa2 Born: 3/29/1955 \xe2\x80\xa2 Played for Team: 1978 To ... '
p53
sg5
S'The Tennessee Titans - Google Books Result'
p54
sa(dp55
g3
S'Hall of Fame Players: Earl Campbell, Bruce Matthews, Warren Moon and Mike ... '
p56
sg5
S'NFL Head Coaches: A Biographical Dictionary, 1920-2011 - Google Books Result'
p57
sa(dp58
g3
S'ten-best-black-quarterbacks/'
p59
sg5
S'Warren Moone, NFL Top 10 Quarterbacks |'
p60
sa(dp61
g3
S'irvin-warren-moon'
p62
sg5
S'Michael Irvin Warren Moon Rayfield Wright Gary Zimmerman Art Monk'
p63
sa(dp64
g3
S'-benefit/'
p65
sg5
S"Cam Newton's interview at Warren Moon's benefit - Carolina ..."
p66
sa(dp67
g3
S'-yardage'
p68
sg5
S"43-year-old grandfather surpasses Warren Moon's passing ... - Fark"
p69
sa(dp70
g3
S'played-gay-teammates.html'
p71
sg5
S'Hall of Fame quarterback Warren Moon says he played with gay ...'
p72
sa(dp73
g3
S'-act-field-1709740/'
p74
sg5
S"Warren Moon's Ex-Wife Felicia Arrested for Performing $ex Act in a ..."
p75
sa.