(lp1
(dp2
S'description'
p3
S'move-past-043101337--nfl.html'
p4
sS'title'
p5
S"Warren Moon's mentorship helps Russell Wilson move past calls for ..."
p6
sa(dp7
g3
S'moon'
p8
sg5
S'The Daily Norseman Interview With Warren Moon - Daily Norseman'
p9
sa(dp10
g3
S'option-out-warren-moon.htm'
p11
sg5
S'Tim Tebow Rumors: Canadian Football League Option Out Says ...'
p12
sa(dp13
g3
S'played-with-gay-teammates'
p14
sg5
S'Hall of Fame quarterback Warren Moon says he played with gay ...'
p15
sa(dp16
g3
S'cam-newton-is-racist/'
p17
sg5
S'Ex-Seahawk Warren Moon says criticism of Cam Newton is racist ...'
p18
sa(dp19
g3
S'i-told-you-so-but/'
p20
sg5
S'Warren Moon on Cam Newton: I hate to say I told you so, but ...'
p21
sa(dp22
g3
S'young-racial-bias'
p23
sg5
S'Warren Moon: Criticism of Cam Newton has racial undertones - NFL ...'
p24
sa(dp25
g3
S'good.html'
p26
sg5
S'Warren Moon says Tebow not good enough for the CFL - VolNation'
p27
sa(dp28
g3
S'black-qb-you-have-no-idea/'
p29
sg5
S'Warren Moon: \xe2\x80\x9cUnless you have been a black QB, you have no idea ...'
p30
sa(dp31
g3
S'base-possibly-racist/'
p32
sg5
S'Moon thinks criticism of Newton is off-base, possibly racist ...'
p33
sa(dp34
g3
S'famer/'
p35
sg5
S'Warren Moon honored as Hometown Hall of Famer - Pro Football ...'
p36
sa(dp37
g3
S'cfl'
p38
sg5
S"Warren Moon on Tebow: He likely won't make it in the CFL ..."
p39
sa(dp40
g3
S'seahawks-starter/'
p41
sg5
S'Pro Football Zone | Warren Moon believes Matt Flynn will be the ...'
p42
sa(dp43
g3
S'hell-up.html'
p44
sg5
S'Can Warren Moon do everyone a favor and shut the hell up? - Sports ...'
p45
sa(dp46
g3
S'famers'
p47
sg5
S'Warren Moon talks "Hometown Hall of Famers," his career at UW, in ...'
p48
sa(dp49
g3
S'-race-related/'
p50
sg5
S'Warren Moon Blames Race In Regards To Cam Newton Criticism'
p51
sa(dp52
g3
S'cam-newton/'
p53
sg5
S'Warren Moon sees racial bias regarding Cam Newton ...'
p54
sa(dp55
g3
S'-third-string.html'
p56
sg5
S'Warren Moon understands why Tarvaris Jackson is third string ...'
p57
sa(dp58
g3
S'legend-warren-moon/'
p59
sg5
S"TESM's Interview With NFL Legend Warren Moon | The Everyday ..."
p60
sa(dp61
g3
S'8203653.html'
p62
sg5
S'I Didn\'t Know Being Critical of a Quarterback was "Blatant Racism ...'
p63
sa(dp64
g3
S'your-dream/'
p65
sg5
S"Q. & A. With Warren Moon: 'Never Give Up on Your Dream ..."
p66
sa(dp67
g3
S'moon.html'
p68
sg5
S"PRO FOOTBALL; Vikings Near On a Deal To Acquire Oilers' Moon ..."
p69
sa(dp70
g3
S'says'
p71
sg5
S"Andrew Luck 'doesn't have any weaknesses,' Warren Moon says ..."
p72
sa(dp73
g3
S'-tebow-either'
p74
sg5
S'Warren Moon Says the CFL May Not Be For Tim Tebow Either ...'
p75
sa(dp76
g3
S'op?...'
p77
sg5
S"Warren Moon, Cam Newton and the CFL's land of opportunity - Yahoo!"
p78
sa(dp79
g3
S'remembers-team-like-family'
p80
sg5
S'Edmonton Eskimos great Warren Moon remembers team like family ...'
p81
sa(dp82
g3
S'claim-of-racial-bias/'
p83
sg5
S"Nolan Nawrocki responds to Warren Moon's claim of racial bias ..."
p84
sa(dp85
g3
S'comes-to-pryors-defense'
p86
sg5
S"Terrelle Pryor: Hall of Fame QB Warren Moon Comes to Pryor's ..."
p87
sa(dp88
g3
S'of-sports-1-marketing'
p89
sg5
S'Hall of Fame QB Warren Moon Announces Creation of Sports 1 ...'
p90
sa(dp91
g3
S'newton-is-portrayed-in-the-media'
p92
sg5
S'Warren Moon: Does Race Factor in How Cam Newton Is Portrayed ...'
p93
sa(dp94
g3
S'enshrined-in-football-hall-of-fame.html'
p95
sg5
S'Warren Moon First Black Quarterback Enshrined in Football Hall of ...'
p96
sa.