(lp1
(dp2
S'description'
p3
S'Constructing-Gender-Power-and-the-Nation-in-Postliberalization-In...'
p4
sS'title'
p5
S'Making Miss India Miss World: Constructing Gender, Power, and the ...'
p6
sa(dp7
g3
S'Constructing-Gender-Power-and-the-Nation-in-Postliberalization-In...'
p8
sg5
S'Making Miss India Miss World: Constructing Gender, Power, and the ...'
p9
sa.