ccollections
Counter
p1
((dp2
Vu.s. torpedoed
p3
I9
sVcruisers game midway
p4
I5
sVchinese
p5
I1
sVcaused
p6
I4
sVdisaster \u2013
p7
I23
sVmini-sub crew
p8
I29
sVnet services
p9
I3
sVfour
p10
I1
sVsunk
p11
I3
sV's chaos
p12
I12
sV13 both u.s. torpedoed
p13
I10
sVmilitary photos
p14
I5
sVrockets and torpedoes
p15
I7
sVcauses
p16
I1
sVtest 'blew sub
p17
I20
sVcatastrophe
p18
I4
sVcrew remained
p19
I32
sVrt news
p20
I18
sV10 apr 2013
p21
I6
sVpride
p22
I2
sVtorpedo test 'blew
p23
I14
sVsupreme
p24
I1
sVreally sank k-141
p25
I33
sVtwentieth
p26
I1
sVrescue
p27
I16
sV're at our base
p28
I3
sVhorror
p29
I1
sVtorpedo test
p30
I13
sVgathering ahead
p31
I3
sVrescue capsule ca n't
p32
I22
sVadmiral viktor
p33
I5
sVnuclear-powered
p34
I4
sVdiary
p35
I1
sVsurvivors found
p36
I9
sVabcnews they believe
p37
I3
sVboard a viktor-iii class
p38
I103
sVrescue ship
p39
I23
sVnine days
p40
I4
sVnavy books
p41
I26
sVdisaster narrowly averted
p42
I20
sVtorpedo section
p43
I13
sVlist
p44
I1
sVlieutenant on board
p45
I88
sV53 sailors on board
p46
I93
sVlarge
p47
I1
sVaaa net
p48
I3
sVsmall
p49
I2
sVsank
p50
I21
sVfree press
p51
I7
sVus-soviet arms
p52
I3
sVhappened exactly 10 years
p53
I8
sVsink.
p54
I2
sVuss thresher
p55
I10
sVefforts to save
p56
I4
sVefforts to salvage
p57
I7
sVway to scrap yard
p58
I8
sVn't
p59
I3
sVcaptain
p60
I1
sVmemorial page
p61
I4
sVboard were lost.
p62
I88
sVlargely destroyed
p63
I4
sVsun
p64
I3
sVpoisonous
p65
I1
sVoscar ii class
p66
I21
sVliberty
p67
I2
sVcapsule ca n't link
p68
I8
sVspokesman
p69
I1
sVsub largely
p70
I19
sVdestroyed
p71
I2
sVnew
p72
I3
sVnet
p73
I1
sVbrought four bodies
p74
I10
sVadmiral
p75
I2
sVsink. plight
p76
I5
sVarctic. a decommissioned
p77
I6
sV\u0443
I1
sVrepercussions after 20
p78
I6
sVchristian
p79
I1
sVtags
p80
I1
sVdiscusses efforts
p81
I4
sVmen
p82
I11
sVboard--instead
p83
I1
sVanswers
p84
I1
sVmet
p85
I1
sVfree
p86
I5
sVglobalsecurity.org
p87
I1
sVaftermath
p88
I1
sVwar ii
p89
I5
sVrussia \u2019
p90
I18
sVevery small business better
p91
I7
sVnaval
p92
I3
sVahead
p93
I1
sVofficials gave
p94
I6
sVgreat loss
p95
I7
sVlike many
p96
I3
sVpics
p97
I1
sVsubmarino kurks
p98
I3
sVpublished
p99
I1
sVmilitary
p100
I3
sVaccident involving
p101
I16
sVreactors
p102
I2
sVkilling 9 crew members
p103
I48
sVus-soviet arms race
p104
I4
sVmembers
p105
I12
sVboard. it sank
p106
I27
sVseven
p107
I1
sVbrought
p108
I3
sVput
p109
I1
sVbook 2004
p110
I4
sVguests
p111
I1
sVdrowned
p112
I1
sVmoscow \u2014 u.s.
p113
I12
sVunit
p114
I2
sVaugust 12
p115
I12
sVwould
p116
I4
sVarmy
p117
I1
sVwould have given
p118
I8
sVcrew remained inside
p119
I33
sVcentury
p120
I2
sVarms
p121
I1
sVbellona
p122
I1
sVsank russia \u2019
p123
I39
sVtelegraph
p124
I2
sVunit based
p125
I4
sVexactly 10 years
p126
I6
sVthreat denied
p127
I3
sVtell
p128
I1
sVhelps
p129
I1
sVwhatever secret
p130
I6
sVholy
p131
I1
sVbrings
p132
I1
sV99
p133
I2
sVtested
p134
I1
sVboard able
p135
I88
sVsurface
p136
I1
sV\u0438
I1
sVflotilla
p137
I1
sVnuclear reactors
p138
I63
sV95
p139
I1
sVbodies recovered from sunken
p140
I18
sV1991
p141
I1
sVroom
p142
I3
sVdocstoc
p143
I2
sVaccident on board
p144
I102
sVrecall
p145
I2
sVtell abcnews
p146
I3
sVevery small
p147
I6
sVsub tragedy remembered
p148
I25
sVallow people on board
p149
I93
sVtheories
p150
I2
sVviktor fyodorov as saying
p151
I5
sVnine
p152
I1
sVsent
p153
I1
sVlearn
p154
I1
sVtender with dsrv
p155
I9
sVsalvage
p156
I4
sVgustloff
p157
I1
sVhistory
p158
I2
sVexplosion on board
p159
I95
sVk-84
p160
I2
sV118 crew on board
p161
I132
sVstated
p162
I1
sVdays
p163
I2
sVcrippled sub largely
p164
I21
sVindia
p165
I1
sVdisaster accident
p166
I32
sVstates
p167
I1
sVdocstoc \u2013
p168
I9
sVpublish a list
p169
I3
sVwrecked nuclear
p170
I62
sVofficial has backed
p171
I4
sVnarrowly
p172
I1
sVaccidents since
p173
I10
sVrecovery
p174
I1
sVkilling all but 23
p175
I10
sVbreaking
p176
I2
sVwaddle 's
p177
I13
sVkilling 9 crewmen
p178
I13
sVideologue
p179
I1
sV10 apr 2013 nuclear
p180
I66
sVdsrv
p181
I3
sVtrident
p182
I1
sVtried
p183
I1
sV\u2018 totally extinguished \u2019
p184
I9
sVdamaged
p185
I1
sVleft russia
p186
I15
sV\u043c \u0443 \u0440 \u043c
p187
I7
sV118 people
p188
I25
sVtorpedo \u2014
p189
I15
sVpresident
p190
I1
sVmembers on board
p191
I105
sVbleak
p192
I1
sV23 men
p193
I15
sVleft russia on \u2018
p194
I17
sVnarrowly averted
p195
I3
sVthird
p196
I1
sVdescends
p197
I1
sV\u043d \u0441 \u043a \u0438
p198
I5
sVrussia nuclear
p199
I74
sV\u2014 u.s. military
p200
I14
sVamerican hit
p201
I6
sVevery
p202
I2
sVfire put
p203
I12
sVorder
p204
I2
sVvladimir kuroedov
p205
I6
sVsink. this oscar
p206
I5
sVshocking true
p207
I3
sVdreamed
p208
I1
sV'hitting
p209
I2
sVleast 20
p210
I10
sV9 crewmen
p211
I7
sVsetback
p212
I1
sVscott
p213
I2
sVkremlin ideologue
p214
I3
sVjerry pournelle 's chaos
p215
I14
sVturbine
p216
I2
sVsuffer
p217
I1
sVnuclear reactor that caused
p218
I66
sV25
p219
I1
sV26
p220
I1
sV20
p221
I4
sV21
p222
I2
sV23
p223
I2
sV28
p224
I1
sVdivers brought four bodies
p225
I13
sVactually
p226
I1
sVsurvivors
p227
I5
sVchinadaily us
p228
I14
sVreuters
p229
I2
sVnavy announced
p230
I26
sVfade
p231
I1
sVboard has sunk
p232
I90
sVfiremen battled
p233
I4
sVgood
p234
I1
sVdied
p235
I3
sVkilling up to 95
p236
I8
sVcruise missile
p237
I8
sVkilling all 118 crewmembers
p238
I29
sVinventors succeeded
p239
I3
sVmissile firing
p240
I10
sVrecover hull
p241
I3
sV10 crew
p242
I30
sVworld war ii
p243
I15
sVnuclear reactor
p244
I62
sValways
p245
I1
sVfirst days
p246
I5
sVtorpedo exploded on board
p247
I99
sVmen perished
p248
I15
sVdie
p249
I2
sVrescue stranded mini-sub crew
p250
I47
sVfound
p251
I2
sVshocking
p252
I1
sVreactors still on board
p253
I90
sVtried to reconstruct
p254
I3
sVgennady
p255
I1
sVinfo on 1968 sub
p256
I21
sVnewspaper articles and electronic
p257
I5
sVhard
p258
I1
sVaide
p259
I1
sVofficials have continued
p260
I6
sVfrancis a.
p261
I3
sVnavy
p262
I24
sVoperation
p263
I4
sVbeyond
p264
I1
sVcrew members and causing
p265
I42
sVreally
p266
I1
sVrt
p267
I1
sVsea. we would
p268
I6
sVviews
p269
I1
sVsince
p270
I2
sVapr 2013 nuclear
p271
I63
sVpublish
p272
I1
sVcollides with cargo
p273
I3
sVrace
p274
I1
sVnorthern fleet
p275
I11
sV7
I2
sVaccidents since 1991
p276
I11
sVangeles times
p277
I6
sVkuroyodev stated
p278
I3
sVnavy 's
p279
I36
sVlast august
p280
I11
sVtimeline
p281
I4
sVu.s.
p282
I7
sVwaddle
p283
I2
sVoscar ii
p284
I6
sVbase
p285
I1
sVattempted and failed
p286
I3
sVamazon.com
p287
I1
sV12,770 tons
p288
I3
sVrussia scrambles to rescue
p289
I31
sVsource claims
p290
I3
sVviktor-iii
p291
I1
sVrescue stranded mini-sub
p292
I21
sV7 admiral vladimir
p293
I9
sVhull
p294
I1
sVdied a slow death
p295
I8
sVpravda.ru
p296
I1
sVbritish lr5
p297
I5
sVamerican
p298
I4
sVabcnews they believe half
p299
I4
sVthreat
p300
I1
sVdocumentary video
p301
I4
sVwatery grave
p302
I3
sVtop
p303
I1
sVmajor
p304
I1
sValready
p305
I1
sVfeatures
p306
I1
sVtragedy remembered
p307
I8
sV\u0430 \u043d \u0441 \u043a
p308
I5
sV-in-chief
p309
I1
sVii nuclear
p310
I64
sVcrew members on board
p311
I129
sVsailor
p312
I1
sVleast
p313
I3
sVelectronic
p314
I1
sVrescue crew
p315
I43
sVbad weather
p316
I4
sVstory
p317
I1
sVinsisted
p318
I1
sVus helps
p319
I12
sVnuclear powered
p320
I64
sVdemocracy tested
p321
I3
sVrussia 's uss
p322
I31
sVintroduction
p323
I1
sVbleak calculations
p324
I3
sVwaters around
p325
I3
sVadm. viktor
p326
I5
sVapproximately
p327
I1
sVhappened exactly 10
p328
I7
sVcalculations
p329
I1
sV2006 \u2013 a fire
p330
I17
sVcompartment
p331
I2
sVstore
p332
I1
sVnuclear waste
p333
I62
sVpacific fleet
p334
I12
sVtrapped
p335
I4
sVexploded
p336
I1
sVoscar-ii
p337
I6
sVscott waddle 's
p338
I15
sVtyphoon
p339
I1
sVleast 20 men
p340
I19
sVseven crew
p341
I28
sVchinadaily
p342
I2
sVbelieve
p343
I1
sVexplodes
p344
I1
sVking
p345
I1
sV\u043a
I1
sVaaa
p346
I1
sVtarget
p347
I2
sVyear ago
p348
I4
sVproject
p349
I1
sVdetermined
p350
I1
sVrisks
p351
I1
sVcloud 9 internet
p352
I6
sVremembers
p353
I1
sVworld \u2019
p354
I16
sVbetter
p355
I1
sVthree months
p356
I3
sVviktor-3 class
p357
I21
sVplayed target
p358
I6
sVocean
p359
I2
sV7 admiral
p360
I5
sVsank k-141
p361
I32
sVaffairs
p362
I1
sVwhatever secret remains
p363
I7
sVu.s
p364
I1
sV1968
p365
I1
sVocean graveyard
p366
I4
sVwent down map
p367
I4
sV\u201d
I2
sVofficers
p368
I2
sVleast 20 men died
p369
I22
sVcrews
p370
I1
sVcausing
p371
I3
sVchairman
p372
I2
sVforces
p373
I1
sVfinding
p374
I2
sVofficers and crew
p375
I29
sVkremlin
p376
I1
sVbarents
p377
I10
sVaired
p378
I2
sV\u043c \u0443 \u0440
p379
I5
sVdivers have determined
p380
I5
sV7.
p381
I1
sV\u0443 \u0440 \u043c
p382
I5
sVmother
p383
I1
sVinvolving
p384
I1
sVten crew
p385
I28
sVdisaster narrowly
p386
I19
sVgrave
p387
I1
sVsub
p388
I17
sVchronicle
p389
I1
sVrescue stranded
p390
I19
sVclear
p391
I1
sVnaval accidents
p392
I11
sVsince 1991
p393
I4
sVdefinitely
p394
I1
sVmartin center
p395
I3
sV\u0443 \u0440
p396
I3
sVsection
p397
I1
sVrescue crew trapped
p398
I47
sVscience
p399
I1
sVsaying
p400
I1
sVk-159
p401
I4
sVreactor
p402
I1
sVcruiser
p403
I2
sVuss thresher sank 50
p404
I31
sVnuclear warheads on board
p405
I149
sVbarents sea
p406
I31
sVnavy commander-in
p407
I27
sV\u2018
I2
sVheadlines
p408
I1
sVoscar-ii class
p409
I27
sVkilled all 118 men
p410
I33
sVoperation gears
p411
I8
sVinfo on 1968
p412
I4
sVnorthern
p413
I2
sVcrew rescued in pacific
p414
I31
sVsection could
p415
I3
sVfailed
p416
I1
sVidiots
p417
I1
sVexplosion in torpedo
p418
I20
sVtorpedo section could
p419
I14
sV8
I1
sVadmiral vladimir
p420
I7
sVinnovation
p421
I1
sV\u0440
I1
sVhit
p422
I1
sVnews and comment
p423
I18
sVarctic.
p424
I2
sVyoung idiots
p425
I3
sVcapsule
p426
I1
sVrussia info on 1968
p427
I17
sVcnn.com
p428
I3
sVrussia on \u2018
p429
I16
sVreport
p430
I2
sVreconstruct
p431
I1
sVviktor fyodorov
p432
I4
sVunited states 10
p433
I6
sV14
p434
I1
sVs03e03
p435
I2
sVship and tender
p436
I10
sVvessel and played target
p437
I7
sVlos angeles times
p438
I8
sVcry
p439
I1
sVaired august
p440
I11
sVbusiness better
p441
I3
sVbad
p442
I2
sVcommon
p443
I1
sVgood we 're
p444
I3
sVten crew on board
p445
I114
sVstranded mini-sub crew
p446
I31
sVvarious theories
p447
I4
sVdisaster
p448
I17
sVobserver
p449
I1
sVintelligence
p450
I1
sVcrewmen
p451
I3
sVtorpedo on board
p452
I99
sVrussia on \u2018 brink
p453
I17
sVresult
p454
I1
sVsea
p455
I12
sVduma
p456
I2
sVtender
p457
I3
sVexplosion
p458
I7
sVturtle attempted and failed
p459
I4
sVpublished photo
p460
I4
sVus nuclear
p461
I72
sVdefends
p462
I1
sVsaid
p463
I2
sVmini-submarine rescue
p464
I18
sV\u201c excellent \u201d missile
p465
I16
sV118 sailors trapped aboard
p466
I32
sVambitions
p467
I1
sVscrap
p468
I2
sVjerry pournelle
p469
I3
sVwikipedia
p470
I2
sVapr 2013
p471
I3
sVmen died on board
p472
I101
sVmake every
p473
I6
sVmade bleak
p474
I3
sVninety-nine
p475
I1
sVstranded mini-sub
p476
I5
sVkuroedov
p477
I1
sVeurope
p478
I2
sVreally sank
p479
I23
sVnature
p480
I1
sVwo
p481
I2
sVsank 50
p482
I23
sVhowever
p483
I1
sVworst
p484
I2
sVjames martin center
p485
I4
sVdied on board
p486
I90
sVincident
p487
I1
sVlink with sub
p488
I20
sVused by a sailor
p489
I3
sVambitions suffer
p490
I3
sV\u2013 we make
p491
I9
sVnews
p492
I16
sVexpected on board
p493
I88
sVvladimir kuroyodev
p494
I6
sVgeronimos
p495
I1
sVelite scored
p496
I3
sVaccident
p497
I14
sVlast
p498
I3
sVsecrets
p499
I2
sV1968 sub
p500
I19
sVforeign
p501
I1
sVscorpio
p502
I1
sVnew nuclear
p503
I64
sVintelligence sources tell
p504
I4
sVbacked a sensational claim
p505
I4
sVbaltimore
p506
I1
sVideologue defends
p507
I3
sVsea arctic.
p508
I15
sVfrancis a. slattery
p509
I4
sVca n't link
p510
I7
sVcapsule ca n't
p511
I6
sV\u2013 a fire
p512
I16
sVwhatever
p513
I1
sVtons
p514
I1
sVnovosti
p515
I1
sVa. slattery
p516
I3
sVsituation on board
p517
I88
sV250
p518
I1
sVnormand pioneer arrived
p519
I4
sVmission
p520
I2
sV9 crew
p521
I30
sVdescribed
p522
I1
sVtyphoon is not shark
p523
I3
sVtrapped in sub
p524
I22
sVtwo american
p525
I7
sVthree
p526
I1
sV99 men on board
p527
I100
sVtragedy
p528
I6
sVsecret
p529
I4
sVcitations
p530
I1
sVmini-sub
p531
I2
sVpournelle 's chaos
p532
I13
sVexpected
p533
I1
sVclothier
p534
I1
sVcrewmembers on board
p535
I92
sVwisegeek
p536
I1
sVcrewmen on board
p537
I91
sVlife
p538
I2
sVus and uk
p539
I13
sVfire
p540
I10
sVconcerning
p541
I1
sVgas
p542
I1
sVnewer ugst
p543
I3
sV116 officers and men
p544
I17
sVthresher sank 50
p545
I25
sVboard just five
p546
I89
sVlaunches
p547
I2
sVreliable
p548
I1
sVtwenty
p549
I1
sVair
p550
I1
sVrockets
p551
I2
sVarctic. all 118
p552
I22
sVviews 14
p553
I3
sVfleet
p554
I8
sVgave
p555
I1
sVv. putin
p556
I4
sVfull
p557
I1
sVplayed
p558
I2
sVsoviet nuclear forces
p559
I64
sVofficials made bleak
p560
I7
sV\u043c \u0430
p561
I4
sVii
p562
I3
sVrescue effort
p563
I18
sVexperts
p564
I1
sVdiscusses efforts to salvage
p565
I8
sV\u2019
I4
sVria
p566
I1
sVmemorial
p567
I1
sV118 on board
p568
I106
sVbarnes
p569
I1
sVmake
p570
I2
sVjerry
p571
I1
sVfire left russia
p572
I25
sVbacked
p573
I1
sV9
I3
sVsecret remains on board
p574
I92
sVbbc news
p575
I23
sVday
p576
I2
sVinventors
p577
I1
sV\u0441
I1
sVused
p578
I1
sVchaos
p579
I1
sV\u2018 brink
p580
I4
sVflooded
p581
I1
sV118 crew members
p582
I65
sVstatistic data say
p583
I6
sVfour bodies
p584
I7
sVtorpedoes
p585
I3
sVu.s. intelligence
p586
I9
sVsub tragedy
p587
I24
sVarrived
p588
I1
sVextinguished \u2019
p589
I6
sVtorpedoed
p590
I1
sVkilled all 118
p591
I22
sVcrew remained on board
p592
I116
sVmake every small
p593
I8
sVrussia is considering
p594
I15
sVdisaster since russia lost
p595
I34
sV\u0440 \u043c \u0430
p596
I5
sVbarents sea to mask
p597
I24
sVmidway
p598
I1
sVlyachin
p599
I2
sVninety-nine crewmen
p600
I5
sVscorpio rov
p601
I3
sVsun sentinel
p602
I8
sVsmall business
p603
I4
sVclaims
p604
I1
sV\u043c \u0443
p605
I4
sVorlando sentinel
p606
I5
sVleft
p607
I1
sV\u201d missile firing
p608
I11
sVgepard wo n't
p609
I9
sV\u2013 we make every
p610
I11
sVrecall learning
p611
I4
sVphoto
p612
I2
sVnewspaper articles
p613
I4
sVcrew
p614
I26
sVrense.com
p615
I1
sVgame midway game
p616
I6
sVchap. 8
p617
I3
sVusing
p618
I1
sVbacked a sensational
p619
I3
sV20 sailors were killed
p620
I12
sVplight
p621
I2
sV1963
p622
I1
sVdied a slow
p623
I5
sVmay have been struck
p624
I5
sVturtle attempted
p625
I3
sVpournelle 's chaos manor
p626
I14
sVantey
p627
I3
sVsource
p628
I1
sVboard
p629
I86
sVstates 10 apr 2013
p630
I7
sVsave
p631
I1
sVtrue story
p632
I3
sVsalem-news.com
p633
I1
sVvictims
p634
I1
sVscene late
p635
I3
sV'blew sub apart
p636
I20
sVsailors
p637
I5
sVvladimir v. putin
p638
I8
sVgame
p639
I2
sVcrew trapped
p640
I31
sV53 sailors
p641
I7
sVapart
p642
I1
sVtrapped aboard
p643
I8
sVrecovered from sunken
p644
I13
sVincident in 2000
p645
I6
sV10 crew on board
p646
I116
sVreactors on board
p647
I89
sVperforming
p648
I1
sVorlando
p649
I1
sVn't link
p650
I6
sV53
p651
I1
sVdivers
p652
I3
sVdivers on board able
p653
I91
sVcrew rescued
p654
I28
sVwrecked
p655
I1
sVivan
p656
I1
sVrescue called off aired
p657
I22
sVsecurity
p658
I1
sVivan gurin
p659
I3
sVaaa net services home
p660
I6
sVu.s. government info
p661
I11
sVsmh.com.au
p662
I1
sVkuroyedov
p663
I1
sVoften
p664
I1
sVpeople
p665
I5
sVrescue ship and tender
p666
I26
sVworld \u2019 s biggest
p667
I17
sVmaxim
p668
I1
sV50
p669
I1
sVuss scorpion
p670
I11
sVnuclear reactors still
p671
I64
sVanswerbag
p672
I1
sVstatistic
p673
I1
sVcruise missile oscar-ii class
p674
I29
sV\u2018 totally
p675
I4
sVstrategic
p676
I1
sVremained inside
p677
I7
sVboard a trident nuclear
p678
I148
sV10 years
p679
I5
sVbottom
p680
I8
sVnuclear forces
p681
I62
sVnormal
p682
I1
sV's diodon
p683
I12
sVdisaster since
p684
I20
sVmini-submarine rescue effort
p685
I19
sVk-141
p686
I10
sVdenied
p687
I1
sVcnn
p688
I2
sVkilling 9 crew
p689
I36
sVeither
p690
I1
sVrun
p691
I2
sV\u0441 \u043a \u0438
p692
I4
sVenglish pravda.ru
p693
I5
sVremembered
p694
I1
sVrussia nuclear disaster narrowly
p695
I92
sVthird reich
p696
I3
sV99 men
p697
I14
sVnuclear disaster
p698
I78
sVrus
p699
I1
sVboard had caused
p700
I91
sVsank russia
p701
I35
sV'blew sub
p702
I19
sVcruise missile oscar-ii
p703
I14
sVnato fleet
p704
I12
sVconceal
p705
I1
sVmonths
p706
I1
sVwarheads are on board--instead
p707
I4
sVrescued in pacific
p708
I5
sVu.s. intelligence sources
p709
I10
sVremains
p710
I1
sVhorizon
p711
I1
sVdocstoc \u2013 we make
p712
I11
sVefforts
p713
I2
sV7 admiral vladimir kuroedov
p714
I10
sV's uss liberty
p715
I20
sVcnn transcript
p716
I6
sVtwo
p717
I2
sVservices
p718
I1
sVtest 'blew
p719
I3
sVsank with 99
p720
I24
sVsucceeded in developing
p721
I3
sVposmotriterutuberu
p722
I1
sVenglish russia
p723
I17
sVsea to mask
p724
I14
sVtorpedo compartment
p725
I15
sVproject 949
p726
I3
sV\u0430 \u043d \u0441
p727
I4
sVway
p728
I2
sVscorpion sank
p729
I25
sVjim 's
p730
I12
sVnaval officials made
p731
I9
sVofficial report
p732
I5
sVsunk as a result
p733
I5
sVshark in russian.
p734
I3
sVstrives
p735
I1
sVlike many large
p736
I4
sVwilhelm gustloff
p737
I3
sVsecrets revealed
p738
I4
sVpeninsula
p739
I1
sVsalvage operation
p740
I10
sVlink
p741
I2
sVpacific
p742
I3
sVnewer
p743
I1
sVkilling 9
p744
I11
sVline
p745
I1
sVkilled on board
p746
I89
sVtrue
p747
I1
sVraising
p748
I1
sVinfo
p749
I2
sVaffairs on board
p750
I88
sVmaybe because nuclear
p751
I62
sVskull
p752
I1
sVmissile oscar-ii
p753
I13
sVcruisers game midway game
p754
I7
sVinside
p755
I2
sVus
p756
I10
sVcenturies people dreamed
p757
I8
sV're
p758
I1
sVputin described
p759
I4
sVuk
p760
I2
sVofficial report about death
p761
I8
sVpournelle 's
p762
I12
sV116 officers
p763
I6
sV118 crewmen on board
p764
I109
sVcalled
p765
I2
sVsay
p766
I2
sV17,600
p767
I1
sVlater
p768
I1
sVordered
p769
I1
sVwater flooded
p770
I4
sVlost.
p771
I1
sVcrew members
p772
I48
sVevidence
p773
I1
sV\u043a \u0438
p774
I3
sVboard in 354
p775
I88
sVone year
p776
I3
sVcargo ship off diu
p777
I7
sVship
p778
I4
sVarchive
p779
I2
sVbrought four
p780
I5
sV118 on board died
p781
I109
sVsunken
p782
I8
sVscott waddle
p783
I6
sVdesperate efforts to save
p784
I5
sVtorpedo exploded
p785
I13
sVmember on board--it
p786
I3
sVsailors on board nuclear
p787
I152
sVoscar
p788
I2
sVtest
p789
I1
sVguests on board
p790
I88
sVcollides with cargo ship
p791
I7
sValways an accident
p792
I16
sVdashes
p793
I2
sVscored
p794
I1
sVdamaged by an explosion
p795
I9
sV's
p796
I10
sV2006 \u2013
p797
I7
sVremains on board
p798
I88
sVboard to carry
p799
I88
sVseven crew members
p800
I40
sVoccurred
p801
I2
sVnormand pioneer
p802
I3
sVangeles class
p803
I18
sVauthorities
p804
I1
sVsailors trapped
p805
I10
sVlr5 rescue
p806
I18
sVexplosions
p807
I2
sVcns
p808
I1
sVago
p809
I2
sVkilling all 118
p810
I26
sVu.s. gives russia
p811
I22
sVrescued
p812
I1
sVyoutube
p813
I3
sVdays later
p814
I4
sVannoyed
p815
I1
sV2000
p816
I4
sV2001
p817
I3
sV2006
p818
I1
sVmen stuck
p819
I13
sVmissile cruiser
p820
I10
sVtorpedoes on board
p821
I91
sVnamed \u201c
p822
I8
sVnerpa nuclear
p823
I62
sVboard--it
p824
I1
sVreactor that caused
p825
I6
sVtop navy
p826
I26
sVstruck by a foreign
p827
I3
sVca n't
p828
I5
sVus edition
p829
I14
sVlr5
p830
I1
sV118 sailors
p831
I26
sVrov
p832
I1
sV2000-2003
p833
I2
sV21st
p834
I1
sVuk come
p835
I5
sVstill on board
p836
I88
sVstage \u2014 rt
p837
I6
sVyoung
p838
I1
sVcharge
p839
I1
sVfire \u2018 totally extinguished
p840
I15
sVlate
p841
I1
sVatlas
p842
I1
sVrescue capsule ca
p843
I19
sVresources
p844
I1
sV118 sailors trapped
p845
I29
sV118 crewmen
p846
I23
sVdivision
p847
I1
sVyears ago
p848
I4
sVreliable security
p849
I3
sVrussia 's uss liberty
p850
I33
sVoccurred on 12
p851
I6
sVrepercussions after 20 sailors
p852
I11
sVbarents sea arctic.
p853
I25
sV2000 \u2013
p854
I10
sVsources tell abcnews
p855
I4
sV129 men
p856
I13
sVcontinued
p857
I1
sVbaltimore sun
p858
I5
sVvladimir
p859
I4
sVchap.
p860
I1
sVpresident vladimir
p861
I6
sVexploded on board
p862
I88
sVtell abcnews they believe
p863
I4
sVreich
p864
I1
sV7. captain
p865
I3
sVteam
p866
I1
sVdiu
p867
I1
sVposmotriterutuberu 17,600 views 14
p868
I5
sVwarheads
p869
I2
sVnaval officials made bleak
p870
I10
sVmembers and causing
p871
I16
sVadm.
p872
I2
sVthresher
p873
I2
sV\u043d \u0441
p874
I3
sVsuffer setback
p875
I3
sVexplosion on board.
p876
I13
sVway to scrap
p877
I6
sV9 crew members
p878
I42
sVvideo
p879
I1
sVfree people
p880
I11
sVus 'torpedoed
p881
I12
sVakula ii
p882
I5
sV118 crewmembers
p883
I25
sVcargo
p884
I1
sVbusiness
p885
I1
sVdeep secrets revealed
p886
I6
sVremained on board
p887
I90
sV10 apr
p888
I5
sVindian
p889
I1
sVrussia scrambles
p890
I15
sVinternational
p891
I1
sVnews atlas
p892
I18
sVking sh
p893
I3
sVdecember 7 admiral vladimir
p894
I10
sVfocuses
p895
I1
sVled
p896
I1
sVfire left
p897
I12
sVfree encyclopedia
p898
I9
sVguardian
p899
I1
sVinventors succeeded in developing
p900
I4
sVwater
p901
I2
sVofficials made
p902
I6
sV17,600 views 14
p903
I4
sVnavy chronicle
p904
I26
sVcrippled
p905
I2
sVformer british military
p906
I8
sVappears
p907
I1
sVrussia remembers
p908
I15
sVbecomes bad
p909
I4
sVgreat
p910
I1
sVrussian. they already
p911
I3
sVfirst bodies recovered
p912
I11
sVninety-nine crewmen on board
p913
I91
sVadmiral vladimir kuroedov
p914
I8
sVthebeginning
p915
I1
sVfiremen
p916
I2
sVeutimes.net
p917
I2
sVvladimir v.
p918
I6
sVnamed
p919
I2
sVpresident vladimir v. putin
p920
I9
sVraise
p921
I1
sVclaim
p922
I1
sVapr
p923
I1
sVshark
p924
I1
sVcrew trapped in sub
p925
I48
sVoccurred on board
p926
I89
sVcentury that inventors
p927
I4
sVcloud
p928
I1
sVcivilian guests on board
p929
I89
sVsoviet nuclear
p930
I63
sVworld war
p931
I12
sVsurvivors on board
p932
I93
sVvessel and played
p933
I5
sVperished
p934
I3
sV10 years ago
p935
I7
sVfyodorov as saying crews
p936
I4
sVwatched by two
p937
I4
sVambitions suffer setback
p938
I4
sVanswers for common
p939
I3
sVcargo ship
p940
I6
sVuss
p941
I6
sVmemory
p942
I1
sVstage
p943
I1
sVformer british
p944
I5
sVnet services home page
p945
I7
sVbecomes
p946
I1
sVtragedy remembered on stage
p947
I9
sVmen stuck on board
p948
I99
sVmissile
p949
I6
sVfire \u2018
p950
I13
sVmaybe because nuclear warheads
p951
I64
sVradiation threat denied
p952
I4
sVeffort
p953
I1
sVugst
p954
I1
sVf
I1
sVpournelle
p955
I1
sVscrambles to rescue
p956
I18
sVgas on board
p957
I88
sVnuclear disaster narrowly averted
p958
I80
sVmaking
p959
I1
sVinnovation hub
p960
I3
sVsince russia
p961
I16
sVspy
p962
I1
sVfiring
p963
I2
sVrescue capsule
p964
I18
sVlinks
p965
I1
sVdecember
p966
I1
sVremembered on stage \u2014
p967
I6
sV25 submarino
p968
I3
sVcloud 9
p969
I5
sVtag
p970
I1
sVakula ii nuclear
p971
I65
sVyard
p972
I2
sVshocking true story
p973
I4
sVwater.
p974
I1
sV\u2014 u.s. military officials
p975
I18
sVmade
p976
I1
sVhydrogen
p977
I1
sVpractical
p978
I1
sVunited
p979
I1
sVdemocracy
p980
I1
sVjames martin
p981
I3
sVsailors were killed
p982
I8
sVlounge
p983
I1
sVdecember 7 admiral
p984
I6
sVsalvage experts
p985
I6
sVexcellent \u201d
p986
I5
sVship off diu
p987
I6
sVadm. vladimir kuroyodev stated
p988
I9
sVwatery
p989
I1
sVmap
p990
I1
sVdeep secrets
p991
I5
sVsub lounge
p992
I19
sVmay
p993
I3
sVwaters
p994
I1
sVaverted
p995
I1
sVbad enough
p996
I4
sVsub apart
p997
I19
sVgives russia
p998
I15
sVdisaster \u2013 free
p999
I28
sVusn.
p1000
I1
sVdesigned
p1001
I1
sV\u201c excellent
p1002
I8
sV118 people on board
p1003
I111
sVevery small business
p1004
I6
sValive on board
p1005
I88
sVdata
p1006
I2
sV13 both u.s.
p1007
I9
sVconducted
p1008
I1
sVarctic waters
p1009
I9
sVsucceeded
p1010
I1
sV949
p1011
I1
sVmaybe
p1012
I1
sVrobot
p1013
I1
sVchief
p1014
I1
sVsh
p1015
I1
sVencyclopedia
p1016
I2
sVallow
p1017
I1
sVposmotriterutuberu 17,600
p1018
I3
sVindeed
p1019
I1
sVgame midway
p1020
I4
sVbrought to life
p1021
I6
sVyears
p1022
I1
sVstage \u2014 rt news
p1023
I22
sVincluding
p1024
I2
sVcruise
p1025
I1
sVeither on board
p1026
I88
sVstill
p1027
I1
sV\u201c
I5
sVcrippled sub largely destroyed
p1028
I23
sVlos angeles class
p1029
I20
sVrussia nuclear disaster
p1030
I91
sVu.s. gives
p1031
I9
sVexcellent \u201d missile
p1032
I11
sVjim
p1033
I1
sVallow people
p1034
I7
sV\u0430 \u043d
p1035
I3
sV118 crew
p1036
I54
sVlt
p1037
I1
sV23 men on board
p1038
I101
sVfinding any survivors
p1039
I9
sVdecades
p1040
I1
sV2013
p1041
I1
sVhappened
p1042
I2
sVarticles citations
p1043
I4
sVtorpedo test 'blew sub
p1044
I31
sVcivilian
p1045
I1
sVdam
p1046
I1
sVrepercussions
p1047
I1
sVextinguished
p1048
I1
sVdock
p1049
I2
sVpresident vladimir v.
p1050
I7
sVhalf
p1051
I1
sVscorpion sank with 99
p1052
I27
sVpress for a free
p1053
I7
sVarticles
p1054
I2
sVarticles and electronic
p1055
I4
sVakula
p1056
I1
sVmany large
p1057
I3
sVjames
p1058
I1
sVnormand
p1059
I1
sVrescue called
p1060
I20
sVtwenty die
p1061
I4
sVsink. this oscar ii
p1062
I8
sVexcept for speculations
p1063
I3
sVdata concerning
p1064
I4
sVturtle
p1065
I1
sV118 sailors on board
p1066
I111
sVfired
p1067
I1
sVdue
p1068
I1
sVed
p1069
I1
sVunit based in gremikha
p1070
I5
sVcapsule ca
p1071
I3
sVbooks
p1072
I1
sVnuclear warheads
p1073
I64
sVgurin
p1074
I1
sVyear
p1075
I1
sVdisasters
p1076
I3
sVexactly 10 years ago
p1077
I8
sV\u0440 \u043c
p1078
I4
sVcalled off aired august
p1079
I13
sVgeronimos skull
p1080
I3
sV\u2019 s biggest
p1081
I7
sVfire on board
p1082
I100
sVnavigating
p1083
I1
sVinternet
p1084
I1
sVnet services home
p1085
I5
sVtotally extinguished \u2019
p1086
I7
sVannounced
p1087
I1
sVgears
p1088
I2
sVremembered on stage
p1089
I3
sVmaneuver
p1090
I1
sVtheory
p1091
I1
sVidiots were on board
p1092
I88
sVsecret torpedo
p1093
I16
sVgeneral news
p1094
I20
sVpossibility
p1095
I1
sVhappened exactly
p1096
I4
sVdivers on board
p1097
I90
sVaccident timeline
p1098
I19
sVtraining
p1099
I2
sVauthorities on monday
p1100
I3
sVu.s. intelligence sources tell
p1101
I11
sVkursk.
p1102
I1
sVcould
p1103
I1
sVbritish
p1104
I3
sVtimes
p1105
I3
sVposmotriterutuberu 17,600 views
p1106
I4
sVten
p1107
I1
sVaboard
p1108
I3
sValways an accident involving
p1109
I17
sVhopes fade
p1110
I5
sVn't link with sub
p1111
I23
sVstuck
p1112
I1
sVfirst
p1113
I2
sV's good we 're
p1114
I13
sVtragedy has been brought
p1115
I10
sVdeveloping practical
p1116
I3
sVmilitary official has backed
p1117
I7
sVscene
p1118
I1
sVone
p1119
I1
sVcbc news
p1120
I20
sVcarry
p1121
I1
sVimpossible
p1122
I1
sVkuroyodev
p1123
I1
sVdock with rockets
p1124
I6
sVbrought home
p1125
I6
sVcity
p1126
I2
sVgiven
p1127
I3
sVlos
p1128
I2
sVrevealed
p1129
I1
sVmen died
p1130
I15
sVslow death
p1131
I5
sVintelligence sources tell abcnews
p1132
I5
sVanyone
p1133
I1
sVattack
p1134
I1
sVoffley
p1135
I1
sVsecret maneuver
p1136
I6
sVmask a secret
p1137
I6
sVgives
p1138
I1
sVbased in gremikha
p1139
I3
sVexcellent
p1140
I2
sVhub
p1141
I1
sVviktor
p1142
I2
sVmoscow
p1143
I1
sVexactly
p1144
I1
sVbritish military
p1145
I7
sVdecember 7
p1146
I4
sVjuly
p1147
I1
sVelite
p1148
I1
sVkamchatka
p1149
I1
sV10
p1150
I3
sV13
p1151
I1
sV12
p1152
I3
sVviktor-3
p1153
I3
sVpoisonous gas
p1154
I3
sVcalled off aired
p1155
I6
sV19
p1156
I1
sVuk that sank
p1157
I24
sVwar
p1158
I1
sVtest 'blew sub apart
p1159
I21
sVdefense
p1160
I1
sVrussia
p1161
I13
sVofficers and men
p1162
I14
sVgathering
p1163
I1
sVnerpa
p1164
I1
sVcrippled sub
p1165
I20
sVremained
p1166
I3
sVtopics
p1167
I1
sVmurman.ru
p1168
I1
sVnuclear sub tragedy
p1169
I84
sV\u201c k-84
p1170
I8
sVwarheads on board
p1171
I89
sVtraining mission
p1172
I6
sVabc news
p1173
I18
sV\u0440 \u043c \u0430 \u043d
p1174
I6
sVrecover
p1175
I1
sVapparently
p1176
I1
sV12,770
p1177
I1
sVdesperate efforts
p1178
I4
sVu.s. military officials gave
p1179
I16
sVwnd
p1180
I1
sVable
p1181
I1
sV\u201c excellent \u201d
p1182
I10
sV's good
p1183
I12
sVcenturies people
p1184
I7
sVroster
p1185
I1
sVattempted
p1186
I1
sVbattled
p1187
I1
sV129 men perished
p1188
I16
sVsank about 250
p1189
I23
sVformer british military official
p1190
I10
sVmanor
p1191
I1
sVfyodorov as saying
p1192
I3
sVsea less
p1193
I14
sVdutch
p1194
I1
sVsub largely destroyed
p1195
I21
sVbook store
p1196
I4
sVgremikha
p1197
I1
sVtranscript
p1198
I2
sVclass
p1199
I15
sVrussia lost
p1200
I15
sVscrambles
p1201
I1
sVjuly 4
p1202
I3
sVstranded
p1203
I2
sV118 men
p1204
I32
sVs-13
p1205
I1
sVlos angeles
p1206
I6
sVus navy
p1207
I35
sVrussian.
p1208
I1
sVsaying.
p1209
I1
sVreactors still
p1210
I4
sVjim 's diodon
p1211
I13
sVaffair
p1212
I1
sVcentury that inventors succeeded
p1213
I5
sVchances
p1214
I1
sVsince russia lost
p1215
I17
sVhopes
p1216
I3
sVradiation threat
p1217
I3
sVrough
p1218
I1
sVhome page
p1219
I5
sVbrink
p1220
I1
sVslow
p1221
I1
sVbased
p1222
I1
sVforeign spy
p1223
I3
sVscorpion
p1224
I3
sVreport about death
p1225
I6
sV\u0430
I1
sVtears
p1226
I1
sVmilitary officials gave
p1227
I9
sVworld disasters.
p1228
I12
sV's chaos manor
p1229
I13
sVvarious
p1230
I1
sVadm. vladimir
p1231
I7
sVoperation to raise
p1232
I6
sVvladimir kuroyodev stated
p1233
I7
sVviewpoint
p1234
I1
sVassistant
p1235
I1
sVcruisers game
p1236
I4
sVfreezing
p1237
I1
sVmissile oscar-ii class
p1238
I28
sVsecrets that drowned
p1239
I4
sVauthor tried to reconstruct
p1240
I4
sVstate
p1241
I1
sV129
p1242
I1
sVdisaster since russia
p1243
I33
sVapproximately 5
p1244
I3
sVsailors on board
p1245
I94
sVexperts are gathering
p1246
I3
sVclear answers for common
p1247
I4
sVsea arctic. all 118
p1248
I34
sVexercises
p1249
I1
sVtwentieth century
p1250
I4
sVunited states 10 apr
p1251
I7
sVdiodon
p1252
I1
sVseas
p1253
I1
sVsaying crews
p1254
I3
sVarmy times
p1255
I5
sVedition
p1256
I2
sV\u2013
I5
sVofficials
p1257
I4
sVcivilian guests
p1258
I3
sVdesperate
p1259
I1
sVdisasters.
p1260
I1
sVanyone alive
p1261
I3
sVapparently used
p1262
I3
sVfails
p1263
I1
sV\u0443 \u0440 \u043c \u0430
p1264
I6
sV\u201d that sank
p1265
I24
sVnuclear
p1266
I60
sVnightmare
p1267
I1
sVinitially
p1268
I1
sVnaval accidents since 1991
p1269
I14
sVstrives to rescue stranded
p1270
I20
sV\u201d missile
p1271
I9
sVtorpedo
p1272
I11
sVsmall business better
p1273
I5
sVdecommissioned
p1274
I3
sVsucceeded in developing practical
p1275
I4
sVexperts are gathering ahead
p1276
I4
sVaugust
p1277
I7
sVmilitary official
p1278
I6
sV\u2014 rt
p1279
I5
sVkilling
p1280
I6
sVworst nuclear
p1281
I63
sVdsrv on board
p1282
I92
sVsea.
p1283
I1
sVarctic waters around
p1284
I10
sVcome
p1285
I2
sVadm. viktor fyodorov
p1286
I6
sVpeacetime
p1287
I1
sVrecovered
p1288
I3
sVsailor on board
p1289
I88
sVmany
p1290
I1
sVarctic ocean
p1291
I10
sVnavy 's commander-in
p1292
I37
sVboard nuclear
p1293
I147
sVrussia beyond
p1294
I15
sVcomment
p1295
I1
sVus-soviet
p1296
I1
sVenglish
p1297
I3
sVships
p1298
I1
sVca
p1299
I1
sVlinks to peacetime
p1300
I3
sVinsist
p1301
I1
sVu.s. government
p1302
I9
sVdefinitely sunk
p1303
I5
sV20 die
p1304
I7
sVlearning
p1305
I1
sVreconstruct what may
p1306
I5
sVsentinel
p1307
I3
sVstage \u2014
p1308
I5
sVendeavor
p1309
I1
sVstrives to rescue
p1310
I18
sVboat
p1311
I1
sVconsidering
p1312
I1
sVservices home page
p1313
I6
sVstates 10
p1314
I5
sVcollides
p1315
I1
sVpowered
p1316
I2
sVbbc
p1317
I4
sVabc
p1318
I1
sVclear answers
p1319
I3
sVimpossible to rescue
p1320
I18
sVbreaking news
p1321
I20
sVrough seas
p1322
I3
sVwaste
p1323
I1
sVofficials have insisted
p1324
I6
sVgraveyard
p1325
I1
sVarctic. all 118 crew
p1326
I48
sVexactly 10
p1327
I5
sVphotos
p1328
I1
sVturbine room
p1329
I7
sVed offley
p1330
I3
sVsalvage experts are gathering
p1331
I7
sVminister
p1332
I1
sVtotally extinguished
p1333
I3
sVformer
p1334
I1
sVcommander-in
p1335
I2
sVpower caused
p1336
I6
sVexcellent \u201d missile firing
p1337
I13
sVdeveloping
p1338
I1
sV'blew
p1339
I1
sVpoisonous gas on board
p1340
I89
sVsensational claim
p1341
I3
sVdivers brought four
p1342
I8
sVworld news atlas
p1343
I28
sVworld news
p1344
I29
sVrussia info
p1345
I16
sVnewspaper
p1346
I1
sVsituation
p1347
I1
sVbelieve half
p1348
I3
sVii class
p1349
I19
sVkurks
p1350
I1
sVtrident nuclear
p1351
I62
sVrescue team
p1352
I18
sVnavy assistant
p1353
I26
sV\u2018 totally extinguished
p1354
I5
sVsave any survivors
p1355
I7
sV\u0441 \u043a
p1356
I3
sVhydrogen theory
p1357
I3
sVsecret torpedo test 'blew
p1358
I18
sVrussia strives
p1359
I15
sVclaimed
p1360
I1
sVria novosti
p1361
I3
sVmovements
p1362
I1
sVauthor
p1363
I1
sVbegan
p1364
I1
sVsalvage operation gears
p1365
I12
sVradiation
p1366
I1
sVlatest news and comment
p1367
I19
sVmember
p1368
I1
sVmaxim a lieutenant
p1369
I3
sVwilhelm
p1370
I1
sVclaimed bad
p1371
I4
sVviktor-iii class
p1372
I17
sVsources tell
p1373
I3
sVnoble
p1374
I1
sV9 internet
p1375
I5
sVputin
p1376
I2
sVcenturies
p1377
I1
sVarctic
p1378
I7
sVtimelines.com
p1379
I1
sVv.
p1380
I1
sVwps
p1381
I2
sVtotally
p1382
I1
sVdestruction
p1383
I1
sVservices home
p1384
I4
sVrobot descends
p1385
I3
sVcenter
p1386
I1
sVlargely
p1387
I1
sVtwentieth century that inventors
p1388
I5
sV354
p1389
I1
sVboard a viktor-iii
p1390
I88
sVspeculations
p1391
I1
sVfire \u2018 totally
p1392
I14
sVsoviet
p1393
I2
sVuss liberty
p1394
I10
sVbodies
p1395
I5
sVlatest
p1396
I1
sVless
p1397
I1
sVscrap yard
p1398
I6
sV21st century
p1399
I4
sVseconds from disaster
p1400
I22
sVsources
p1401
I1
sVuss thresher sank
p1402
I30
sV\u2014
I3
sVboard a trident
p1403
I88
sVbodies recovered
p1404
I11
sVnuclear sub tragedy remembered
p1405
I85
sVdeath
p1406
I3
sVnaval officials
p1407
I8
sVscrambles to rescue crew
p1408
I44
sVexcept
p1409
I1
sVkilled
p1410
I2
sVcrew aboard
p1411
I31
sVpeople on board
p1412
I94
sVnato
p1413
I2
sV4
I1
sVinfographics
p1414
I1
sVcruisers
p1415
I1
sV\u043c \u0430 \u043d
p1416
I5
sVstruck
p1417
I1
sVadm
p1418
I1
sVaired august 21
p1419
I13
sV\u043c
I2
sVk-8
p1420
I1
sVtests
p1421
I1
sVaround
p1422
I1
sVgovernment
p1423
I1
sVmen on board.
p1424
I17
sVwatched by two american
p1425
I8
sV\u2013 free
p1426
I11
sVstates 10 apr
p1427
I6
sVfive
p1428
I2
sVexplosions destroyed
p1429
I5
sVnine days later
p1430
I5
sVworld
p1431
I10
sVslattery
p1432
I1
sVarms race
p1433
I3
sV99 on board
p1434
I89
sV25 submarino kurks
p1435
I4
sVsensational
p1436
I1
sVloss
p1437
I5
sVpioneer arrived
p1438
I3
sVwo n't
p1439
I7
sVlike
p1440
I1
sVlost
p1441
I1
sVthresher sank
p1442
I24
sV\u043d
I1
sVperished on board
p1443
I90
sVbecomes bad enough
p1444
I5
sVtowed
p1445
I2
sVmini-submarine
p1446
I1
sVlatest news
p1447
I18
sVmartin
p1448
I1
sVpage
p1449
I2
sVboard died
p1450
I90
sVfirst bodies
p1451
I8
sVrussia 's
p1452
I25
sVscared
p1453
I2
sVintelligence sources
p1454
I3
sVanyone alive on board
p1455
I89
sValive
p1456
I1
sVvessel
p1457
I2
sVas-28
p1458
I3
sV116
p1459
I3
sV\u2014 u.s.
p1460
I11
sVhome
p1461
I2
sV118
p1462
I19
sVboard in august
p1463
I94
sVpeople dreamed
p1464
I7
sVdivers brought
p1465
I7
sVdata say
p1466
I5
sVhard to sink.
p1467
I4
sVbritish lr5 rescue
p1468
I21
sVpioneer
p1469
I1
sVamerican naval
p1470
I8
sVleast 20 die
p1471
I10
sVusn. photo
p1472
I4
sVboard.
p1473
I5
sVstatistic data
p1474
I4
sVcrew on board
p1475
I118
sVofficials made bleak calculations
p1476
I8
sVpower
p1477
I1
sVseconds
p1478
I3
sV949a
p1479
I3
sVu.s. military
p1480
I11
sV20 sailors
p1481
I10
sVchaos manor
p1482
I3
sVlieutenant
p1483
I1
sVholy f
p1484
I3
sV20 men died
p1485
I19
sValthough
p1486
I2
sVsurvivors from a sunken
p1487
I14
sVfrancis
p1488
I1
sVwent
p1489
I2
sVnuclear sub
p1490
I79
sV'the
p1491
I1
sVaugust 21
p1492
I11
sVtorpedoes on board.
p1493
I9
sVaugust 28
p1494
I9
sVhard to sink. plight
p1495
I6
sVangeles
p1496
I2
sVcarry out tests
p1497
I3
sVcarries
p1498
I1
sVnothing
p1499
I1
sVuk that sank russia
p1500
I37
sVmade bleak calculations
p1501
I4
sVdiscusses
p1502
I1
sVdocumentary
p1503
I2
sVclass 949a
p1504
I21
sVsecret torpedo test
p1505
I17
sVclaimed bad weather
p1506
I5
sVrussia strives to rescue
p1507
I31
sVpress
p1508
I1
sVstuck on board
p1509
I88
sV's commander-in
p1510
I13
sVunited states
p1511
I3
sVweather
p1512
I1
sVgennady lyachin
p1513
I4
sVmoscow \u2014 u.s. military
p1514
I15
sVthree months on board
p1515
I89
sVdowned
p1516
I1
sVus recall
p1517
I13
sVkursk.wmv
p1518
I1
sVgovernment info
p1519
I4
sVu.s. military officials
p1520
I15
sVkremlin ideologue defends
p1521
I4
sVbiggest
p1522
I2
sV\u043d \u0441 \u043a
p1523
I4
sVbritish military official
p1524
I9
sVdashes all hopes
p1525
I7
sVnuclear disaster narrowly
p1526
I79
sVenough
p1527
I1
sV'torpedoed
p1528
I1
sVmaking it impossible
p1529
I3
sV\u2014 rt news
p1530
I21
sVcrewmembers
p1531
I3
sVone year ago
p1532
I5
sVmoscow \u2014
p1533
I5
sVgepard
p1534
I2
sVaaa net services
p1535
I4
sVkraft
p1536
I1
sVindian nuclear
p1537
I62
sV\u043c \u0430 \u043d \u0441
p1538
I6
sVsubmarino
p1539
I1
sVraising 'the
p1540
I3
sVmake every small business
p1541
I8
sVofficial
p1542
I2
sVtorpedo-which
p1543
I1
sVfyodorov
p1544
I1
sVabcnews
p1545
I1
sVcbc
p1546
I2
sVmask a secret maneuver
p1547
I7
sVsecret remains
p1548
I6
sVmay have occurred
p1549
I6
sVwould run
p1550
I7
sVdeep
p1551
I2
sVgeneral
p1552
I2
sVmilitary officials
p1553
I8
sVgives russia info
p1554
I17
sV17,600 views
p1555
I3
sVwatched
p1556
I1
sVfreezing water
p1557
I4
sVu.s. navy
p1558
I32
sVcommander-in-chief
p1559
I3
sVsailors trapped aboard
p1560
I13
sVgepard wo
p1561
I6
sVu.s. gives russia info
p1562
I24
sVbook
p1563
I2
sV5
I1
sVadm. vladimir kuroyodev
p1564
I8
sVexplosion in torpedo compartment
p1565
I22
sVnaval accidents since
p1566
I13
sVchinadaily us edition
p1567
I16
sVtwo explosions
p1568
I5
sVmonths on board
p1569
I88
sVmidway game
p1570
I4
sVkamchatka peninsula
p1571
I3
sV118 crewmembers on board
p1572
I111
sV20 men
p1573
I16
sV2004
p1574
I1
sVmonday
p1575
I1
sVjerry pournelle 's
p1576
I13
sVa.
p1577
I1
sVus navy 's
p1578
I45
sVduma chairman
p1579
I6
sV2013 nuclear
p1580
I62
sVaccidents
p1581
I7
sVsaying. \u201c
p1582
I7
sVtwo explosions destroyed
p1583
I7
sVmask
p1584
I1
sVauthor tried
p1585
I3
sVmen on board
p1586
I103
sVcontinued to insist
p1587
I3
sV's uss
p1588
I18
sV118 men on board
p1589
I118
stRp1590
.