(lp1
(dp2
S'description'
p3
V... killing up to 95 of the 118 crew members and causing the submarine to sink. ... about the tragedy from the viewpoint of the men who perished on board the Kursk.
p4
sS'title'
p5
VRussian submarine K-141 Kursk - Wikipedia, the free encyclopedia
p6
sa(dp7
g3
VThe explosion of the Russian class 949a "Antey" submarine Kursk occurred on 12 ... then claimed bad weather was making it impossible to rescue the people on board.
p8
sg5
VRussian submarine Kursk explosion - Wikipedia, the free encyclopedia
p9
sa(dp10
g3
VRussian submarine sinks in Arctic. A decommissioned Russian nuclear submarine with 10 crew on board has sunk in the Barents Sea. ... When the Kursk sank, ...
p11
sg5
VBBC NEWS | Europe | Russian submarine sinks in Arctic
p12
sa(dp13
g3
V... the sinking of the submarine Kursk. The Russian ... anyone alive on board of Kursk submarine, ... on board in August, a top navy commander said in a ...
p14
sg5
VThe Sinking Of The Kursk?
p15
sa(dp16
g3
VAll 118 on board died. ... the commander of the turbine room on the Russian submarine Kursk, ... It's good we're at our base, not at sea. We would sink, that's for ...
p17
sg5
VRussian nuclear submarine Kursk disaster - Cloud 9 Internet ...
p18
sa(dp19
g3
V"The divers have determined that the submarine is full of water." The commander of the ... reactors on board and so ... the Russian nuclear submarine Kursk.
p20
sg5
VKursk Submarine Memorial Page - AAA Net Services Home Page
p21
sa(dp22
g3
VAlthough Russian Navy commander Adm. Vladimir Kuroyodev stated that ... damaged by an explosion on board, ... air on the K-141 Kursk submarine would run out ...
p23
sg5
VK-141 Kursk Accident - GlobalSecurity.org - Reliable Security ...
p24
sa(dp25
g3
VRussian Submarine K-141 Kursk Sinks in the Barents Sea . ... as Russian naval officials made bleak calculations about the chances of the 118 men on board, ...
p26
sg5
VRussian Submarine K-141 Kursk Sinks in the Barents Sea - Timelines.com
p27
sa(dp28
g3
VStrategic submarine \u201cKursk\u201d that sank ... the Russian submarine was watched by two American ... as the source claims, there were divers on board able to ...
p29
sg5
VIt was US and UK that sank Russia\u2019s Kursk submarine | EUTimes.net
p30
sa(dp31
g3
VWhy did the Russian submarine, the Kursk, sink? ... of the American hit & run submarine commander. ... of 'hitting' an on-board Russian torpedo-which ...
p32
sg5
VWhy did the Russian submarine, the Kursk, sink? | Answerbag
p33
sa(dp34
g3
VThe K-141 Kursk nuclear-powered submarine, with 118 crewmembers on board, sinks to the bottom of the Barents ... Kremlin Ideologue Defends Russian Innovation Hub, ...
p35
sg5
VThe Kursk submarine disaster | INFOgraphics | RIA Novosti
p36
sa(dp37
g3
VLatest news and comment on Kursk submarine tragedy from ... Russian sub sinks with crew ... repercussions after 20 sailors were killed on board a submarine.
p38
sg5
VKursk submarine tragedy | World news | The Guardian
p39
sa(dp40
g3
VStatistic data say that Russian submarines sink more often ... "Kursk, A Submarine in ... that the submarine had sunk as a result of the on-board torpedo ...
p41
sg5
VKursk Submarine Sank Because of US-Soviet Arms Race - English ...
p42
sa(dp43
g3
VInitially I was annoyed by the introduction where the author tried to reconstruct what may have occurred on board the Kursk before the ... explodes and sinks ...
p44
sg5
VKursk Down: The Shocking True Story of the Sinking of a Russian ...
p45
sa(dp46
g3
VA robot descends into the Arctic waters around the sunken Russian submarine Kursk, ... crew on board the stranded "Kursk" are ... caused the submarine to sink: ...
p47
sg5
VBBC NEWS | Europe | The Kursk disaster
p48
sa(dp49
g3
VTHE GEPARD WON'T SINK. ... On December 7 Admiral Vladimir Kuroedov, Commander-in-Chief of the Russian ... the new nuclear submarine is 12,770 tons (the Kursk was ...
p50
sg5
VTHE GEPARD WON'T SINK / Kursk submarine (2000-2003) / WPS Russian ...
p51
sa(dp52
g3
VArchive of Russian newspaper articles and electronic ... WHY DID THE KURSK SINK? Ivan Gurin ... an endeavor of the submarine commander to conceal the ...
p53
sg5
VWHY DID THE KURSK SINK? / Kursk submarine (2000-2003) / WPS ...
p54
sa(dp55
g3
VTowed submarine sinks with crew on board. ... commander of the submarine unit ... Russian President Vladimir V. Putin was on board the Russian missile cruiser ...
p56
sg5
VTowed submarine sinks with crew on board - Baltimore Sun
p57
sa(dp58
g3
V... 2000 the nuclear submarine "Kursk ... members on board were ... performing an "excellent" missile firing at the order of the Russian Navy commander. ...
p59
sg5
VKursk Scared the NATO Fleet - English pravda.ru: Russian news and ...
p60
sa(dp61
g3
VThe "nightmare" plight of the Russian nuclear submarine, Kursk, ... the supreme commander, ... maybe because nuclear warheads are on board--instead of using all ...
p62
sg5
VKURSK SUBMARINE DISASTER: RUSSIAN ELITE SCORED, DEMOCRACY TESTED
p63
sa(dp64
g3
VAlthough Russian Navy commander Adm ... the sailors on board the crippled Russian submarine at ... be hard to sink. Plight of Russian vessel Kursk brings ...
p65
sg5
VProject 949 / Oscar - Russian / Soviet Nuclear Forces
p66
sa(dp67
g3
VA Russian nuclear-powered submarine sank in the freezing water of the Barents Sea ... either on board or in the sea. ... Russian sub sinks with crew aboard.
p68
sg5
VRussian sub sinks with crew aboard | World news | The Observer
p69
sa(dp70
g3
VThe Russian Oscar-II class submarine Kursk sinks to the bottom of the Barents Sea, ... Fire on board the Viktor-3 class Russian navy submarine, ...
p71
sg5
VUS nuclear submarine: decades of disasters - Telegraph
p72
sa(dp73
g3
VDecommissioned Russian Submarine Sinks, ... two explosions destroyed the submarine Kursk in the same sea less ... commander of the flotilla ...
p74
sg5
VDecommissioned Russian Submarine Sinks, Killing 9 Crewmen - New ...
p75
sa(dp76
g3
VSome Russian officials have continued to insist that a ... then the torpedoes on board. Kursk were indeed the newer UGST ... "This submarine would sink very ...
p77
sg5
VDid a torpedo sink Kursk? - Murman.ru - \u041c\u0443\u0440\u043c\u0430\u043d\u0441\u043a \u0438 ...
p78
sa(dp79
g3
VThe Kursk sank just after its commander, ... to publish a list of those on board the submarine. ... that carries them...Russian submarine Kursk appears ...
p80
sg5
VKursk Submarine Disaster \u2013 FREE Kursk Submarine Disaster ...
p81
sa(dp82
g3
VOn August 12, 2000 the nuclear submarine Kursk ... members on board were ... an \u201cexcellent\u201d missile firing at the order of the Russian Navy commander. ...
p83
sg5
VRussian Submarine Scared the NATO Fleet | EUTimes.net
p84
sa(dp85
g3
V... the Russian nuclear submarine Kursk sank in the Barents Sea, killing all 118 crewmembers on board. ... the Kursk, and that her commander ordered a ...
p86
sg5
VThe Kursk tragedy: Causes, theories, aftermath | Features ...
p87
sa(dp88
g3
VSome of the crew remained on board the submarine during the fire to ... The Russian Navy's Commander-in ... The Kursk nuclear submarine sank in the ...
p89
sg5
VBBC News - Russian nuclear submarine fire put out
p90
sa(dp91
g3
V... The Russian Oscar-II class submarine Kursk with 118 crew members sinks to the bottom of the ... Fire on board the Viktor-3 class Russian navy ...
p92
sg5
VTIMELINE: Worst nuclear submarine accidents | Reuters
p93
sa(dp94
g3
VRussian sub sinks, ... and he fired the commander of the submarine division that ... sinking of the Kursk nuclear submarine which killed all 118 men on board. ...
p95
sg5
VRussian sub sinks, killing 9 crew members - Chinadaily US Edition
p96
sa(dp97
g3
VRussia remembers the accident on board the nuclear submarine Kursk that happened exactly 10 years ago during the ... In memory of the Russian submarine Kursk ...
p98
sg5
VDocumentary Video: Russian Nuclear Submarine Kursk Sank in the ...
p99
sa(dp100
g3
VCruise missile Oscar-II class submarine Kursk (K-141) ... given by the Commander-in-Chief of the Russian Navy, ... in Kursk torpedo section could sink the submarine.
p101
sg5
VKursk - the various theories - Bellona
p102
sa(dp103
g3
V... with 118 crewmen on board. ... We learn not only about the commander of the submarine but ... I recall learning of the downed Russian submarine, the Kursk, ...
p104
sg5
VAmazon.com: Cry from the Deep: The Sinking of the Kursk, the ...
p105
sa(dp106
g3
V... One year ago the Russian submarine the Kursk sank ... The Commander would have given the ... so new and while he was on board the Kursk nothing ...
p107
sg5
VBBC - Science & Nature - Horizon - What Sank the Kursk?
p108
sa(dp109
g3
VRussia is considering the possibility of a link between the loss of the Kursk nuclear submarine ... commander in chief of the Russian ... on board, was ...
p110
sg5
VCNN.com - Hydrogen theory in Kursk disaster - August 28, 2001
p111
sa(dp112
g3
V... except for speculations from the Commander of. ... with 118 crewmembers on board, sinks to the bottom of the Barents Sea ... the Russian submarine, the Kursk, ...
p113
sg5
VWhat is KURSK SUBMARINE RECOVERY?
p114
sa(dp115
g3
VThe Kursk disaster was an incident in 2000 in which the Russian submarine Kursk went ... which led the Kursk to sink. This Oscar II Class submarine was ... on board ...
p116
sg5
VWhat was the Kursk Disaster? - wiseGEEK: clear answers for common ...
p117
sa(dp118
g3
VKursk and American submarine of Los Angeles class ... 19 the published photo was given to the Russian minister of defense and to commander -in-chief who was ...
p119
sg5
Vnuclear powered submarine Kursk - Did a torpedo sink Kursk?
p120
sa(dp121
g3
VAfter Russian divers brought four bodies from the wrecked nuclear submarine Kursk to ... with 118 crew members on board. ... Russian navy commander Vladimir ...
p122
sg5
VFirst bodies recovered from Russian sub Kursk - World - CBC News
p123
sa(dp124
g3
VWhatever secret remains on board the Kursk, ... of turbine room commander Lt ... the Barents Sea to mask a secret maneuver by a Russian submarine named \u201cKursk ...
p125
sg5
VThe secret of the Kursk - WND - A Free Press for a Free People
p126
sa(dp127
g3
V... with seven crew members on board, a spokesman for the Russian ... Fleet commander Admiral Viktor ... the nuclear submarine Kursk sank to the ...
p128
sg5
VUS helps Russian mini-submarine rescue effort - World - smh.com.au
p129
sa(dp130
g3
VRussian Sub Sinks On Way To Scrap Yard. ... after a torpedo exploded on board. ... commander of the submarine unit based in Gremikha, ...
p131
sg5
VRussian Sub Sinks On Way To Scrap Yard - Sun Sentinel
p132
sa(dp133
g3
VWater flooded in, causing the pride of the Russian submarine fleet to sink in seconds. ... Gennady Lyachin, the Kursk's commander, ...
p134
sg5
VKursk Destruction - Secret Torpedo Test 'Blew Sub Apart' - rense.com
p135
sa(dp136
g3
V... During a training mission, a torpedo on board the Kursk ... sinks, killing all but 23 men on board. ... Russian class 949a "Antey" submarine Kursk ...
p137
sg5
VSeconds From Disaster - S03E03 - Sinking Of Kursk - YouTube
p138
sa(dp139
g3
VIt is the worst Russian submarine disaster since Russia lost the nuclear-powered submarine Kursk ... on board to carry out tests. ... Russian Navy Assistant Commander ...
p140
sg5
VAt Least 20 Die in Russian Submarine Accident - Salem-News.Com
p141
sa(dp142
g3
V... the Turtle attempted and failed to sink a British ... the Russian submarine Kursk sank in the Arctic ... Three Months On Board a Trident Nuclear Submarine.
p143
sg5
VSubmarine
p144
sa(dp145
g3
VAs hopes fade for the rescue of the 118 sailors trapped aboard the sunken Russian nuclear submarine Kursk ... on board were lost. The ... submarine in history to sink ...
p146
sg5
VUS Navy's Submarine Rescue Team - U.S. Government Info - Resources
p147
sa(dp148
g3
VRussian Submarine Accident: No Survivors Found on Kursk; Rescue Called Off Aired August 21, ... That dashes all hopes of finding any survivors on board.
p149
sg5
VCNN Transcript - Breaking News: Russian Submarine Accident: No ...
p150
sa(dp151
g3
V... there may have been an explosion on board. The officers and crew of the Kursk ... after it began to sink, ... Russian submarine movements in the ...
p152
sg5
VRussia Scrambles To Rescue Crew Trapped in Sub / Navy commander is ...
p153
sa(dp154
g3
VRussian Submarine Accident: No Survivors Found on Kursk; Rescue Called Off Aired August 21, ... That dashes all hopes of finding any survivors on board.
p155
sg5
VCNN Transcript - Breaking News: Russian Submarine Accident: No ...
p156
sa(dp157
g3
V... there may have been an explosion on board. The officers and crew of the Kursk ... after it began to sink, ... Russian submarine movements in the ...
p158
sg5
VRussia Scrambles To Rescue Crew Trapped in Sub / Navy commander is ...
p159
sa(dp160
g3
VAll those on board the nuclear submarine perished ... mother of Maxim a lieutenant on board the Kursk, ... commander of the Russian navy and the ...
p161
sg5
VCNN.com - Day of tears for Kursk victims - August 12, 2001
p162
sa(dp163
g3
V"K-84 was in dock with rockets and torpedoes on board," the ... when the nuclear submarine Kursk sank in the ... Russian nuclear submarine fire ...
p164
sg5
VReport: Russia Nuclear Disaster Narrowly Averted In Submarine Fire
p165
sa(dp166
g3
V... including the USS Scorpion and the Russian submarine Kursk. ... nuclear submarine USS Scorpion (with 99 men on board, ... becomes bad enough to sink a submarine?
p167
sg5
V"The Death Of The USS Thresher": 129 men perished in the 1963 ...
p168
sa(dp169
g3
VDesperate efforts to save any survivors from a sunken Russian nuclear submarine met ... The commander of the ... were on board. The Kursk, like many large Russian ...
p170
sg5
VRescue Capsule Can't Link With Sub - Sun Sentinel
p171
sa(dp172
g3
VIt was not always an accident involving the nuclear reactor that caused these submarines to sink. ... on board Russian ... submarine commander sent in a ...
p173
sg5
VChap. 8: Nuclear submarine accidents - The Russian Northern Fleet
p174
sa(dp175
g3
V... with the sinking of the nuclear submarine Kursk five ... Pacific Fleet commander Adm. Viktor Fyodorov as saying crews ... Russian sub sinks, ...
p176
sg5
VUS, UK come for Russian submarine rescue - Chinadaily US Edition
p177
sa(dp178
g3
VAll of us recall the sinking and great loss of life of the Russian submarine Kursk last ... 118 people on board in 354 ... Russian submarine fleet to sink ...
p179
sg5
VThe Kursk affair - Jerry Pournelle's Chaos Manor
p180
sa(dp181
g3
VThe horror of the Kursk submarine tragedy has been brought to life for ... An explosion on board had caused it to sink to the bottom ... Roster of Russian ...
p182
sg5
VKursk nuclear sub tragedy remembered on stage \u2014 RT News
p183
sa(dp184
g3
V... lighter built one to sink which would be the US submarine. ... Text in russian is: ... Round hole on Kursk. Commander-in-chief /of the Navy/ clarified that ...
p185
sg5
Vhistory - Was the Kursk sunk by the USS Memphis? - Skeptics Stack ...
p186
sa(dp187
g3
VNo young idiots were on board. ... 7:13 both U.S. torpedoed RUSSIAN submarine "KURSK" (rus) by posmotriterutuberu 17,600 views 14:25 SUBMARINO KURKS.
p188
sg5
VWhat really sank K-141, the Kursk.wmv - YouTube
p189
sa(dp190
g3
V... and played target for the submarine launches, on board was Commander of the ... explosions and sinks the Kursk. ... the Russian city of Kursk, ...
p191
sg5
VRussia's USS Liberty: The submarine Kursk disaster!
p192
sa(dp193
g3
VThe Normand Pioneer arrived at the scene late in the day with the British LR5 rescue submarine on board. (26) The ... Kursk to sink was ... Russian Navy Commander-in ...
p194
sg5
VCNS - The Kursk Accident - James Martin Center for ...
p195
sa(dp196
g3
VA RUSSIAN nuclear submarine with 116 officers and men on board was ... A RUSSIAN nuclear submarine with 116 ... as Kursk, are designed to sink ...
p197
sg5
V116 Russians trapped in submarine - Telegraph
p198
sa(dp199
g3
V... 2000 \u2013 The Russian Oscar-II class submarine Kursk with 118 crew members sinks to the bottom of the ... 2006 \u2013 A fire on board a Viktor-III class Russian navy ...
p200
sg5
VRussian nuclear submarine fire \u2018totally extinguished\u2019 after ...
p201
sa(dp202
g3
VExplosion in Torpedo Compartment Sinks "Kursk": Russian ... all 118 crew on board the ... the Russian nuclear submarine "Kursk" last August, Russian Duma Chairman ...
p203
sg5
VExplosion in Torpedo Compartment Sinks "Kursk": Russian Duma Chairman
p204
sa(dp205
g3
V... was the commanding vessel and played target for the submarine launches, on board was Commander of ... and sinks the Kursk. ... Russian city of Kursk, ...
p206
sg5
VRussia's USS Liberty - The submarine Kursk disaster ...
p207
sa(dp208
g3
VRUSSIAN SUBMARINE KURSK ... Commander-in-Chief of Russian ... For the first days of disaster there were no data concerning the state of affairs on board, ...
p209
sg5
VRUSSIAN SUBMARINE KURSK CATASTROPHE - Jim's Diodon, Christian ...
p210
sa(dp211
g3
VMOSCOW \u2014 U.S. military officials gave Russian authorities on Monday a ... apparently used by a sailor on board ... the sinking of the nuclear submarine Kursk.
p212
sg5
VU.S. gives Russia info on 1968 sub sinking | Army Times ...
p213
sa(dp214
g3
V... bodies to the surface from the sunken submarine Kursk over ... on board died. The official ... sink the submarine is still a mystery. Russian officials continue ...
p215
sg5
VMore bodies recovered from sunken Russian submarine - World - CBC News
p216
sa(dp217
g3
V\u201cK-84 was in dock with rockets and torpedoes on board ... The Russian Oscar-II class submarine Kursk ... A Russian nuclear-powered submarine, the K-159 sinks ...
p218
sg5
VNuclear submarine fire left Russia on \u2018brink of the biggest ...
p219
sa(dp220
g3
V... commander of the ... is as normal as can be expected on board and the ... Disaster Accident, Scorpio ROV, Russian submarine K-141 Kursk, AS-28, Pacific ...
p221
sg5
VRussia strives to rescue stranded mini-sub crew - General News ...
p222
sa(dp223
g3
V... The Russian Oscar-II class submarine Kursk with 118 crew members sinks to the bottom of the ... Fire on board the Viktor-3 class Russian navy ...
p224
sg5
VTIMELINE - Major Russian naval accidents since 1991 | Reuters
p225
sa(dp226
g3
VSalvage experts are gathering ahead of the operation to raise the Kursk nuclear submarine from the ... men on board. It sank about 250 ... of the Russian ...
p227
sg5
VCNN.com - Kursk salvage operation gears up - July 4, 2001
p228
sa(dp229
g3
VHow U.S. Navy Commander Scott Waddle ... Discusses efforts to salvage the Russian submarine Kursk, ... including the civilian guests on board the American naval ...
p230
sg5
V`Deep secrets revealed' - Tags: SHIPS SUBMARINE disasters
p231
sa(dp232
g3
VKursk radiation threat denied Russian ... Kursk salvage operation gears up Commander Kuroyedov ... All 118 crew members on board the nuclear submarine ...
p233
sg5
VKursk Submarine Timeline - World News Atlas
p234
sa(dp235
g3
VSo actually the Kursk did sink due to ... out that the Typhoon is not shark in russian. They already have a submarine named the ... not allow people on board.
p236
sg5
VWorld\u2019s Biggest Submarine [with pics] | English Russia
p237
sa(dp238
g3
VCrew remained inside Russian nuclear submarine as firemen ... on poisonous gas on board the Nerpa nuclear submarine. ... happened on the Kursk ...
p239
sg5
VCrew remained inside Russian nuclear submarine as firemen battled ...
p240
sa(dp241
g3
V... but US nuclear submarine Scorpion sank with 99 on board just five ... The loss of power caused the boat to sink to ... The Russian Kursk sank to the ...
p242
sg5
VUNITED STATES 10 Apr 2013 Nuclear submarine USS Thresher sank 50 ...
p243
sa(dp244
g3
VAlmost a year after the Russian nuclear submarine Kursk sank, ... aide to the commander of the Russian ... All 118 crew on board the Kursk died after it sank in the ...
p245
sg5
VSalvage Effort for Russian Sub Begins - ABC News
p246
sa(dp247
g3
VFocuses on the sunken Russian submarine Kursk in the ... Loss of Russian Nuclear Submarine Fails to Sink ... Evidence of submarine commander Scott Waddle's ...
p248
sg5
VArticles citations with the tag: SUBMARINE disasters
p249
sa(dp250
g3
VSubmarine Rescue Ship and Tender with DSRV on board. ... Russian K-159 submarine sinks in Arctic ... Russian Submarine KURSK catastrophe
p251
sg5
VDutch Submarines: Links to peacetime submarine accidents, rescue ...
p252
sa(dp253
g3
VSubmarine Rescue Ship and Tender with DSRV on board. ... Russian K-159 submarine sinks in Arctic ... Russian Submarine KURSK catastrophe
p254
sg5
VThe World\u2019s Submarine Accidents | Submarine Diary
p255
sa(dp256
g3
V... watery grave for the 53 sailors on board the ... or sinks to the bottom, the ... brought home by the accident of Russian nuclear submarine Kursk in the ...
p257
sg5
VNavy submarine collides with cargo ship off Diu - Times Of India
p258
sa(dp259
g3
VA Russian Akula II nuclear submarine, ... an aide to the Russian Navy commander said ... All 118 sailors on board nuclear submarine Kursk had died a slow death ...
p260
sg5
VIndian nuclear submarine ambitions suffer setback?
p261
sa(dp262
g3
V... At least 20 men died on board a Russian nuclear submarine ... missile submarine Kursk is ... attack submarine K-8 sinks in rough seas ...
p263
sg5
VRussian Submarine Accidents - Docstoc \u2013 We Make Every Small ...
p264
sa(dp265
g3
V... the Soviet submarine "S-13" sinks the Kraft ... on board the "Wilhelm Gustloff" were approximately 5 ... Official report about death of Russian submarine "Kursk".
p266
sg5
VTHE SUBMARINE THAT SANK THE THIRD REICH: Russian Navy Chronicle
p267
sa(dp268
g3
Vrescue the men stuck on board the AS-28, ... commander, as saying. \u201cIt is ... Clothier) Topics: Russian submarine K-141 Kursk, AS-28, Kamchatka Peninsula, ...
p269
sg5
VTrapped Russian mini-sub, crew rescued in Pacific - General News ...
p270
sa(dp271
g3
Vaccident on board the submarine, the Kursk. ... operation was conducted by the commander of the ... Russian Submarine Kursk Northern ...
p272
sg5
VThe Kursk Accident - Docstoc \u2013 We Make Every Small Business Better
p273
sa(dp274
g3
V... The Oscar II-class nuclear-powered cruise missile submarine Kursk is ... attack submarine K-8 sinks in rough seas ... a used Russian submarine ...
p275
sg5
Vsoviet / russian submarine losses [Archive] - SUBSIM Radio Room Forums
p276
sa(dp277
g3
VSink Cruisers Game Midway Game ... the Russian submarine Kursk sank in the Arctic Ocean; ... and it had only ten crew on board.
p278
sg5
VSubmarine
p279
sa(dp280
g3
VSubmarine Rescue Ship and Tender with DSRV on board. ... Russian K-159 submarine sinks in Arctic ... Russian Submarine KURSK catastrophe
p281
sg5
VInternational Submarine Accidents ~ Sub Lounge
p282
sa(dp283
g3
V... in 2000 the nuclear submarine Kursk sank ... in 2003 nine sailors were killed in the Barents Sea on board a K-159 submarine, ... according to its commander ...
p284
sg5
VThe Jamestown Foundation: Another Disaster in the Russian Navy
p285
sa(dp286
g3
VTwenty die on Russian submarine At least 20 ... Kursk submarine went down Map of Barents Sea Arctic. All 118 crew members on board the nuclear submarine ...
p287
sg5
VWorld Disasters. Submarine Accident Timeline, 21st Century
p288
sa(dp289
g3
VThe Russian commander of the exercises and the Chinese ... of 'hitting' an on-board Russian torpedo\u2014which ... room on the Russian submarine Kursk, ...
p290
sg5
VHoly F**king Sh*t!!! Documentary on Kursk: Was definitely sunk by ...
p291
sa(dp292
g3
V... member on board--it ... Russian officials have insisted, however, that the Kursk may have been struck by a foreign spy submarine, causing the Kursk to sink and ...
p293
sg5
VRussians Recover Hull of Sunken Submarine Kursk - Los Angeles Times
p294
sa(dp295
g3
VThe sinking of the pride of the Russian submarine fleet, the Kursk, ... with their nuclear reactors still on board. ... the commander in charge of all U.S ...
p296
sg5
VAn Ocean Graveyard Of Nuclear Waste, Risks - Orlando Sentinel
p297
sa(dp298
g3
VNine days later the Navy announced that the submarine and the ninety-nine crewmen on board were ... Commander Francis A. Slattery, USN. Photo ...
p299
sg5
Vby Ed Offley - All Navy Books, Submarine Book Store, World War II ...
p300
sa(dp301
g3
VDaniel Stacey, London May 09, 2005 A FORMER British military official has backed a sensational claim that the Russian nuclear submarine, the Kursk, was torpedoed by ...
p302
sg5
VUS 'torpedoed Kursk nuclear sub' [Archive] - Military Photos
p303
sa.