(dp1
S''
S'NUL'
p2
sS'109.4'
p3
S'HUM'
p4
sS'78.3'
p5
S'HUM'
p6
sS'35.2'
p7
S'NUM'
p8
sS'35.3'
p9
S'NUM'
p10
sS'35.1'
p11
S'NUM'
p12
sS'35.4'
p13
S'NUM'
p14
sS'35.5'
p15
g2
sS'37.1'
p16
S'NUM'
p17
sS'37.2'
p18
S'HUM'
p19
sS'37.3'
p20
S'LOC'
p21
sS'37.4'
p22
S'ENTY'
p23
sS'37.5'
p24
g2
sS'73.1'
p25
S'ENTY'
p26
sS'73.2'
p27
S'HUM'
p28
sS'70.7'
p29
S'HUM'
p30
sS'73.3'
p31
S'HUM'
p32
sS'73.4'
p33
S'ENTY'
p34
sS'68.8'
p35
g2
sS'73.5'
p36
S'NUM'
p37
sS'78.1'
p38
S'NUM'
p39
sS'73.6'
p40
S'LOC'
p41
sS'45.3'
p42
S'LOC'
p43
sS'45.2'
p44
S'ENTY'
p45
sS'45.1'
p46
S'NUM'
p47
sS'73.7'
p48
g2
sS'45.4'
p49
g2
sS'92.3'
p50
S'HUM'
p51
sS'92.2'
p52
S'NUM'
p53
sS'92.1'
p54
S'NUM'
p55
sS'92.7'
p56
g2
sS'92.6'
p57
S'HUM'
p58
sS'92.5'
p59
S'ENTY'
p60
sS'92.4'
p61
S'ENTY'
p62
sS'140.6'
p63
g2
sS'49.6'
p64
g2
sS'49.5'
p65
S'LOC'
p66
sS'49.4'
p67
S'NUM'
p68
sS'49.3'
p69
S'HUM'
p70
sS'49.2'
p71
S'LOC'
p72
sS'49.1'
p73
S'HUM'
p74
sS'55.4'
p75
S'ENTY'
p76
sS'55.5'
p77
g2
sS'55.1'
p78
S'LOC'
p79
sS'55.2'
p80
S'NUM'
p81
sS'55.3'
p82
S'NUM'
p83
sS'90.1'
p84
S'ENTY'
p85
sS'90.3'
p86
S'HUM'
p87
sS'90.2'
p88
S'NUM'
p89
sS'90.5'
p90
S'ENTY'
p91
sS'90.4'
p92
S'HUM'
p93
sS'90.7'
p94
g2
sS'90.6'
p95
S'HUM'
p96
sS'97.2'
p97
S'NUM'
p98
sS'104.7'
p99
S'NUM'
p100
sS'96.7'
p101
g2
sS'96.6'
p102
S'NUM'
p103
sS'96.5'
p104
S'HUM'
p105
sS'96.4'
p106
S'LOC'
p107
sS'96.3'
p108
S'HUM'
p109
sS'96.2'
p110
S'NUM'
p111
sS'96.1'
p112
S'ENTY'
p113
sS'97.1'
p114
S'HUM'
p115
sS'94.5'
p116
S'DESC'
p117
sS'94.4'
p118
S'HUM'
p119
sS'94.7'
p120
g2
sS'94.6'
p121
S'DESC'
p122
sS'94.1'
p123
S'HUM'
p124
sS'94.3'
p125
S'DESC'
p126
sS'94.2'
p127
S'HUM'
p128
sS'104.1'
p129
S'LOC'
p130
sS'113.7'
p131
g2
sS'59.1'
p132
S'HUM'
p133
sS'59.2'
p134
S'NUM'
p135
sS'59.3'
p136
S'DESC'
p137
sS'59.4'
p138
S'NUM'
p139
sS'59.5'
p140
S'HUM'
p141
sS'59.6'
p142
g2
sS'129.4'
p143
S'LOC'
p144
sS'57.4'
p145
S'DESC'
p146
sS'57.5'
p147
g2
sS'57.2'
p148
S'HUM'
p149
sS'57.3'
p150
S'ENTY'
p151
sS'57.1'
p152
S'ENTY'
p153
sS'95.2'
p154
S'NUM'
p155
sS'67.7'
p156
g2
sS'67.6'
p157
S'HUM'
p158
sS'67.5'
p159
S'NUM'
p160
sS'95.3'
p161
S'HUM'
p162
sS'67.3'
p163
S'NUM'
p164
sS'67.2'
p165
S'LOC'
p166
sS'67.1'
p167
S'HUM'
p168
sS'129.2'
p169
S'NUM'
p170
sS'95.5'
p171
S'LOC'
p172
sS'95.6'
p173
g2
sS'71.2'
p174
S'NUM'
p175
sS'71.3'
p176
S'HUM'
p177
sS'71.1'
p178
S'ENTY'
p179
sS'71.6'
p180
S'LOC'
p181
sS'71.7'
p182
g2
sS'71.4'
p183
S'LOC'
p184
sS'71.5'
p185
S'HUM'
p186
sS'41.5'
p187
g2
sS'41.4'
p188
S'HUM'
p189
sS'41.3'
p190
S'DESC'
p191
sS'41.2'
p192
S'HUM'
p193
sS'41.1'
p194
S'NUM'
p195
sS'117.1'
p196
S'ENTY'
p197
sS'43.5'
p198
g2
sS'43.4'
p199
S'NUM'
p200
sS'43.1'
p201
S'HUM'
p202
sS'43.3'
p203
S'NUM'
p204
sS'43.2'
p205
S'ENTY'
p206
sS'63.3'
p207
S'LOC'
p208
sS'63.2'
p209
S'ENTY'
p210
sS'63.1'
p211
S'ENTY'
p212
sS'63.4'
p213
g2
sS'61.1'
p214
S'HUM'
p215
sS'61.3'
p216
S'DESC'
p217
sS'61.2'
p218
S'NUM'
p219
sS'61.5'
p220
S'HUM'
p221
sS'61.4'
p222
S'LOC'
p223
sS'61.6'
p224
g2
sS'134.3'
p225
S'HUM'
p226
sS'134.2'
p227
S'ENTY'
p228
sS'134.1'
p229
S'DESC'
p230
sS'134.6'
p231
g2
sS'134.5'
p232
S'NUM'
p233
sS'134.4'
p234
S'NUM'
p235
sS'53.2'
p236
S'LOC'
p237
sS'53.3'
p238
S'NUM'
p239
sS'53.1'
p240
S'HUM'
p241
sS'53.4'
p242
S'ENTY'
p243
sS'53.5'
p244
g2
sS'2.2'
p245
S'HUM'
p246
sS'51.1'
p247
S'HUM'
p248
sS'51.2'
p249
S'NUM'
p250
sS'51.3'
p251
S'LOC'
p252
sS'51.4'
p253
g2
sS'5.1'
p254
S'ABBR'
p255
sS'5.2'
p256
S'NUM'
p257
sS'5.3'
p258
S'LOC'
p259
sS'5.4'
p260
S'HUM'
p261
sS'5.5'
p262
S'HUM'
p263
sS'5.6'
p264
g2
sS'75.6'
p265
S'HUM'
p266
sS'75.7'
p267
S'ENTY'
p268
sS'75.4'
p269
S'LOC'
p270
sS'75.5'
p271
S'HUM'
p272
sS'75.2'
p273
S'ENTY'
p274
sS'75.3'
p275
S'ENTY'
p276
sS'75.1'
p277
S'LOC'
p278
sS'115.3'
p279
S'NUM'
p280
sS'77.8'
p281
g2
sS'95.1'
p282
S'NUM'
p283
sS'47.1'
p284
S'NUM'
p285
sS'77.5'
p286
S'NUM'
p287
sS'47.3'
p288
S'HUM'
p289
sS'47.2'
p290
S'HUM'
p291
sS'47.5'
p292
S'ENTY'
p293
sS'47.4'
p294
S'NUM'
p295
sS'77.2'
p296
S'LOC'
p297
sS'47.6'
p298
g2
sS'129.5'
p299
S'LOC'
p300
sS'115.6'
p301
S'NUM'
p302
sS'137.3'
p303
S'LOC'
p304
sS'72.1'
p305
S'LOC'
p306
sS'38.2'
p307
S'HUM'
p308
sS'75.8'
p309
g2
sS'130.7'
p310
g2
sS'130.6'
p311
S'HUM'
p312
sS'130.5'
p313
S'LOC'
p314
sS'130.4'
p315
S'NUM'
p316
sS'130.3'
p317
S'NUM'
p318
sS'130.2'
p319
S'LOC'
p320
sS'130.1'
p321
S'DESC'
p322
sS'132.5'
p323
S'HUM'
p324
sS'132.4'
p325
S'HUM'
p326
sS'132.6'
p327
g2
sS'132.1'
p328
S'NUM'
p329
sS'117.2'
p330
S'NUM'
p331
sS'132.3'
p332
S'LOC'
p333
sS'132.2'
p334
S'HUM'
p335
sS'112.3'
p336
S'NUM'
p337
sS'112.2'
p338
S'LOC'
p339
sS'112.1'
p340
S'NUM'
p341
sS'112.7'
p342
g2
sS'112.6'
p343
S'HUM'
p344
sS'112.5'
p345
S'HUM'
p346
sS'112.4'
p347
S'HUM'
p348
sS'12.3'
p349
S'NUM'
p350
sS'12.2'
p351
S'LOC'
p352
sS'12.1'
p353
S'HUM'
p354
sS'6.4'
p355
S'LOC'
p356
sS'6.3'
p357
S'HUM'
p358
sS'6.2'
p359
S'LOC'
p360
sS'6.1'
p361
S'NUM'
p362
sS'12.4'
p363
S'NUM'
p364
sS'80.3'
p365
S'HUM'
p366
sS'10.1'
p367
S'ENTY'
p368
sS'10.3'
p369
S'ENTY'
p370
sS'10.2'
p371
S'HUM'
p372
sS'10.5'
p373
g2
sS'10.4'
p374
S'HUM'
p375
sS'80.1'
p376
S'LOC'
p377
sS'16.4'
p378
g2
sS'16.3'
p379
S'HUM'
p380
sS'16.2'
p381
S'DESC'
p382
sS'16.1'
p383
S'ENTY'
p384
sS'126.6'
p385
S'DESC'
p386
sS'54.10'
p387
g2
sS'126.4'
p388
S'NUM'
p389
sS'126.5'
p390
S'NUM'
p391
sS'126.2'
p392
S'HUM'
p393
sS'126.3'
p394
S'HUM'
p395
sS'126.1'
p396
S'NUM'
p397
sS'69.1'
p398
S'NUM'
p399
sS'69.3'
p400
S'NUM'
p401
sS'69.2'
p402
S'HUM'
p403
sS'69.5'
p404
S'LOC'
p405
sS'69.4'
p406
S'HUM'
p407
sS'69.7'
p408
S'HUM'
p409
sS'69.6'
p410
S'HUM'
p411
sS'129.3'
p412
S'LOC'
p413
sS'77.4'
p414
S'HUM'
p415
sS'26.6'
p416
g2
sS'26.4'
p417
S'LOC'
p418
sS'26.5'
p419
S'ENTY'
p420
sS'26.2'
p421
S'HUM'
p422
sS'26.3'
p423
S'NUM'
p424
sS'26.1'
p425
S'HUM'
p426
sS'14.5'
p427
g2
sS'14.4'
p428
S'HUM'
p429
sS'77.7'
p430
S'HUM'
p431
sS'14.1'
p432
S'ENTY'
p433
sS'14.3'
p434
S'HUM'
p435
sS'14.2'
p436
S'LOC'
p437
sS'24.4'
p438
S'ENTY'
p439
sS'24.5'
p440
S'ENTY'
p441
sS'24.6'
p442
g2
sS'116.4'
p443
S'NUM'
p444
sS'116.3'
p445
S'ENTY'
p446
sS'24.1'
p447
S'NUM'
p448
sS'24.2'
p449
S'LOC'
p450
sS'24.3'
p451
S'LOC'
p452
sS'22.2'
p453
S'NUM'
p454
sS'22.3'
p455
S'HUM'
p456
sS'65.7'
p457
g2
sS'65.6'
p458
S'NUM'
p459
sS'65.1'
p460
S'ENTY'
p461
sS'117.6'
p462
S'ENTY'
p463
sS'65.3'
p464
S'NUM'
p465
sS'22.5'
p466
g2
sS'114.5'
p467
S'HUM'
p468
sS'114.4'
p469
S'ENTY'
p470
sS'114.7'
p471
g2
sS'77.3'
p472
S'NUM'
p473
sS'114.1'
p474
S'HUM'
p475
sS'114.3'
p476
S'HUM'
p477
sS'114.2'
p478
S'HUM'
p479
sS'138.6'
p480
g2
sS'138.5'
p481
S'HUM'
p482
sS'114.6'
p483
S'NUM'
p484
sS'138.3'
p485
S'LOC'
p486
sS'138.2'
p487
S'NUM'
p488
sS'138.1'
p489
S'NUM'
p490
sS'70.6'
p491
S'DESC'
p492
sS'82.3'
p493
S'HUM'
p494
sS'70.5'
p495
S'HUM'
p496
sS'78.7'
p497
S'ENTY'
p498
sS'117.7'
p499
g2
sS'78.6'
p500
S'HUM'
p501
sS'79.2'
p502
S'NUM'
p503
sS'79.3'
p504
S'HUM'
p505
sS'79.1'
p506
S'NUM'
p507
sS'79.6'
p508
S'NUM'
p509
sS'79.7'
p510
g2
sS'79.4'
p511
S'NUM'
p512
sS'79.5'
p513
S'NUM'
p514
sS'122.2'
p515
S'NUM'
p516
sS'20.1'
p517
S'NUM'
p518
sS'20.2'
p519
S'HUM'
p520
sS'20.3'
p521
S'NUM'
p522
sS'20.4'
p523
S'NUM'
p524
sS'20.5'
p525
S'NUM'
p526
sS'20.6'
p527
g2
sS'122.5'
p528
S'LOC'
p529
sS'139.6'
p530
g2
sS'122.8'
p531
g2
sS'70.3'
p532
S'NUM'
p533
sS'78.2'
p534
S'NUM'
p535
sS'120.1'
p536
S'HUM'
p537
sS'120.2'
p538
S'LOC'
p539
sS'120.3'
p540
S'HUM'
p541
sS'120.4'
p542
S'NUM'
p543
sS'120.5'
p544
S'ENTY'
p545
sS'120.6'
p546
S'NUM'
p547
sS'120.7'
p548
g2
sS'139.5'
p549
S'LOC'
p550
sS'82.5'
p551
S'HUM'
p552
sS'70.2'
p553
S'LOC'
p554
sS'89.3'
p555
S'HUM'
p556
sS'89.2'
p557
S'LOC'
p558
sS'89.1'
p559
S'LOC'
p560
sS'89.7'
p561
g2
sS'89.6'
p562
S'LOC'
p563
sS'89.5'
p564
S'NUM'
p565
sS'89.4'
p566
S'NUM'
p567
sS'70.1'
p568
S'NUM'
p569
sS'136.1'
p570
S'HUM'
p571
sS'136.3'
p572
S'HUM'
p573
sS'136.2'
p574
S'LOC'
p575
sS'136.5'
p576
S'NUM'
p577
sS'136.4'
p578
S'HUM'
p579
sS'136.7'
p580
S'HUM'
p581
sS'136.6'
p582
S'NUM'
p583
sS'136.8'
p584
g2
sS'104.8'
p585
g2
sS'66.7'
p586
S'ENTY'
p587
sS'108.2'
p588
S'HUM'
p589
sS'108.3'
p590
S'HUM'
p591
sS'108.1'
p592
S'HUM'
p593
sS'108.6'
p594
S'HUM'
p595
sS'108.7'
p596
g2
sS'108.4'
p597
S'ENTY'
p598
sS'108.5'
p599
S'ENTY'
p600
sS'72.7'
p601
g2
sS'72.6'
p602
S'HUM'
p603
sS'99.4'
p604
S'NUM'
p605
sS'99.5'
p606
S'LOC'
p607
sS'99.6'
p608
S'DESC'
p609
sS'99.7'
p610
g2
sS'99.1'
p611
S'ENTY'
p612
sS'99.2'
p613
S'NUM'
p614
sS'99.3'
p615
S'LOC'
p616
sS'72.3'
p617
S'LOC'
p618
sS'72.2'
p619
S'LOC'
p620
sS'125.8'
p621
g2
sS'28.1'
p622
S'HUM'
p623
sS'28.2'
p624
S'NUM'
p625
sS'28.3'
p626
S'LOC'
p627
sS'28.4'
p628
S'NUM'
p629
sS'28.5'
p630
g2
sS'118.1'
p631
S'NUM'
p632
sS'118.3'
p633
S'NUM'
p634
sS'118.2'
p635
S'HUM'
p636
sS'118.5'
p637
S'HUM'
p638
sS'118.4'
p639
S'HUM'
p640
sS'118.7'
p641
g2
sS'118.6'
p642
S'NUM'
p643
sS'110.1'
p644
S'ENTY'
p645
sS'110.3'
p646
S'LOC'
p647
sS'110.2'
p648
S'NUM'
p649
sS'110.5'
p650
S'HUM'
p651
sS'110.4'
p652
S'HUM'
p653
sS'110.7'
p654
g2
sS'110.6'
p655
S'ENTY'
p656
sS'18.1'
p657
S'ENTY'
p658
sS'18.3'
p659
S'NUM'
p660
sS'18.2'
p661
S'NUM'
p662
sS'18.5'
p663
S'HUM'
p664
sS'18.4'
p665
S'HUM'
p666
sS'18.7'
p667
g2
sS'18.6'
p668
S'HUM'
p669
sS'1.4'
p670
S'HUM'
p671
sS'1.5'
p672
S'ENTY'
p673
sS'1.6'
p674
g2
sS'1.1'
p675
S'NUM'
p676
sS'1.2'
p677
S'DESC'
p678
sS'1.3'
p679
S'LOC'
p680
sS'30.3'
p681
S'LOC'
p682
sS'30.2'
p683
S'LOC'
p684
sS'30.1'
p685
S'HUM'
p686
sS'128.3'
p687
S'LOC'
p688
sS'128.4'
p689
S'LOC'
p690
sS'30.6'
p691
g2
sS'30.5'
p692
S'ENTY'
p693
sS'30.4'
p694
S'HUM'
p695
sS'38.3'
p696
S'NUM'
p697
sS'2.3'
p698
S'ENTY'
p699
sS'38.1'
p700
S'DESC'
p701
sS'38.5'
p702
g2
sS'38.4'
p703
S'ENTY'
p704
sS'81.3'
p705
S'HUM'
p706
sS'81.2'
p707
S'ENTY'
p708
sS'81.1'
p709
S'ENTY'
p710
sS'81.7'
p711
g2
sS'81.6'
p712
S'NUM'
p713
sS'81.5'
p714
S'NUM'
p715
sS'81.4'
p716
S'HUM'
p717
sS'124.4'
p718
S'DESC'
p719
sS'124.5'
p720
S'NUM'
p721
sS'124.6'
p722
S'HUM'
p723
sS'124.7'
p724
g2
sS'2.5'
p725
g2
sS'124.2'
p726
S'LOC'
p727
sS'124.3'
p728
S'NUM'
p729
sS'2.4'
p730
S'LOC'
p731
sS'46.4'
p732
S'LOC'
p733
sS'46.5'
p734
S'DESC'
p735
sS'46.6'
p736
S'DESC'
p737
sS'46.7'
p738
g2
sS'93.2'
p739
S'NUM'
p740
sS'46.1'
p741
S'HUM'
p742
sS'46.2'
p743
S'NUM'
p744
sS'46.3'
p745
S'NUM'
p746
sS'83.1'
p747
S'DESC'
p748
sS'83.3'
p749
S'NUM'
p750
sS'83.2'
p751
S'NUM'
p752
sS'83.5'
p753
S'NUM'
p754
sS'83.4'
p755
S'ENTY'
p756
sS'93.8'
p757
g2
sS'83.6'
p758
S'HUM'
p759
sS'91.4'
p760
S'HUM'
p761
sS'91.5'
p762
S'NUM'
p763
sS'100.8'
p764
g2
sS'91.7'
p765
g2
sS'91.1'
p766
S'HUM'
p767
sS'91.2'
p768
S'HUM'
p769
sS'91.3'
p770
S'ENTY'
p771
sS'85.7'
p772
g2
sS'85.6'
p773
S'ENTY'
p774
sS'85.5'
p775
S'DESC'
p776
sS'100.1'
p777
S'LOC'
p778
sS'100.6'
p779
S'ENTY'
p780
sS'100.7'
p781
S'HUM'
p782
sS'100.4'
p783
S'HUM'
p784
sS'77.6'
p785
S'HUM'
p786
sS'87.8'
p787
g2
sS'87.5'
p788
S'DESC'
p789
sS'87.4'
p790
S'ENTY'
p791
sS'87.7'
p792
S'LOC'
p793
sS'87.6'
p794
S'ENTY'
p795
sS'87.1'
p796
S'NUM'
p797
sS'84.8'
p798
g2
sS'87.3'
p799
S'ENTY'
p800
sS'87.2'
p801
S'NUM'
p802
sS'48.2'
p803
S'HUM'
p804
sS'48.3'
p805
S'NUM'
p806
sS'48.1'
p807
S'NUM'
p808
sS'48.6'
p809
g2
sS'48.4'
p810
S'LOC'
p811
sS'48.5'
p812
S'NUM'
p813
sS'69.8'
p814
g2
sS'102.1'
p815
S'ENTY'
p816
sS'102.2'
p817
S'NUM'
p818
sS'102.3'
p819
S'NUM'
p820
sS'102.4'
p821
S'NUM'
p822
sS'102.5'
p823
S'NUM'
p824
sS'102.6'
p825
S'HUM'
p826
sS'102.7'
p827
g2
sS'7.2'
p828
S'NUM'
p829
sS'7.3'
p830
S'LOC'
p831
sS'140.4'
p832
S'HUM'
p833
sS'7.1'
p834
S'ENTY'
p835
sS'140.2'
p836
S'HUM'
p837
sS'140.3'
p838
S'NUM'
p839
sS'7.4'
p840
g2
sS'140.1'
p841
S'ABBR'
p842
sS'104.6'
p843
S'NUM'
p844
sS'97.3'
p845
S'ENTY'
p846
sS'104.4'
p847
S'HUM'
p848
sS'104.5'
p849
S'NUM'
p850
sS'104.2'
p851
S'ENTY'
p852
sS'104.3'
p853
S'ENTY'
p854
sS'97.4'
p855
S'ENTY'
p856
sS'97.5'
p857
S'ENTY'
p858
sS'106.4'
p859
S'NUM'
p860
sS'106.5'
p861
S'HUM'
p862
sS'106.6'
p863
S'HUM'
p864
sS'106.7'
p865
g2
sS'95.4'
p866
S'HUM'
p867
sS'106.1'
p868
S'HUM'
p869
sS'106.2'
p870
S'HUM'
p871
sS'106.3'
p872
S'HUM'
p873
sS'44.6'
p874
S'NUM'
p875
sS'44.7'
p876
g2
sS'44.4'
p877
S'NUM'
p878
sS'44.5'
p879
S'LOC'
p880
sS'44.2'
p881
S'NUM'
p882
sS'44.3'
p883
S'NUM'
p884
sS'44.1'
p885
S'HUM'
p886
sS'77.1'
p887
S'NUM'
p888
sS'115.4'
p889
S'HUM'
p890
sS'6.5'
p891
g2
sS'66.2'
p892
S'HUM'
p893
sS'66.3'
p894
S'HUM'
p895
sS'66.1'
p896
S'NUM'
p897
sS'66.6'
p898
S'LOC'
p899
sS'12.5'
p900
g2
sS'66.4'
p901
S'NUM'
p902
sS'66.5'
p903
S'LOC'
p904
sS'34.6'
p905
g2
sS'34.5'
p906
S'LOC'
p907
sS'34.4'
p908
S'HUM'
p909
sS'34.3'
p910
S'NUM'
p911
sS'34.2'
p912
S'NUM'
p913
sS'34.1'
p914
S'NUM'
p915
sS'36.5'
p916
S'NUM'
p917
sS'36.4'
p918
S'HUM'
p919
sS'2.1'
p920
S'HUM'
p921
sS'36.6'
p922
g2
sS'36.1'
p923
S'LOC'
p924
sS'36.3'
p925
S'HUM'
p926
sS'36.2'
p927
S'NUM'
p928
sS'137.4'
p929
S'HUM'
p930
sS'137.5'
p931
S'NUM'
p932
sS'137.6'
p933
S'HUM'
p934
sS'137.7'
p935
g2
sS'137.1'
p936
S'LOC'
p937
sS'40.2'
p938
S'LOC'
p939
sS'40.3'
p940
S'HUM'
p941
sS'40.1'
p942
S'NUM'
p943
sS'40.6'
p944
g2
sS'40.4'
p945
S'ENTY'
p946
sS'40.5'
p947
S'HUM'
p948
sS'42.1'
p949
S'NUM'
p950
sS'42.2'
p951
S'ENTY'
p952
sS'42.3'
p953
S'NUM'
p954
sS'42.4'
p955
S'HUM'
p956
sS'42.5'
p957
g2
sS'62.4'
p958
S'HUM'
p959
sS'62.5'
p960
g2
sS'62.2'
p961
S'NUM'
p962
sS'62.3'
p963
S'ENTY'
p964
sS'62.1'
p965
S'LOC'
p966
sS'32.1'
p967
S'HUM'
p968
sS'60.5'
p969
g2
sS'32.3'
p970
S'HUM'
p971
sS'32.2'
p972
S'NUM'
p973
sS'32.5'
p974
g2
sS'32.4'
p975
S'ENTY'
p976
sS'60.2'
p977
S'NUM'
p978
sS'60.3'
p979
S'NUM'
p980
sS'56.3'
p981
S'HUM'
p982
sS'56.2'
p983
S'DESC'
p984
sS'56.1'
p985
S'NUM'
p986
sS'56.5'
p987
g2
sS'56.4'
p988
S'HUM'
p989
sS'115.2'
p990
S'LOC'
p991
sS'72.5'
p992
S'NUM'
p993
sS'8.1'
p994
S'HUM'
p995
sS'8.3'
p996
S'LOC'
p997
sS'8.2'
p998
S'NUM'
p999
sS'8.5'
p1000
g2
sS'8.4'
p1001
S'HUM'
p1002
sS'85.1'
p1003
S'ENTY'
p1004
sS'128.1'
p1005
S'ABBR'
p1006
sS'128.2'
p1007
S'NUM'
p1008
sS'76.4'
p1009
S'ENTY'
p1010
sS'128.5'
p1011
S'LOC'
p1012
sS'122.6'
p1013
S'LOC'
p1014
sS'128.6'
p1015
g2
sS'76.8'
p1016
g2
sS'58.5'
p1017
g2
sS'58.4'
p1018
S'HUM'
p1019
sS'58.1'
p1020
S'LOC'
p1021
sS'58.3'
p1022
S'HUM'
p1023
sS'58.2'
p1024
S'HUM'
p1025
sS'122.7'
p1026
S'HUM'
p1027
sS'115.5'
p1028
S'NUM'
p1029
sS'121.2'
p1030
S'LOC'
p1031
sS'19.4'
p1032
S'LOC'
p1033
sS'19.5'
p1034
S'NUM'
p1035
sS'19.6'
p1036
g2
sS'19.1'
p1037
S'HUM'
p1038
sS'19.2'
p1039
S'LOC'
p1040
sS'19.3'
p1041
S'NUM'
p1042
sS'68.4'
p1043
S'HUM'
p1044
sS'68.5'
p1045
S'LOC'
p1046
sS'68.6'
p1047
S'HUM'
p1048
sS'68.7'
p1049
S'LOC'
p1050
sS'68.1'
p1051
S'LOC'
p1052
sS'68.2'
p1053
S'NUM'
p1054
sS'68.3'
p1055
S'NUM'
p1056
sS'13.4'
p1057
g2
sS'13.2'
p1058
S'HUM'
p1059
sS'13.3'
p1060
S'HUM'
p1061
sS'13.1'
p1062
S'ENTY'
p1063
sS'11.4'
p1064
S'ENTY'
p1065
sS'11.5'
p1066
S'ENTY'
p1067
sS'11.6'
p1068
S'DESC'
p1069
sS'11.7'
p1070
g2
sS'11.1'
p1071
S'HUM'
p1072
sS'11.2'
p1073
S'HUM'
p1074
sS'11.3'
p1075
S'NUM'
p1076
sS'17.2'
p1077
S'ENTY'
p1078
sS'17.3'
p1079
S'HUM'
p1080
sS'17.1'
p1081
S'NUM'
p1082
sS'17.4'
p1083
S'NUM'
p1084
sS'17.5'
p1085
g2
sS'133.1'
p1086
S'LOC'
p1087
sS'131.8'
p1088
g2
sS'127.3'
p1089
S'NUM'
p1090
sS'127.2'
p1091
S'NUM'
p1092
sS'127.1'
p1093
S'LOC'
p1094
sS'70.4'
p1095
S'HUM'
p1096
sS'127.7'
p1097
g2
sS'127.6'
p1098
S'HUM'
p1099
sS'127.5'
p1100
S'HUM'
p1101
sS'127.4'
p1102
S'HUM'
p1103
sS'70.8'
p1104
g2
sS'60.4'
p1105
S'HUM'
p1106
sS'126.8'
p1107
g2
sS'140.5'
p1108
S'NUM'
p1109
sS'15.1'
p1110
S'HUM'
p1111
sS'15.2'
p1112
S'HUM'
p1113
sS'15.3'
p1114
S'LOC'
p1115
sS'15.4'
p1116
g2
sS'119.4'
p1117
S'ENTY'
p1118
sS'60.1'
p1119
S'LOC'
p1120
sS'64.1'
p1121
S'HUM'
p1122
sS'64.2'
p1123
S'LOC'
p1124
sS'64.3'
p1125
S'NUM'
p1126
sS'64.4'
p1127
S'ENTY'
p1128
sS'64.5'
p1129
S'LOC'
p1130
sS'64.6'
p1131
g2
sS'126.7'
p1132
S'HUM'
p1133
sS'135.6'
p1134
g2
sS'135.4'
p1135
S'NUM'
p1136
sS'135.5'
p1137
S'LOC'
p1138
sS'135.2'
p1139
S'HUM'
p1140
sS'135.3'
p1141
S'NUM'
p1142
sS'135.1'
p1143
S'LOC'
p1144
sS'52.6'
p1145
g2
sS'52.5'
p1146
S'LOC'
p1147
sS'52.4'
p1148
S'NUM'
p1149
sS'52.3'
p1150
S'HUM'
p1151
sS'52.2'
p1152
S'LOC'
p1153
sS'52.1'
p1154
S'NUM'
p1155
sS'67.4'
p1156
S'LOC'
p1157
sS'50.5'
p1158
g2
sS'50.4'
p1159
S'LOC'
p1160
sS'50.1'
p1161
S'NUM'
p1162
sS'50.3'
p1163
S'LOC'
p1164
sS'50.2'
p1165
S'NUM'
p1166
sS'74.3'
p1167
S'NUM'
p1168
sS'74.2'
p1169
S'LOC'
p1170
sS'74.1'
p1171
S'HUM'
p1172
sS'74.7'
p1173
g2
sS'74.6'
p1174
S'HUM'
p1175
sS'74.5'
p1176
S'NUM'
p1177
sS'74.4'
p1178
S'HUM'
p1179
sS'123.6'
p1180
g2
sS'123.5'
p1181
S'LOC'
p1182
sS'123.4'
p1183
S'HUM'
p1184
sS'123.3'
p1185
S'LOC'
p1186
sS'123.2'
p1187
S'LOC'
p1188
sS'123.1'
p1189
S'NUM'
p1190
sS'76.1'
p1191
S'HUM'
p1192
sS'76.3'
p1193
S'HUM'
p1194
sS'76.2'
p1195
S'ENTY'
p1196
sS'76.5'
p1197
S'HUM'
p1198
sS'121.8'
p1199
g2
sS'76.7'
p1200
S'ENTY'
p1201
sS'76.6'
p1202
S'NUM'
p1203
sS'121.5'
p1204
S'ENTY'
p1205
sS'121.4'
p1206
S'NUM'
p1207
sS'121.7'
p1208
S'NUM'
p1209
sS'121.6'
p1210
S'DESC'
p1211
sS'121.1'
p1212
S'HUM'
p1213
sS'121.3'
p1214
S'ENTY'
p1215
sS'124.1'
p1216
S'NUM'
p1217
sS'66.8'
p1218
g2
sS'131.2'
p1219
S'NUM'
p1220
sS'131.3'
p1221
S'NUM'
p1222
sS'131.1'
p1223
S'ENTY'
p1224
sS'131.6'
p1225
S'NUM'
p1226
sS'131.7'
p1227
S'HUM'
p1228
sS'131.4'
p1229
S'LOC'
p1230
sS'131.5'
p1231
S'NUM'
p1232
sS'88.6'
p1233
S'NUM'
p1234
sS'88.7'
p1235
g2
sS'88.4'
p1236
S'LOC'
p1237
sS'88.5'
p1238
S'ENTY'
p1239
sS'88.2'
p1240
S'HUM'
p1241
sS'88.3'
p1242
S'NUM'
p1243
sS'88.1'
p1244
S'LOC'
p1245
sS'54.9'
p1246
S'HUM'
p1247
sS'54.8'
p1248
S'HUM'
p1249
sS'133.2'
p1250
S'NUM'
p1251
sS'133.3'
p1252
S'ENTY'
p1253
sS'133.4'
p1254
S'LOC'
p1255
sS'133.5'
p1256
S'LOC'
p1257
sS'133.6'
p1258
g2
sS'116.6'
p1259
S'HUM'
p1260
sS'54.1'
p1261
S'LOC'
p1262
sS'54.3'
p1263
S'HUM'
p1264
sS'54.2'
p1265
S'NUM'
p1266
sS'54.5'
p1267
S'LOC'
p1268
sS'54.4'
p1269
S'NUM'
p1270
sS'54.7'
p1271
S'HUM'
p1272
sS'54.6'
p1273
S'HUM'
p1274
sS'113.6'
p1275
S'HUM'
p1276
sS'93.6'
p1277
S'NUM'
p1278
sS'113.4'
p1279
S'LOC'
p1280
sS'113.5'
p1281
S'ENTY'
p1282
sS'113.2'
p1283
S'HUM'
p1284
sS'113.3'
p1285
S'HUM'
p1286
sS'93.7'
p1287
S'HUM'
p1288
sS'93.4'
p1289
S'HUM'
p1290
sS'116.2'
p1291
S'NUM'
p1292
sS'3.4'
p1293
g2
sS'93.5'
p1294
S'LOC'
p1295
sS'3.2'
p1296
S'NUM'
p1297
sS'3.3'
p1298
S'LOC'
p1299
sS'3.1'
p1300
S'NUM'
p1301
sS'93.3'
p1302
S'LOC'
p1303
sS'65.5'
p1304
S'NUM'
p1305
sS'65.4'
p1306
S'NUM'
p1307
sS'109.6'
p1308
g2
sS'109.5'
p1309
S'HUM'
p1310
sS'93.1'
p1311
S'HUM'
p1312
sS'109.3'
p1313
S'NUM'
p1314
sS'109.2'
p1315
S'NUM'
p1316
sS'109.1'
p1317
S'NUM'
p1318
sS'22.1'
p1319
S'LOC'
p1320
sS'80.6'
p1321
S'LOC'
p1322
sS'22.4'
p1323
S'ENTY'
p1324
sS'65.2'
p1325
S'ENTY'
p1326
sS'27.3'
p1327
S'LOC'
p1328
sS'27.2'
p1329
S'HUM'
p1330
sS'27.1'
p1331
S'ENTY'
p1332
sS'129.6'
p1333
g2
sS'129.1'
p1334
S'ABBR'
p1335
sS'83.7'
p1336
g2
sS'27.5'
p1337
g2
sS'27.4'
p1338
S'NUM'
p1339
sS'80.7'
p1340
g2
sS'25.1'
p1341
S'ENTY'
p1342
sS'117.3'
p1343
S'LOC'
p1344
sS'25.3'
p1345
S'HUM'
p1346
sS'25.2'
p1347
S'NUM'
p1348
sS'25.5'
p1349
g2
sS'25.4'
p1350
S'LOC'
p1351
sS'117.4'
p1352
S'ENTY'
p1353
sS'117.5'
p1354
S'DESC'
p1355
sS'91.6'
p1356
S'NUM'
p1357
sS'115.1'
p1358
S'NUM'
p1359
sS'23.5'
p1360
g2
sS'23.4'
p1361
S'HUM'
p1362
sS'23.3'
p1363
S'NUM'
p1364
sS'23.2'
p1365
S'HUM'
p1366
sS'23.1'
p1367
S'ENTY'
p1368
sS'115.7'
p1369
S'HUM'
p1370
sS'115.8'
p1371
g2
sS'33.4'
p1372
S'NUM'
p1373
sS'33.5'
p1374
g2
sS'80.4'
p1375
S'NUM'
p1376
sS'80.5'
p1377
S'NUM'
p1378
sS'80.2'
p1379
S'HUM'
p1380
sS'33.1'
p1381
S'DESC'
p1382
sS'33.2'
p1383
S'NUM'
p1384
sS'33.3'
p1385
S'LOC'
p1386
sS'82.4'
p1387
S'HUM'
p1388
sS'100.2'
p1389
S'HUM'
p1390
sS'82.6'
p1391
g2
sS'138.4'
p1392
S'NUM'
p1393
sS'82.1'
p1394
S'NUM'
p1395
sS'82.2'
p1396
S'NUM'
p1397
sS'78.8'
p1398
g2
sS'139.2'
p1399
S'LOC'
p1400
sS'139.3'
p1401
S'HUM'
p1402
sS'39.4'
p1403
g2
sS'139.1'
p1404
S'NUM'
p1405
sS'39.2'
p1406
S'NUM'
p1407
sS'39.3'
p1408
S'ENTY'
p1409
sS'139.4'
p1410
S'LOC'
p1411
sS'39.1'
p1412
S'ENTY'
p1413
sS'21.4'
p1414
g2
sS'85.4'
p1415
S'NUM'
p1416
sS'21.1'
p1417
S'NUM'
p1418
sS'21.3'
p1419
S'LOC'
p1420
sS'21.2'
p1421
S'LOC'
p1422
sS'85.3'
p1423
S'LOC'
p1424
sS'113.1'
p1425
S'HUM'
p1426
sS'97.6'
p1427
S'HUM'
p1428
sS'85.2'
p1429
S'HUM'
p1430
sS'125.1'
p1431
S'ENTY'
p1432
sS'72.4'
p1433
S'ENTY'
p1434
sS'125.3'
p1435
S'NUM'
p1436
sS'125.2'
p1437
S'HUM'
p1438
sS'125.5'
p1439
S'NUM'
p1440
sS'125.4'
p1441
S'NUM'
p1442
sS'125.7'
p1443
S'LOC'
p1444
sS'125.6'
p1445
S'NUM'
p1446
sS'9.4'
p1447
S'ENTY'
p1448
sS'9.5'
p1449
g2
sS'100.5'
p1450
S'NUM'
p1451
sS'9.1'
p1452
S'HUM'
p1453
sS'9.2'
p1454
S'ENTY'
p1455
sS'9.3'
p1456
S'DESC'
p1457
sS'101.7'
p1458
S'HUM'
p1459
sS'101.6'
p1460
S'LOC'
p1461
sS'101.5'
p1462
S'HUM'
p1463
sS'101.4'
p1464
S'NUM'
p1465
sS'101.3'
p1466
S'NUM'
p1467
sS'101.2'
p1468
S'HUM'
p1469
sS'101.1'
p1470
S'NUM'
p1471
sS'116.7'
p1472
g2
sS'97.7'
p1473
g2
sS'101.8'
p1474
g2
sS'103.5'
p1475
S'NUM'
p1476
sS'103.4'
p1477
S'NUM'
p1478
sS'103.7'
p1479
g2
sS'103.6'
p1480
S'HUM'
p1481
sS'103.1'
p1482
S'LOC'
p1483
sS'103.3'
p1484
S'NUM'
p1485
sS'103.2'
p1486
S'HUM'
p1487
sS'84.2'
p1488
S'NUM'
p1489
sS'84.3'
p1490
S'ENTY'
p1491
sS'84.1'
p1492
S'ENTY'
p1493
sS'84.6'
p1494
S'NUM'
p1495
sS'84.7'
p1496
S'ENTY'
p1497
sS'84.4'
p1498
S'LOC'
p1499
sS'84.5'
p1500
S'NUM'
p1501
sS'86.1'
p1502
S'NUM'
p1503
sS'86.2'
p1504
S'DESC'
p1505
sS'86.3'
p1506
S'NUM'
p1507
sS'86.4'
p1508
S'HUM'
p1509
sS'86.5'
p1510
S'HUM'
p1511
sS'86.6'
p1512
g2
sS'31.6'
p1513
S'LOC'
p1514
sS'31.7'
p1515
S'ENTY'
p1516
sS'31.4'
p1517
S'NUM'
p1518
sS'31.5'
p1519
S'ENTY'
p1520
sS'31.2'
p1521
S'LOC'
p1522
sS'31.3'
p1523
S'NUM'
p1524
sS'137.2'
p1525
S'LOC'
p1526
sS'31.1'
p1527
S'HUM'
p1528
sS'31.8'
p1529
S'HUM'
p1530
sS'31.9'
p1531
g2
sS'116.5'
p1532
S'HUM'
p1533
sS'100.3'
p1534
S'NUM'
p1535
sS'105.3'
p1536
S'NUM'
p1537
sS'105.2'
p1538
S'HUM'
p1539
sS'105.1'
p1540
S'LOC'
p1541
sS'105.7'
p1542
g2
sS'105.6'
p1543
S'HUM'
p1544
sS'105.5'
p1545
S'NUM'
p1546
sS'105.4'
p1547
S'NUM'
p1548
sS'4.5'
p1549
S'ENTY'
p1550
sS'4.4'
p1551
S'ENTY'
p1552
sS'4.6'
p1553
g2
sS'4.1'
p1554
S'NUM'
p1555
sS'4.3'
p1556
S'DESC'
p1557
sS'4.2'
p1558
S'NUM'
p1559
sS'107.1'
p1560
S'NUM'
p1561
sS'107.3'
p1562
S'NUM'
p1563
sS'107.2'
p1564
S'NUM'
p1565
sS'107.5'
p1566
S'HUM'
p1567
sS'107.4'
p1568
S'NUM'
p1569
sS'107.7'
p1570
g2
sS'107.6'
p1571
S'NUM'
p1572
sS'98.1'
p1573
S'NUM'
p1574
sS'98.3'
p1575
S'NUM'
p1576
sS'98.2'
p1577
S'LOC'
p1578
sS'98.5'
p1579
S'HUM'
p1580
sS'98.4'
p1581
S'HUM'
p1582
sS'98.6'
p1583
g2
sS'122.3'
p1584
S'LOC'
p1585
sS'78.5'
p1586
S'HUM'
p1587
sS'122.1'
p1588
S'NUM'
p1589
sS'29.4'
p1590
g2
sS'29.1'
p1591
S'DESC'
p1592
sS'29.3'
p1593
S'NUM'
p1594
sS'29.2'
p1595
S'HUM'
p1596
sS'122.4'
p1597
S'NUM'
p1598
sS'78.4'
p1599
S'HUM'
p1600
sS'119.5'
p1601
S'NUM'
p1602
sS'119.6'
p1603
S'HUM'
p1604
sS'119.7'
p1605
g2
sS'119.1'
p1606
S'NUM'
p1607
sS'119.2'
p1608
S'LOC'
p1609
sS'119.3'
p1610
S'ENTY'
p1611
sS'111.4'
p1612
S'HUM'
p1613
sS'111.5'
p1614
S'ABBR'
p1615
sS'111.6'
p1616
g2
sS'111.1'
p1617
S'NUM'
p1618
sS'111.2'
p1619
S'LOC'
p1620
sS'111.3'
p1621
S'HUM'
p1622
sS'116.1'
p1623
S'LOC'
p1624
s.